ARM GAS  C:\Users\Sava\AppData\Local\Temp\ccqTJW0n.s 			page 1


   1              		.syntax unified
   2              		.cpu cortex-m3
   3              		.fpu softvfp
   4              		.eabi_attribute 20, 1
   5              		.eabi_attribute 21, 1
   6              		.eabi_attribute 23, 3
   7              		.eabi_attribute 24, 1
   8              		.eabi_attribute 25, 1
   9              		.eabi_attribute 26, 1
  10              		.eabi_attribute 30, 6
  11              		.eabi_attribute 34, 1
  12              		.eabi_attribute 18, 4
  13              		.thumb
  14              		.syntax unified
  15              		.file	"ili9341.c"
  16              		.text
  17              	.Ltext0:
  18              		.section	.gnu.lto_.inline.15f1333b,"",%progbits
  19 0000 789C6361 		.ascii	"x\234ca`d\000\201\024\010\005\006\034\014\014\374G\200"
  19      60640081 
  19      14080506 
  19      1C0C0CFC 
  19      4780
  20 0012 3413D302 		.ascii	"4\023\323\002y\006\026\006&\220\030\0237\003P%~\222"
  20      79061606 
  20      26901813 
  20      37035025 
  20      7E92
  21 0024 91819517 		.ascii	"\221\201\225\027\213\256\011~L\014\362\226@\216^\303"
  21      8BAE097E 
  21      4C0CF296 
  21      408E5EC3 
  22 0034 7726840C 		.ascii	"w&\204\014\023X\206\233\021\211bf`\343C5\200\231\007"
  22      1358869B 
  22      11896266 
  22      60E34335 
  22      809907
  23 0047 C89FE037 		.ascii	"\310\237\3407\301\217\205\301\362\016H[\\\303;V\204"
  23      C18F85C1 
  23      F20E485B 
  23      5CC33B56 
  23      84
  24 0058 19203B99 		.ascii	"\031 ;\231y\030!J\240\2060r\001\245X\031t^\201T\230"
  24      7918214A 
  24      A0863072 
  24      01A55819 
  24      745E8154 
  25 006d 7C58CA0C 		.ascii	"|X\312\014S\016\226@R\315\000\326\314\000\222\304\302"
  25      530E9640 
  25      52CD00D6 
  25      CC0092C4 
  25      C2
  26 007e 61C3ED16 		.ascii	"a\303\355\026v\006\263/ \303]>,bA\221d\000z\001d>V\003"
  26      7606B32F 
  26      20C35D3E 
  26      2C624191 
  26      64007A01 
ARM GAS  C:\Users\Sava\AppData\Local\Temp\ccqTJW0n.s 			page 2


  27 0096 51380C00 		.ascii	"Q8\014\000\0176\035\224"
  27      0F361D94 
  28              		.text
  29              		.section	.gnu.lto_lcd_start_reset.15f1333b,"",%progbits
  30 0000 789C6361 		.ascii	"x\234ca`d\000\201\007@J\034H\213\2028\314\014\214L\014"
  30      60640081 
  30      07404A1C 
  30      488B8238 
  30      CC0C8C4C 
  31 0015 40CC0892 		.ascii	"@\314\010\222cd\250gb\254g\374\312\364\227\211\361P"
  31      6364A867 
  31      62AC67FC 
  31      CAF49789 
  31      F150
  32 0027 FBB39D4C 		.ascii	"\373\263\235L\232\313\033\200\340\301\322gY\215\015"
  32      9ACB1B80 
  32      E0C1D267 
  32      598D0D
  33 0036 AD12ADCC 		.ascii	"\255\022\255\314\014\014\377\231\300f00.g\324d\000*"
  33      0C0CFF99 
  33      C0663030 
  33      2E67D464 
  33      002A
  34 0048 7BB4F1DF 		.ascii	"{\264\361\337T^\266\026\2202\005\210$\343\012F6\220"
  34      545EB616 
  34      90320588 
  34      24E30A46 
  34      3690
  35 005a 61EB830E 		.ascii	"a\353\203\0164\374\377\337\334p`\253\330\321+b\034\014"
  35      34FCFFDF 
  35      DC7060AB 
  35      D8D12B62 
  35      1C0C
  36 006c 0C1FC05A 		.ascii	"\014\037\300Z?2\001)\346\027\214-\007v\206\201\224\202"
  36      3F320129 
  36      E6178C2D 
  36      07768681 
  36      9482
  37 007e 0CD9B9F3 		.ascii	"\014\331\271\363\315m\366\372\277\015\035\015\015\002"
  37      CD6DF6FA 
  37      BF0D1D0D 
  37      0D02
  38 008c ADCC8CFF 		.ascii	"\255\314\214\377\231\200\372\031W2\326\203\344\266\266"
  38      9980FA19 
  38      5732D683 
  38      E4B6B6
  39 009b 9FD9C8F5 		.ascii	"\237\331\310\365\205\251\225\031\350D\306U\2142\255"
  39      85A99519 
  39      E844C655 
  39      8C32AD
  40 00aa CCCC0C20 		.ascii	"\314\314\014 \335\273\304\260\353f\371\017\262\200q"
  40      DDBBC4B0 
  40      EB66F90F 
  40      B28071
  41 00b9 359A6E56 		.ascii	"5\232nV\240\3565 \335l`\335{p\350\206\332\275\026\242"
  41      A0EE3520 
  41      DD6C60DD 
ARM GAS  C:\Users\Sava\AppData\Local\Temp\ccqTJW0n.s 			page 3


  41      7B70E886 
  41      DABD16A2 
  42 00cd 7B5AEBA1 		.ascii	"{Z\353\241\363\354\020\273\031\030\327!\354\336\207"
  42      F3EC10BB 
  42      1918D721 
  42      ECDE87
  43 00dc DFEEF510 		.ascii	"\337\356\365\020\335g\027\2569\307\006\261\233\213q"
  43      DD6717AE 
  43      39C706B1 
  43      9B8B71
  44 00eb 03C2EE0B 		.ascii	"\003\302\356\013\370\355\336\010\324\215\354\321K\370"
  44      F8EDDE08 
  44      D48DECD1 
  44      4BF8
  45 00f9 2DDB04B1 		.ascii	"-\333\004\261\354\300\3673\263X!\226\375``\334\014\261"
  45      ECC0F733 
  45      B3582196 
  45      FD6060DC 
  45      0CB1
  46 010b ED1563D3 		.ascii	"\355\025c\323\201\253\327\230\300\372A\340\003\310\002"
  46      81ABD798 
  46      C0FA41E0 
  46      03C802
  47 011a A026D19C 		.ascii	"\240&\321\234\262\370\224\242\314\262\324\242\342\230"
  47      B2F894A2 
  47      CCB2D4A2 
  47      E298
  48 0128 CC9C4C4B 		.ascii	"\314\234LKc\023C\275d\006\000}\366\2528"
  48      631343BD 
  48      6406007D 
  48      F6AA38
  49              		.text
  50              		.section	.gnu.lto_ILI9341_send_cmd.15f1333b,"",%progbits
  51 0000 789C254E 		.ascii	"x\234%N=K\003Q\020\334y\357\222\010\"\246\011\011\230"
  51      3D4B0351 
  51      10DC79EF 
  51      920822A6 
  51      090998
  52 0013 C22EA411 		.ascii	"\302.\244\021D\033\377\206\215\215 \222X\234\304&B\332"
  52      441BFF86 
  52      8D8D2092 
  52      589CC426 
  52      42DA
  53 0025 5B931CFA 		.ascii	"[\223\034\372\007\254\324\362\210\237\210X\235\325)"
  53      07ACD4F2 
  53      889F8858 
  53      9DD529
  54 0034 D859092A 		.ascii	"\330Y\011*(~`!\"\012\247(\202\020\317\335\270\360\230"
  54      287E6021 
  54      220AA728 
  54      8210CFDD 
  54      B8F098
  55 0047 DDB733B3 		.ascii	"\335\2673\263\343\020H+-0$\230\323\301\022\014\311\203"
  55      E310482B 
  55      2D302498 
  55      D3C1120C 
  55      C983
ARM GAS  C:\Users\Sava\AppData\Local\Temp\ccqTJW0n.s 			page 4


  56 0059 EE409E81 		.ascii	"\356@\236\201\207/\32358Y~\012M\271\303R\017\301\317"
  56      872FD335 
  56      38597E0A 
  56      4DB9C352 
  56      0FC1CF
  57 006c FC12FB05 		.ascii	"\374\022\373\005\337\022%\246\347A\350\240,\254\323"
  57      DF1225A6 
  57      E741E8A0 
  57      2CACD3
  58 007b E43B1AFC 		.ascii	"\344;\032\3744\276\005Tt\036\237m\364\353h\220\225q"
  58      34BE0554 
  58      741E9F6D 
  58      F4EB6890 
  58      9571
  59 008d FDF02DC8 		.ascii	"\375\360-\310\330\002H\372\217\243\353\313\276R\300"
  59      D80248FA 
  59      8FA3EBCB 
  59      BE52C0
  60 009c DC645E9B 		.ascii	"\334d^\233\345\224o-\266a\305\017[(b\023E\222/\302\016"
  60      E5946F2D 
  60      B661C50F 
  60      5B286213 
  60      45922FC2 
  61 00b1 4A4A7F3C 		.ascii	"JJ\177<\370]\035H\267\365\374\360\377Q\354B\223\323"
  61      F85D1D48 
  61      B7F5FCF0 
  61      FF51EC42 
  61      93D3
  62 00c3 FE64C449 		.ascii	"\376d\304I\322\342\350\"\177|\227w$\271J(\356\005{7"
  62      D2E2E822 
  62      7F7C9777 
  62      24B94A28 
  62      EE057B37 
  63 00d7 02F619ED 		.ascii	"\002\366\031\355\350\366\312\250B\275\302\360\365&\343"
  63      E8F6CAA8 
  63      42BDC2F0 
  63      F526E3
  64 00e6 75798539 		.ascii	"uy\2059\353['1b\203=x\324\262\0225E/hF\367S=\266V\254"
  64      EB5B2731 
  64      62833D78 
  64      D4B21235 
  64      452F6846 
  65 0100 7BB1C9D5 		.ascii	"{\261\311\325\0323\325\272\333\230\253/N\2735wbl|t\244"
  65      1A33D5BA 
  65      DB98AB2F 
  65      4EBB3577 
  65      626C7C74 
  66 0115 42B6B250 		.ascii	"B\266\262P\375\003\332\223_\333"
  66      FD03DA93 
  66      5FDB
  67              		.text
  68              		.section	.gnu.lto_sendStartSequence.15f1333b,"",%progbits
  69 0000 789C8D56 		.ascii	"x\234\215V\355O\024g\020\177f\237\335\275\275;^# \350"
  69      ED4F1467 
  69      107F669F 
  69      DDBDBD3B 
  69      5E2320E8 
ARM GAS  C:\Users\Sava\AppData\Local\Temp\ccqTJW0n.s 			page 5


  70 0014 81572821 		.ascii	"\201W(!\364C_b\2774\361C\377\204\246i\3224i\322\244"
  70      F4435F62 
  70      BF34F143 
  70      FF84A669 
  70      D23469D2 
  71 0029 16130CC1 		.ascii	"\026\023\014\301\204V\222~b\341X\244IcS\243P\032\211"
  71      8456927E 
  71      62E158A4 
  71      496353A3 
  71      501A89
  72 003c 6D0C515B 		.ascii	"m\014Q[\220W\025\244\340\201\274\024\005\024l\245\025"
  72      905715A4 
  72      E081BC14 
  72      05146CA5 
  72      15
  73 004d 30F44534 		.ascii	"0\364E4-\037<\252\322\326\310ufv\357<\357\240a\223{"
  73      2D1F3CAA 
  73      D2D6C875 
  73      6676EF3C 
  73      EFA06193 
  74 0062 769F99DF 		.ascii	"v\237\231\337o\3467s\263\317\235*@\320\265f\010\361"
  74      6FE63773 
  74      B3CF9D2A 
  74      40D0B566 
  74      08F1
  75 0074 02DE0FD0 		.ascii	"\002\336\017\320\306+@\021\370\0017\256RQ\2050\025\015"
  75      C62B4011 
  75      F80137AE 
  75      52518530 
  75      150D
  76 0086 17550584 		.ascii	"\027U\005\204\201\006.\\u^]\212N^\203\274\006\343\335"
  76      81062E5C 
  76      755E5D8A 
  76      4E5E83BC 
  76      06E3DD
  77 0099 8A248B87 		.ascii	"\212$\213\207,\036\240\350 \252\024\251j\272\313p{\240"
  77      2C1EA0E8 
  77      20AA14A9 
  77      6ABACB70 
  77      7BA0
  78 00ab 4ABA857D 		.ascii	"J\272\205}\271\234\373C\345\211\002\303\207\226\373"
  78      B99CFB43 
  78      E58902C3 
  78      8796FB
  79 00ba 94E25326 		.ascii	"\224\342S&^K\326\237\373\253M+\333\3028a\305\306\300"
  79      5E4BD69F 
  79      FBAB4D2B 
  79      DBC23861 
  79      C5C6C0
  80 00cd 292846D4 		.ascii	")(F\324Lm\307q\371@\261$\200\212\333\320\324\227\277"
  80      4C6DC771 
  80      F940B124 
  80      808ADBD0 
  80      D497BF
  81 00e0 A5D05601 		.ascii	"\245\320V\001?n?;\262>\221$\263A\340s\333\305\331\333"
  81      3F6E3F3B 
  81      B23E9124 
ARM GAS  C:\Users\Sava\AppData\Local\Temp\ccqTJW0n.s 			page 6


  81      B341E073 
  81      DBC5D9DB 
  82 00f4 A9452DA6 		.ascii	"\251E-\246Yc\232\003%\246\333\222\022\276\001\211\361"
  82      59639A03 
  82      25A6DB92 
  82      12BE0189 
  82      F1
  83 0105 E00CF8E0 		.ascii	"\340\014\370\3404\370\004\232\004|\013E\210~lV\377\010"
  83      34F8049A 
  83      047C0B45 
  83      887E6C56 
  83      FF08
  84 0117 32979927 		.ascii	"2\227\231'{\177:f8\314\307\314T\2415\236\251\012h\203"
  84      7B7F3A66 
  84      38CCC7CC 
  84      54A1359E 
  84      A90A6883 
  85 012b 2282FFDA 		.ascii	"\"\202\377\332\271~,Y\257%\341~[.\234\305\336\010\221"
  85      B97E2C59 
  85      AF25E17E 
  85      5B2E9CC5 
  85      DE0891
  86 013e 8ECEC6AF 		.ascii	"\216\316\306\257\317\375\355-<I\261\202\241\206\214"
  86      CFFDED2D 
  86      3C49B182 
  86      A1868C
  87 014d A6D3C15A 		.ascii	"\246\323\301Z?\245\215\015\306\345\265C!\302\273\326"
  87      3FA58D0D 
  87      C6E5B543 
  87      21C2BBD6 
  88 015d 87DA341B 		.ascii	"\207\3324\033n\236\275nB5\2025\006\357\366\301\313\016"
  88      6E9EBD6E 
  88      42358235 
  88      06EFF6C1 
  88      CB0E
  89 016f B483A14D 		.ascii	"\264\203\241M\235K!\007\032\\\273\351s\"Cb\344N\206"
  89      9D4B2107 
  89      1A5CBBE9 
  89      73224362 
  89      E44E86
  90 0182 C70831BB 		.ascii	"\307\0101\2730\362&2\272\266.\243;^\206\331\377\373"
  90      30F22632 
  90      BAB62EA3 
  90      3B5E86D9 
  90      FFFB
  91 0194 57607EF2 		.ascii	"W`~\362\272%\365\304\300=\361*\202\2377\026n\336\216"
  91      BA25F5C4 
  91      C03DF12A 
  91      829F3716 
  91      6EDE8E
  92 01a7 735BD771 		.ascii	"s[\327q\236\241\243\341\265`\252=\0304M\263\367'\233"
  92      9EA1A3E1 
  92      B560AA3D 
  92      18344DB3 
  92      F7279B
  93 01ba BDF660A4 		.ascii	"\275\366`\244\341\266~\360\257w\"\"\227P\244\205\"]"
  93      E1B67EF0 
ARM GAS  C:\Users\Sava\AppData\Local\Temp\ccqTJW0n.s 			page 7


  93      AF772222 
  93      9750A485 
  93      225D
  94 01cc 1CA817B3 		.ascii	"\034\250\027\263^\210d\355K\020\3314\347\333\\\344\305"
  94      5E8864ED 
  94      4B10D934 
  94      E7DB5CE4 
  94      C5
  95 01dd AD8BEC4F 		.ascii	"\255\213\354O\210\334=\367\322\346\221\277\333z\344"
  95      88DC3DF7 
  95      D2E691BF 
  95      DB7AE4
  96 01ec 0186C614 		.ascii	"\001\206\306\024x\343\177\012\034dp\313\325\313\203"
  96      78E37F0A 
  96      1C6470CB 
  96      D5CB83
  97 01fb 29F2391E 		.ascii	")\3629\036\366\037\314\23608\222\026\033\2667\231,\311"
  97      F61FCC9E 
  97      30389216 
  97      1BB63799 
  97      2CC9
  98 020d 804BCF0E 		.ascii	"\200K\317\016<\263\203\314\256Y\257\233Qd\001\263\217"
  98      3CB383CC 
  98      AE59AF9B 
  98      516401B3 
  98      8F
  99 021e B6AC1ED6 		.ascii	"\266\254\036\326\035vccn\224=\264\001{\230\331\275\263"
  99      1D766363 
  99      6E943DB4 
  99      017B98D9 
  99      BDB3
 100 0230 0F079265 		.ascii	"\017\007\222e1\263\273\017\337\235\210\344nn\334\025"
 100      31B3BB0F 
 100      DF9D88E4 
 100      6E6EDC15 
 101 0240 655FDE80 		.ascii	"e_\336\200=\002\205\355o\006\315p8`\006\347\263\206"
 101      3D0285ED 
 101      6F06CD70 
 101      386006E7 
 101      B386
 102 0252 06B73F0F 		.ascii	"\006\267?\017,H\341U\362\2522\314\340g<x\360\375\364"
 102      2C48E155 
 102      F2AA32CC 
 102      E0673C78 
 102      F0FDF4
 103 0265 02BDDF49 		.ascii	"\002\275\337I\364\246'\343\242\245\340\002\251\264M"
 103      F4A627E3 
 103      A2A5E002 
 103      A9B44D
 104 0274 A36D3A2E 		.ascii	"\243m:.\3726\306g\2201\223\214Y\270\270\262\331\230"
 104      FA36C667 
 104      9031938C 
 104      59B8B8B2 
 104      D998
 105 0286 43C61D64 		.ascii	"C\306\035d\334\311\372}\234 \227}y\344\333E>?\021\362"
 105      DCC9FA7D 
 105      9C20977D 
ARM GAS  C:\Users\Sava\AppData\Local\Temp\ccqTJW0n.s 			page 8


 105      79E4DB45 
 105      3E3F11F2 
 106 029a D955C02E 		.ascii	"\331U\300.!\356\363\251\025R\360&\227\241\346A\307\334"
 106      21EEF3A9 
 106      1552F026 
 106      97A1E641 
 106      C7DC
 107 02ac 1D2DEEA8 		.ascii	"\035-\356\250` \235\024X\334(\350\001i \240}\245\357"
 107      60209D14 
 107      58DC28E8 
 107      016920A0 
 107      7DA5EF
 108 02bf 9F641A5B 		.ascii	"\237d\032[\003\253\033\343\332Ct\232b\220\300\361\272"
 108      03AB1BE3 
 108      DA43749A 
 108      6290C0F1 
 108      BA
 109 02d0 B1F9376C 		.ascii	"\261\3717lhR@z\00387\030\372_\217mJFv\2035|\315El\311"
 109      6852407A 
 109      03383718 
 109      FA5F8F6D 
 109      4A467683 
 110 02ea ED5D1BBF 		.ascii	"\355]\033\277R\237t\002\232\301\222n\344\3008\305\203"
 110      529F7402 
 110      9AC1926E 
 110      E4C038C5 
 110      83
 111 02fb EFE10488 		.ascii	"\357\341\004\210_\240\366V\240\374)\263\325\372\271"
 111      5FA0F656 
 111      A0FC29B3 
 111      D5FAB9
 112 030a D64D4C0D 		.ascii	"\326ML\015\026\001&\234\246\207\350\340\247\324\015"
 112      1601269C 
 112      A687E8E0 
 112      A7D40D
 113 0319 75B7E72B 		.ascii	"u\267\347+lt\012\346\245\331#A\272mJe5)\261j\322\022"
 113      6C740AE6 
 113      A5D92341 
 113      BA6D4A65 
 113      3529B16A 
 114 032f D2A73AE9 		.ascii	"\322\247:\351\257PzD\256\036Z\001\033\233\216pq\017"
 114      AF507A44 
 114      AE1E5A01 
 114      1B9B8E70 
 114      710F
 115 0341 54DA91EC 		.ascii	"T\332\221\354\276\276\225yW\325\023\263\3364\323,\351"
 115      BEBE9579 
 115      57D513B3 
 115      DE34D32C 
 115      E9
 116 0352 092B7894 		.ascii	"\011+x\224\302U\250\022\010\265\244W\260\236\345\371"
 116      C255A812 
 116      08B5A457 
 116      B09EE5F9 
 117 0362 3D367B1B 		.ascii	"=6{\033\352AR\317\310x\235a7\016`\322i\234\026m\334"
 117      EA4152CF 
 117      C8789D61 
ARM GAS  C:\Users\Sava\AppData\Local\Temp\ccqTJW0n.s 			page 9


 117      370E60D2 
 117      699C166D 
 118 0377 C251886F 		.ascii	"\302Q\210o\3770\265\177\224\333?E\2012\236\351)\233"
 118      FF30B57F 
 118      94DB3F45 
 118      81329EE9 
 118      299B
 119 0389 3213AAC8 		.ascii	"2\023\252\310p\252\230\216\255\202\261Y\010\347*\246"
 119      70AA988E 
 119      AD82B159 
 119      08E72AA6 
 120 0399 36AA2229 		.ascii	"6\252\")L\243\000\327\270\212,\013\207\221\253\270\271"
 120      4CA300D7 
 120      B88A2C0B 
 120      8791ABB8 
 120      B9
 121 03aa B0C76667 		.ascii	"\260\307fgSWI6\313]^\250\260\3159\254);V\323\216\004"
 121      53574936 
 121      CB5D5EA8 
 121      B0CD39AC 
 121      293B56D3 
 122 03c0 4D398EA6 		.ascii	"M9\216\246\353QM\013\212\215\335\211p\301\343w\367\216"
 122      EB514D0B 
 122      8A8DDD89 
 122      70C1E377 
 122      F78E
 123 03d2 2BBEFE11 		.ascii	"+\276\376\021\252\177\212\353\237!\260/:oz\344K\037"
 123      AA7F8AEB 
 123      9F21B02F 
 123      3A6F7AE4 
 123      4B1F
 124 03e4 5B7CCBF6 		.ascii	"[|\313\366\345\006$<\2257\2758\010\266=\217\365\345"
 124      E506243C 
 124      9537BD38 
 124      08B63D8F 
 124      F5E5
 125 03f6 3AFAD8B4 		.ascii	":\372\330\264+A_\236\243o6\252oR\261\261~\204s\317f"
 125      2B415F9E 
 125      A36F36AA 
 125      6F52B1B1 
 125      7E8473CF 
 126 040b 36E9194E 		.ascii	"6\351\031N>\334\340\236\371\243={\264p\336\311\236\037"
 126      3EDCE09E 
 126      F9A33D7B 
 126      B470DEC9 
 126      9E1F
 127 041d C01FE6C8 		.ascii	"\300\037\346\310w\215\377%$N\365t\240\322v\252X>\315"
 127      778DFF25 
 127      244EF574 
 127      A0D276AA 
 127      583ECD
 128 0430 F02A0076 		.ascii	"\360*\000vPk\355\373\030\205\352\237\366\237\201U@\237"
 128      506BEDFB 
 128      1885EA9F 
 128      F69F8155 
 128      409F
 129 0442 4FC3370D 		.ascii	"O\3037\015=\371z\257\027\331F\244\344G\267\2168cY\020"
ARM GAS  C:\Users\Sava\AppData\Local\Temp\ccqTJW0n.s 			page 10


 129      3DF97AAF 
 129      17D946A4 
 129      E447B78E 
 129      38635910 
 130 0456 C0DF0E8E 		.ascii	"\300\337\016\216\276\012\012\316\231:y\001C\200\013"
 130      BE0A0ACE 
 130      993A7901 
 130      43800B
 131 0465 10EE8E24 		.ascii	"\020\356\216$\353o\323l\264\014H\217\235\016\237\014"
 131      EB6FD36C 
 131      B40C488F 
 131      9D0E9F0C 
 132 0475 E59E8601 		.ascii	"\345\236\206\001\214/\334\210E\263\374\003j\202\227"
 132      8C2FDC88 
 132      45B3FC03 
 132      6A8297
 133 0484 DEB65F76 		.ascii	"\336\266_vA\247\003\2164\316CfY\345{\037T\224V\226T"
 133      41A7038E 
 133      34CE4366 
 133      59E57B1F 
 133      54945696 
 134 0499 7CF86E69 		.ascii	"|\370niY\351k\273_}\345\305\275B}\377\340\276}\262\254"
 134      59E96BBB 
 134      5F7DE5C5 
 134      BD427DFF 
 134      E0BE7DB2 
 135 04ae A41C4AB5 		.ascii	"\244\034J\265\275\007\016\226\177\004\373\377\003o\330"
 135      BD070E96 
 135      7F04FBFF 
 135      036FD8
 136 04bd CC33     		.ascii	"\3143"
 137              		.text
 138              		.section	.gnu.lto_ILI9341_send_data.15f1333b,"",%progbits
 139 0000 789C5D50 		.ascii	"x\234]P\317+DQ\024>\337=o\336\240\310FfA\315\202&%%"
 139      CF2B4451 
 139      143EDF3D 
 139      6FDEA0C8 
 139      466641CD 
 140 0018 36FE0D1B 		.ascii	"6\376\015\033\033%11\232,\220\355\\3\363\242\330a\201"
 140      1B253131 
 140      9A2C90ED 
 140      5C33F3A2 
 140      D86181
 141 002b B1D2E4B7 		.ascii	"\261\322\344\267a9e\361\260\220\205\205\005\026\024"
 141      613965F1 
 141      B0908585 
 141      051614
 142 003a 5148167E 		.ascii	"QH\026~/\324\314s\356c\303\251\333\271\337=\337\367"
 142      2FD4CC73 
 142      EE63C3A9 
 142      DBB9DF3D 
 142      DFF7
 143 004c 9D73AE45 		.ascii	"\235s\256E \023\013\222\032%W\031\300\004Er`j\240\204"
 143      20130B92 
 143      1A255719 
 143      C0044572 
 143      606AA084 
ARM GAS  C:\Users\Sava\AppData\Local\Temp\ccqTJW0n.s 			page 11


 144 0060 42021FAA 		.ascii	"B\002\037\252\240\260?~\227W\015\313Z\342:[\034\030"
 144      A0B03F7E 
 144      97570DCB 
 144      5AE23A5B 
 144      1C18
 145 0072 D34EC861 		.ascii	"\323N\310a\"O\371\036\204e4\010\353$\275\235\341w\345"
 145      224FF91E 
 145      84653408 
 145      EB24BD9D 
 145      E177E5
 146 0085 3060097C 		.ascii	"0`\011|9\236\277\2550P!,p\375\363p\027\034\002\311\275"
 146      399EBFAD 
 146      3050212C 
 146      70FDF370 
 146      171C02C9 
 147 009a B0777FAA 		.ascii	"\260w\177\252\"Y\255\223Z/Fu\251\303\2145\260\370a\025"
 147      2259AD93 
 147      5A2F4675 
 147      A9C38C35 
 147      B0F86115 
 148 00ae 3558410D 		.ascii	"5XA\015\311\023a\035\021a_N\275\211\262\326W\236\035"
 148      C913611D 
 148      11615F4E 
 148      BD89B2D6 
 148      579E1D
 149 00c1 7DCD94FD 		.ascii	"}\315\224\375*\317}\245\205\215\377J\213\260\211\210"
 149      2ACF7DA5 
 149      858DFF4A 
 149      8BB08988 
 150 00d1 A1DFEC14 		.ascii	"\241\337\354\024g\313\355\264\031<\3743.\266`\313z\220"
 150      67CBEDB4 
 150      193CFC33 
 150      2EB660CB 
 150      7A90
 151 00e3 E2E4C192 		.ascii	"\342\344\301\222\016r\235\357\353\3442\323\\\277d\210"
 151      0E729DEF 
 151      EBE432D3 
 151      5CBF6488 
 152 00f3 6EE15CCD 		.ascii	"n\341\\\315\255\270\351\260\303\001\344\376z\373\333"
 152      ADB8E9B0 
 152      C301E4FE 
 152      7AFBDB
 153 0102 6EA33ED7 		.ascii	"n\243>\327\356j\317Ki\367\243z\257Xm\003\246\241\222"
 153      EE6ACF4B 
 153      69F7A37A 
 153      AF586D03 
 153      A6A192
 154 0115 D6010B66 		.ascii	"\326\001\013fj\242g\377o^\224$\276C\362u\374\363\252"
 154      6AA267FF 
 154      6F5E9424 
 154      BE43F275 
 154      FCF3AA
 155 0128 CCF44EB1 		.ascii	"\314\364N\261J1\350\001\001\203L\353|\376\351\"\230"
 155      4A31E801 
 155      01834CEB 
 155      7CFEE922 
 155      98
ARM GAS  C:\Users\Sava\AppData\Local\Temp\ccqTJW0n.s 			page 12


 156 0139 28E809AD 		.ascii	"(\350\011\255+\035\266=e\306\333A\202Rl\011\333\341"
 156      2B1DB63D 
 156      65C6DB41 
 156      82526C09 
 156      DBE1
 157 014b 203D22E9 		.ascii	" =\"\351z\035\276\300\304\263\241\210qU|\264\253w(6"
 157      7A1DBEC0 
 157      C4B3A188 
 157      71557CB4 
 157      AB772836 
 158 015f 1A1D1AEE 		.ascii	"\032\035\032\356\214\305cm-\255\315M=d\365v\217t\333"
 158      8CC5636D 
 158      2DADCD4D 
 158      3D64F576 
 158      8F74DB
 159 0172 F1E860DF 		.ascii	"\361\350`\337H\177\311Ojj\371\006\003I\222Q"
 159      487FC94F 
 159      6A6AF906 
 159      03499251 
 160              		.text
 161              		.section	.gnu.lto_ILI9341_init.15f1333b,"",%progbits
 162 0000 789CA558 		.ascii	"x\234\245X\333S\024\331\031\357\257{\246\007\206\231"
 162      DB5314D9 
 162      19EFAF7B 
 162      A6078699 
 163 0010 4177D7C4 		.ascii	"Aw\327\304J\221\212/\256\242[\\\226x\255M\345\037H\345"
 163      4A918A2F 
 163      AEA25B5C 
 163      9678AD4D 
 163      E51F48E5 
 164 0024 216F5B49 		.ascii	"!o[I\312\252\270y\240\312\344A\267\314\243\015\314\000"
 164      CAAAB879 
 164      A0CAE441 
 164      B7CCA30D 
 164      CC00
 165 0036 A24B948B 		.ascii	"\242K\224\213\200\200,\010\202\334/r\031\2745  ,\240"
 165      80802C08 
 165      82DC2F72 
 165      19BC3520 
 165      202CA0
 166 0049 C2AA4B40 		.ascii	"\302\252K@\027\274-\262\"W\301\3456\371\3169\315\241"
 166      17BC2DB2 
 166      2257C1E5 
 166      36F9CE39 
 166      CDA1
 167 005b A7071361 		.ascii	"\247\007\023a\273\2123sN\177\347\367\373~\277\363\235"
 167      BB8A3373 
 167      4E7FE7F7 
 167      FB7EBFF3 
 167      9D
 168 006c 43F79804 		.ascii	"C\367\230\004\020\310\325\376\221 \204\342\347\037H"
 168      10C8D5FE 
 168      912084E2 
 168      E71F48
 169 007b C74F0051 		.ascii	"\307O\000Q\300?\220\261\225D\223 (\242\031\033\223\011"
 169      C03F90B1 
 169      95449320 
ARM GAS  C:\Users\Sava\AppData\Local\Temp\ccqTJW0n.s 			page 13


 169      28A2191B 
 169      9309
 170 008d F003CC74 		.ascii	"\360\003\314t\\\026%2n!\343\026 ( \234\020%\223Y\266"
 170      5C162532 
 170      6E21E316 
 170      2028209C 
 170      10259359 
 171 00a2 C0095116 		.ascii	"\300\011Q\026\330\365F\\\022\2419\356\205[\014.T\360"
 171      D8F5465C 
 171      12A139EE 
 171      855B0C2E 
 171      54F0
 172 00b4 1A2AC83B 		.ascii	"\032*\310;\240\024\251\340\302\311\036\221\305@!\004"
 172      A014A9E0 
 172      C2C91E91 
 172      C5402104 
 173 00c4 0B18D6EA 		.ascii	"\013\030\326\352\231S\003gD\227\004@f\365Nte\007\220"
 173      99530367 
 173      44970440 
 173      66F54E74 
 173      650790
 174 00d7 AE089BB0 		.ascii	"\256\010\233\260\233U3V`\221\266\002\211l\251\353\254"
 174      9B553356 
 174      6091B602 
 174      896CA9EB 
 174      AC
 175 00e8 F6DB7E51 		.ascii	"\366\333~QQ\242\0255\243\307\236\256\250\321\333\\\222"
 175      51A21535 
 175      A3C79EAE 
 175      A8D1DB5C 
 175      92
 176 00f9 04C52021 		.ascii	"\004\305 !(\\\206 (\202 \012\216\321\265u\256$\007\303"
 176      285C8620 
 176      2882200A 
 176      8ED1B575 
 176      AE2407C3 
 177 010d 4D24C0A5 		.ascii	"M$\300\245\011\367\372\314\014x\202 \253\213\305?9\244"
 177      09F7FACC 
 177      0C788220 
 177      AB8BC53F 
 177      39A4
 178 011f 208A1C75 		.ascii	" \212\034u\272\374\222\003\221UEQ\323\022\266D)j\024"
 178      BAFC9203 
 178      91554551 
 178      D312B644 
 178      296A14
 179 0132 229BA09C 		.ascii	"\"\233\240\234!\227!r\351*\362\223\252\345T\273\354"
 179      21972172 
 179      E92AF293 
 179      AAE554BB 
 179      EC
 180 0143 24C2B641 		.ascii	"$\302\266A\005l\207\022\330\316dA%\310\350\311f\014"
 180      056C8712 
 180      D8CE6441 
 180      25C8E8C9 
 180      660C
 181 0155 BAE7ACCC 		.ascii	"\272\347\254\314\222\030\275\011\273\223\335\347\237"
ARM GAS  C:\Users\Sava\AppData\Local\Temp\ccqTJW0n.s 			page 14


 181      9218BD09 
 181      BB93DDE7 
 181      9F
 182 0162 3A18FB36 		.ascii	":\030\3736\354\216U5e\333\211\024$\314N\334\221Q\244"
 182      EC8E5535 
 182      65DB8914 
 182      24CC4EDC 
 182      9151A4
 183 0175 3A91D04C 		.ascii	":\221\320LP\240\032\331\25246\250\201\355\030^\275\334"
 183      50A01AD9 
 183      AA3436A8 
 183      81ED185E 
 183      BDDC
 184 0187 546666CA 		.ascii	"Tff\312\225\362\273\012\220\354d\032\034\021\004aZ\350"
 184      95F2BB0A 
 184      90EC641A 
 184      1C110461 
 184      5AE8
 185 0199 151A1A7F 		.ascii	"\025\032\032\177c\372s-2.\326Z\244\230\\\222E0\332\003"
 185      63FA732D 
 185      322ED65A 
 185      A4985C92 
 185      4530DA03 
 186 01ad B534569F 		.ascii	"\2654V\237EN\317\377\310\242\216\206\247\345\326\276"
 186      454ECFFF 
 186      C8A28E86 
 186      A7E5D6BE 
 187 01bd 0DD0B00B 		.ascii	"\015\320\260\013c\255\267\011\266\237op\275\021[9\333"
 187      63ADB709 
 187      B69F6F70 
 187      BD115B39 
 187      DB
 188 01ce 664B3813 		.ascii	"fK8\023\345\267&t\303\373\013t\323\320\214\252\241I"
 188      E5B72674 
 188      C3FB0B74 
 188      D3D08CAA 
 188      A149
 189 01e0 B3210B7F 		.ascii	"\263!\013\177_\334F\237\340j\304%\372\326\010\276\352"
 189      5FDC469F 
 189      E06AC425 
 189      FAD608BE 
 189      EA
 190 01f1 6347554F 		.ascii	"cGUO\320\273\355\270\366\3769_\247\241)\025\337\267"
 190      D0BBEDB8 
 190      F6FE395F 
 190      A7A12915 
 190      DFB7
 191 0203 0468668C 		.ascii	"\004hf\214\273\254\351$g\2531\364\006\015\275\230\033"
 191      BBACE924 
 191      67AB31F4 
 191      060DBD98 
 191      1B
 192 0214 DB274BBB 		.ascii	"\333'K\273hY:\027:\006\002\265\202\257O\224\322\213"
 192      68593A17 
 192      3A0602B5 
 192      82AF4F94 
 192      D28B
ARM GAS  C:\Users\Sava\AppData\Local\Temp\ccqTJW0n.s 			page 15


 193 0226 68C15BE0 		.ascii	"h\301[\340\246o\301\203\352#!\263\347\327\357\226\320"
 193      A66FC183 
 193      EA2321B3 
 193      E7D7EF96 
 193      D0
 194 0237 F4FE129A 		.ascii	"\364\376\022\232\261\302\265*\257\370\223\252x<1\212"
 194      B1C2B52A 
 194      AFF893AA 
 194      783C318A 
 195 0247 9A6A6DEA 		.ascii	"\232jm\352u|\006\002\031\334A\333\235\002\362\004c#"
 195      757C0602 
 195      19DC41DB 
 195      9D02F204 
 195      6323
 196 0259 EF22DF76 		.ascii	"\357\"\337v\223o\237`c\011!\335Pl\374\302\310\267pr"
 196      936F9F60 
 196      630921DD 
 196      506CFCC2 
 196      C8B77072 
 197 026d E3536CFC 		.ascii	"\343Sl\374#H\263\207\214\355%c\373\260\261\036 3\016"
 197      2348B387 
 197      8CED2563 
 197      FBB0B11E 
 197      20330E
 198 0280 52404198 		.ascii	"R@A\230\240'\305\244\210\037\322\013\210\036\234l\315"
 198      A027C5A4 
 198      881FD20B 
 198      881E9C6C 
 198      CD
 199 0291 33D31D56 		.ascii	"3\323\035VA\223\357\034\352~\000\373\353\224x\262U\005"
 199      4193EF1C 
 199      EA7E00FB 
 199      EB9478B2 
 199      5505
 200 02a3 6881FD02 		.ascii	"h\201\375\002F}I\"\210\023g\177\210\226\303+\210\023"
 200      467D4922 
 200      8813677F 
 200      8896C32B 
 200      8813
 201 02b5 9B5C5200 		.ascii	"\233\\R\000U\020\032\244\355\340^\367\255L\377\3202"
 201      55101AA4 
 201      EDE05EF7 
 201      AD4CFFD0 
 201      32
 202 02c6 EDA60D6E 		.ascii	"\355\246\015nA\3702%\203V\010\305\373Wn\265\307\372"
 202      41F83225 
 202      835608C5 
 202      FB576EB5 
 202      C7FA
 203 02d8 91DD2A03 		.ascii	"\221\335*\003@\033z\366\177\200\303\336\005\334\316"
 203      401B7AF6 
 203      7F80C3DE 
 203      05DCCE
 204 02e7 816F53E0 		.ascii	"\201oS\340\314\351G/\375\031\360N\350\360\006>}\245"
 204      CCE9472F 
 204      FD19F04E 
 204      E8F0063E 
ARM GAS  C:\Users\Sava\AppData\Local\Temp\ccqTJW0n.s 			page 16


 204      7DA5
 205 02f9 FEB4D500 		.ascii	"\376\264\325\000\254-/\336\235S\3222d\035r'G\376\206"
 205      AC2D2FDE 
 205      9D53D232 
 205      641D7227 
 205      47FE86
 206 030c 22D7F4BF 		.ascii	"\"\327\364\277}hb\310\007\241k\343\310v\350&\310\300"
 206      7D6862C8 
 206      07A16BE3 
 206      C876E826 
 206      C8C0
 207 031e EE5D70DD 		.ascii	"\356]p\335.q\360\2312\364@\250\346\"\334\201p\014\030"
 207      2E71F099 
 207      32F440A8 
 207      E622DC81 
 207      700C18
 208 0331 2E484ED1 		.ascii	".HN\321\004\335\027\340\356\317Qt\217\360\322S\264\027"
 208      04DD17E0 
 208      EECF5174 
 208      8FF0D253 
 208      B417
 209 0343 590CAE37 		.ascii	"Y\014\2567OU\026\332\330q*\021\265\303\263O\315\006"
 209      4F5516DA 
 209      D8712A11 
 209      B5C3B34F 
 209      CD06
 210 0355 E43E8E7C 		.ascii	"\344>\216|r\366z\233\237\016\371[\356\325}\352\325\343"
 210      72F67A9B 
 210      9F0EF95B 
 210      EED57DEA 
 210      D5E3
 211 0367 D4F95E33 		.ascii	"\324\371^3Kz/<\360&Z\017\262\035\036\352\274\032\032"
 211      4B7A2F3C 
 211      F0265A0F 
 211      B21D1EEA 
 211      BC1A1A
 212 037a ED4937EB 		.ascii	"\355I7\353\274\372n\325\253~\352\325\251\326\3326\211"
 212      BCFA6ED5 
 212      AB7EEAD5 
 212      A9D6DA36 
 212      89
 213 038b D1DE16E0 		.ascii	"\321\336\026\340?\033\347\265\301\000\367j\320\327\253"
 213      3F1BE7B5 
 213      C100F76A 
 213      D0D7AB
 214 039a C61BF9BF 		.ascii	"\306\033\371\2773 Uq$%%\276C\217\364\210{\363\230z3"
 214      33205571 
 214      242525BE 
 214      438FF488 
 214      7BF3987A 
 215 03af 7B26EA2B 		.ascii	"{&\352+-\311\217\341\373\015\003\333aHgM\307Ig9\350"
 215      2DC98FE1 
 215      FB0D03DB 
 215      6148674D 
 215      C7496739 
 216 03c4 AC195EB5 		.ascii	"\254\031^\265\346\011\204\377\254\374\237r'\236\371"
 216      E60984FF 
ARM GAS  C:\Users\Sava\AppData\Local\Temp\ccqTJW0n.s 			page 17


 216      ACFC9F72 
 216      279EF9
 217 03d3 3AD191DF 		.ascii	":\321\221\337\270\250U\215\031\273\317[[;\301\200\374"
 217      B8A8558D 
 217      19BBCF5B 
 217      5B3BC180 
 217      FC
 218 03e4 9C23BF6C 		.ascii	"\234#\277l(\035\225t\310/\2703?Pg\342\333\037\337\007"
 218      281D9574 
 218      C82FB833 
 218      3F5067E2 
 218      DB1FDF07 
 219 03f8 E6CC6618 		.ascii	"\346\314f\030\361&z\266P\326\250=l\220n\332B\223\315"
 219      F1267AB6 
 219      50D6A83D 
 219      6C906EDA 
 219      4293CD
 220 040b C0F392F3 		.ascii	"\300\363\222\363\214\325?|\015:\236Q\316\363#\345\231"
 220      8CD53F7C 
 220      0D3A9E51 
 220      CEF323E5 
 220      99
 221 041c 773FCAD3 		.ascii	"w?\312\323vr0\274\362\346\231Ip\315iO\025\026\354VF"
 221      767230BC 
 221      F2E69949 
 221      70CD694F 
 221      1516EC56 
 222 0431 47F7380C 		.ascii	"G\3678\014Dc\234H}4^\034\240#z\315\211\306\321*C\335"
 222      44639C48 
 222      7D345E1C 
 222      A0237ACD 
 222      89C6D12A 
 223 0447 AF0F6A82 		.ascii	"\257\017j\202\273>\351\353\372\371\2533\235f\226\244"
 223      BB3EE9EB 
 223      FAF9AB33 
 223      9D6696A4 
 224 0457 1FD9BA51 		.ascii	"\037\331\272Qc\363\222\001y\212#\3178\357{\314:\344"
 224      63F39201 
 224      798A23CF 
 224      38EF7BCC 
 224      3AE4
 225 0469 699EE40C 		.ascii	"i\236\344\014u\243\360^\312\251@\346\306.xc8\024\326"
 225      75A3F05E 
 225      CAA940E6 
 225      C62E7863 
 225      3814D6
 226 047c 816C8759 		.ascii	"\201l\207Y]A^j{p3@W\220s\250B;\231\340\255oE\256\217"
 226      5D415E6A 
 226      7B703340 
 226      579073A8 
 226      423B99E0 
 227 0495 E8271D51 		.ascii	"\350'\035Q\213'9\307\242#\232G\"m[\303\002=\025\236"
 227      8B2739C7 
 227      A2239A47 
 227      226D5BC3 
 227      023D159E 
 228 04a9 C4242936 		.ascii	"\304$)6&\360\367\260\270q^\033,\361EY\246\326\361GP"
ARM GAS  C:\Users\Sava\AppData\Local\Temp\ccqTJW0n.s 			page 18


 228      26F0F7B0 
 228      B8715E1B 
 228      2CF14559 
 228      A6D6F147 
 229 04be 194CE0F1 		.ascii	"\031L\340\361F.\251+h\004\266F\376\330}3\341j\0104\020"
 229      462EA92B 
 229      6804B646 
 229      FED87D33 
 229      E16A0834 
 230 04d3 29E20A51 		.ascii	")\342\012Q\2163\261\302\241#\212\022W\326(Z$D\355\323"
 230      8E33B1C2 
 230      A1238A12 
 230      57D6285A 
 230      2444EDD3 
 231 04e7 237DDA3F 		.ascii	"#}\332?\201\335\020#z\021\255\007\331\016Nq\325:\317"
 231      81DD1023 
 231      7A11AD07 
 231      D90E4E71 
 231      D53ACF
 232 04fa F3FC0756 		.ascii	"\363\374\007V\235u.q\325\272X\221X\367]Ur\245v\216\217"
 232      9D752E71 
 232      D5BA5891 
 232      58F75D55 
 232      72A5768E 
 233 050f 03C46D9C 		.ascii	"\003\304m\234\330\006\361\342\212w'\221\306`\326\322"
 233      D806F1E2 
 233      8A772791 
 233      C660D6D2 
 234 051f C4DD25ED 		.ascii	"\304\335%\355\030\261b\327\255\016\030O\352\004\016"
 234      18B162D7 
 234      AD0E184F 
 234      EA040E
 235 052e DCFB7566 		.ascii	"\334\373uf\237E\007|\212{u\232z\225\364\343\370\035"
 235      9F45077C 
 235      8A7B759A 
 235      7A95F4E3 
 235      F81D
 236 0540 0BCB3902 		.ascii	"\013\3139\002\276\362Ny\035\300v|\251Y\265J]\254\235"
 236      BEF24E79 
 236      1DC0767C 
 236      A959B54A 
 236      5DAC9D
 237 0553 D297F3BF 		.ascii	"\322\227\363\277\305\325r>#\372\224\363\272x\316\352"
 237      C5D5723E 
 237      23FA94F3 
 237      BA78CEEA 
 238 0563 78CAE6FB 		.ascii	"x\312\346\373u\236\312\220\244[\222d\272$\365\257K\352"
 238      759ECA90 
 238      A45B9264 
 238      BA24F5AF 
 238      4BEA
 239 0575 ED4C9E2A 		.ascii	"\355L\236*@\312\206\365\331 \225\257\3109j\034?be|\002"
 239      40CA86F5 
 239      D92095AF 
 239      C8396A1C 
 239      3F62657C 
 240 058a 4CF3067E 		.ascii	"L\363\006~\330\357tk\325\034\200\335\313-\217\207\214"
ARM GAS  C:\Users\Sava\AppData\Local\Temp\ccqTJW0n.s 			page 19


 240      D8EF746B 
 240      D51C80DD 
 240      CB2D8F87 
 240      8C
 241 059b DB269D13 		.ascii	"\333&\235\023}\323\033W\251\3376\031|\205\316S\242\346"
 241      7DD31B57 
 241      A9DF3619 
 241      7C85CE53 
 241      A2E6
 242 05ad 81EBF15A 		.ascii	"\201\353\361ZU\355\203Lo\242\365!gq\011\331\024\231"
 242      55ED834C 
 242      6FA2F521 
 242      677109D9 
 242      1499
 243 05bf BFEACAF8 		.ascii	"\277\352\312\370\226}\301\033ya$\245_\223`\303\356T"
 243      967DC11B 
 243      796124A5 
 243      5F9360C3 
 243      EE54
 244 05d1 4DC349BB 		.ascii	"M\303I\273\201(\207\023\335T\317\324YuD_s\011\271\224"
 244      81288713 
 244      DD54CFD4 
 244      5975445F 
 244      7309B994 
 245 05e5 68C61D3B 		.ascii	"h\306\035;\257y\365!\344y\023\255\017\371\"\227\220"
 245      AF79F521 
 245      E47913AD 
 245      0FF92297 
 245      90
 246 05f6 2FFA1CF4 		.ascii	"/\372\034\364\027G\335-\332Ao'\333d\244\261\304\270"
 246      1747DD2D 
 246      DA416F27 
 246      DB64A4B1 
 246      C4B8
 247 0608 BE051CF9 		.ascii	"\276\005\034\371M\236\247[\377h|\211\347\\Hs\346o\310"
 247      4D9EA75B 
 247      FF687C89 
 247      E75C4873 
 247      E66FC8
 248 061b 326C8322 		.ascii	"2l\203\"\357\234\227\006\243\226EF\344 \253\0205\037"
 248      EF9C9706 
 248      A3964546 
 248      E420AB10 
 248      351F
 249 062d 6D31105D 		.ascii	"m1\020]\346De]\271\361\372\377\257\305\\B\011%\252p"
 249      E644655D 
 249      B9F1FAFF 
 249      AFC55C42 
 249      0925AA70 
 250 0641 3DBBAC3D 		.ascii	"=\273\254=\334{\000Jq\336\010\304\250\311\177$\\d\276"
 250      DC7B004A 
 250      71DE08C4 
 250      A8C97F24 
 250      5C64BE
 251 0654 DBFD6AC0 		.ascii	"\333\375j\300rbI\211\247\363\035\036R\374P&\236\300"
 251      72624989 
 251      A7F31D1E 
ARM GAS  C:\Users\Sava\AppData\Local\Temp\ccqTJW0n.s 			page 20


 251      52FC5026 
 251      9EC0
 252 0666 57934092 		.ascii	"W\223@\222\324Le[\215D\202c\244\035\030~\316\325\314"
 252      D44C655B 
 252      8D448263 
 252      A41D187E 
 252      CED5CC
 253 0679 36B484AF 		.ascii	"6\264\204\257C\3454\213I\362#\011ye\231\212\233m\310"
 253      43E5348B 
 253      49F22309 
 253      7965998A 
 253      9B6DC8
 254 068c 0216BB2B 		.ascii	"\002\026\273+\006\003p\254Q\353\357&\373\266.\277Os"
 254      060370AC 
 254      51EBEF26 
 254      FBB62EBF 
 254      4F73
 255 069e 4C490697 		.ascii	"LI\006\227\264\211H\301PMIi\326@\235\215)Q\262\201h"
 255      B48948C1 
 255      504D4969 
 255      D6409D8D 
 255      2951B281 
 256 06b3 A9E0A655 		.ascii	"\251\340\246U\212\241\002e\010bp\237 \"\0121\255\255"
 256      8AA10265 
 256      0862709F 
 256      20220A31 
 256      ADAD
 257 06c5 62B38738 		.ascii	"b\263\2078\000U\250\002C]\322\007l\356r\303\005-\233"
 257      0055A802 
 257      435DD207 
 257      6CEE72C3 
 257      052D9B
 258 06d8 102DBBF9 		.ascii	"\020-\273\371\270W\"\033\0115\344\227\272\232_\310\032"
 258      B857221B 
 258      0935E497 
 258      BA9A5FC8 
 258      1A
 259 06e9 F9E50039 		.ascii	"\371\345\0009,\252u\207E\305`S\271\0253 \327\237\361"
 259      2CAA7587 
 259      45C56053 
 259      B9153320 
 259      D79FF1
 260 06fc F50F6A30 		.ascii	"\365\017j0e\001\256`\016\224\374\326VF\024f0&\334@<"
 260      6501AE60 
 260      0E94FCD6 
 260      56461466 
 260      3026DC40 
 261 0711 B74A1CB6 		.ascii	"\267J\034\266\006\361Y\231\030S\313\027\271\316`\314"
 261      06F15999 
 261      1853CB17 
 261      B9CE60CC 
 262 0721 A7888803 		.ascii	"\247\210\210\0031\2132\353G\340\020B\\Ss\357\320\332"
 262      318B32EB 
 262      47E01042 
 262      5C5373EF 
 262      D0DA
 263 0733 FD107E03 		.ascii	"\375\020~\003\365\264\010\314k{\367\221\207,'4P\357"
ARM GAS  C:\Users\Sava\AppData\Local\Temp\ccqTJW0n.s 			page 21


 263      F5B408CC 
 263      6B7BF791 
 263      872C2734 
 263      50EF
 264 0745 4211C025 		.ascii	"B\021\300%ma\014m\356\243\014s\217A\302^\203\204\317"
 264      6D610C6D 
 264      EEA30C73 
 264      8F41C25E 
 264      8384CF
 265 0758 B9823D6B 		.ascii	"\271\202=k(8F\004\270\271\200\306\025\001\2371\260}"
 265      28384604 
 265      B8B980C6 
 265      15019F31 
 265      B07D
 266 076a 88270C83 		.ascii	"\210'\014\203\263'\346W\332\200\276\352\254XuWY\355"
 266      B327E657 
 266      DA80BEEA 
 266      AC587557 
 266      59ED
 267 077c 63DD99B0 		.ascii	"c\335\231\260\356F\300\251\326$\212k\213\371\205\207"
 267      EE46C0A9 
 267      D6248A6B 
 267      8BF98587 
 268 078c C4C03514 		.ascii	"\304\3005\024C\236\264\213[\206M\314\204g\002\\\027"
 268      439EB48B 
 268      5B864DCC 
 268      8467025C 
 268      17
 269 079d 835CD22F 		.ascii	"\203\\\322/)\216\231\325\357\271\311\356\303\214\363"
 269      298E99D5 
 269      EFB9C9EE 
 269      C38CF3
 270 07ac 00531873 		.ascii	"\000S\030sNs\361 \016!@m\\W\225\225\025?\300\015\255"
 270      4E73F120 
 270      0E21406D 
 270      5C579595 
 270      153FC00D 
 271 07c1 F8E595E2 		.ascii	"\370\345\225\342\177\335p\234E\3574\370\023l\360"
 271      7FDD709C 
 271      45EF34F8 
 271      136CF0
 272 07d0 E7AFDC9F 		.ascii	"\347\257\334\237\235k\370\363/\342\317M\356\217\212"
 272      9D6BF8F3 
 272      2FE2CF4D 
 272      EE8F8A
 273 07df FEA01D03 		.ascii	"\376\240\035\0031\177\323\300\350\036\306k\012\000\267"
 273      317FD3C0 
 273      E81EC66B 
 273      0A00B7
 274 07ee A4D83579 		.ascii	"\244\3305y\004\3633_\233\336\212\271Xh.\315\203\372"
 274      04F3335F 
 274      9BDE8AB9 
 274      58682ECD 
 274      83FA
 275 0800 1F0E3286 		.ascii	"\037\0162\206\324$3\371\341\000\350\017\007M\342~a\024"
 275      D42433F9 
 275      E100E80F 
ARM GAS  C:\Users\Sava\AppData\Local\Temp\ccqTJW0n.s 			page 22


 275      074DE27E 
 275      6114
 276 0812 A2D53E76 		.ascii	"\242\325>v\002\220k\202\3240\222m9r\374\320\027G#\217"
 276      02906B82 
 276      D430926D 
 276      3972FCD0 
 276      1747238F 
 277 0826 FFFDE8B1 		.ascii	"\377\375\350\261\277D\036\211<\020\361\333\360\220\303"
 277      BF441E89 
 277      3C10F1DB 
 277      F090C3
 278 0835 8274F81F 		.ascii	"\202t\370\037_\330\261{(\362\237\221_\036\302\31613"
 278      5FD8B17B 
 278      28F29F91 
 278      5F1EC2CE 
 278      3133
 279 0847 362161FF 		.ascii	"6!a\377\005\262\020\250\300"
 279      05B210A8 
 279      C0
 280              		.text
 281              		.section	.gnu.lto_ILI9341_flush.15f1333b,"",%progbits
 282 0000 789C9557 		.ascii	"x\234\225WkLTG\024\276\347\316\356\262\313\262\213O"
 282      6B4C5447 
 282      14BEE7CE 
 282      EEB2CBB2 
 282      8B4F
 283 0012 6A7D546A 		.ascii	"j}Tj\212\210(\012\242b\322\244\376h\232\264M\372\303"
 283      8A88280A 
 283      A262D2A4 
 283      FE689AB4 
 283      4DFAC3
 284 0025 1F4D4D9A 		.ascii	"\037MM\232\250Q\333\320`l\254\365\221\376\340\342\262"
 284      A851DBD0 
 284      606CACF5 
 284      91FEE0E2 
 284      B2
 285 0036 F84A5A05 		.ascii	"\370JZ\005\037\240R\333\370\006Q\360\215\017\274\240"
 285      1FA052DB 
 285      F80651F0 
 285      8D0FBCA0 
 286 0046 A222A080 		.ascii	"\242\"\240\200\242\010\012\242\365\215\012\212\212\017"
 286      A2080AA2 
 286      F58D0A8A 
 286      8A0F
 287 0054 B6E7CCCC 		.ascii	"\266\347\314\314\352\272\273\210\334\344\316\336\231"
 287      EABABB88 
 287      DCE4CEDE 
 287      99
 288 0061 F9BE6FCE 		.ascii	"\371\276o\316\234s\346\261\006\005\024z\276\352\246"
 288      9C73E6B1 
 288      0605147A 
 288      BEEAA6
 289 0070 283FE36F 		.ascii	"(?\343o\034UL\012\250\012\276`\300\222\361\322\2402"
 289      1C554C0A 
 289      A80ABE60 
 289      C092F1D2 
 289      A032
ARM GAS  C:\Users\Sava\AppData\Local\Temp\ccqTJW0n.s 			page 23


 290 0082 45D15423 		.ascii	"E\321T#\026\006#\020\007\224D\225\341w\242jP\304\323"
 290      16062310 
 290      07944495 
 290      E177A26A 
 290      50C4D3
 291 0095 AABE56A1 		.ascii	"\252\276V\241h\341\315|5b\213\206O\203sC\214\266U\007"
 291      68E1CD7C 
 291      35628B86 
 291      4F837343 
 291      8CB65507 
 292 00a9 27525DAA 		.ascii	"'R]\252\300\300\026\210@TEr\356:\366Du2\000\003V\233"
 292      C0C01688 
 292      40544572 
 292      EE3AF644 
 292      75320003 
 293 00bf CBD65CB7 		.ascii	"\313\326\\\267SU\205P\254\326\257Y^\026\310\372\200"
 293      53558550 
 293      ACD6AF59 
 293      5E16C8FA 
 293      80
 294 00d0 82DFA733 		.ascii	"\202\337\24736V\030\3027\221\236\3266M\2638\031\203"
 294      365618C2 
 294      37919ED6 
 294      364DB338 
 294      1983
 295 00e2 2C60A807 		.ascii	",`\250\007\333\240?l\205\376\0126)\220\015\341\210>"
 295      DBA03F6C 
 295      85FE0A36 
 295      29900DE1 
 295      883E
 296 00f4 B5ACE90F 		.ascii	"\265\254\351\017\326\217\023W\255\275So\226\304\274"
 296      D68F1357 
 296      ADBD536F 
 296      96C4BC
 297 0103 E982B8DD 		.ascii	"\351\202\270\335\0171\207\023\217\254\376{\002\373\204"
 297      0F318713 
 297      8FACFE7B 
 297      02FB84
 298 0112 13AB8F67 		.ascii	"\023\253\217g\2253I\254\221\304\035~\210;9q\327\301"
 298      953349AC 
 298      91C41D7E 
 298      883B3971 
 298      D7C1
 299 0124 FABFACEC 		.ascii	"\372\277\254\354S\316,\313\272\372\322=\344\362\342"
 299      53CE2CCB 
 299      BAFAD23D 
 299      E4F2E2
 300 0133 206D1910 		.ascii	" m\031\0207\327\0177\217s\253^\265\244X\330g\234\233"
 300      37D70F37 
 300      8F73AB5E 
 300      B5A458D8 
 300      679C9B
 301 0146 76627376 		.ascii	"vbsv\000q\027hZ\275\344\032`\2277\327\240\300n\010'"
 301      00711768 
 301      5ABDE41A 
 301      609737D7 
 301      A0C06E08 
ARM GAS  C:\Users\Sava\AppData\Local\Temp\ccqTJW0n.s 			page 24


 302 015b C209D733 		.ascii	"\302\011\3273=X\270\220\374^\371\2504\323*\\\330\015"
 302      3D58B890 
 302      FC5EF9A8 
 302      34D32A5C 
 302      D80D
 303 016d ABD737DE 		.ascii	"\253\3277\336\276ggQ\\\272hYu\023\204m i\275&\315\236"
 303      BE676751 
 303      5CBA6859 
 303      7513846D 
 303      2069BD26 
 304 0183 AEE90B42 		.ascii	"\256\351\013B\235\314\010\373\204\370^\024\337\203\342"
 304      9DCC08FB 
 304      84F85E14 
 304      DF83E2
 305 0192 F420FA40 		.ascii	"\364 \372@e\353\021\033\213\345\314\2139\255[\314\304"
 305      65EB111B 
 305      8BE5CC8B 
 305      39AD5BCC 
 305      C4
 306 01a3 D434FD62 		.ascii	"\3244\375b\225\233i\202\003~\231\233\316\034+\260\263"
 306      959B6982 
 306      037E999B 
 306      CE1C2BB0 
 306      B3
 307 01b4 319CD9FC 		.ascii	"1\234\331\374\317\216\263\222\251\355\237\2549\307\023"
 307      CF8EB392 
 307      A9ED9FAC 
 307      39C713
 308 01c3 EDA05FDA 		.ascii	"\355\240_\332\371\315K\263U\026\307iY\205)-\026i\352"
 308      F9CD4BB3 
 308      5516C769 
 308      5985292D 
 308      1669EA
 309 01d6 050F530F 		.ascii	"\005\017S\017\373ef?=\211\035_pf\343\343\027\251Vd\352"
 309      FB65663F 
 309      3D891D5F 
 309      7066E3E3 
 309      17A95664 
 310 01eb 686A5BA5 		.ascii	"hj[\245-I\323\223\220\031\000\005\357zP2\313*\326\335"
 310      2D49D393 
 310      90190005 
 310      EF7A5032 
 310      CB2AD6DD 
 311 01ff B2B22F39 		.ascii	"\262\262/9s\371\322\244\315F9\311\252T[\206\246'#\323"
 311      73F9D2A4 
 311      CD4639C9 
 311      AA545B86 
 311      A62723D3 
 312 0213 0CBA5FE6 		.ascii	"\014\272_\346\266\322\223eV\366-g.\331[S\034$\231\347"
 312      B6D29365 
 312      56F62D67 
 312      2ED95B53 
 312      1C2499E7 
 313 0227 2A316649 		.ascii	"*1fIf\"\026\371%^y\274\274\326\312&pb\352\352\202t\253"
 313      662216F9 
 313      255E79BC 
 313      BCD6CA26 
ARM GAS  C:\Users\Sava\AppData\Local\Temp\ccqTJW0n.s 			page 25


 313      7062EAEA 
 314 023e 2416BC25 		.ascii	"$\026\274%\036\367K\314\310\371\367N0\233(F\274\226"
 314      1EF74BCC 
 314      C8F9F74E 
 314      309B2846 
 314      BC96
 315 0250 5F1B2889 		.ascii	"_\033(\211\207\337\022\213\375\022\033\363\332W\332"
 315      87DF128B 
 315      FD121BF3 
 315      DA57DA
 316 025f 4CC9040E 		.ascii	"L\311\004\016\205\223\020\006'\360=\206o!\276G\361="
 316      85931006 
 316      27F03D86 
 316      6F21BE47 
 316      F13D
 317 0271 82EF217C 		.ascii	"\202\357!|\363\361\335\017ab\221\302)0\341\372\036\204"
 317      F3F1DD0F 
 317      616291C2 
 317      2930E1FA 
 317      1E84
 318 0283 024D7985 		.ascii	"\002My\205\23169\232+5$c+\367\214E\361\036\013NC\030"
 318      9936399A 
 318      2B352463 
 318      2BF78C45 
 318      F11E0B4E 
 319 0299 2D85F6C2 		.ascii	"-\205\366\302\034\243\010\236\266\267\356\037\320\034"
 319      1CA3089E 
 319      B6B7EE1F 
 319      D01C
 320 02a7 18F5408E 		.ascii	"\030\365@\216\036\325\037FJl\2117V_Ve]\222\253\231\375"
 320      1ED51F46 
 320      4A6C8937 
 320      565F5665 
 320      5D92AB99 
 321 02bc 60CF70AC 		.ascii	"`\317p\254\247\031ii\3571\243\264\013f\224\371\230\261"
 321      A7196969 
 321      EF31A3B4 
 321      0B6694F9 
 321      98B1
 322 02ce A24333CA 		.ascii	"\242C3\312}\314X\377>3\316v\301\214s>f\344vhF\205\217"
 322      7DCC58FF 
 322      3E33CE76 
 322      C18C733E 
 322      66E47668 
 323 02e5 19BBDF67 		.ascii	"\031\273\337gFe\027\314\250\3621cO\207f\234\347\330"
 323      466517CC 
 323      A8F23163 
 323      4F87669C 
 323      E7D8
 324 02f7 45058F27 		.ascii	"E\005\217'z,\324\255|\241Z\025\357U\012\027\274\320"
 324      7A2CD4AD 
 324      7CA15A15 
 324      EF550A17 
 324      BCD0
 325 0309 5AEE390D 		.ascii	"Z\3569\015:\300Vw\001{\321\333\212KiAK\316\221\301~"
 325      3AC05677 
 325      017BD1DB 
ARM GAS  C:\Users\Sava\AppData\Local\Temp\ccqTJW0n.s 			page 26


 325      8A4B6941 
 325      4BCE91C1 
 326 031e C097BA20 		.ascii	"\300\227\272 \\\323\005\354e\237\210\324W\005\311\210"
 326      5CD305EC 
 326      659F88D4 
 326      5705C988 
 327 032e 04F946A4 		.ascii	"\004\371F\244\226\3033\362\032\232\335^n\255\352-\341"
 327      96C333F2 
 327      1A9ADD5E 
 327      6EADEA2D 
 327      E1
 328 033f 365F789D 		.ascii	"6_x\2357\\\333\205\246t\000\276\302\301\265\273\213"
 328      375CDB85 
 328      A67400BE 
 328      C2C1B5BB 
 328      8B
 329 0350 8F06B3C9 		.ascii	"\217\006\263\311|\257\250h\312{n\221f\325V\205\311\020"
 329      7CAFA868 
 329      CA7B6E91 
 329      66D55685 
 329      C910
 330 0362 D9E1AAEF 		.ascii	"\331\341\252\357^\012\365\234\355X\3640\031\3304\316"
 330      5E0AF59C 
 330      ED58F430 
 330      19D834CE 
 331 0372 6E7A96BE 		.ascii	"nz\226\276\331\354\345\201`h\360\303\275\306\271\215"
 331      D9ECE581 
 331      6068F0C3 
 331      BDC6B98D 
 332 0382 8E7D7F9A 		.ascii	"\216}\177\232\274\361\276\036k\364\366\230V\177\003"
 332      BCF1BE1E 
 332      6BF4F698 
 332      567F03
 333 0391 9372F178 		.ascii	"\223r\361x\277)|\0357\246\017\330\270vN\3205\227\313"
 333      BF297C1D 
 333      37A60FD8 
 333      B8764ED0 
 333      3597CB
 334 03a4 A1E96B7B 		.ascii	"\241\351k{\024\246\207|\016\374\214D-\204\030\200n\006"
 334      14A6877C 
 334      0EFC8C44 
 334      2D841880 
 334      6E06
 335 03b6 4685644C 		.ascii	"F\205dL@\207}\200Brf\240\363\333\242\220l \320ylUH\336"
 335      40877D80 
 335      427266A0 
 335      F3DBA290 
 335      6C20D079 
 336 03ce 8E67AC25 		.ascii	"\216g\254%\030\213\300\356T\364\244j/\372\012\241\242"
 336      188BC0EE 
 336      54F4A46A 
 336      2FFA0AA1 
 336      A2
 337 03df 2F55FBD1 		.ascii	"/U\373\321\327\000*\006R5\224\276\006Q1\030\013k8\025"
 337      D7002A06 
 337      523594BE 
 337      06513118 
ARM GAS  C:\Users\Sava\AppData\Local\Temp\ccqTJW0n.s 			page 27


 337      0B6B3815 
 338 03f3 43A88850 		.ascii	"C\250\210P\310\316\241\364\031I\3050*\206+dp\024\267"
 338      C8CEA1F4 
 338      1949C530 
 338      2A862B64 
 338      7014B7
 339 0406 6D04909D 		.ascii	"m\004\220\235#I$\032\213\240QX\330b\251\030\315g0\006"
 339      2349241A 
 339      8BA05158 
 339      D862A918 
 339      CD673006 
 340 041a 3FED63B1 		.ascii	"?\355c\261\010\216\243b\034')\312#~\225jV\361\207\335"
 340      088EA362 
 340      1C2729CA 
 340      237E956A 
 340      56F187DD 
 341 042e 04475DCA 		.ascii	"\004G]\312\323\323\261\264i;\230\321\301\3506\265\363"
 341      D3D3B1B4 
 341      693B98D1 
 341      C1E836B5 
 341      F3
 342 043f 7E7E9B8D 		.ascii	"~~\233\215\256\002\026\364\304\015\364%G\275\370Z\200"
 342      AE0216F4 
 342      C40DF425 
 342      47BDF85A 
 342      80
 343 0450 021C7812 		.ascii	"\002\034x\022\313\326\313)E\337\210V\213\203\231\221"
 343      CBD6CB29 
 343      45DF8856 
 343      8B839991 
 344 0460 7A6D7D5B 		.ascii	"zm}[+\023\324\243*\374\347F\225H\224\325\301\002\021"
 344      2B13D4A3 
 344      2AFCE746 
 344      954894D5 
 344      C10211
 345 0473 75292F2D 		.ascii	"u)/-\327(P\017\001n\"\3526$\353\257S\201P\224<\371\371"
 345      D728500F 
 345      016E22EA 
 345      3624EBAF 
 345      53815094 
 346 048a F76B0312 		.ascii	"\367k\003\022_k\2134\255\233\223us\251x\240\300-H\244"
 346      5F6B8B34 
 346      AD9B9375 
 346      73A978A0 
 346      C02D48A4 
 347 049e BEE41D67 		.ascii	"\276\344\035g\026\363{\213\021\206\302m\350\357d\335"
 347      16F37B8B 
 347      1186C26D 
 347      E8EF64DD 
 348 04ae 69909694 		.ascii	"i\220\226\224\3663?\210Q\3548\023\004\2569\364\244\204"
 348      F6333F88 
 348      51EC3813 
 348      04AE39F4 
 348      A484
 349 04c0 8F120466 		.ascii	"\217\022\004f\270\303MY\320\262\360<\010P0\342\250e"
 349      B8C34D59 
 349      D0B2F03C 
ARM GAS  C:\Users\Sava\AppData\Local\Temp\ccqTJW0n.s 			page 28


 349      085030E2 
 349      A865
 350 04d2 15AF23BC 		.ascii	"\025\257#\274\344\362\226J{\364N\236S6'\353\301\023"
 350      E4F2964A 
 350      7BF44E9E 
 350      533627EB 
 350      C113
 351 04e4 65284F24 		.ascii	"e(O$\270\013\321\310\020\002\305\245\322[\335q\230\316"
 351      B80BD1C8 
 351      1002C5A5 
 351      D25BDD71 
 351      98CE
 352 04f6 152285C2 		.ascii	"\025\"\205\302=R\220\206\226\227JC{\242\337|-\353\205"
 352      3D529086 
 352      96974A43 
 352      7BA2DF7C 
 352      2DEB85
 353 0509 1DEFE8BE 		.ascii	"\035\357\350\276\271\251\005\361\233Z\335\255:\227\301"
 353      B9A905F1 
 353      9B5ADDAD 
 353      3A97C1
 354 0518 7B98FB22 		.ascii	"{\230\373\"\345\241\211\306\351%\004\253\335\226\206"
 354      E5A189C6 
 354      E92504AB 
 354      DD9686
 355 0527 E0389D5B 		.ascii	"\3408\235[:L(< \205\020\214\210S_\235\326ADz\272({0"
 355      3A4C283C 
 355      2085108C 
 355      88535F9D 
 355      D641447A 
 356 053f 783C2299 		.ascii	"x<\"\231\007\235\227\255\330G\317D'\353\305\325\210"
 356      079D97AD 
 356      D847CF44 
 356      27EBC5D5 
 356      88
 357 0550 078F2011 		.ascii	"\007\217 \021\373\013\033v5\363\253eo0@3E,\204\007<"
 357      FB0B1B76 
 357      35F3AB65 
 357      6F304033 
 357      452C8407 
 358 0565 B3237919 		.ascii	"\263#y\031\360\026!\277\375FK[\240\010x$<\366\014\270"
 358      F01621BF 
 358      FD464B5B 
 358      A0087824 
 358      3CF60CB8 
 359 0579 DB8F7D31 		.ascii	"\333\217}1+}\375\330\017;>8\302Oh\326\375d\204\313\244"
 359      2B7DFDD8 
 359      0F3B3E38 
 359      C24F68D6 
 359      FD6484CB 
 360 058e DF06A0EE 		.ascii	"\337\006\240\356\007G\270\225\024\006\310\010\227I\313"
 360      0747B895 
 360      1406C808 
 360      9749CB
 361 059d 0662CEFB 		.ascii	"\006b\316\373Z\026\212\035\357\350\2767\244OI8T\206"
 361      5A168A1D 
 361      EFE8BE37 
ARM GAS  C:\Users\Sava\AppData\Local\Temp\ccqTJW0n.s 			page 29


 361      A44F4938 
 361      5486
 362 05af D46DDA20 		.ascii	"\324m\332 \024\376\340\220>#\205A<\244\373;\011\351"
 362      14FEE090 
 362      3E238541 
 362      3CA4FB3B 
 362      09E9
 363 05c1 F3CE42DA 		.ascii	"\363\316B\332\006\211\2361<\322I\014_\010\275\233+\222"
 363      06899E31 
 363      3CD2490C 
 363      5F08BD9B 
 363      2B92
 364 05d3 5C206238 		.ascii	"\\ b8\014^\272cH\023*\217\023\023\032\214\033\010o\012"
 364      0C5EBA63 
 364      48132A8F 
 364      13131A8C 
 364      1B086F0A 
 365 05e7 10F570DC 		.ascii	"\020\365p\334\213\310\231\351&Q\037\302!\341\324\264"
 365      8BC899E9 
 365      26511FC2 
 365      21E1D4B4 
 366 05f7 4A364560 		.ascii	"J6E`+j\357]X\232'\363\003\340\225\333\327\215\337\011"
 366      2B6AEF5D 
 366      589A27F3 
 366      03E095DB 
 366      D78DDF09 
 367 060b D05099FB 		.ascii	"\320P\231\373n\335H\261j\337\350\016\343\220HO\335\341"
 367      6EDD48B1 
 367      6ADFE80E 
 367      E390484F 
 367      DDE1
 368 061d D8FA56E8 		.ascii	"\330\372V\350A\371\030\321\034E\331@\033'\343\033'v"
 368      41F918D1 
 368      1C45D940 
 368      1B27E31B 
 368      2776
 369 062f B597C788 		.ascii	"\265\227\307\210.t\357pt\207\321\277+>r\021\005^\243"
 369      2E74EF70 
 369      7487D1BF 
 369      2B3E7211 
 369      055EA3
 370 0642 2B1C0C10 		.ascii	"+\034\014\020\355d}\344\354\317~/\004F\341l\310\204"
 370      ED647DE4 
 370      ECCF7E2F 
 370      0446E16C 
 370      C884
 371 0654 35D28458 		.ascii	"5\322\204Xl\362\\\3716\3743\335.v\323u\0222\232k\305"
 371      6CF25CF9 
 371      36FC33DD 
 371      2E76D375 
 371      12329A6B 
 372 0669 F224687E 		.ascii	"\362$h~\272\307\"Z\3078\230\3529\335\261\330\3449\267"
 372      BAC7225A 
 372      C73898EA 
 372      39DDB1D8 
 372      E439B7
 373 067c 386CF2F4 		.ascii	"8l\362\364Y0\372\314%\247*)\343\020\305\347ip\317\363"
ARM GAS  C:\Users\Sava\AppData\Local\Temp\ccqTJW0n.s 			page 30


 373      5930FACC 
 373      25A72A29 
 373      E310C5E7 
 373      6970CFF3 
 374 0690 952A7A46 		.ascii	"\225*zF\222\3705H>\353\010y\323`\245\014k\0014e\004"
 374      92F83548 
 374      3EEB0879 
 374      D360A50C 
 374      6B013465 
 375 06a5 5E00D868 		.ascii	"^\000\330h\266}}\016\256\\\025\375\245\326e\316@9v\300"
 375      B67D7D0E 
 375      AE5C15FD 
 375      A5D665CE 
 375      403976C0 
 376 06b9 8262F8CF 		.ascii	"\202b\370\317\237\335\006\207\276rU\007\011\363\261"
 376      9FDD0687 
 376      BE725507 
 376      09F3B1
 377 06c8 8B06044D 		.ascii	"\213\006\004MM\304\303\212\026nQ\035\367'\245\036]c"
 377      4DC4C38A 
 377      166E511D 
 377      F727A51E 
 377      5D63
 378 06da 1AF45463 		.ascii	"\032\364Tc\334>m\021\376\257\305#8I\215S\356\302\002"
 378      DC3E6D11 
 378      FEAFC523 
 378      38498D53 
 378      EEC202
 379 06ed 3D833B90 		.ascii	"=\203;\220\237\366\217(\3410\207{'\314\2314mV\374\234"
 379      9FF68F28 
 379      E130877B 
 379      27CC9934 
 379      6D56FC9C 
 380 0701 E9B37EFB 		.ascii	"\351\263~\3731>!~\334\250\330\350\250\251\212:/Z\235"
 380      313E217E 
 380      DCA8D8E8 
 380      A8A98A3A 
 380      2F5A9D
 381 0714 1FADCE8B 		.ascii	"\037\255\316\213Q\347\307X\246\316L\2309k\322\214)\277"
 381      51E7C758 
 381      A6CE4C98 
 381      396BD28C 
 381      29BF
 382 0726 1AA74C9D 		.ascii	"\032\247L\235=i.\374\002\361\246\237~OH\2304\3270m\312"
 382      3D692EFC 
 382      02F1A69F 
 382      7E4F4898 
 382      34D7306D 
 383 073b EC29266A 		.ascii	"\354)&j\235\037\303\177\346\211\237\371\321\242\026"
 383      9D1FC37F 
 383      E6899FF9 
 383      D1A216
 384 074a CDE2A3E8 		.ascii	"\315\342\243\350\215\371\037\336\024F\310"
 384      8DF91FDE 
 384      1446C8
 385              		.text
 386              		.section	.gnu.lto_ili9341_send_color.15f1333b,"",%progbits
ARM GAS  C:\Users\Sava\AppData\Local\Temp\ccqTJW0n.s 			page 31


 387 0000 789C4D90 		.ascii	"x\234M\220\271K\003Q\020\306\347{o\263^x4B\020\205\200"
 387      B94B0351 
 387      10C6E77B 
 387      6FB35E78 
 387      34421085 
 388 0015 84602388 		.ascii	"\204`#\2106\376\033\226\"H\320\240\301`\241\3016\317"
 388      36FE1B96 
 388      2248D0A0 
 388      C160A1C1 
 388      36CF
 389 0027 6C162D6C 		.ascii	"l\026-l-\024\243\240\210G\274b\027\260\330\010b\243"
 389      2D14A3A0 
 389      8847BC62 
 389      17B0D808 
 389      62A3
 390 0039 85828547 		.ascii	"\205\202\205G!\012^(\304\273\212\353\274\215\205\003"
 390      210A5E28 
 390      C4BB8AEB 
 390      BC8D8503 
 391 0049 CBECF7E6 		.ascii	"\313\354\367\346{\277\231y\006\201t\254sj\346\\\257"
 391      7BBF9979 
 391      068174AC 
 391      736AE65C 
 391      AF
 392 005a 852408E2 		.ascii	"\205$\010\342\017\272\006J\010$\360)\212\002\373\023"
 392      0FBA064A 
 392      0824F029 
 392      8A02FB13 
 393 006a 7739D1B2 		.ascii	"w9\321\262\2428\256\227\027\207\306\225\355\267%\221"
 393      A238AE97 
 393      1787C695 
 393      EDB72591 
 394 007a 2B3C0661 		.ascii	"+<\006a\005-\354:I\355\314\311\017aK\300`\371z<{[\243"
 394      052DEC3A 
 394      49EDCCC9 
 394      0F614BC0 
 394      60F97A3C 
 395 0091 A5408065 		.ascii	"\245@\200e\346\353p\017\322\017\342\377b\376\376L\204"
 395      E6EB700F 
 395      D20FE2FF 
 395      62FEFE4C 
 395      84
 396 00a2 96954A2A 		.ascii	"\226\225J*\265\020Q\025\266\224X\207d\036\326\320\210"
 396      B5105115 
 396      B6945887 
 396      641ED6D0 
 396      88
 397 00b3 5534121F 		.ascii	"U4\022\037\0212\010\261\373\300\375vjK\\=\314i\341("
 397      113208B1 
 397      FBC0FD76 
 397      6A4B5C3D 
 397      CC69E128 
 398 00c7 5D55E2D6 		.ascii	"]U\342\326\261\274\232zgn\223\307}|KZ\345\177\334\363"
 398      B1BC9A7A 
 398      676E93C7 
 398      7D7C4B5A 
 398      E57FDCF3 
ARM GAS  C:\Users\Sava\AppData\Local\Temp\ccqTJW0n.s 			page 32


 399 00db B0F2D9D2 		.ascii	"\260\362\331\322\300V\211\273\311\334\015\217k\020\266"
 399      C05689BB 
 399      C9DC0D8F 
 399      6B10B6
 400 00ea 11D2F69B 		.ascii	"\021\322\366\233\354\317t\265\231\322k\005J\313`\007"
 400      ECCF74B5 
 400      99D26B05 
 400      4ACB6007 
 401 00fa 262F0F2E 		.ascii	"&/\017.\276d\363\351\352\340\222.:\351\0131\263\352"
 401      BE64F3E9 
 401      EAE0922E 
 401      3AE90B31 
 401      B3EA
 402 010c A402B6F4 		.ascii	"\244\002\266\364\321\377!\275\345\263\010nw9\312u-\345"
 402      D1FF21BD 
 402      E5B3086E 
 402      7739CA75 
 402      2DE5
 403 011e 4C37E4E7 		.ascii	"L7\344\347\033L@w\020\334\313g@/AT\360\236\352Up\222"
 403      1B4C4077 
 403      10DCCB67 
 403      402F4154 
 403      F09EEA55 
 404 0134 7748BE4D 		.ascii	"wH\276M|=T\352f\226\024\226\004=\300\247\225\036*\227"
 404      7C3D54EA 
 404      66961496 
 404      043DC0A7 
 404      951E2A97 
 405 0148 7BBE2C4B 		.ascii	"{\276,K\024\325\244Ru\2664]\241\347\331E\202,i\260\333"
 405      14D5A452 
 405      75B6345D 
 405      A1E7D945 
 405      822C69B0 
 406 015d 9665F484 		.ascii	"\226e\364\204\244\263\320\355]\320Q\320\026\006\327"
 406      A4B3D0ED 
 406      5DD051D0 
 406      1606D7
 407 016c C7C67AFB 		.ascii	"\307\306z\373G\242c\221\221\321\236h,\332\331\336\321"
 407      47A26391 
 407      91D19E68 
 407      2CDAD9DE 
 407      D1
 408 017d D6DA4746 		.ascii	"\326\332GF\1778\0366c\221\341\201\370\340/\3331\225"
 408      7F381E36 
 408      6391E181 
 408      F8E02FDB 
 408      3195
 409 018f 8D       		.ascii	"\215"
 410              		.text
 411              		.section	.gnu.lto_ILI9341_fill.15f1333b,"",%progbits
 412 0000 789C9557 		.ascii	"x\234\225W\351S\024G\024\2377={\260\273\254H0\036\241"
 412      E9531447 
 412      149F373D 
 412      7BB0BBAC 
 412      48301EA1 
 413 0014 945851E4 		.ascii	"\224XQ\344\212\254xV\276\370\037\304\262\362\305\212"
 413      8AAC7856 
ARM GAS  C:\Users\Sava\AppData\Local\Temp\ccqTJW0n.s 			page 33


 413      BEF81FC4 
 413      B2F2C58A 
 414 0024 A9C4A8A9 		.ascii	"\251\304\250\251\242\312*\2534\2614\371\300\3002\250"
 414      A2CA2AAB 
 414      34B134F9 
 414      C0C032A8 
 415 0034 89258A46 		.ascii	"\211%\212F\321\204\220C\313\003\017<\211\002:(\236\010"
 415      D1849043 
 415      CB030F3C 
 415      89023A28 
 415      9E08
 416 0046 8BC65B82 		.ascii	"\213\306[\202x\200h<\270\274\205\315{\335\275\210,\013"
 416      7880683C 
 416      B8BC85CD 
 416      7BDDBD88 
 416      2C0B
 417 0058 3A55DBB3 		.ascii	":U\333\263\375\372\367~\375{\357\365t\317h\012(t}\326"
 417      FDFAF77E 
 417      FD7BEFF5 
 417      74CF680A 
 417      28747DD6 
 418 006c 4F5126E1 		.ascii	"OQ&\341\375'\352\204+\240*\370S\231\242\350\252\025"
 418      FD27EA84 
 418      2BA02AF8 
 418      5399A2E8 
 418      AA15
 419 007e 1B8D8105 		.ascii	"\033\215\201\005-\032o-\252F\3660\262[\301\216\026\033"
 419      2D1A6F2D 
 419      AA46F630 
 419      B25BC18E 
 419      161B
 420 0090 6FEDAAAD 		.ascii	"o\355\252\255\323\036\006N\2648x\353T\035dw\221\335"
 420      D31E064E 
 420      B43878EB 
 420      541D6477 
 420      91DD
 421 00a2 05341F28 		.ascii	"\0054\037(i*\323,V\233=\314\341tA\232fW\304e\221w\247"
 421      692AD32C 
 421      569B3DCC 
 421      E174419A 
 421      6657C465 
 422 00b9 BC3F56DB 		.ascii	"\274?V\333U8\262\270\341\200\032\267I\307\253\256\376"
 422      5538B2B8 
 422      E1801AB7 
 422      49C7ABAE 
 422      FE
 423 00ca 9E47DF6C 		.ascii	"\236G\337l\202\201\312\374\252\300\300&\210C\324\331"
 423      8281CAFC 
 423      AAC0C026 
 423      8843D4D9 
 424 00da CCC25F59 		.ascii	"\314\302_Y\233j0\000\015\273\315\225\353o\271\251\253"
 424      9B6A3000 
 424      0DBBCD95 
 424      EB6FB9A9 
 424      AB
 425 00eb 420C76AF 		.ascii	"B\014v\257\257_Y\351`\203@\301\377\247\326m8\253\305"
 425      AF5F59E9 
ARM GAS  C:\Users\Sava\AppData\Local\Temp\ccqTJW0n.s 			page 34


 425      608340C1 
 425      FFA7D66D 
 425      38ABC5
 426 00fe 6E243EFD 		.ascii	"n$>\375\351,=\314`\014\266\002C>\330\002\321\260\031"
 426      E92C3DCC 
 426      600CB602 
 426      433ED802 
 426      D1B019
 427 0111 A2153429 		.ascii	"\242\0254)P\000\261\210>\271\342\301\017\354\003\356"
 427      5000B188 
 427      3EB9E2C1 
 427      0FEC03EE 
 428 0121 B8E697BB 		.ascii	"\270\346\227\273\327\355\3221\177\266p\334\326\203\343"
 428      D7EDD231 
 428      7FB670DC 
 428      D683E3
 429 0130 76EE58BA 		.ascii	"v\356X\272\366\267\251l(w\274X\276\265\212I\307K\322"
 429      F6B7A96C 
 429      2877BC58 
 429      BEB58A49 
 429      C74BD2
 430 0143 71470F8E 		.ascii	"qG\017\216;\271\343\356\203\327\263\235\354C\356Y\271"
 430      3BB9E3EE 
 430      83D7B39D 
 430      EC43EE59 
 430      B9
 431 0154 B5F66560 		.ascii	"\265\366e`J\277\364,\354\301s\027\367<\346\177j\366"
 431      4ABFF42C 
 431      ECC17317 
 431      F73CE67F 
 431      6AF6
 432 0166 1339A0C4 		.ascii	"\0239\240\304\235k:\223\347\0249\210\300n}yz\251\205"
 432      9D6B3A93 
 432      E7143988 
 432      C06E7D79 
 432      7AA985
 433 0179 7DC479AB 		.ascii	"}\304y\253\266\035~\002\222\2674\313\245O1\230\006{"
 433      B61D7E02 
 433      92B734CB 
 433      A54F3198 
 433      067B
 434 018b 05F11E24 		.ascii	"\005\361\036$\336\315\2115\005\366A,\3417V\034=\344"
 434      DECD8935 
 434      05F6412C 
 434      E137561C 
 434      3DE4
 435 019d 66F1DC37 		.ascii	"f\361\3347\2476\243@\035\361\227\256g\350\346%_\370"
 435      A736A340 
 435      1DF197AE 
 435      67E8E625 
 435      5FF8
 436 01af 3ADDCC8C 		.ascii	":\335\314\2141\230\005\366\277\251\213.D\257\336st\270"
 436      319805F6 
 436      BFA98B2E 
 436      44AFDE73 
 436      74B8
 437 01c1 90A45BB0 		.ascii	"\220\244[\260\233\336\\P\346\022\232\364Q\330/hk\257"
ARM GAS  C:\Users\Sava\AppData\Local\Temp\ccqTJW0n.s 			page 35


 437      9BDE5C50 
 437      E6129AF4 
 437      51D82F68 
 437      6BAF
 438 01d3 D0582227 		.ascii	"\320X\"'\256\253\334Z\001Hl\352\272y\356S\275Z\267\033"
 438      AEABDC5A 
 438      01486CEA 
 438      BA79EE53 
 438      BD5AB71B 
 439 01e7 CC0A0705 		.ascii	"\314\012\007\005\355\001\244\375\3735\355\237\351\027"
 439      ED01A4FD 
 439      FB35ED9F 
 439      E917
 440 01f5 2AC259B2 		.ascii	"*\302Y\262\250K\343\263\016\233\024T\355s\351+\322\355"
 440      A84BE3B3 
 440      0E9B1454 
 440      ED73E92B 
 440      D2ED
 441 0207 A4A7A447 		.ascii	"\244\247\244G=\005ON\340\3008\356x\263\365E\216SN\330"
 441      3D054F4E 
 441      E0C038EE 
 441      78B3F545 
 441      8E534ED8 
 442 021b BA3C3C5D 		.ascii	"\272<<]7\3231\022\033\034\352\321\363\346\256\216\237"
 442      37D33112 
 442      1B1CEAD1 
 442      F3E6AE8E 
 442      9F
 443 022c C3AD9994 		.ascii	"\303\255\231\224\262\0308\014#\240\024\177\305\370+"
 443      B218380C 
 443      23A0147F 
 443      C5F82B
 444 023b 82116235 		.ascii	"\202\021b5\202\011V\\\337\203\021\374`WY^8iBj\377\362"
 444      8209565C 
 444      DF8311FC 
 444      6057595E 
 444      3869426A 
 445 0251 A8759B79 		.ascii	"\250u\233y\222\354Jw^(\203\021T\363\216\262\355\026"
 445      92EC4A77 
 445      5E288311 
 445      54F38EB2 
 445      ED16
 446 0263 1182BEAF 		.ascii	"\021\202\276\257\346w\320\275\223\015\026\306\321)\321"
 446      E677D0BD 
 446      930D16C6 
 446      D129D1
 447 0272 902CB147 		.ascii	"\220,\261G\272c\315\025>\347\217\205\224\247 \354Q\216"
 447      BA63CD15 
 447      3EE78F85 
 447      94A720EC 
 447      518E
 448 0284 ED2A6355 		.ascii	"\355*cUv/2\312\337A\306\261 \031\253C\3128\036$#\277"
 448      762F32CA 
 448      DF41C6B1 
 448      2019AB43 
 448      CA381E24 
 449 029a 371927DE 		.ascii	"7\031'\336A\306\311 \031\205!e\234\012\222\261\2477"
ARM GAS  C:\Users\Sava\AppData\Local\Temp\ccqTJW0n.s 			page 36


 449      41C6C920 
 449      19852165 
 449      9C0A92B1 
 449      A737
 450 02ac 19A7DF41 		.ascii	"\031\247\337AFE\220\214\275!e\234\011\222q6{`h\031\225"
 450      4645908C 
 450      BD21659C 
 450      09927136 
 450      7B606819 
 451 02c1 DDE1FAD3 		.ascii	"\335\341\372\323\333(c\351\344\036\321UA\350\274\372"
 451      DB2863E9 
 451      E41ED155 
 451      41E8BCFA 
 452 02d1 D0685F10 		.ascii	"\320h_\020\272\250\027tu\020ze/\350\263\034\275\344"
 452      BAA81774 
 452      75107A65 
 452      2FE8B31C 
 452      BDE4
 453 02e3 50EB3499 		.ascii	"P\3534\231\221k\276\244\334\315f\006F\351P\272n1\034"
 453      916BBEA4 
 453      DCCD6606 
 453      46E950BA 
 453      6E311C
 454 02f6 7DAE3BBA 		.ascii	"}\256;\272\331764\372\237\356\350\2259\020\032}\276"
 454      D9373634 
 454      FA9FEEE8 
 454      9539101A 
 454      7DBE
 455 0308 1B5A2FAC 		.ascii	"\033Z/\254\326!\004\366\002>\312\335\036\353\235SM\335"
 455      D62104F6 
 455      023ECADD 
 455      1EEB9D53 
 455      4DDD
 456 031a EFF7EAE6 		.ascii	"\357\367\352\346\025wYN\344'\240\320 \372\341\020\343"
 456      1577594E 
 456      E427A0D0 
 456      20FAE110 
 456      E3
 457 032b AD03E898 		.ascii	"\255\003\350\230p\342^iwa\023\346\246&\002h'\357O\306"
 457      70E25E69 
 457      776113E6 
 457      A6260268 
 457      27EF4FC6 
 458 033f 48EA4751 		.ascii	"H\352GQ3\010\350\\\030L\306!\324\247\3755l(\320\316"
 458      3308E85C 
 458      184CC621 
 458      D4A7FD35 
 458      6C28D0CE 
 459 0353 3D8C8C31 		.ascii	"=\214\2141\324\037N\315H\352\306R3\212\2328j\342\251"
 459      D41F4ECD 
 459      48EAC652 
 459      338A9A38 
 459      6AE2A9
 460 0366 49E0D327 		.ascii	"I\340\323'\362\211\223\320\340\030\315\377&\363\326"
 460      F28993D0 
 460      E018CDFF 
 460      26F3D6
ARM GAS  C:\Users\Sava\AppData\Local\Temp\ccqTJW0n.s 			page 37


 461 0375 438614FE 		.ascii	"C\206\024\376w\034\307\215'\303\004j\024\245\211\237"
 461      771CC78D 
 461      27C3046A 
 461      14A5899F 
 462 0385 95CD2ADE 		.ascii	"\225\315*\336X#d\232\355\313\201\366*\332\325\016\034"
 462      5823649A 
 462      EDCB81F6 
 462      2ADAD50E 
 462      1C
 463 0396 B87FCD96 		.ascii	"\270\177\315\226\326\256/\321\365\010\2039\375*n`p\021"
 463      D6AE2FD1 
 463      F5088339 
 463      FD2A6E60 
 463      7011
 464 03a8 D2682C73 		.ascii	"\322h,sG\305R~\236\270 \036.A\264\301\302\225\006\360"
 464      47C5527E 
 464      9EB8201E 
 464      2E41B4C1 
 464      C29506F0 
 465 03bc B6647514 		.ascii	"\266du\024O!\177/sz\231\003\201\353\213\333N[\010\350"
 465      4F217F2F 
 465      737A9903 
 465      81EB8BDB 
 465      4E5B08E8 
 466 03d0 063B5CC6 		.ascii	"\006;\\\306\2046@F\313\342\363 @.\304\221e\015\357#"
 466      84364046 
 466      CBE2F320 
 466      402EC491 
 466      650DEF23 
 467 03e4 FCF4D54D 		.ascii	"\374\364\325M\347\334\236\235|\035\205\033\254\037O"
 467      E7DC9E9D 
 467      7C1D851B 
 467      AC1F4F
 468 03f3 7B3C2F03 		.ascii	"{</\003\\\001\017z\010\202\343%c\005\203\033\247\351"
 468      5C010F7A 
 468      0882E325 
 468      6305831B 
 468      A7E9
 469 0405 9B214130 		.ascii	"\233!A0\\%\006\267\020ZU\"\205\366\367\262\210`e\221"
 469      5C2506B7 
 469      105A5522 
 469      85F6F7B2 
 469      88606591 
 470 0419 38F0066F 		.ascii	"8\360\006o\347\011\352\346'h\315\235\032\277\326}\232"
 470      E709EAE6 
 470      2768CD9D 
 470      1ABFD67D 
 470      9A
 471 042a 6B62C140 		.ascii	"kb\301@\015\315\023)\010/\006\224F\341<}+M\024\014\377"
 471      0DCD1329 
 471      082F0694 
 471      46E13C7D 
 471      2B4D140C 
 472 043f 124394D2 		.ascii	"\022C\224\322\010\206\2716;DE\"\374T5\250\025\025\311"
 472      0886B936 
 472      3B444522 
 472      FC5435A8 
ARM GAS  C:\Users\Sava\AppData\Local\Temp\ccqTJW0n.s 			page 38


 472      1515C9
 473 0452 3B685C75 		.ascii	";h\\u\342\030]\323\014\326\237\263\221\037\\\2074\034"
 473      E2185DD3 
 473      0CD69FB3 
 473      911F5C87 
 473      341C
 474 0464 2FABDBDD 		.ascii	"/\253\333\335\314\217\374H|Y\253\243\212\275\247P\301"
 474      CC8FFC48 
 474      7C59ABA3 
 474      8ABDA750 
 474      C1
 475 0475 F342D1CB 		.ascii	"\363B\321\313\202\337\020\364\333n\267<w\210\202'\300"
 475      82DF10F4 
 475      DB6EB73C 
 475      77888227 
 475      C0
 476 0486 CDAE050F 		.ascii	"\315\256\005\017\344q\260\027\337\242\202\3628\004\007"
 476      E471B017 
 476      DFA282F2 
 476      380407
 477 0495 DEBAC2B7 		.ascii	"\336\272\302\267(\352!\262\302\2452o\321\310\373\326"
 477      28EA21B2 
 477      C2A5326F 
 477      D1C8FBD6 
 478 04a5 15BE4D0C 		.ascii	"\025\276M\014\321\262\302\245R\3310/\276m\005)\213\301"
 478      D1B2C2A5 
 478      52D9302F 
 478      BE6D0529 
 478      8BC1
 479 04b7 8137787B 		.ascii	"\2017x{-i=\021\307\310\222\006\244\015G\342\267.i\003"
 479      2D693D11 
 479      C7C89206 
 479      A40D47E2 
 479      B72E6903 
 480 04cb 310CE725 		.ascii	"1\014\347%-\352\243\244w\372*i#\244u\255ai\0375\274"
 480      2DEAA3A4 
 480      77FA2A69 
 480      23A475AD 
 480      61691F35 
 481 04e0 2BF81A56 		.ascii	"+\370\032V\247\373A\3240\021\356u\32607\353\370\241"
 481      A7FB41D4 
 481      3011EE75 
 481      D63037EB 
 481      F8A1
 482 04f2 E922A091 		.ascii	"\351\"\240\221\270F\305\003\345]\223U\303\2041\026\355"
 482      B846C503 
 482      E55D9355 
 482      C3843116 
 482      ED
 483 0503 E8BDB7FC 		.ascii	"\350\275\267\374D\226\235\274\355\000\360\037\317&\272"
 483      44969DBC 
 483      ED00F01F 
 483      CF26BA
 484 0512 B6690234 		.ascii	"\266i\0024\012S!\012E\236\026a\214C{\000\272>\253\\"
 484      0A53210A 
 484      459E1661 
 484      8C437B00 
ARM GAS  C:\Users\Sava\AppData\Local\Temp\ccqTJW0n.s 			page 39


 484      BA3EAB5C 
 485 0526 42E33965 		.ascii	"B\3439e\234\310e\215\254F\002\332\225\033\220\351\363"
 485      9CC8658D 
 485      AC4602DA 
 485      951B90E9 
 485      F3
 486 0537 EEC997B8 		.ascii	"\356\311\227\270\004\234\264hm\326\006\276}X\340\260"
 486      049CB468 
 486      6DD606BE 
 486      7D58E0B0 
 487 0547 0AF7E586 		.ascii	"\012\367\345\206\334L\337\037\014\375\333\232\236\254"
 487      DC4CDF1F 
 487      0CFDDB9A 
 487      9EAC
 488 0555 922A13E9 		.ascii	"\222*\023\351u\3178\342\263\011\264\002\0178\270\231"
 488      75CF38E2 
 488      B309B402 
 488      0F38B899 
 489 0565 3E49087A 		.ascii	">I\010z\360F\222\000&!\260vKC\231{t\222\301\242\350"
 489      F0469200 
 489      2621B076 
 489      4B43997B 
 489      7492C1A2 
 490 057a 35B683EF 		.ascii	"5\266\203\357\201\360\020F\363b\3761RV\263\345\304\246"
 490      81F01046 
 490      F362FE31 
 490      5256B3E5 
 490      C4A6
 491 058c CE05B112 		.ascii	"\316\005\261\022\010\214\233\277\227\011\364#*g\222"
 491      088C9BBF 
 491      9709F423 
 491      2A6792
 492 059b 88F78CD4 		.ascii	"\210\367\214\3240\032\007\321o\337\3423\273\034B\006"
 492      301A07D1 
 492      6FDFE233 
 492      BB1C4206 
 493 05ab 40939481 		.ascii	"@\223\224\201\0370\014\343\253\362\272\005V\305\000"
 493      1F300CE3 
 493      ABF2BA05 
 493      56C500
 494 05ba 89A805F0 		.ascii	"\211\250\005\360_\"\313e\350\256\345\332\020i\225\261"
 494      5F22CB65 
 494      E8AEE5DA 
 494      106995B1 
 495 05ca 15BE0AC4 		.ascii	"\025\276\012\304\226\334\031\214-\020\214\\\201\236"
 495      96DC198C 
 495      2D108C5C 
 495      819E
 496 05d8 50C13407 		.ascii	"P\3014\007\202I\352!\230\274\327\3010\216n\241`<\"\230"
 496      8249EA21 
 496      98BCD7C1 
 496      308E6EA1 
 496      603C2298 
 497 05ec 5772D214 		.ascii	"Wr\322\024\034\354To\027\352}\001\365,P\213\026@\341"
 497      1CEC546F 
 497      17EA7D01 
 497      F52C508B 
ARM GAS  C:\Users\Sava\AppData\Local\Temp\ccqTJW0n.s 			page 40


 497      1640E1
 498 05ff C956929F 		.ascii	"\311V\222\237b{F\362\361+\217\221\213\203\237(\206\371"
 498      627B46F2 
 498      F12B8F91 
 498      8B839F28 
 498      86F9
 499 0611 DC176271 		.ascii	"\334\027bq\016\360S\031\241U,\316\363\367\2336\330\344"
 499      0EF05319 
 499      A1552CCE 
 499      F3F79B36 
 499      D8E4
 500 0623 62FFC260 		.ascii	"b\377\302`\357\363\203\226/\3666\276\177\025e\034\333"
 500      EFF38396 
 500      2FF636BE 
 500      7F15651C 
 500      DB
 501 0634 AB89C5AB 		.ascii	"\253\211\305\253[\3401\255\336\201B\360\303\303\311"
 501      5BE031AD 
 501      DE8142F0 
 501      C3C3C9
 502 0643 42D4382F 		.ascii	"B\3248/\003D>Z\323\232k%\344 0\333\375\376~\360D\006"
 502      03443E5A 
 502      D39A6B25 
 502      E42030DB 
 502      FDFE7EF0 
 503 0659 E114415C 		.ascii	"\341\024A\\\366>\312\267\011\017\202gW\347_\263K\270"
 503      F63ECAB7 
 503      090F8267 
 503      57E75FB3 
 503      4BB8
 504 066b 0A4F0361 		.ascii	"\012O\003a\001\326'lY\373\034\244u\324\370\277Bw\227"
 504      01D6276C 
 504      59FB1CA4 
 504      75D4F8BF 
 504      427797
 505 067e C83D6E4D 		.ascii	"\310=nM'\345\012\035\217\014|m[E\177\002\232\220\261"
 505      27E50A1D 
 505      8F0C7C6D 
 505      5B457F02 
 505      9A90B1
 506 0691 247FD916 		.ascii	"$\177\331\026\271W\252\360\014\011\033\301\322k\012"
 506      B957AAF0 
 506      0C091BC1 
 506      D26B0A
 507 06a0 9E07A7E0 		.ascii	"\236\007\247\340\3637R\360\002\322\220]D|D<]\264\031"
 507      F33752F0 
 507      02D2905D 
 507      447C443C 
 507      5DB419
 508 06b3 A0CFBA3A 		.ascii	"\240\317\272:3\3072q\277\276\004KjS\340%L\354\002)\016"
 508      33C73271 
 508      BFBE044B 
 508      6A53E025 
 508      4CEC0229 
 509 06c8 8220D72B 		.ascii	"\202 \327+\204\334\203\014s\325T\316MW\023\355\022\270"
 509      84DC830C 
 509      73D554CE 
ARM GAS  C:\Users\Sava\AppData\Local\Temp\ccqTJW0n.s 			page 41


 509      4D5713ED 
 509      12B8
 510 06da 6E06CC59 		.ascii	"n\006\314Y\360\345\254y\251\013f\317\233?=uN\352\244"
 510      F0E5AC79 
 510      A90B66CF 
 510      9B3F3D75 
 510      4EEAA4
 511 06ed 94B19E8F 		.ascii	"\224\261\236\217g*\352B\217\272\310\243.\034\243.\032"
 511      672AEA42 
 511      8FBAC8A3 
 511      2E1CA32E 
 511      1A
 512 06fe 63993977 		.ascii	"c\2319w\316\334y\220\312\276\376\356\033m~\352\367\263"
 512      CEDC7990 
 512      CABEFEEE 
 512      1B6D7EEA 
 512      F7B3
 513 0710 B55933BE 		.ascii	"\265Y3\276\235\361?\216/\361\250"
 513      9DF13F8E 
 513      2FF1A8
 514              		.text
 515              		.section	.gnu.lto_ILI9341_regValues_2_4.15f1333b,"",%progbits
 516 0000 789C4D93 		.ascii	"x\234M\223\371O\023A\024\307wZN\241\240\342m\275\357"
 516      F94F1341 
 516      14C7775A 
 516      4EA1A0E2 
 516      6DBDEF
 517 0013 5BC028F1 		.ascii	"[\300(\361\027\177\325\277J\010\224\024\010\206@\015"
 517      177FD5BF 
 517      4A089414 
 517      0886400D 
 518 0023 894AA208 		.ascii	"\211J\242\010)\012\224\"\307\322R\240\202PP\216\026"
 518      290A9422 
 518      C7D252A0 
 518      8250508E 
 518      16
 519 0034 44A8502C 		.ascii	"D\250P,g\313\321rUn\320\357\356\2744\333\344\223\327"
 519      67CBD172 
 519      556ED0EF 
 519      EEBC34DB 
 519      E493D7
 520 0047 CFBCD9D9 		.ascii	"\317\274\331\331\235\367f\"\004&H\277\244(\201\376\011"
 520      9DF76622 
 520      042648BF 
 520      A42881FE 
 520      09
 521 0058 C2BE8AD5 		.ascii	"\302\276\212\325,Y\2665!\225N\215A\350\210s\352\271"
 521      2C59B635 
 521      21954E8D 
 521      41E88873 
 521      EAB9
 522 006a 648C3D82 		.ascii	"d\214=\202\255\366\275\231N\340\311\213\320\302\305"
 522      ADF6BD99 
 522      4EE0C98B 
 522      D0C2C5
 523 0079 E581689E 		.ascii	"\345\201h\236M\2056\314\345\244k\270\246@C\226\354\035"
 523      4D8536CC 
ARM GAS  C:\Users\Sava\AppData\Local\Temp\ccqTJW0n.s 			page 42


 523      E5A46BB8 
 523      A6404396 
 523      EC1D
 524 008b 9A9C042D 		.ascii	"\232\234\004-m\353\177\311\223\311\260f\321\326\025"
 524      6DEB7FC9 
 524      93C9B066 
 524      D1D615
 525 009a C9F521B4 		.ascii	"\311\365!\264{,\2775\212\353\003h\347\277M{\"\177T\005"
 525      7B2CBF35 
 525      8AEB0368 
 525      E7BF4D7B 
 525      227F5405 
 526 00ae 357B3D19 		.ascii	"5{=\031\224\275\017m\037k\321G\362\354\023\350\272O"
 526      94BD0F6D 
 526      1F6BD147 
 526      F2EC13E8 
 526      BA4F
 527 00c0 0CA879F6 		.ascii	"\014\250y\366\0364\253\244`@\305\365.\324\261\356\037"
 527      1E34ABA4 
 527      6040C5F5 
 527      2ED4B1EE 
 527      1F
 528 00d1 8AE57A07 		.ascii	"\212\345z\007*\006+E\332\236]\332\237\321e\310K\344"
 528      2A062B45 
 528      DA9E5DDA 
 528      9FD165C8 
 528      4BE4
 529 00e3 E9DBD0FA 		.ascii	"\351\333\320\372o\216\354\030\236f\320\035\213\2474"
 529      6F8EEC18 
 529      9E66D01D 
 529      8BA734
 530 00f2 82676F41 		.ascii	"\202goA\337\256{\346i\255\233\320r\321\375\202\333\015"
 530      DFAE7BE6 
 530      69AD9BD0 
 530      72D1FD82 
 530      DB0D
 531 0104 D8CC6EB5 		.ascii	"\330\314n\265\225\266\033\005\335(\310\310\247\257\272"
 531      95B61B05 
 531      DD28C8C8 
 531      A7AFBA
 532 0113 AE2C9520 		.ascii	"\256,\225 \227j\302\336?J;\272\006\235\312,L\217\347"
 532      976AC2DE 
 532      3F4A3BBA 
 532      069DCA2C 
 532      4C8FE7
 533 0126 D967D02D 		.ascii	"\331g\320-\233\253\224\266pU\312\2327\306i\251+\322"
 533      9BAB94B6 
 533      7055CA9A 
 533      37C669A9 
 533      2BD2
 534 0138 52AFC442 		.ascii	"R\257\304B\312^\206\352\307\226B\361\\/A]Y\346wj\276"
 534      CA5E86EA 
 534      C79642F1 
 534      5C2F415D 
 534      59E6776A 
 535 014d 5484B263 		.ascii	"T\204\262cL\356X\270\032\202\\\215\2422\223\205:v\001"
 535      4CEE58B8 
ARM GAS  C:\Users\Sava\AppData\Local\Temp\ccqTJW0n.s 			page 43


 535      1A825C8D 
 535      A2329385 
 535      3A7601
 536 0160 3A5A5B64 		.ascii	":Z[d\246\302.K\333\267fV\232)}^\352\240\277\257\207"
 536      A6C22E4B 
 536      DBB76656 
 536      9A297D5E 
 536      EAA0BFAF 
 537 0175 7A760EDA 		.ascii	"zv\016\332\324\022H\341\246\205Ut\266\213\214\353Y\250"
 537      D41248E1 
 537      A6855574 
 537      B68B8CEB 
 537      59A8
 538 0187 CFF7C140 		.ascii	"\317\367\301@_uFYfA.s\250\270\327MU?\015\015f\315z\343"
 538      5F754659 
 538      66412E73 
 538      A8B8D74D 
 538      553F0D0D 
 539 019f B89E921A 		.ascii	"\270\236\222\032Z\254\313\211\341zR\252\325\353\235"
 539      5AACCB89 
 539      E17A52AA 
 539      D5EB9D
 540 01ae 41FAAAC7 		.ascii	"A\372\252\307\320\277\333\271Aj\302\011\350\264\361"
 540      D0BFDBB9 
 540      416AC209 
 540      E8B4F1
 541 01bd A0982A79 		.ascii	"\240\230*y\\\3311A\356\330\352^\211H\223\217)\217$\223"
 541      5CD93141 
 541      EED8EA5E 
 541      8948938F 
 541      298F2493 
 542 01d1 8FA4DE31 		.ascii	"\217\244\33611\314\370\344#\320Z\357\236\215\272}T\231"
 542      31CCF8E4 
 542      23D05AEF 
 542      9E8DBA7D 
 542      5499
 543 01e3 65727670 		.ascii	"ervp\245\267\204>\362\260\262\277\202\334_\323Z\310"
 543      A5B7843E 
 543      F2B0B2BF 
 543      82DC5FD3 
 543      5AC8
 544 01f5 449F9108 		.ascii	"D\237\221\010\315\353l\350\242l\267t\314\366\3073\016"
 544      CDEB6CE8 
 544      A26CB774 
 544      CCF6C733 
 544      0E
 545 0206 A86709D0 		.ascii	"\250g\011\320\217\013\226\016\252\244\006\272\3537\270"
 545      8F0B960E 
 545      AAA406BA 
 545      EB37B8
 546 0215 E94DF1D2 		.ascii	"\351M\361\322\235sgYH\343\244gW\234\373T\312C\320\312"
 546      9D736759 
 546      48E3A467 
 546      579CFB54 
 546      CA43D0CA 
 547 0229 C6722B65 		.ascii	"\306r+ec\245\313\260f6\322\321QCmU\026\267\212\353\206"
 547      63A5CBB0 
ARM GAS  C:\Users\Sava\AppData\Local\Temp\ccqTJW0n.s 			page 44


 547      6636D2D1 
 547      51436D55 
 547      16B78AEB 
 548 023e D4C250AE 		.ascii	"\324\302P\256n\223\316N4t\262\274\310@\375\037\026\224"
 548      6E93CE4E 
 548      3474B2BC 
 548      C840FD1F 
 548      1694
 549 0250 8796C987 		.ascii	"\207\226\311\207\266\247\314\272G\257\212\204\326\271"
 549      B6A7CCBA 
 549      47AF8A84 
 549      D6B9
 550 025e B746A898 		.ascii	"\267F\250\230O\225G\213\311G+\374f&\2779|9\004\371r"
 550      4F95478B 
 550      C9472BFC 
 550      6626BF39 
 550      7C3904F9 
 551 0273 84AF3093 		.ascii	"\204\2570\223\257\360\2661\220\220\326\230\256\177\237"
 551      AFF0B631 
 551      9090D698 
 551      AE7F9F
 552 0282 EED4E8D4 		.ascii	"\356\324\350\324*\226\254eML\313R\264\314\210\260\002"
 552      2A96AC65 
 552      4D4CCB52 
 552      B4CC88B0 
 552      02
 553 0293 96419071 		.ascii	"\226A\220q\017\200%\260\310\370\264\0050\017\374\300"
 553      0F8025B0 
 553      C8F8B405 
 553      300FFCC0 
 554 02a3 0752B56C 		.ascii	"\007R\265l\016a\226\3223\024\247\351\361)0\004&i\334"
 554      0E6196D2 
 554      3314A7E9 
 554      F1293004 
 554      2669DC
 555 02b6 0BFE8009 		.ascii	"\013\376\200\011\340\001\3434>F\3617p\203Qz~\004\374"
 555      E001E334 
 555      3E46F137 
 555      7083517A 
 555      7E04FC
 556 02c9 02C3E43F 		.ascii	"\002\303\344?i\275A\232\357\242q'\030\000\375\240\023"
 556      69BD419A 
 556      EFA27127 
 556      1800FDA0 
 556      13
 557 02da F4D1782F 		.ascii	"\364\321x/\305\037\024\277\203\036\320\015\034\240\213"
 557      C51F14BF 
 557      831ED00D 
 557      1CA08B
 558 02e9 E67FA37C 		.ascii	"\346\177\243|\007\305vZ\377+\260\2036\320\012Z\200\015"
 558      07C5765A 
 558      FF2BB083 
 558      36D00A5A 
 558      800D
 559 02fb 34D33C2B 		.ascii	"4\323<+E\013\315\027A#h\240\361z\212u\340\013\250\005"
 559      450BCD17 
 559      412368A0 
ARM GAS  C:\Users\Sava\AppData\Local\Temp\ccqTJW0n.s 			page 45


 559      F17A8A75 
 559      E00BA805 
 560 030f 665043E3 		.ascii	"fPC\343&\212\325\240\012T\222\177\006\237@\005w\201"
 560      268AD5A0 
 560      0A54927F 
 560      069F4005 
 560      7781
 561 0321 ADB234E1 		.ascii	"\255\2624\341?\025/\014!"
 561      3F152F0C 
 561      21
 562              		.text
 563              		.section	.gnu.lto_mcu35_init_sequence_web_edited.15f1333b,"",%progbits
 564 0000 789C4D92 		.ascii	"x\234M\222\355ORa\030\207\317\303\001\205D\351\375\225"
 564      ED4F5261 
 564      1887CFC3 
 564      018544E9 
 564      FD95
 565 0012 EA73F629 		.ascii	"\352s\366)[\233\353K\377\032Mpf\337\222\305\027\334"
 565      5B9BEB4B 
 565      FF1A4D70 
 565      66DF92C5 
 565      17DC
 566 0024 0C755028 		.ascii	"\014uP(b\032xH\313\216\020aX\"\222c\245X\331`\256\230"
 566      621A7848 
 566      CB8E1061 
 566      58229263 
 566      A558D960 
 567 003a 2F14A260 		.ascii	"/\024\242`\375\316\271\3576\330\256\035.~\367\363<\367"
 567      FDCEB9EF 
 567      36D8AE1D 
 567      2E7EF7F3 
 567      3CF7
 568 004c 731F8C92 		.ascii	"s\037\214\222\220\264\317gY\342o\222\3240\210XO0\334"
 568      90B4CF67 
 568      59E26F92 
 568      D4308858 
 568      4F30DC
 569 005f 5E31B864 		.ascii	"^1\270dI\\\203\016\214\204\024]\205\270\016\035s\345"
 569      495C830E 
 569      8C84145D 
 569      85B80E1D 
 569      73E5
 570 0071 9D164AD7 		.ascii	"\235\026J\327Es\265\320\253'~*5^\254\355\345+-\245L"
 570      4573B5D0 
 570      AB277E2A 
 570      355EACED 
 570      E52B2DA5 
 571 0086 945E851E 		.ascii	"\224^\205\036*\353>#\2457\2403s\277\272(\264\303\026"
 571      2AEB3E23 
 571      A537A033 
 571      73BFBA28 
 571      B4C316
 572 0099 87FFA826 		.ascii	"\207\377\250&\012\267\264\265\201\204\032\025\024_\201"
 572      0AB7B4B5 
 572      81841A15 
 572      145F81
 573 00a8 168B4FDC 		.ascii	"\026\213O\334V\322\313\320\355]_\240\225\252\013Z\037"
ARM GAS  C:\Users\Sava\AppData\Local\Temp\ccqTJW0n.s 			page 46


 573      56D2CBD0 
 573      ED5D5FA0 
 573      95AA0B5A 
 573      1F
 574 00b9 154F3A6F 		.ascii	"\025O:o\243\370\022t:\236\3545S\254\245e\347\217\315"
 574      A3F81274 
 574      3A9EEC35 
 574      53ACA565 
 574      E78FCD
 575 00cc 364A2F42 		.ascii	"6J/B\367=\256\007f\322\013\320\337\265\376\262\205\364"
 575      F73DAE07 
 575      66D20BD0 
 575      DFB5FEB2 
 575      85F4
 576 00de 3C34E30C 		.ascii	"<4\343\014{eZk\204~\367\037{Z(=\007M\356\227\262<\200"
 576      7B655A6B 
 576      847EF71F 
 576      7B5A283D 
 576      074DEE97 
 577 00f5 9BD0DDFA 		.ascii	"\233\320\335\372`\224\327\236\205~\353y\344\260RzO\353"
 577      6094D79E 
 577      857EEB79 
 577      E4B0527A 
 577      4FEB
 578 0107 4AE93DEC 		.ascii	"J\351=\354\240\364\014tr\263>k$=\015\355Kn\344\370\206"
 578      A0F40C74 
 578      72B33E6B 
 578      243D0DED 
 578      4B6EE4F8 
 579 011c A7A02B3B 		.ascii	"\247\240+;\351An\362$4\264W\011\361\2716\250?\343~h"
 579      E9416EF2 
 579      2434B457 
 579      09F1B936 
 579      A83FE37E 
 580 0131 A39D3BA1 		.ascii	"\243\235;\241\215/\367\217\015\224v@kUo\225\207\367"
 580      8D2FF78F 
 580      0D947640 
 580      6B556F95 
 580      87F7
 581 0143 58BBF0F0 		.ascii	"X\273\360\360\266\262\300\203o\207\036\225\334y>\311"
 581      B6B2C083 
 581      6F871E95 
 581      DC793EC9 
 582 0153 0A5DCB3B 		.ascii	"\012]\313;\025\326\266\346>$\275\217\306\316r\203'}"
 582      15D6B6E6 
 582      3E24BD8F 
 582      C6CE7283 
 582      277D
 583 0165 021A8C8C 		.ascii	"\002\032\214\214\306\270\330\002M\374\255\316s\037\006"
 583      C6B8D802 
 583      4DFCADCE 
 583      731F06
 584 0174 ED86FDAE 		.ascii	"\355\206\375\256\252Li+\324[P7x:q\355%n\035\215\307"
 584      AA4C692B 
 584      D45B5037 
 584      783A71ED 
 584      256E1D8D 
ARM GAS  C:\Users\Sava\AppData\Local\Temp\ccqTJW0n.s 			page 47


 585 0189 78002DD0 		.ascii	"x\000-\320\257\243\003n\216sZ\234\032\211\325\371(S"
 585      AFA3036E 
 585      8E735A9C 
 585      1A89D5F9 
 585      2853
 586 019b F3E4853E 		.ascii	"\363\344\205>\371\251\374\301\032\377]\356B\325\275"
 586      F9A9FCC1 
 586      1AFF5DEE 
 586      42D5BD
 587 01aa B09F8BE5 		.ascii	"\260\237\213\345\346F\204\336Ha\265\370\377\255\335"
 587      E64684DE 
 587      4861B5F8 
 587      FFADDD
 588 01b9 810E9583 		.ascii	"\201\016\225\203Ysw\304\3217\344pX\\\262A\334\262\213"
 588      597377C4 
 588      D137E470 
 588      585CB241 
 588      DCB28B
 589 01cc 9CB08B2E 		.ascii	"\234\260\213.\273\230\306c\025\004A\026\254\200\214"
 589      BB98C663 
 589      15044116 
 589      AC808C
 590 01db A0DF97C1 		.ascii	"\240\337\227\301G\360\001,\2014x\017nS\371\"\227\245"
 590      47F0012C 
 590      8134780F 
 590      6E53F922 
 590      97A5
 591 01ed C03B90E4 		.ascii	"\300;\220\344m\336\202\247 \001\342`\001\250\340\015"
 591      6DDE82A7 
 591      2001E260 
 591      01A8E00D 
 592 01fd 9801F35C 		.ascii	"\230\001\363\\\367\232\237\257x\23790\013^\202\030P"
 592      F79A9FAF 
 592      789F3930 
 592      0B5E8218 
 592      50
 593 020e B83ECA75 		.ascii	"\270>\312u\021~\276\340\372)\360\034L\362ya0\001B`\034"
 593      117EBEE0 
 593      FA29F01C 
 593      4CF27961 
 593      30014260 
 594 0223 8C71FD33 		.ascii	"\214q\3753\316\003\300/\354\222\370$\272\245\177x\254"
 594      CE03C02F 
 594      EC92F824 
 594      BAA57F78 
 594      AC
 595 0234 4D01     		.ascii	"M\001"
 596              		.text
 597              		.section	.gnu.lto_.symbol_nodes.15f1333b,"",%progbits
 598 0000 789C5DCE 		.ascii	"x\234]\316\273N\3030\030\206\341\357\213\223\264$m\221"
 598      BB4EC330 
 598      1886E1EF 
 598      8B93B424 
 598      6D91
 599 0012 BAB0C2A5 		.ascii	"\272\260\302\245pe\177*,\220\030J\005\022\225\312\200"
 599      70657F2A 
 599      2C90184A 
ARM GAS  C:\Users\Sava\AppData\Local\Temp\ccqTJW0n.s 			page 48


 599      051295CA 
 599      80
 600 0023 5033A072 		.ascii	"P3\240r>\303\034f\256\201\252\035\271\006\204\017\211"
 600      3EC31C66 
 600      AE81AA1D 
 600      B906840F 
 600      89
 601 0034 8433FDAF 		.ascii	"\2043\375\257\237\330\216c\020[\021\200\350\216\002"
 601      9FD88E63 
 601      105B1180 
 601      E88E02
 602 0043 4CBE0033 		.ascii	"L\276\0003.G\027\2052\366@a\333\356)Q\333\036)\252m"
 602      2E471785 
 602      32F64061 
 602      DBEE2951 
 602      DB1E29AA 
 603 0058 D794B8B1 		.ascii	"\327\224\270\261\305h\307\310-%\011\345\211\222\266"
 603      C568C7C8 
 603      2D2509E5 
 603      8992B6
 604 0067 CFDD503A 		.ascii	"\317\335P:\301\256\344\212\320C@%\013\322\005\237)]"
 604      C1AEE48A 
 604      D0434025 
 604      0BD2059F 
 604      295D
 605 0079 B707288A 		.ascii	"\267\007(\212m\200o\224\215\000>(Y\000\357\224<\200"
 605      6D806F94 
 605      8D003E28 
 605      5900EF94 
 605      3C80
 606 008b 174A2F80 		.ascii	"\027J/\200WJ\377?(\344(\277\177w\0252|\272\231c]\257"
 606      574AFF3F 
 606      28E428BF 
 606      7F771532 
 606      7CBA9963 
 607 00a1 F5D2AFCB 		.ascii	"\365\322\257\313e\375\335N\366\374\376(C\271\377s\336"
 607      65FDDD4E 
 607      F6FCFE28 
 607      43B9FF73 
 607      DE
 608 00b2 5511511D 		.ascii	"U\021Q\035\270\350C\217m\250\201\277*\006\252c\0131"
 608      B8E8438F 
 608      6DA881BF 
 608      2A06AA63 
 608      0B31
 609 00c4 B13A71A1 		.ascii	"\261:q\241PM]dX\317l$\304\334^\233(\354\0356\340\303"
 609      504D5D64 
 609      58CF6C24 
 609      C4DC5E9B 
 609      28EC1D36 
 610 00da C851233E 		.ascii	"\310Q#>\006\320\247.6\241\317l\244\365\237:f\213\233"
 610      06D0A72E 
 610      36A1CF6C 
 610      A4F59F3A 
 610      668B9B
 611 00ed E68C7B8B 		.ascii	"\346\214{\213\005\037F\306\215\370H1\237\326\261\262"
 611      051F46C6 
ARM GAS  C:\Users\Sava\AppData\Local\Temp\ccqTJW0n.s 			page 49


 611      8DF84831 
 611      9FD6B1B2 
 612 00fd 6FC01F5F 		.ascii	"o\300\037_\315\226\267"
 612      CD96B7
 613              		.text
 614              		.section	.gnu.lto_.refs.15f1333b,"",%progbits
 615 0000 789C6361 		.ascii	"x\234ca`\004B \000\000\0009\000\007"
 615      60044220 
 615      00000039 
 615      0007
 616              		.text
 617              		.section	.gnu.lto_.decls.15f1333b,"",%progbits
 618 0000 789CBD58 		.ascii	"x\234\275X{PTW\232\357so\323@\323@\006\315\256\223\260"
 618      7B505457 
 618      9AEF736F 
 618      D340D340 
 618      06CDAE93 
 619 0015 D1C91065 		.ascii	"\321\311\020eS\033\224hR3\331?f'\272\223\244*\273\233"
 619      531B9468 
 619      5233D93F 
 619      6627BA93 
 619      A42ABB9B 
 620 0029 1A27999A 		.ascii	"\032'\231\232Zf\273\260i\225\032\004\266i\234\260[;"
 620      5A66BBB0 
 620      69951A04 
 620      B6699CB0 
 620      5B3B
 621 003b 75059FA8 		.ascii	"u\005\237\250\021\360\215\340\023\004Dy\010b\300\007"
 621      11F08DE0 
 621      13044479 
 621      0862C007 
 622 004b 2D0828BE 		.ascii	"-\010(\276Qy\211B@DDy*\002\212\354\367\235sn\337\333"
 622      51798942 
 622      40444479 
 622      2A028AEC 
 622      F79D736E 
 623 0061 9D6EE7BF 		.ascii	"\235n\347\277\271\305\241\357=\367{\374\276\337\367"
 623      B9C5A1EF 
 623      3DF77BFC 
 623      BEDFF7
 624 0070 9DD7D56A 		.ascii	"\235\327\325j\210\006\257\376\2674\232fQ\243\231\256"
 624      8806AFFE 
 624      B7349A66 
 624      51A399AE 
 625 0080 D568A6E0 		.ascii	"\325h\246\340\362\201\276o4\312\345\007\355\030\264"
 625      F281BE6F 
 625      34CAE507 
 625      ED18B4
 626 008f EFA15D83 		.ascii	"\357\241]\203\326\004\255\005\373A}\032\264\267\241"
 626      D604AD05 
 626      FB417D1A 
 626      B4B7A1
 627 009e CD84361B 		.ascii	"\315\2046\033Z0\264\367\241\315\203\366!4\001\344>\201"
 627      5A30B4F7 
 627      A1CD83F6 
 627      213401E4 
 627      3E81
ARM GAS  C:\Users\Sava\AppData\Local\Temp\ccqTJW0n.s 			page 50


 628 00b0 DF4F89C6 		.ascii	"\337O\211\306\341B{\236\334\317Bx\367sh\357A[\004\255"
 628      E1427B9E 
 628      DCCF4278 
 628      F77368EF 
 628      415B04AD 
 629 00c4 01FADEE1 		.ascii	"\001\372\336\341\362\"\227\235\315}8_\210I\307\355\004"
 629      F222979D 
 629      CD7D385F 
 629      8849C7ED 
 629      04
 630 00d5 409B0EAD 		.ascii	"@\233\016\255\024\332\277\202\354I.#p\271`\027\372\327"
 630      14DABF82 
 630      EC492E23 
 630      70B96017 
 630      FAD7
 631 00e7 787C6AFD 		.ascii	"x|j\375\313\320l\320\002\241\315A\337\320\376\003\332"
 631      CBD06CD0 
 631      02A1CD41 
 631      DFD0FE03 
 631      DA
 632 00f8 250DC387 		.ascii	"%\015\303\207\330\324\366\265\334\016\342C?\357\273"
 632      D8D4F6B5 
 632      DC0EE243 
 632      3FEFBB
 633 0107 F0839C79 		.ascii	"\360\203\234y9\371\371Z\303b\375\012\332o@g.Q\360\242"
 633      39F9F95A 
 633      C362FD0A 
 633      DA6F4067 
 633      2E51F0A2 
 634 011b FC3C1776 		.ascii	"\374<\027v\220\367\031Nv:\240\375\2210;\201\034\357"
 634      90F7194E 
 634      763AA0FD 
 634      91303B81 
 634      1CEF
 635 012d 7F1186DD 		.ascii	"\177\021\206\335\010\277_C\253G?\360\273\004\332Q\270"
 635      08BF5F43 
 635      AB473FF0 
 635      BB04DA51 
 635      B8
 636 013e FF4F550C 		.ascii	"\377OU\014\210\301\004\367\215\252\370\220\367\337\303"
 636      88C104F7 
 636      8DAAF890 
 636      F7DFC3
 637 014d EF1FA07D 		.ascii	"\357\037\240}\003\315\203\373\226\353\240I\343:\037"
 637      03CD83FB 
 637      96EBA049 
 637      E33A1F
 638 015c 58136F3B 		.ascii	"X\023o;\341\363\204\276)\015\313\3132\270\377\023\264"
 638      E1F384BE 
 638      290DCBCB 
 638      32B8FF13 
 638      B4
 639 016d 68C2F226 		.ascii	"h\302\362&\343\375\212s\214\261\305\252\260a] 6\013"
 639      E3FD8A73 
 639      8CB1C5AA 
 639      B0615D20 
 639      360B
ARM GAS  C:\Users\Sava\AppData\Local\Temp\ccqTJW0n.s 			page 51


 640 017f AF8B4615 		.ascii	"\257\213F\025Wr,xyp\33726\271\376\234/\254WWy(u\223"
 640      57722C78 
 640      7970DF32 
 640      36B9FE9C 
 640      2FAC5757 
 641 0197 8769C475 		.ascii	"\207i\304u\036\260\346\177\352\"\316I\015\253\235?\303"
 641      1EB0E67F 
 641      EA22CE49 
 641      0DAB9D3F 
 641      C3
 642 01a8 FDB74E31 		.ascii	"\375\267N1bL\350\347$\367U\317yOP\305\206\271\374\037"
 642      624CE8E7 
 642      24F755CF 
 642      794F50C5 
 642      86B9FC1F 
 643 01bc 78FE5F68 		.ascii	"x\376_h\001<\207\350~T\303\352\354mU\214\323\\\340\372"
 643      013C87E8 
 643      7E54C3EA 
 643      EC6D558C 
 643      D35CE0FA 
 644 01d0 84E72E90 		.ascii	"\204\347.\220c\372\245\013\031\371\372\324I\366\327"
 644      63FAA50B 
 644      19F9FAD4 
 644      49F6D7
 645 01df AF919D14 		.ascii	"\257\221\235\024\310\313\027W\317y\336!-(E\360\322h"
 645      C8CB1757 
 645      CF79DE21 
 645      2D2845F0 
 645      D268
 646 01f1 9C14086B 		.ascii	"\234\024\010k\204\330\351S$\010\371\26105\241\364;\273"
 646      84D8E953 
 646      2408F9B1 
 646      3035A1F4 
 646      3BBB
 647 0203 9F922FE5 		.ascii	"\237\222/\345\005a\216\231\222Z^v\015n\331-\321\330"
 647      05618E99 
 647      925A5E76 
 647      0D6ED92D 
 647      D1D8
 648 0215 51C8B22A 		.ascii	"Q\310\262*{\034\275\002\326\351\022\345\240\033\263"
 648      7B1CBD02 
 648      D6E912E5 
 648      A01BB3
 649 0224 373CF713 		.ascii	"7<\367\023\301&\334\267\217\347\376&\344\250\004W\212"
 649      C126DCB7 
 649      8FE7FE26 
 649      E4A80457 
 649      8A
 650 0235 2409EF2B 		.ascii	"$\011\357+\314\334X]\224!>\025H\200\236h\341q\350Jz"
 650      CCDC585D 
 650      94213E15 
 650      48809E68 
 650      E171E84A 
 651 024a 971F3C4E 		.ascii	"\227\037<N\327\223Y\3608yqO\2720c\007\325K\222fi\311"
 651      D79359F0 
 651      3879714F 
 651      BA306307 
ARM GAS  C:\Users\Sava\AppData\Local\Temp\ccqTJW0n.s 			page 52


 651      D54B9266 
 652 0260 377F47F2 		.ascii	"7\177G\362I 9B\200xr\224@\311\223%Zfi4\243\177\361\273"
 652      49203942 
 652      80787294 
 652      40C99325 
 652      5A666934 
 653 0278 FB25DB7E 		.ascii	"\373%\333~\251\343\371\375\177\312<.I\033@M\213R$\227"
 653      A9E3F9FD 
 653      7FCA3C2E 
 653      491B404D 
 653      8B522497 
 654 028c 88248F84 		.ascii	"\210$\217\204`0p\213?9\344\016\304p\214\274\013\232"
 654      6030708B 
 654      3F39E40E 
 654      C4708CBC 
 654      0B9A
 655 029e DB725A5F 		.ascii	"\333rZ_\371\213\241\024h\366\304\213A\3043[O\246\246"
 655      F98BA114 
 655      68F6C48B 
 655      41C4335B 
 655      4FA6A6
 656 02b1 44E8287C 		.ascii	"D\350(|\\>\356\313:\360}\356\201\332\022\275\370)\275"
 656      5C3EEECB 
 656      3AF07DEE 
 656      81DA12BD 
 656      F829BD
 657 02c4 AF997A6E 		.ascii	"\257\231zn\363g\330\005xl\030\274\234\351\303\260\277"
 657      F367D805 
 657      786C18BC 
 657      9CE9C3B0 
 657      BF
 658 02d5 312908FD 		.ascii	"1)\010\375\245u\315\276D\037\274^\222\022%)I\322\007"
 658      A575CDBE 
 658      441FBC5E 
 658      92122529 
 658      49D207
 659 02e8 6B480960 		.ascii	"kH\011`?\016\330\311\011\022\214\026\021\023)\202\316"
 659      3F0ED8C9 
 659      09128C16 
 659      11132982 
 659      CE
 660 02f9 42E83C8C 		.ascii	"B\350<\214av\224\324.\335\271\0168\"\245DO\212\025\334"
 660      617694D4 
 660      2EDDB90E 
 660      3822A544 
 660      4F8A15DC 
 661 030d B3F52CCC 		.ascii	"\263\365,\314]\207\266\004k13\370\036b\207\256\314{"
 661      5D87B604 
 661      6B3133F8 
 661      1E6287AE 
 661      CC7B
 662 031f 4506B724 		.ascii	"E\006\267$\235\244$\225\021\316\222\355ae'\221i\312"
 662      9DA42495 
 662      11CE92ED 
 662      61652791 
 662      69CA
 663 0331 9AABD004 		.ascii	"\232\253\320\004r\244@qW\240\246\351{JS\317T\362\230"
ARM GAS  C:\Users\Sava\AppData\Local\Temp\ccqTJW0n.s 			page 53


 663      72A44071 
 663      57A0A6E9 
 663      7B4A53CF 
 663      54F298
 664 0344 BFF8271A 		.ascii	"\277\370'\032\372\335\013y\371H\323\034\244ij\312_E"
 664      FADD0B79 
 664      F948D31C 
 664      A4696ACA 
 664      5F45
 665 0356 D41C4654 		.ascii	"\324\034FT\303\226\341,O\361\377\360^\310O\355k\360"
 665      C396E12C 
 665      4FF1FFF0 
 665      5EC84FED 
 665      6BF0
 666 0368 26C17A16 		.ascii	"&\301z\026aq\375\242T\032\341Y\210\340\264\342r\016"
 666      6171FDA2 
 666      541AE159 
 666      88E0B4E2 
 666      720E
 667 037a 4648D982 		.ascii	"FH\331\2020\002>\327\330\203 g\200\2559\234\255S\320"
 667      30023ED7 
 667      D8832067 
 667      80AD399C 
 667      AD53D0
 668 038d 59019DE0 		.ascii	"Y\001\235\340\"/+\365\240N\334H+L8Rp\255\326S\246\333"
 668      222F2BF5 
 668      A04EDC48 
 668      2B4C3852 
 668      70ADD653 
 669 03a3 D9C03917 		.ascii	"\331\3009\027\006\030\230\226\264\005P\226o\020\033"
 669      06189896 
 669      B4055096 
 669      6F101B
 670 03b2 60A954B0 		.ascii	"`\251T\260\0004\306\327\017\325\333%?\312\267\315\316"
 670      0034C6D7 
 670      0FD5DB25 
 670      3FCAB7CD 
 670      CE
 671 03c3 77E19AFB 		.ascii	"w\341\232\373y^\020i \004OT\221\007\262\310Km#\307\264"
 671      795E1069 
 671      20044F54 
 671      9107B2C8 
 671      4B6D23C7 
 672 03d8 E24691C2 		.ascii	"\342F\221\302\272Q\322R\243\016\375\235\357\321[\035"
 672      BA51D252 
 672      A30EFD9D 
 672      EFD15B1D 
 673 03e8 D8AA51BC 		.ascii	"\330\252Q\274\005\332#\037<(\351fh\310\374@2\017`\327"
 673      05DA231F 
 673      3C28E966 
 673      68C8FC40 
 673      320F60D7 
 674 03fc 02EC400E 		.ascii	"\002\354@\016\373<\300\256\346q\357\313=\357+ng\016"
 674      FB3CC0AE 
 674      E671EFCB 
 674      3DEF2B6E 
 674      670E
ARM GAS  C:\Users\Sava\AppData\Local\Temp\ccqTJW0n.s 			page 54


 675 040e 9E6CEB5B 		.ascii	"\236l\353[/\332\035\264\244\005\346\243\203zppAqPG\334"
 675      2FDA1DB4 
 675      A405E6A3 
 675      837A7070 
 675      41715047 
 676 0423 78B8E8DA 		.ascii	"x\270\350\332C\346\355\316\024o=\227O\371\353\362\351"
 676      43E6EDCE 
 676      146F3D97 
 676      4FF9EBF2 
 676      E9
 677 0434 35EBAB3C 		.ascii	"5\353\253<\014\311v\352\311%\360\257\324\340eb\340\303"
 677      0CC976EA 
 677      C925F0AF 
 677      D4E06562 
 677      E0C3
 678 0446 BD35ADB4 		.ascii	"\2755\255\264\217\321\011}\244\212P>\313\216\\\177\240"
 678      8FD1097D 
 678      A48A503E 
 678      CB8E5C7F 
 678      A0
 679 0457 755BC057 		.ascii	"u[\300Wi\001_\221\013\370`\342\211j\003\024\260\204"
 679      69015F91 
 679      0BF860E2 
 679      896A0314 
 679      B084
 680 0469 055CF481 		.ascii	"\005\\\364\201R\300 G\312\225\220\313\325\005|\215\026"
 680      52C02047 
 680      CA9590CB 
 680      D5057C8D 
 680      16
 681 047a 70B96D53 		.ascii	"p\271mS\247\277\230Iy#\365\355\335\303\336b!#\261a\367"
 681      A7BF9849 
 681      7923F5ED 
 681      DDC3DE62 
 681      2123B161 
 682 048f E3769DBB 		.ascii	"\343v\235\273\342\271\351\266xJ\326.cc\265\001\302\275"
 682      E2B9E9B6 
 682      784AD62E 
 682      6363B501 
 682      C2BD
 683 04a1 E154C9E0 		.ascii	"\341T\311\340c\252\2434E\240\3216\330\213gc\336\375"
 683      63AAA334 
 683      45A0D136 
 683      D88B6763 
 683      DEFD
 684 04b3 4642FBBE 		.ascii	"FB\373\2766\220[\214\200\214\201\354\022_\267\0044R"
 684      36905B8C 
 684      808C81EC 
 684      125FB704 
 684      3452
 685 04c5 026ECB04 		.ascii	"\002n\313\004\224?\333Q*\332':\325\010\0069r]\001q]"
 685      943FDB51 
 685      2ADA273A 
 685      D5080639 
 685      725D0171 
 686 04da 4D401325 		.ascii	"M@\023%\240x\335I\311K,c\004dl\254)\323\203\235\375"
 686      A078DD49 
ARM GAS  C:\Users\Sava\AppData\Local\Temp\ccqTJW0n.s 			page 55


 686      C94B2C63 
 686      04646CAC 
 686      29D3839D 
 687 04ef 606A6BBD 		.ascii	"`jk\275\270[\262\255\2260\026\234/\233\0253\315j3-\324"
 687      B85BB2AD 
 687      9630169C 
 687      2F9B1533 
 687      CD6A332D 
 688 0504 CCF0A655 		.ascii	"\314\360\246U\275\276b53\323\324\262\272\234\260Y\317"
 688      BDBE6235 
 688      33D3D4B2 
 688      BA9CB059 
 688      CF
 689 0515 071E2B2F 		.ascii	"\007\036+/]<l\020opZ\253vM\372\270\233\002\357\271\235"
 689      5D3C6C10 
 689      6F705AAB 
 689      764DFAB8 
 689      9B02EFB9 
 690 052a 028BEB3F 		.ascii	"\002\213\353?(\307\"\276\013\244\265\375x\006<\233z"
 690      28C722BE 
 690      0BA4B5FD 
 690      78063C9B 
 690      7A
 691 053b E7815E6C 		.ascii	"\347\201^lc.\262\272\244SZw.~p\353\242%m6\035\366\035"
 691      632EB2BA 
 691      A4535A77 
 691      2E7E70EB 
 691      A2256D36 
 692 0552 E0A25D71 		.ascii	"\340\242]qqW\036\366\027\263*^\032XT\036\360x){\363"
 692      71571EF6 
 692      17B32A5E 
 692      1A58541E 
 692      F078297B 
 693 0567 CFC56EEA 		.ascii	"\317\305n\352Q\274\230\336X\345\003\306\360O\237.\201"
 693      51BC98DE 
 693      58E503C6 
 693      F04F9F2E 
 693      81
 694 0578 E3414FF2 		.ascii	"\343AO\362\000\024\323%/\372\313\206M\342\376\237\021"
 694      0014D325 
 694      2FFACB86 
 694      4DE2FE9F 
 694      11
 695 0589 79D86868 		.ascii	"y\330hh\277\206t\203\316}6b\356\2778V\301\027:\035<"
 695      BF867483 
 695      CE7D3662 
 695      EEBF3856 
 695      C1173A1D 
 696 059e E6E455AF 		.ascii	"\346\344U\257\365\021{\231\207\015u\335e\036D\317\\"
 696      F5117B99 
 696      870D75DD 
 696      651E44CF 
 696      5C
 697 05af 706B36B5 		.ascii	"pk6\265\265^j\355\021\274\356\003k\350\267\227\372G"
 697      B55E6AED 
 697      11BCEE03 
 697      6BE8B797 
ARM GAS  C:\Users\Sava\AppData\Local\Temp\ccqTJW0n.s 			page 56


 697      FA47
 698 05c1 2C33E93D 		.ascii	",3\351=\230\354\317>\276\327 \016P\223\272\246\234\241"
 698      98ECCF3E 
 698      BED7200E 
 698      5093BAA6 
 698      9CA1
 699 05d3 5481044D 		.ascii	"T\201\004M\013\012\012\016:\310\030\330\267\250\241"
 699      0B0A0A0E 
 699      3AC818D8 
 699      B7A8A1
 700 05e2 484A9987 		.ascii	"HJ\231\207\264\222~2Mam.\272\010\305\235M*J\002\251"
 700      B4927E32 
 700      4D616D2E 
 700      BA08C59D 
 700      4D2A4A02 
 701 05f7 12111456 		.ascii	"\022\021\024V\2314\020F\206\200\336A\022D\006\240\015"
 701      99341046 
 701      8680DE41 
 701      124406A0 
 701      0D
 702 0608 9320BAA4 		.ascii	"\223 \272\244\037D\270\266\241uo\356\224\222\337B(\344"
 702      1F44B8B6 
 702      A1756FEE 
 702      9492DF42 
 702      28E4
 703 061a 21D08B1A 		.ascii	"!\320\213\032=\204M!s\003)\353O@\251\023\315q\225{u"
 703      3D844D21 
 703      730329EB 
 703      4F40A913 
 703      CD71957B 
 704 062f 3EB62A1D 		.ascii	">\266*\035\022E\036s\215\316\037kPX4\205\266\226:A\202"
 704      12451E73 
 704      8DCE1F6B 
 704      50583485 
 704      B6963A41 
 705 0644 C84150C3 		.ascii	"\310AP\303\323\247\370\037\341\376\321Z\227{kw\250\177"
 705      D3A7F81F 
 705      E1FED15A 
 705      977B6B77 
 705      A87F
 706 0656 E0EA5861 		.ascii	"\340\352Xa\343_\304l-R\245}\224\337s\306@\202\246\007"
 706      E35FC46C 
 706      2D52A57D 
 706      94DF73C6 
 706      4082A607 
 707 066a 0553A26C 		.ascii	"\005S\242l\251\365\302.\311\226(2O\317\310tWL\245\271"
 707      A9F5C22E 
 707      C9962832 
 707      4FCFC874 
 707      574CA5B9 
 708 067e 660AA591 		.ascii	"f\012\245\221\251\347\300\324Sp8\352\300\322\326d\177"
 708      A9E7C0D4 
 708      537038EA 
 708      C0D2D664 
 708      7F
 709 068f 6619F18C 		.ascii	"f\031\361\214\000L7\306Y\274\267\353\014\030/\310\250"
 709      004C37C6 
ARM GAS  C:\Users\Sava\AppData\Local\Temp\ccqTJW0n.s 			page 57


 709      59BCB7EB 
 709      0C182FC8 
 709      A8
 710 06a0 E305F07B 		.ascii	"\343\005\360{\212\273\037{\213G(z\241xl]\253\236L\017"
 710      8ABB1F7B 
 710      8B47287A 
 710      A1786C5D 
 710      AB9E4C0F 
 711 06b4 7609884C 		.ascii	"v\011\210L\000\016w\230\230\227\355\365\004\275\214"
 711      000E7798 
 711      9897EDF5 
 711      04BD8C
 712 06c3 83D09832 		.ascii	"\203\320\2302.\320)\365uxT\012\020O2W\245U\025\347<"
 712      2ED029F5 
 712      7578540A 
 712      104F3257 
 712      A55515E7 
 713 06d8 48F074A6 		.ascii	"H\360t\2468\224\374\367\2508\011\212/\024\305q\252\350"
 713      3894FCF7 
 713      A838098A 
 713      2F14C571 
 713      AAE8
 714 06ea 1ACCCBD7 		.ascii	"\032\314\313\327\200\301\355\343\216\311\275\276\323"
 714      80C1EDE3 
 714      8EC9BDBE 
 714      D3
 715 06f7 B9AACDAD 		.ascii	"\271\252\315\255\252\306YOjJK6\250\327\242W \250\314"
 715      AAC6594F 
 715      6A4A4B36 
 715      A8D7A257 
 715      20A8CC
 716 070a A653F6B5 		.ascii	"\246S\366\265\250\375L\313f\035\235\211\241\217\317"
 716      A8FD4CCB 
 716      661D9D89 
 716      A18FCF
 717 0719 CE6B361F 		.ascii	"\316k6\037\333\251\207a\251c\373\032O\034\251\203\023"
 717      DBA98761 
 717      A963FB1A 
 717      4F1CA983 
 717      13
 718 072a 655AD685 		.ascii	"eZ\326\205P\276\305\345qw[\261\237X\305h\310\2358\220"
 718      50BEC5E5 
 718      71775BB1 
 718      9F58C568 
 718      C89D3890 
 719 073e C8371ED2 		.ascii	"\3107\036\322\217\326\2165B0*R\234\211B Y%(\223\334"
 719      8FD68E35 
 719      42302A52 
 719      9C894220 
 719      59252893 
 720 0753 AFE85660 		.ascii	"\257\350V`\265\240'I\202\2350\035\237\200\206\307\007"
 720      B5A02749 
 720      829D301D 
 720      9F8086C7 
 720      07
 721 0764 4BB5E265 		.ascii	"K\265\342e\346\342^r\363a?w.\326\273u\321\222\026B7"
 721      E6E25E72 
ARM GAS  C:\Users\Sava\AppData\Local\Temp\ccqTJW0n.s 			page 58


 721      F3613F77 
 721      2ED6BB75 
 721      D1921642 
 722 0779 03EBC0C5 		.ascii	"\003\353\300\305Z\305\005x\344\313S\326\310s=%\000%"
 722      5AC50578 
 722      E4CB53D6 
 722      C8733D25 
 722      0025
 723 078b 24813290 		.ascii	"$\2012\220}\340J\266h\357\334\300:\313\222\362\366\010"
 723      7DE04AB6 
 723      68EFDCC0 
 723      3ACB92F2 
 723      F608
 724 079d F6CE64D6 		.ascii	"\366\316d\326yuW\331\035b\357\334\310:\333w\267\235"
 724      797557D9 
 724      1D62EFDC 
 724      C83ADB77 
 724      B79D
 725 07af 74BF63DF 		.ascii	"t\277c\337,\340R\266I\2207\243\253+\253\274\331\022"
 725      2CE052B6 
 725      499037A3 
 725      AB2BABBC 
 725      D912
 726 07c1 046B79D0 		.ascii	"\004ky\320\216$\351\002\350\315B1\322\252\024"
 726      8E24E902 
 726      E8CD4231 
 726      D2AA14
 727 07d0 51AB7A09 		.ascii	"Q\253z\011\372N\300%\350\211\224\321)\210\267(=\256"
 727      FA4EC025 
 727      E88994D1 
 727      2988B728 
 727      3DAE
 728 07e2 B6C40706 		.ascii	"\266\304\007\006\316\254\361\221W\331\024\006\355\354"
 728      CEACF191 
 728      57D91406 
 728      EDEC
 729 07f0 F9831774 		.ascii	"\371\203\027tn\241\245Qh\2512\264\355%\027\256\352\330"
 729      6EA1A551 
 729      68A932B4 
 729      ED2517AE 
 729      EAD8
 730 0802 2A6BDBDA 		.ascii	"*k\333\332\352g_\035A\214lQ\270\204[\005\332V\012m\377"
 730      EA675F1D 
 730      418C6C51 
 730      B8845B05 
 730      DA560A6D 
 731 0817 48E9A8BF 		.ascii	"H\351\250\277\330\303\240M\264&\016xP\03480\030\266"
 731      D8C3A04D 
 731      B4260E78 
 731      501C3830 
 731      18B6
 732 0829 AACBFDC9 		.ascii	"\252\313\375\311\012\303\333\031\270G\351i)>\366\316"
 732      0AC3DB19 
 732      B847E969 
 732      293EF6CE 
 733 0839 1DACB37F 		.ascii	"\035\254\263\177m\311>\017{\347N\326\331\333\263\343"
 733      6DC93E0F 
ARM GAS  C:\Users\Sava\AppData\Local\Temp\ccqTJW0n.s 			page 59


 733      7BE74ED6 
 733      D9DBB3E3 
 734 0849 809FBD73 		.ascii	"\200\237\275s\027\353\354\276rv\273\227\333\330\322"
 734      17EBECBE 
 734      7276BB97 
 734      DBD8D2
 735 0858 696CBBED 		.ascii	"il\273\355\264\027\254\251\366\343+\177\323w\312\312"
 735      B417ACA9 
 735      F6E32B7F 
 735      D377CACA 
 736 0868 0F62649B 		.ascii	"\017bd\233\022\3336ul{hl{\036\016%\012\342S\026\233"
 736      12DB3675 
 736      6C7B686C 
 736      7B1E0E25 
 736      0AE25316 
 737 087d ABDD4D73 		.ascii	"\253\335MsUZ\272\336-\216\275\024G\246\214c2\257|\275"
 737      555ABADE 
 737      2D8EBD14 
 737      47A68C63 
 737      32AF7CBD 
 738 0891 16707440 		.ascii	"\026pt@\255\216\365\304\356=.\255\366F\031\222\241\200"
 738      AD8EF5C4 
 738      EE3D2EAD 
 738      F6461992 
 738      A180
 739 08a3 C810D879 		.ascii	"\310\020\330y\222\354\243\000\032:Z'\274\305\014\017"
 739      92ECA300 
 739      1A3A5A27 
 739      BCC50C0F 
 740 08b3 0A60776A 		.ascii	"\012`wj\327+\037\3610}\020nv\345\367j\355\373\340\222"
 740      D72B1FF1 
 740      307D106E 
 740      76E5F76A 
 740      EDFBE092 
 741 08c7 B5FC1475 		.ascii	"\265\374\024u\0108: \374\325\235\366A\301\345\276\266"
 741      08383A20 
 741      FCD59DF6 
 741      41C1E5BE 
 741      B6
 742 08d8 7BE7BE3E 		.ascii	"{\347\276>6E\240\035\026\342\321\212\266\307\356\313"
 742      3645A01D 
 742      16E2D18A 
 742      B6C7EECB 
 743 08e8 289B8698 		.ascii	"(\233\206\230%\207\270&\263\346\2367\017\261\274/v\333"
 743      2587B826 
 743      B3E69E37 
 743      0FB1BC2F 
 743      76DB
 744 08fa A1B5B614 		.ascii	"\241\265\266\024B\245\310~\005\325~9\310\3034\310\275"
 744      42A5C87E 
 744      05D57E39 
 744      C8C334C8 
 744      BD
 745 090b CD63A5A2 		.ascii	"\315c\245\242X\317\202\254hm\312\363\344\026v\017\304"
 745      58CF82AC 
 745      686DCAF3 
 745      E416760F 
ARM GAS  C:\Users\Sava\AppData\Local\Temp\ccqTJW0n.s 			page 60


 745      C4
 746 091c 765392F0 		.ascii	"vS\222\360\260\226\243\350\347\310\372\271T\177\375"
 746      B096A3E8 
 746      E7C8FAB9 
 746      547FFD
 747 092b EA0198BB 		.ascii	"\352\001\230\2737\353\250\376\251\343\035\215:\246o"
 747      37EBA8FE 
 747      A9E31D8D 
 747      3AA66F
 748 093a 3B6BE6BA 		.ascii	";k\346\272y\212n\236\254{\204\352&=*\334\356%\3460\335"
 748      798A6E9E 
 748      AC7B84EA 
 748      263D2ADC 
 748      EE25E630 
 749 094f 82A32F8A 		.ascii	"\202\243/\212\330\004\361\225\034\375\272\023\353c\324"
 749      D804F195 
 749      1CFDBA13 
 749      EB63D4
 750 095e 936BA9C3 		.ascii	"\223k\251\303F\377\230 O\256w\306\244\307\254\236\241"
 750      46FF9820 
 750      4FAE77C6 
 750      A4C7AC9E 
 750      A1
 751 096f 8F1C6555 		.ascii	"\217\034eU\332V^\373\232\311\241\220RW SWqw\375.^\035"
 751      DA565EFB 
 751      9AC9A190 
 751      52572053 
 751      577177FD 
 752 0986 B606040E 		.ascii	"\266\006\004\016\357I\276\002<_\006^D\201\247\345\364"
 752      EF49BE02 
 752      3C5F065E 
 752      4481A7E5 
 752      F4
 753 0997 5F853999 		.ascii	"_\2059\231\001\177\274%\367\251/'\255aty:%\0157\266"
 753      017FBC25 
 753      F7A92F27 
 753      AD617479 
 753      3A250D37 
 754 09ac C58A7EB1 		.ascii	"\305\212~\261\254\177\234\352\017\365\214V\371\211\243"
 754      AC7F9CEA 
 754      0FF58C56 
 754      F989A3
 755 09bb 4CBFFD56 		.ascii	"L\277\375V\217\374U\342#<\364oi\377g\266W\313\305O\002"
 755      8FFC55E2 
 755      233CF46F 
 755      69FF67B6 
 755      57CBC54F 
 756 09d0 4DD73B3F 		.ascii	"M\327;?g/\027\300\323\255\312S\247\375\365\312\324\214"
 756      672F17C0 
 756      D3ADCA53 
 756      A7FDF5CA 
 756      D48C
 757 09e2 FDAAE337 		.ascii	"\375\252\3437N\266\270\347(\023hEm\314\354Xk\010H\341"
 757      4EB6B8E7 
 757      28136845 
 757      6DCCEC58 
 757      6B0848E1 
ARM GAS  C:\Users\Sava\AppData\Local\Temp\ccqTJW0n.s 			page 61


 758 09f6 5F42FE85 		.ascii	"_B\376\205\320\223\332\011\230\266K\005\024\377^\010"
 758      D093DA09 
 758      98B64B05 
 758      14FF5E08 
 759 0a06 9095507A 		.ascii	"\220\225Pz\363\336\276\217\325\302\227^'\274\373\324"
 759      F3DEBE8F 
 759      D5C2975E 
 759      27BCFBD4 
 760 0a16 EDCFDF3B 		.ascii	"\355\317\337;$\245\340d:f(\200\355\2607)\027\002H\011"
 760      24A5E064 
 760      3A662880 
 760      EDB03729 
 760      17024809 
 761 0a2a 8B59A588 		.ascii	"\213Y\245\210=\277\203\365\264Bx\017\007\365\263\362"
 761      3DBF83F5 
 761      B442780F 
 761      07F5B3F2 
 762 0a3a 3C226EF2 		.ascii	"<\"n\362\244\221\313\037`\002\330\007\230\202\207\225"
 762      A491CB1F 
 762      6002D807 
 762      98828795 
 763 0a4a 197A16BA 		.ascii	"\031z\026\272\204\3378\266f\025\224\373\262\3273\341"
 763      84DF38B6 
 763      661594FB 
 763      B2D733E1 
 764 0a5a F1C1D62B 		.ascii	"\361\301\326+\245^nc\257\224c?\313bohnN\366q\216\375"
 764      A55E6E63 
 764      AF94633F 
 764      CB626F68 
 764      6E4EF671 
 765 0a70 0CA03A4D 		.ascii	"\014\240:MQ\331h8\225r8\031M/\036\030\234\203w+]q\340"
 765      51D96838 
 765      95723819 
 765      4D2F1E18 
 765      9C83772B 
 766 0a87 65972F8B 		.ascii	"e\227/\213\336v\334\003\"?\007\221\237\342\221+Z\247"
 766      DE76DC03 
 766      223F0791 
 766      9FE2912B 
 766      5AA7
 767 0a99 78E45534 		.ascii	"x\344U4\362\301s\027\252\375\325\325\214\343R\301_\315"
 767      F2C17317 
 767      AAFDD5D5 
 767      8CE352C1 
 767      5FCD
 768 0aab AA197F41 		.ascii	"\252\031\177A\370\310\336\015\343\242Zx\257\203\360"
 768      F8C8DE0D 
 768      E3A25A78 
 768      AF83F0
 769 0aba 792E7C9E 		.ascii	"y.|\236\012\347'\355\277\340\253\026\306Q\247\010\327"
 769      0AE727ED 
 769      BFE0AB16 
 769      C651A708 
 769      D7
 770 0acb 70E11A2A 		.ascii	"p\341\032*|\271.m\243\203p\241\203\345Z.\\K\205'\333"
 770      7CB92E6D 
 770      A38370A1 
ARM GAS  C:\Users\Sava\AppData\Local\Temp\ccqTJW0n.s 			page 62


 770      83E55A2E 
 770      5C4B8527 
 771 0ae0 56BD1258 		.ascii	"V\275\022X\006\374\340\2613g\352\225\3506\003\027\344"
 771      06FCE0B1 
 771      3367EA95 
 771      E8360317 
 771      E4
 772 0af1 0CD4B10C 		.ascii	"\014\324\261\014\234([\223\306\263\373\035\246\363h"
 772      9C285B93 
 772      C6B3FB1D 
 772      A6F368
 773 0b00 F28D9B1E 		.ascii	"\362\215\233\036,\275\203o\250>a\005\320OX\244\354\301"
 773      2CBD836F 
 773      A83E6105 
 773      D04F58A4 
 773      ECC1
 774 0b12 C55A39FB 		.ascii	"\305Z9\373\370\241#\177\264\3564\021\363Y\245\024\014"
 774      F8A1237F 
 774      B4EE3411 
 774      F359A514 
 774      0C
 775 0b23 3F2DD031 		.ascii	"?-\3201Y\374\374s\246\366i5q\013\344\232\014\344*\003"
 775      59FCFC73 
 775      A6F66935 
 775      710BE49A 
 775      0CE42A03 
 776 0b37 D29B9654 		.ascii	"\322\233\226TC\234K\3412\244\351\022M\323u\232\334k"
 776      439C4BE1 
 776      32A4E912 
 776      4DD3759A 
 776      DC6B
 777 0b49 F6522879 		.ascii	"\366R(y\222\355)\0261\277\305\035/Ok\231\337\000x\034"
 777      92ED2916 
 777      31BFC51D 
 777      2F4F6B99 
 777      DF00781C 
 778 0b5d 399F3BE2 		.ascii	"9\237;\342\3170\246 \306\326\304\301\006\275XJe=\316"
 778      CF30A620 
 778      C6D6C4C1 
 778      06BD584A 
 778      653DCE
 779 0b70 6D38B7C9 		.ascii	"m8\267\311\217\320SO*\367%\3417\320\233\340\251\201"
 779      8FD0534F 
 779      2AF725E1 
 779      37D09BE0 
 779      A981
 780 0b82 7ABA2DB0 		.ascii	"z\272-\260\263L3,\000MB\020i\201\326(\250w\351#\326"
 780      B34C332C 
 780      004D4210 
 780      6981D628 
 780      A877E923 
 781 0b97 9D926D95 		.ascii	"\235\222m\225H\021\336\202\362A\015\276j0\260\363U\207"
 781      4811DE82 
 781      F2410DBE 
 781      6A30B0F3 
 781      5587
 782 0ba9 98302949 		.ascii	"\2300)IG%o8J:o\346\357F\340f\031\004\234\316.\270\221"
ARM GAS  C:\Users\Sava\AppData\Local\Temp\ccqTJW0n.s 			page 63


 782      47256F38 
 782      4A3A6FE6 
 782      EF46E066 
 782      19049CCE 
 783 0bc0 B6AEA2FE 		.ascii	"\266\256\242\376\200\003r\205[\221\231av\346\363SKF"
 783      80037285 
 783      5B919961 
 783      76E6F353 
 783      4B46
 784 0bd2 FB99124F 		.ascii	"\373\231\022O\361,\015U\330x\250\264\234\220i\301.\343"
 784      F12C0D55 
 784      D878A8B4 
 784      9C9069C1 
 784      2EE3
 785 0be4 246D10DE 		.ascii	"$m\020\336\353Be\250\236\031`\305\274\003b\255\3124"
 785      EB4265A8 
 785      9E1960C5 
 785      BC0362AD 
 785      CA34
 786 0bf6 8918A9B7 		.ascii	"\211\030\251\267\342\313\247\006t\352\224\241`=8\270"
 786      E2CBA706 
 786      74EA94A1 
 786      603D38B8 
 787 0c06 4859B84B 		.ascii	"HY\270KSF\013\216>\200FV\375\245VOu]cHJM\334\343u}\017"
 787      53460B8E 
 787      3E804656 
 787      FDA5564F 
 787      755D6348 
 788 0c21 EB5A3C7F 		.ascii	"\353Z<\177\263\260R\257:\364\302Q6Q\265BkH;-\241\016"
 788      B3B052AF 
 788      3AF4C251 
 788      3651B542 
 788      6B483B2D 
 789 0c37 70F88310 		.ascii	"p\370\203\020\310\016\273\322\015B\273\331\311\367W"
 789      C80EBBD2 
 789      0D42BBD9 
 789      C9F757
 790 0c46 F41EFFE1 		.ascii	"\364\036\377\341\027\251\226\214K^j\337G\035\006`',"
 790      17A9968C 
 790      4B5E6ADF 
 790      471D0660 
 790      272C
 791 0c58 4A3CC04E 		.ascii	"J<\300N:\254n\237(\257\361V\3137:\310wq\254]T\270\353"
 791      3AAC6E9F 
 791      28AFF156 
 791      CB373AC8 
 791      7771AC5D 
 792 0c6f E0D54338 		.ascii	"\340\325C8\006g\340)\001\213.\335v\375\217\354Y\222"
 792      0667E029 
 792      018B2EDD 
 792      76FD8FEC 
 792      5992
 793 0c81 FE825BE3 		.ascii	"\376\202[\343\374\273c\336\342\025\226\231U\327sm\242"
 793      FCBB63DE 
 793      E2159699 
 793      55D7736D 
 793      A2
ARM GAS  C:\Users\Sava\AppData\Local\Temp\ccqTJW0n.s 			page 64


 794 0c92 BC7B77FE 		.ascii	"\274{w\376D\361\020\2221\203o<\272!\266\373\202\362"
 794      44F11092 
 794      31836F3C 
 794      BA21B6FB 
 794      82F2
 795 0ca4 71298A6D 		.ascii	"q)\212maz`\353\361@I\310\014\312p\017\215\262j\270("
 795      617A60EB 
 795      F14049C8 
 795      0CCA700F 
 795      8DB26AB8 
 796 0cb9 C7C0C602 		.ascii	"\307\300\306\002.L;\357\225\215\033\334\216\301G\362"
 796      2E4C3BEF 
 796      958D1BDC 
 796      8EC147F2 
 797 0cc9 18EC6563 		.ascii	"\030\354ec\360\344\315\266\235\376<\2416L(\356q\024"
 797      F0E4CDB6 
 797      9DFE3CA1 
 797      364C28EE 
 797      7114
 798 0cdb F13E9AD0 		.ascii	"\361>\232\320G,\241}4\241\245\233\012V\213\342M\026"
 798      472CA17D 
 798      34A1A59B 
 798      0A568BE2 
 798      4D16
 799 0ced 56E1DD89 		.ascii	"V\341\335\211\213D\336p\331\216\317\004\244\375`\340"
 799      8B44DE70 
 799      D98ECF04 
 799      A4FD60E0 
 800 0cfd B1D359C6 		.ascii	"\261\323Y\306\345\231\345\211\2133\013jC\035\214W?\231"
 800      E599E589 
 800      8B330B6A 
 800      431D8C57 
 800      3F99
 801 0d0f D0D16F2B 		.ascii	"\320\321o+\320Xb\247\246\374\311\240\300?\2548\021\250"
 801      D05862A7 
 801      A6FCC9A0 
 801      C03FAC38 
 801      11A8
 802 0d21 A16F3464 		.ascii	"\241o4d\010\254\014\010\354c\010\366\340?\374\256R6"
 802      08AC0C08 
 802      EC6308F6 
 802      E03FFCAE 
 802      5236
 803 0d33 BAC5616A 		.ascii	"\272\305aj\355s(\301a\236\326a\232\326\037\366\215?"
 803      ED7328C1 
 803      619ED661 
 803      9AD61FF6 
 803      8D3F
 804 0d45 E3AB7E25 		.ascii	"\343\253~%\316\216#\353+\357x\272\245\363\251L\347\010"
 804      CE8E23EB 
 804      2BEF78BA 
 804      A5F3A94C 
 804      E708
 805 0d57 A3735B49 		.ascii	"\243s[I\365\273LY\302OF\253\206\362\317\361/HR0.\225"
 805      F5BB4C59 
 805      C24F46AB 
 805      86F2CFF1 
ARM GAS  C:\Users\Sava\AppData\Local\Temp\ccqTJW0n.s 			page 65


 805      2F485230 
 806 0d6d C3BDB59E 		.ascii	"\303\275\265\236\312\360\021\350\241\177\024P?\243\303"
 806      CAF011E8 
 806      A17F1450 
 806      3FA3C3
 807 0d7c E73965FB 		.ascii	"\3479e\373)c\3739e\373ps\312\204\240\316O\275\303^k"
 807      2963FB39 
 807      65FB7073 
 807      CA84A0CE 
 807      4FBDC35E 
 808 0d91 4C9D9F31 		.ascii	"L\235\2371\2521P\362]\247\217:\3321\207h\307y\264\343"
 808      AA3150F2 
 808      5DA78F3A 
 808      DA318768 
 808      C779B4E3 
 809 0da5 34DADE5B 		.ascii	"4\332\336[W3\035\326\2634\207Ug\202\013OP\341\221\206"
 809      57331DD6 
 809      B3348755 
 809      67820B4F 
 809      50E19186 
 810 0db9 B2AD7AB5 		.ascii	"\262\255z\265\360s\007\313/\2700\376\372G\231\"\214"
 810      F07307CB 
 810      2FB830FE 
 810      FA479922 
 810      8C
 811 0dca 71D6708B 		.ascii	"q\326p\213\325h1\307\231\255^\237\375\373\327\263\026"
 811      D56831C7 
 811      99AD5E9F 
 811      FDFBD7B3 
 811      16
 812 0ddb 86866ADE 		.ascii	"\206\206j\336\214Zi\214\260D\2564[\342\302\"\243\"\177"
 812      8C5A698C 
 812      B044AE34 
 812      5BE2C222 
 812      A3227F
 813 0dee 397F4168 		.ascii	"9\177Ah\210I\363\306\027_~\201\267\3068st\204\321\264"
 813      8849F3C6 
 813      175F7E81 
 813      B7C63873 
 813      7484D1B4 
 814 0e02 2242171F 		.ascii	"\"B\027\037\031m\015\375\370g\237\231\243\315\226p\253"
 814      196D0DFD 
 814      F8679F99 
 814      A3CD9670 
 814      AB
 815 0e13 39C2B838 		.ascii	"9\302\2708&\336b2\207}\2658f\341GsM\011\326\204Xs\\"
 815      26DE6232 
 815      877DB538 
 815      66E14773 
 815      4D09D684 
 816 0e2a C872CD4F 		.ascii	"\310r\315OPc1:Zl\376\357xs\264\311\2547\032Qy\376\207"
 816      5063313A 
 816      5A6CFEEF 
 816      7873B4C9 
 816      AC371A51 
 817 0e41 46EB2A62 		.ascii	"F\353*b\372$,\326\022\263\314\022\276b\326\322\310("
 817      FA242CD6 
ARM GAS  C:\Users\Sava\AppData\Local\Temp\ccqTJW0n.s 			page 66


 817      12B3CC12 
 817      BE62D6D2 
 817      C828
 818 0e53 73DCACE0 		.ascii	"s\334\254\340o\177\361\361?\206\231\022b\001V\\Xl\\"
 818      6F7FF1F1 
 818      3F869912 
 818      6201565C 
 818      586C5C
 819 0e66 8C6996C9 		.ascii	"\214i\226\311b\016\267\306X\302\026\204|\350\330\021"
 819      620EB7C6 
 819      58C21684 
 819      7CE8D811 
 820 0e76 B92236C6 		.ascii	"\271\"6\306b\015[\026\035\037\026nY\021\366Q\310\202"
 820      620D5B16 
 820      1D1F166E 
 820      5911F651 
 820      C882
 821 0e88 9050BCFB 		.ascii	"\220P\274\373 :&\332\374\2019|IdXd\264)*>\302\034\266"
 821      203A26DA 
 821      FC81397C 
 821      49645864 
 821      B4292A3E 
 822 0e9f 22DCB43C 		.ascii	"\"\334\264<2\332\034f\2140/\015\217\217\262\032e|^2"
 822      32DA1C66 
 822      8C302F0D 
 822      8F8FB21A 
 822      657C5E32 
 823 0eb3 96957F2B 		.ascii	"\226\225\177+(q\011qa@}\004\370\005\377\336\214\215"
 823      28710971 
 823      61407D04 
 823      F805FFDE 
 823      8C8D
 824 0ec5 5F18AD9E 		.ascii	"_\030\255\236\374\367'\016\\G\204[\303u\014\243A~\021"
 824      FCF7270E 
 824      5C47845B 
 824      C3750CA3 
 824      417E11
 825 0ed8 191D69F5 		.ascii	"\031\035i\365\225\037\226F\305\307-\347\234\206~l\264"
 825      951F9646 
 825      C5C72DE7 
 825      9C867E6C 
 825      B4
 826 0ee9 7AC937A2 		.ascii	"z\3117\242\305\034\341\261\314b6Gk\227D\305\233\347"
 826      C51CE1B1 
 826      CC623647 
 826      6B9744C5 
 826      9BE7
 827 0efb A9121B12 		.ascii	"\251\022\033\02227j\345\262(\370g\\\036\0365\227>\032"
 827      32376AE5 
 827      B228F867 
 827      5C1E1E35 
 827      973E1A
 828 0f0e 5744C699 		.ascii	"WD\306\231\360\327\024\023\025c\001d\332\245\361QQ\006"
 828      F0D71413 
 828      15630164 
 828      DAA5F151 
 828      5106
ARM GAS  C:\Users\Sava\AppData\Local\Temp\ccqTJW0n.s 			page 67


 829 0f20 B9032DEA 		.ascii	"\271\003-\352\345\007\243\025`s\336<\371o\000\257\026"
 829      E507A315 
 829      6073DE3C 
 829      F96F00AF 
 829      16
 830 0f31 5E222866 		.ascii	"^\"(f\007\014|Fy.LXd\216\012O\230\351\246d\026&|\031"
 830      070C7C46 
 830      792E4C58 
 830      648E0A4F 
 830      98E9A664 
 831 0f49 B90409F9 		.ascii	"\271\004\011\371\355\342\337\031\177o\211\264\232=("
 831      EDE2DF19 
 831      7F6F89B4 
 831      9A3D28
 832 0f58 21FFE046 		.ascii	"!\377\340F\036\304@\372\247\237Y\302c\227G\232\276\\"
 832      1EC440FA 
 832      A79F59C2 
 832      6397479A 
 832      BE5C
 833 0f6a B8E88B68 		.ascii	"\270\350\213h\353R\246\010X\177=/\330\215\236\243\302"
 833      EB52A608 
 833      587F3D2F 
 833      D88D9EA3 
 833      C2
 834 0f7b EB4C84BE 		.ascii	"\353L\204\276\345\352\315\277\321W~@\005e\036\206Ox"
 834      E5EACDBF 
 834      D1577E40 
 834      05651E86 
 834      4F78
 835 0f8d 4442906B 		.ascii	"DB\220krM1\0263\376\256\214\300\310\336\224\351\260"
 835      724D3116 
 835      33FEAE8C 
 835      C0C8DE94 
 835      E9B0
 836 0f9f 98       		.ascii	"\230"
 837 0fa0 977D130E 		.ascii	"\227}\023\016)\2113~h\\\360\316\012S\374\374\217hN\201"
 837      2989337E 
 837      685CF0CE 
 837      0A53FCFC 
 837      8F684E81 
 838 0fb4 3A36448C 		.ascii	":6D\214\1776/1\232#\300[\204\026\013@\204\021\347\215"
 838      7F362F31 
 838      9A23C05B 
 838      84160B40 
 838      8411E78D 
 839 0fc8 374B12AC 		.ascii	"7K\022\254\3468?\034\273T\036\272\215V\017\232o\017"
 839      E6383F1C 
 839      BB541EBA 
 839      8D560F9A 
 839      6F0F
 840 0fda 9A86FF07 		.ascii	"\232\206\377\007\177\246[\301"
 840      7FA65BC1 
 841              		.text
 842              		.section	.gnu.lto_.symtab.15f1333b,"",%progbits
 843 0000 494C4939 		.ascii	"ILI9341_init\000"
 843      3334315F 
 843      696E6974 
ARM GAS  C:\Users\Sava\AppData\Local\Temp\ccqTJW0n.s 			page 68


 843      00
 844 000d 00       		.ascii	"\000"
 845 000e 00       		.ascii	"\000"
 846 000f 00       		.ascii	"\000"
 847 0010 00000000 		.ascii	"\000\000\000\000\000\000\000\000"
 847      00000000 
 848 0018 D9000000 		.ascii	"\331\000\000\000"
 849 001c 494C4939 		.ascii	"ILI9341_flush\000"
 849      3334315F 
 849      666C7573 
 849      6800
 850 002a 00       		.ascii	"\000"
 851 002b 00       		.ascii	"\000"
 852 002c 00       		.ascii	"\000"
 853 002d 00000000 		.ascii	"\000\000\000\000\000\000\000\000"
 853      00000000 
 854 0035 0E010000 		.ascii	"\016\001\000\000"
 855 0039 494C4939 		.ascii	"ILI9341_fill\000"
 855      3334315F 
 855      66696C6C 
 855      00
 856 0046 00       		.ascii	"\000"
 857 0047 00       		.ascii	"\000"
 858 0048 00       		.ascii	"\000"
 859 0049 00000000 		.ascii	"\000\000\000\000\000\000\000\000"
 859      00000000 
 860 0051 1B010000 		.ascii	"\033\001\000\000"
 861 0055 43794465 		.ascii	"CyDelay\000"
 861      6C617900 
 862 005d 00       		.ascii	"\000"
 863 005e 02       		.ascii	"\002"
 864 005f 00       		.ascii	"\000"
 865 0060 00000000 		.ascii	"\000\000\000\000\000\000\000\000"
 865      00000000 
 866 0068 1F010000 		.ascii	"\037\001\000\000"
 867 006c 5253545F 		.ascii	"RST_Write\000"
 867      57726974 
 867      6500
 868 0076 00       		.ascii	"\000"
 869 0077 02       		.ascii	"\002"
 870 0078 00       		.ascii	"\000"
 871 0079 00000000 		.ascii	"\000\000\000\000\000\000\000\000"
 871      00000000 
 872 0081 26010000 		.ascii	"&\001\000\000"
 873 0085 47726170 		.ascii	"GraphicLCDIntf_Write16_A0\000"
 873      6869634C 
 873      4344496E 
 873      74665F57 
 873      72697465 
 874 009f 00       		.ascii	"\000"
 875 00a0 02       		.ascii	"\002"
 876 00a1 00       		.ascii	"\000"
 877 00a2 00000000 		.ascii	"\000\000\000\000\000\000\000\000"
 877      00000000 
 878 00aa 28010000 		.ascii	"(\001\000\000"
 879 00ae 47726170 		.ascii	"GraphicLCDIntf_Write16_A1\000"
 879      6869634C 
ARM GAS  C:\Users\Sava\AppData\Local\Temp\ccqTJW0n.s 			page 69


 879      4344496E 
 879      74665F57 
 879      72697465 
 880 00c8 00       		.ascii	"\000"
 881 00c9 02       		.ascii	"\002"
 882 00ca 00       		.ascii	"\000"
 883 00cb 00000000 		.ascii	"\000\000\000\000\000\000\000\000"
 883      00000000 
 884 00d3 2A010000 		.ascii	"*\001\000\000"
 885 00d7 47726170 		.ascii	"GraphicLCDIntf_WriteM16_A1\000"
 885      6869634C 
 885      4344496E 
 885      74665F57 
 885      72697465 
 886 00f2 00       		.ascii	"\000"
 887 00f3 02       		.ascii	"\002"
 888 00f4 00       		.ascii	"\000"
 889 00f5 00000000 		.ascii	"\000\000\000\000\000\000\000\000"
 889      00000000 
 890 00fd 30010000 		.ascii	"0\001\000\000"
 891 0101 6C765F66 		.ascii	"lv_flush_ready\000"
 891      6C757368 
 891      5F726561 
 891      647900
 892 0110 00       		.ascii	"\000"
 893 0111 02       		.ascii	"\002"
 894 0112 00       		.ascii	"\000"
 895 0113 00000000 		.ascii	"\000\000\000\000\000\000\000\000"
 895      00000000 
 896 011b 32010000 		.ascii	"2\001\000\000"
 897              		.text
 898              		.section	.gnu.lto_.opts,"",%progbits
 899 0000 272D666D 		.ascii	"'-fmath-errno' '-fsigned-zeros' '-ftrapping-math' '"
 899      6174682D 
 899      6572726E 
 899      6F272027 
 899      2D667369 
 900 0033 2D666E6F 		.ascii	"-fno-trapv' '-fno-strict-overflow' '-fno-openmp' '-"
 900      2D747261 
 900      70762720 
 900      272D666E 
 900      6F2D7374 
 901 0066 666E6F2D 		.ascii	"fno-openacc' '-mcpu=cortex-m3' '-mthumb' '-g' '-O0'"
 901      6F70656E 
 901      61636327 
 901      20272D6D 
 901      6370753D 
 902 0099 20272D66 		.ascii	" '-ffunction-sections' '-ffat-lto-objects' '-finlin"
 902      66756E63 
 902      74696F6E 
 902      2D736563 
 902      74696F6E 
 903 00cc 652D6675 		.ascii	"e-functions' '-flto'\000"
 903      6E637469 
 903      6F6E7327 
 903      20272D66 
 903      6C746F27 
ARM GAS  C:\Users\Sava\AppData\Local\Temp\ccqTJW0n.s 			page 70


 904              		.text
 905              		.cfi_sections	.debug_frame
 906              		.section	.rodata
 907              		.align	2
 908              		.type	mcu35_init_sequence_web_edited, %object
 909              		.size	mcu35_init_sequence_web_edited, 32
 910              	mcu35_init_sequence_web_edited:
 911 0000 35       		.byte	53
 912 0001 01       		.byte	1
 913 0002 00       		.byte	0
 914 0003 3A       		.byte	58
 915 0004 01       		.byte	1
 916 0005 55       		.byte	85
 917 0006 44       		.byte	68
 918 0007 02       		.byte	2
 919 0008 00       		.byte	0
 920 0009 01       		.byte	1
 921 000a 11       		.byte	17
 922 000b 00       		.byte	0
 923 000c DD       		.byte	-35
 924 000d 96       		.byte	-106
 925 000e 2A       		.byte	42
 926 000f 04       		.byte	4
 927 0010 00       		.byte	0
 928 0011 00       		.byte	0
 929 0012 01       		.byte	1
 930 0013 3F       		.byte	63
 931 0014 2B       		.byte	43
 932 0015 04       		.byte	4
 933 0016 00       		.byte	0
 934 0017 00       		.byte	0
 935 0018 01       		.byte	1
 936 0019 DF       		.byte	-33
 937 001a DD       		.byte	-35
 938 001b 64       		.byte	100
 939 001c 29       		.byte	41
 940 001d 00       		.byte	0
 941 001e DD       		.byte	-35
 942 001f 1E       		.byte	30
 943              		.align	2
 944              		.type	ILI9341_regValues_2_4, %object
 945              		.size	ILI9341_regValues_2_4, 53
 946              	ILI9341_regValues_2_4:
 947 0020 01       		.byte	1
 948 0021 00       		.byte	0
 949 0022 28       		.byte	40
 950 0023 00       		.byte	0
 951 0024 3A       		.byte	58
 952 0025 01       		.byte	1
 953 0026 55       		.byte	85
 954 0027 F6       		.byte	-10
 955 0028 03       		.byte	3
 956 0029 01       		.byte	1
 957 002a 01       		.byte	1
 958 002b 00       		.byte	0
 959 002c 36       		.byte	54
 960 002d 01       		.byte	1
ARM GAS  C:\Users\Sava\AppData\Local\Temp\ccqTJW0n.s 			page 71


 961 002e 48       		.byte	72
 962 002f 26       		.byte	38
 963 0030 01       		.byte	1
 964 0031 01       		.byte	1
 965 0032 11       		.byte	17
 966 0033 00       		.byte	0
 967 0034 29       		.byte	41
 968 0035 00       		.byte	0
 969 0036 36       		.byte	54
 970 0037 01       		.byte	1
 971 0038 00       		.byte	0
 972 0039 2A       		.byte	42
 973 003a 04       		.byte	4
 974 003b 00       		.byte	0
 975 003c 00       		.byte	0
 976 003d 00       		.byte	0
 977 003e EF       		.byte	-17
 978 003f 2B       		.byte	43
 979 0040 04       		.byte	4
 980 0041 00       		.byte	0
 981 0042 00       		.byte	0
 982 0043 01       		.byte	1
 983 0044 3F       		.byte	63
 984 0045 33       		.byte	51
 985 0046 06       		.byte	6
 986 0047 00       		.byte	0
 987 0048 00       		.byte	0
 988 0049 01       		.byte	1
 989 004a 40       		.byte	64
 990 004b 00       		.byte	0
 991 004c 00       		.byte	0
 992 004d 37       		.byte	55
 993 004e 02       		.byte	2
 994 004f 00       		.byte	0
 995 0050 00       		.byte	0
 996 0051 13       		.byte	19
 997 0052 00       		.byte	0
 998 0053 20       		.byte	32
 999 0054 00       		.byte	0
 1000              		.section	.text.ILI9341_init,"ax",%progbits
 1001              		.align	2
 1002              		.global	ILI9341_init
 1003              		.thumb
 1004              		.thumb_func
 1005              		.type	ILI9341_init, %function
 1006              	ILI9341_init:
 1007              	.LFB170:
 1008              		.file 1 "lv_drivers\\ili9341.c"
   1:lv_drivers/ili9341.c **** /**
   2:lv_drivers/ili9341.c ****  * @file ili9341.c
   3:lv_drivers/ili9341.c ****  *
   4:lv_drivers/ili9341.c ****  */
   5:lv_drivers/ili9341.c **** 
   6:lv_drivers/ili9341.c **** /*********************
   7:lv_drivers/ili9341.c ****  *      INCLUDES
   8:lv_drivers/ili9341.c ****  *********************/
   9:lv_drivers/ili9341.c **** #include "ili9341.h"
ARM GAS  C:\Users\Sava\AppData\Local\Temp\ccqTJW0n.s 			page 72


  10:lv_drivers/ili9341.c **** 
  11:lv_drivers/ili9341.c **** 
  12:lv_drivers/ili9341.c **** /*********************
  13:lv_drivers/ili9341.c ****  *      DEFINES
  14:lv_drivers/ili9341.c ****  *********************/
  15:lv_drivers/ili9341.c **** #define CYPINWRITEHIGH  RST_Write( 0b1 );
  16:lv_drivers/ili9341.c **** #define CYPINWRITELOW   RST_Write( 0b0 ); 
  17:lv_drivers/ili9341.c **** /**********************
  18:lv_drivers/ili9341.c ****  *      TYPEDEFS
  19:lv_drivers/ili9341.c ****  **********************/
  20:lv_drivers/ili9341.c **** 
  21:lv_drivers/ili9341.c **** /*The LCD needs a bunch of command/argument values to be initialized. They are stored in this struc
  22:lv_drivers/ili9341.c **** typedef struct {
  23:lv_drivers/ili9341.c ****     uint8_t cmd;
  24:lv_drivers/ili9341.c ****     uint8_t data[16];
  25:lv_drivers/ili9341.c ****     uint8_t databytes; //No of data in data; bit 7 = delay after set; 0xFF = end of cmds.
  26:lv_drivers/ili9341.c **** } lcd_init_cmd_t;
  27:lv_drivers/ili9341.c **** 
  28:lv_drivers/ili9341.c **** /**********************
  29:lv_drivers/ili9341.c ****  *  STATIC PROTOTYPES
  30:lv_drivers/ili9341.c ****  **********************/
  31:lv_drivers/ili9341.c **** static void ILI9341_send_cmd(uint16 cmd);
  32:lv_drivers/ili9341.c **** static void ILI9341_send_data(void * data, uint32 length);
  33:lv_drivers/ili9341.c **** static void ili9341_send_color(void * data, uint16 length);
  34:lv_drivers/ili9341.c **** static void sendStartSequence(const uint8_t *buff, uint32_t len);
  35:lv_drivers/ili9341.c **** static void lcd_start_reset (void);
  36:lv_drivers/ili9341.c **** 
  37:lv_drivers/ili9341.c **** 
  38:lv_drivers/ili9341.c **** /**********************
  39:lv_drivers/ili9341.c ****  *  STATIC VARIABLES
  40:lv_drivers/ili9341.c ****  **********************/
  41:lv_drivers/ili9341.c **** static const uint8_t mcu35_init_sequence_web_edited[]  = {
  42:lv_drivers/ili9341.c **** //    0xFF,0x00,          // ?
  43:lv_drivers/ili9341.c **** //    0xFF,0x00,          // ?
  44:lv_drivers/ili9341.c **** //    0xDD,5,             // Delay 5
  45:lv_drivers/ili9341.c **** //    0xFF,0x00,          //
  46:lv_drivers/ili9341.c **** //    0xFF,0x00,          //
  47:lv_drivers/ili9341.c **** //    0xFF,0x00,          //
  48:lv_drivers/ili9341.c **** //    0xFF,0x00,          // ?
  49:lv_drivers/ili9341.c **** //    0xDD,10,            // delay 10
  50:lv_drivers/ili9341.c ****     //  
  51:lv_drivers/ili9341.c **** //    0xB0,0x01,0x00,                                     // IF Mode control
  52:lv_drivers/ili9341.c **** //    0xB3,0x04,0x02,0x00,0x00,0x10,                      // Frame Rate Control - only 2 paramters
  53:lv_drivers/ili9341.c **** //    0xB4,0x01,0x11,                                     // Display inversion control 
  54:lv_drivers/ili9341.c **** //    0xC0,0x08,0x13,0x3B,0x00,0x00,0x00,0x01,0x00,0x43,  // Power Control 1
  55:lv_drivers/ili9341.c **** //    0xC1,0x04,0x08,0x15,0x08,0x08,                      // Power Control 2
  56:lv_drivers/ili9341.c **** //    0xC4,0x04,0x15,0x03,0x03,0x01,                      // ?
  57:lv_drivers/ili9341.c **** //    0xC6,0x01,0x02,                                     // ?
  58:lv_drivers/ili9341.c ****     // ??
  59:lv_drivers/ili9341.c **** //    0xC8,0x15,0x0C,0x05,0x0A,0x6B,0x04,0x06,0x15,0x10,0x00,0x31,0x10,0x15,0x06,0x64,0x0D,0x0A,0x0
  60:lv_drivers/ili9341.c ****     0x35,0x01,0x00,                     // Tearing Effect 
  61:lv_drivers/ili9341.c ****  //   0x0C,0x01,0x66,                     // Read pixel format?
  62:lv_drivers/ili9341.c ****     0x3A,0x01,0x55,                     // Pixel Format Set
  63:lv_drivers/ili9341.c ****     
  64:lv_drivers/ili9341.c ****     0x44,0x02,0x00,0x01,                // Set Tear Scanline
  65:lv_drivers/ili9341.c **** //    0xD0,0x04,0x07,0x07,0x14,0xA2,      // NVM Write
  66:lv_drivers/ili9341.c **** //    0xD1,0x03,0x03,0x5A,0x10,           // NVM Protection Key
ARM GAS  C:\Users\Sava\AppData\Local\Temp\ccqTJW0n.s 			page 73


  67:lv_drivers/ili9341.c **** //   0xD2,0x03,0x03,0x04,0x04,           // NVM Status Read
  68:lv_drivers/ili9341.c **** 
  69:lv_drivers/ili9341.c ****     0x11,0x00,                          // Sleep Out
  70:lv_drivers/ili9341.c ****     0xDD,150,                           // Delay 150ms
  71:lv_drivers/ili9341.c ****     0x2A,0x04,0x00,0x00,0x01,0x3F,      // Column Set Address 320
  72:lv_drivers/ili9341.c ****     0x2B,0x04,0x00,0x00,0x01,0xDF,      // Page Set Address   480
  73:lv_drivers/ili9341.c ****     0xDD,100,                           // Delay 100ms
  74:lv_drivers/ili9341.c ****     0x29,0x00,                          // Display On
  75:lv_drivers/ili9341.c ****     0xDD,30                            // delay 30ms
  76:lv_drivers/ili9341.c **** //    0x2C,0x00                           // Memory Write
  77:lv_drivers/ili9341.c **** };
  78:lv_drivers/ili9341.c **** static const uint8_t ILI9341_regValues_2_4[]  = {        // BOE 2.4"                               
  79:lv_drivers/ili9341.c **** 0x1,0x0,                                  // Software Reset
  80:lv_drivers/ili9341.c **** 0x28,0x0,                                 // Display Off
  81:lv_drivers/ili9341.c **** 0x3A,0x1,0x55,                            // Pixel Format RGB=16-bits/pixel MCU=16-bits/Pixel
  82:lv_drivers/ili9341.c **** 0xF6,0x3,0x1,0x1,0x0,                     // Interface control .. I have no idea
  83:lv_drivers/ili9341.c **** #if 0    
  84:lv_drivers/ili9341.c **** 0xCF,0x3,0x0,0x81,0x30,                   // Not defined
  85:lv_drivers/ili9341.c **** 0xED,0x4,0x64,0x3,0x12,0x81,              // Not defined
  86:lv_drivers/ili9341.c **** 0xE8,0x3,0x85,0x10,0x78,                  // Not defined
  87:lv_drivers/ili9341.c **** 0xCB,0x5,0x39,0x2C,0x0,0x34,0x2,          // Not defined
  88:lv_drivers/ili9341.c **** 0xF7,0x1,0x20,                            // Not defined
  89:lv_drivers/ili9341.c **** 0xEA,0x2,0x0,0x0,                         // Not defined  
  90:lv_drivers/ili9341.c **** #endif
  91:lv_drivers/ili9341.c **** 
  92:lv_drivers/ili9341.c **** #if 0   // Part of the extended command set
  93:lv_drivers/ili9341.c **** 0xB0,0x1,0x0,                             // RGB Interface Control
  94:lv_drivers/ili9341.c **** 0xB1,0x2,0x0,0x1B,                        // Frame Rate Control
  95:lv_drivers/ili9341.c **** 0xB4,0x1,0x0,                             // Display Inversion Control
  96:lv_drivers/ili9341.c **** 0xC0,0x1,0x21,                            // Power Control 1
  97:lv_drivers/ili9341.c **** 0xC1,0x1,0x11,                            // Power Control 2
  98:lv_drivers/ili9341.c **** 0xC5,0x2,0x3F,0x3C,                       // VCOM Control 1
  99:lv_drivers/ili9341.c **** 0xC7,0x1,0xB5,                            // VCOM Control 2
 100:lv_drivers/ili9341.c ****     
 101:lv_drivers/ili9341.c **** #endif    
 102:lv_drivers/ili9341.c **** 0x36,0x1,0x48,                            // Memory Access Control
 103:lv_drivers/ili9341.c **** 
 104:lv_drivers/ili9341.c **** #if 0
 105:lv_drivers/ili9341.c **** 0xF2,0x1,0x0,                             // Not defined
 106:lv_drivers/ili9341.c **** #endif
 107:lv_drivers/ili9341.c **** 
 108:lv_drivers/ili9341.c **** 0x26,0x1,0x1,                             // Gamma Set
 109:lv_drivers/ili9341.c **** //0xE0,0xF,0xF,0x26,0x24,0xB,0xE,0x9,0x54,0xA8,0x46,0xC,0x17,0x9,0xF,0x7,0x0,    // Positive Gamma 
 110:lv_drivers/ili9341.c **** //0xE1,0xF,0x0,0x19,0x1B,0x4,0x10,0x7,0x2A,0x47,0x39,0x3,0x6,0x6,0x30,0x38,0xF,  // Negative Gamme 
 111:lv_drivers/ili9341.c **** 0x11,0x0,                                 // Sleep Out
 112:lv_drivers/ili9341.c **** 0x29,0x0,                                 // Display On
 113:lv_drivers/ili9341.c **** 0x36,0x1,0x00,                            // Memory Access Control
 114:lv_drivers/ili9341.c **** 0x2A,0x4,0x0,0x0,0x0,0xEF,                // Column Address Set = 239
 115:lv_drivers/ili9341.c **** 0x2B,0x4,0x0,0x0,0x1,0x3F,                // Row Address Set  = 319
 116:lv_drivers/ili9341.c **** 0x33,0x6,0x0,0x0,0x1,0x40,0x0,0x0,        // Vertical Scrolling Definition
 117:lv_drivers/ili9341.c **** 0x37,0x2,0x0,0x0,                         // Vertical Scrolling Start Address
 118:lv_drivers/ili9341.c **** 0x13,0x0,                                 // Normal Display ON
 119:lv_drivers/ili9341.c **** 0x20,0x0                                  // Display Inversion OFF
 120:lv_drivers/ili9341.c **** };
 121:lv_drivers/ili9341.c **** /**********************
 122:lv_drivers/ili9341.c ****  *      MACROS
 123:lv_drivers/ili9341.c ****  **********************/
ARM GAS  C:\Users\Sava\AppData\Local\Temp\ccqTJW0n.s 			page 74


 124:lv_drivers/ili9341.c **** 
 125:lv_drivers/ili9341.c **** /**********************
 126:lv_drivers/ili9341.c ****  *   GLOBAL FUNCTIONS
 127:lv_drivers/ili9341.c ****  **********************/
 128:lv_drivers/ili9341.c **** 
 129:lv_drivers/ili9341.c ****  void ILI9341_init(void)
 130:lv_drivers/ili9341.c **** {
 1009              		.loc 1 130 0
 1010              		.cfi_startproc
 1011              		@ args = 0, pretend = 0, frame = 272
 1012              		@ frame_needed = 1, uses_anonymous_args = 0
 1013 0000 80B5     		push	{r7, lr}
 1014              		.cfi_def_cfa_offset 8
 1015              		.cfi_offset 7, -8
 1016              		.cfi_offset 14, -4
 1017 0002 C4B0     		sub	sp, sp, #272
 1018              		.cfi_def_cfa_offset 280
 1019 0004 00AF     		add	r7, sp, #0
 1020              		.cfi_def_cfa_register 7
 131:lv_drivers/ili9341.c ****  	lcd_init_cmd_t ili_init_cmds[]={
 1021              		.loc 1 131 0
 1022 0006 3B46     		mov	r3, r7
 1023 0008 1846     		mov	r0, r3
 1024 000a 4FF48773 		mov	r3, #270
 1025 000e 1A46     		mov	r2, r3
 1026 0010 0021     		movs	r1, #0
 1027 0012 FFF7FEFF 		bl	memset
 1028 0016 3B46     		mov	r3, r7
 1029 0018 0122     		movs	r2, #1
 1030 001a 1A70     		strb	r2, [r3]
 1031 001c 3B46     		mov	r3, r7
 1032 001e 2822     		movs	r2, #40
 1033 0020 9A74     		strb	r2, [r3, #18]
 1034 0022 3B46     		mov	r3, r7
 1035 0024 3A22     		movs	r2, #58
 1036 0026 83F82420 		strb	r2, [r3, #36]
 1037 002a 3B46     		mov	r3, r7
 1038 002c 5522     		movs	r2, #85
 1039 002e 83F82520 		strb	r2, [r3, #37]
 1040 0032 3B46     		mov	r3, r7
 1041 0034 0122     		movs	r2, #1
 1042 0036 83F83520 		strb	r2, [r3, #53]
 1043 003a 3B46     		mov	r3, r7
 1044 003c 3622     		movs	r2, #54
 1045 003e 83F83620 		strb	r2, [r3, #54]
 1046 0042 3B46     		mov	r3, r7
 1047 0044 4822     		movs	r2, #72
 1048 0046 83F83720 		strb	r2, [r3, #55]
 1049 004a 3B46     		mov	r3, r7
 1050 004c 0122     		movs	r2, #1
 1051 004e 83F84720 		strb	r2, [r3, #71]
 1052 0052 3B46     		mov	r3, r7
 1053 0054 2622     		movs	r2, #38
 1054 0056 83F84820 		strb	r2, [r3, #72]
 1055 005a 3B46     		mov	r3, r7
 1056 005c 0122     		movs	r2, #1
 1057 005e 83F84920 		strb	r2, [r3, #73]
ARM GAS  C:\Users\Sava\AppData\Local\Temp\ccqTJW0n.s 			page 75


 1058 0062 3B46     		mov	r3, r7
 1059 0064 0122     		movs	r2, #1
 1060 0066 83F85920 		strb	r2, [r3, #89]
 1061 006a 3B46     		mov	r3, r7
 1062 006c 1122     		movs	r2, #17
 1063 006e 83F85A20 		strb	r2, [r3, #90]
 1064 0072 3B46     		mov	r3, r7
 1065 0074 2922     		movs	r2, #41
 1066 0076 83F86C20 		strb	r2, [r3, #108]
 1067 007a 3B46     		mov	r3, r7
 1068 007c 3622     		movs	r2, #54
 1069 007e 83F87E20 		strb	r2, [r3, #126]
 1070 0082 3B46     		mov	r3, r7
 1071 0084 0122     		movs	r2, #1
 1072 0086 83F88F20 		strb	r2, [r3, #143]
 1073 008a 3B46     		mov	r3, r7
 1074 008c 2A22     		movs	r2, #42
 1075 008e 83F89020 		strb	r2, [r3, #144]
 1076 0092 3B46     		mov	r3, r7
 1077 0094 0122     		movs	r2, #1
 1078 0096 83F89320 		strb	r2, [r3, #147]
 1079 009a 3B46     		mov	r3, r7
 1080 009c 3F22     		movs	r2, #63
 1081 009e 83F89420 		strb	r2, [r3, #148]
 1082 00a2 3B46     		mov	r3, r7
 1083 00a4 0422     		movs	r2, #4
 1084 00a6 83F8A120 		strb	r2, [r3, #161]
 1085 00aa 3B46     		mov	r3, r7
 1086 00ac 2B22     		movs	r2, #43
 1087 00ae 83F8A220 		strb	r2, [r3, #162]
 1088 00b2 3B46     		mov	r3, r7
 1089 00b4 EF22     		movs	r2, #239
 1090 00b6 83F8A620 		strb	r2, [r3, #166]
 1091 00ba 3B46     		mov	r3, r7
 1092 00bc 0422     		movs	r2, #4
 1093 00be 83F8B320 		strb	r2, [r3, #179]
 1094 00c2 3B46     		mov	r3, r7
 1095 00c4 3322     		movs	r2, #51
 1096 00c6 83F8B420 		strb	r2, [r3, #180]
 1097 00ca 3B46     		mov	r3, r7
 1098 00cc 0122     		movs	r2, #1
 1099 00ce 83F8B720 		strb	r2, [r3, #183]
 1100 00d2 3B46     		mov	r3, r7
 1101 00d4 4022     		movs	r2, #64
 1102 00d6 83F8B820 		strb	r2, [r3, #184]
 1103 00da 3B46     		mov	r3, r7
 1104 00dc 0622     		movs	r2, #6
 1105 00de 83F8C520 		strb	r2, [r3, #197]
 1106 00e2 3B46     		mov	r3, r7
 1107 00e4 3722     		movs	r2, #55
 1108 00e6 83F8C620 		strb	r2, [r3, #198]
 1109 00ea 3B46     		mov	r3, r7
 1110 00ec 0222     		movs	r2, #2
 1111 00ee 83F8D720 		strb	r2, [r3, #215]
 1112 00f2 3B46     		mov	r3, r7
 1113 00f4 1322     		movs	r2, #19
 1114 00f6 83F8D820 		strb	r2, [r3, #216]
ARM GAS  C:\Users\Sava\AppData\Local\Temp\ccqTJW0n.s 			page 76


 1115 00fa 3B46     		mov	r3, r7
 1116 00fc 0122     		movs	r2, #1
 1117 00fe 83F8E920 		strb	r2, [r3, #233]
 1118 0102 3B46     		mov	r3, r7
 1119 0104 2022     		movs	r2, #32
 1120 0106 83F8EA20 		strb	r2, [r3, #234]
 1121 010a 3B46     		mov	r3, r7
 1122 010c FF22     		movs	r2, #255
 1123 010e 83F80D21 		strb	r2, [r3, #269]
 132:lv_drivers/ili9341.c **** //		{0xCF, {0x00, 0x83, 0X30}, 3},
 133:lv_drivers/ili9341.c **** //		{0xED, {0x64, 0x03, 0X12, 0X81}, 4},
 134:lv_drivers/ili9341.c **** //		{0xE8, {0x85, 0x01, 0x79}, 3},
 135:lv_drivers/ili9341.c **** //		{0xCB, {0x39, 0x2C, 0x00, 0x34, 0x02}, 5},
 136:lv_drivers/ili9341.c **** //		{0xF7, {0x20}, 1},
 137:lv_drivers/ili9341.c **** //		{0xEA, {0x00, 0x00}, 2},
 138:lv_drivers/ili9341.c **** //		{0xC0, {0x26}, 1},			/*Power control*/
 139:lv_drivers/ili9341.c **** //		{0xC1, {0x11}, 1},			/*Power control */
 140:lv_drivers/ili9341.c **** //		{0xC5, {0x35, 0x3E}, 2},	/*VCOM control*/
 141:lv_drivers/ili9341.c **** //		{0xC7, {0xBE}, 1},			/*VCOM control*/
 142:lv_drivers/ili9341.c **** //		{0x36, {0x28}, 1},			/*Memory Access Control*/
 143:lv_drivers/ili9341.c **** //		{0x3A, {0x55}, 1},			/*Pixel Format Set*/
 144:lv_drivers/ili9341.c **** //		{0xB1, {0x00, 0x1B}, 2},
 145:lv_drivers/ili9341.c **** //		{0xF2, {0x08}, 1},
 146:lv_drivers/ili9341.c **** //		{0x26, {0x01}, 1},
 147:lv_drivers/ili9341.c **** //		{0xE0, {0x1F, 0x1A, 0x18, 0x0A, 0x0F, 0x06, 0x45, 0X87, 0x32, 0x0A, 0x07, 0x02, 0x07, 0x05, 0x0
 148:lv_drivers/ili9341.c **** //		{0XE1, {0x00, 0x25, 0x27, 0x05, 0x10, 0x09, 0x3A, 0x78, 0x4D, 0x05, 0x18, 0x0D, 0x38, 0x3A, 0x1
 149:lv_drivers/ili9341.c **** //		{0x2A, {0x00, 0x00, 0x00, 0xEF}, 4},
 150:lv_drivers/ili9341.c **** //		{0x2B, {0x00, 0x00, 0x01, 0x3f}, 4},
 151:lv_drivers/ili9341.c **** //		{0x2C, {0}, 0},
 152:lv_drivers/ili9341.c **** //		{0xB7, {0x07}, 1},
 153:lv_drivers/ili9341.c **** //		{0xB6, {0x0A, 0x82, 0x27, 0x00}, 4},
 154:lv_drivers/ili9341.c **** //		{0x11, {0}, 0x80},
 155:lv_drivers/ili9341.c **** //		{0x29, {0}, 0x80},
 156:lv_drivers/ili9341.c **** //		{0, {0}, 0xff},
 157:lv_drivers/ili9341.c ****         
 158:lv_drivers/ili9341.c ****         
 159:lv_drivers/ili9341.c ****            //  From regVal_2_4
 160:lv_drivers/ili9341.c ****         {0x01, {0}, 0x00},
 161:lv_drivers/ili9341.c ****         {0x28, {0}, 0x00},                          /* Software reset */
 162:lv_drivers/ili9341.c ****         {0x3A, {0x55}, 1},                          /* Pixel Format Set */
 163:lv_drivers/ili9341.c **** //        {0xF6, {0x1, 0x1, 0x00}, 3},                /* Interface control from level 2 commands (d
 164:lv_drivers/ili9341.c ****         {0x36, {0x48}, 1},                          /* Memory Access Control */
 165:lv_drivers/ili9341.c ****         {0x26, {0x1}, 1},                           /* Gamma Set */
 166:lv_drivers/ili9341.c ****         {0x11, {0}, 0},                             /* Sleep Out */
 167:lv_drivers/ili9341.c ****         {0x29, {0}, 0x0},                           // Display on
 168:lv_drivers/ili9341.c ****         {0x36, {0x0}, 1},                           /* Memory Acess Control */
 169:lv_drivers/ili9341.c ****         {0x2A, {0x00, 0x00, 0x01, 0x3F}, 4},        // Collumn address set 320
 170:lv_drivers/ili9341.c ****         {0x2B, {0x00, 0x00, 0x00, 0xEF}, 4},        // Row address set 240
 171:lv_drivers/ili9341.c ****         {0x33, {0x0, 0x0, 0x1, 0x40, 0x0, 0x0}, 6}, /* Vertical Scrolling Definition */
 172:lv_drivers/ili9341.c ****         {0x37, {0x0, 0x0}, 2},                      /* Vertical Scrolling Start Address */
 173:lv_drivers/ili9341.c ****         {0x13, {0x0}, 1},                           /* Normal Display Mode ON */
 174:lv_drivers/ili9341.c ****         {0x20, {0}, 0},                             /* Display Inversion OFF */
 175:lv_drivers/ili9341.c ****         
 176:lv_drivers/ili9341.c **** 		{0, {0}, 0xff}                              // Exit loop
 177:lv_drivers/ili9341.c ****         
 178:lv_drivers/ili9341.c **** 	};  
 179:lv_drivers/ili9341.c **** 
ARM GAS  C:\Users\Sava\AppData\Local\Temp\ccqTJW0n.s 			page 77


 180:lv_drivers/ili9341.c **** //	Initialize non-SPI GPIOs
 181:lv_drivers/ili9341.c **** //	gpio_set_direction(ILI9341_DC, GPIO_MODE_OUTPUT);
 182:lv_drivers/ili9341.c **** //	gpio_set_direction(ILI9341_RST, GPIO_MODE_OUTPUT);
 183:lv_drivers/ili9341.c **** //	gpio_set_direction(ILI9341_BCKL, GPIO_MODE_OUTPUT);
 184:lv_drivers/ili9341.c **** //
 185:lv_drivers/ili9341.c **** //	Reset the display
 186:lv_drivers/ili9341.c **** //	gpio_set_level(ILI9341_RST, 0);
 187:lv_drivers/ili9341.c **** //	vTaskDelay(100 / portTICK_RATE_MS);
 188:lv_drivers/ili9341.c **** //	gpio_set_level(ILI9341_RST, 1);
 189:lv_drivers/ili9341.c **** //	vTaskDelay(100 / portTICK_RATE_MS);
 190:lv_drivers/ili9341.c **** //
 191:lv_drivers/ili9341.c **** //
 192:lv_drivers/ili9341.c **** //	printf("ILI9341 initialization.\n");    */
 193:lv_drivers/ili9341.c **** lcd_start_reset();
 1124              		.loc 1 193 0
 1125 0112 FFF7FEFF 		bl	lcd_start_reset
 194:lv_drivers/ili9341.c **** 
 195:lv_drivers/ili9341.c **** //	Send all the commands
 196:lv_drivers/ili9341.c **** 	uint16_t cmd = 0;
 1126              		.loc 1 196 0
 1127 0116 0023     		movs	r3, #0
 1128 0118 A7F80E31 		strh	r3, [r7, #270]	@ movhi
 197:lv_drivers/ili9341.c **** 	while (ili_init_cmds[cmd].databytes!=0xff) {
 1129              		.loc 1 197 0
 1130 011c 39E0     		b	.L2
 1131              	.L4:
 198:lv_drivers/ili9341.c **** 		ILI9341_send_cmd(ili_init_cmds[cmd].cmd);
 1132              		.loc 1 198 0
 1133 011e B7F80E21 		ldrh	r2, [r7, #270]
 1134 0122 3946     		mov	r1, r7
 1135 0124 1346     		mov	r3, r2
 1136 0126 DB00     		lsls	r3, r3, #3
 1137 0128 1344     		add	r3, r3, r2
 1138 012a 5B00     		lsls	r3, r3, #1
 1139 012c 0B44     		add	r3, r3, r1
 1140 012e 1B78     		ldrb	r3, [r3]	@ zero_extendqisi2
 1141 0130 9BB2     		uxth	r3, r3
 1142 0132 1846     		mov	r0, r3
 1143 0134 FFF7FEFF 		bl	ILI9341_send_cmd
 199:lv_drivers/ili9341.c **** 		ILI9341_send_data(ili_init_cmds[cmd].data, ili_init_cmds[cmd].databytes&0x1F);
 1144              		.loc 1 199 0
 1145 0138 B7F80E21 		ldrh	r2, [r7, #270]
 1146 013c 3946     		mov	r1, r7
 1147 013e 1346     		mov	r3, r2
 1148 0140 DB00     		lsls	r3, r3, #3
 1149 0142 1344     		add	r3, r3, r2
 1150 0144 5B00     		lsls	r3, r3, #1
 1151 0146 0B44     		add	r3, r3, r1
 1152 0148 581C     		adds	r0, r3, #1
 1153 014a B7F80E21 		ldrh	r2, [r7, #270]
 1154 014e 3946     		mov	r1, r7
 1155 0150 1346     		mov	r3, r2
 1156 0152 DB00     		lsls	r3, r3, #3
 1157 0154 1344     		add	r3, r3, r2
 1158 0156 5B00     		lsls	r3, r3, #1
 1159 0158 0B44     		add	r3, r3, r1
 1160 015a 1133     		adds	r3, r3, #17
ARM GAS  C:\Users\Sava\AppData\Local\Temp\ccqTJW0n.s 			page 78


 1161 015c 1B78     		ldrb	r3, [r3]	@ zero_extendqisi2
 1162 015e 03F01F03 		and	r3, r3, #31
 1163 0162 1946     		mov	r1, r3
 1164 0164 FFF7FEFF 		bl	ILI9341_send_data
 200:lv_drivers/ili9341.c **** 		if (ili_init_cmds[cmd].databytes & 0x80) {
 1165              		.loc 1 200 0
 1166 0168 B7F80E21 		ldrh	r2, [r7, #270]
 1167 016c 3946     		mov	r1, r7
 1168 016e 1346     		mov	r3, r2
 1169 0170 DB00     		lsls	r3, r3, #3
 1170 0172 1344     		add	r3, r3, r2
 1171 0174 5B00     		lsls	r3, r3, #1
 1172 0176 0B44     		add	r3, r3, r1
 1173 0178 1133     		adds	r3, r3, #17
 1174 017a 1B78     		ldrb	r3, [r3]	@ zero_extendqisi2
 1175 017c 5BB2     		sxtb	r3, r3
 1176 017e 002B     		cmp	r3, #0
 1177 0180 02DA     		bge	.L3
 201:lv_drivers/ili9341.c **** 			CyDelay(100);
 1178              		.loc 1 201 0
 1179 0182 6420     		movs	r0, #100
 1180 0184 FFF7FEFF 		bl	CyDelay
 1181              	.L3:
 202:lv_drivers/ili9341.c **** 		}
 203:lv_drivers/ili9341.c **** 		cmd++;
 1182              		.loc 1 203 0
 1183 0188 B7F80E31 		ldrh	r3, [r7, #270]
 1184 018c 0133     		adds	r3, r3, #1
 1185 018e A7F80E31 		strh	r3, [r7, #270]	@ movhi
 1186              	.L2:
 197:lv_drivers/ili9341.c **** 		ILI9341_send_cmd(ili_init_cmds[cmd].cmd);
 1187              		.loc 1 197 0
 1188 0192 B7F80E21 		ldrh	r2, [r7, #270]
 1189 0196 3946     		mov	r1, r7
 1190 0198 1346     		mov	r3, r2
 1191 019a DB00     		lsls	r3, r3, #3
 1192 019c 1344     		add	r3, r3, r2
 1193 019e 5B00     		lsls	r3, r3, #1
 1194 01a0 0B44     		add	r3, r3, r1
 1195 01a2 1133     		adds	r3, r3, #17
 1196 01a4 1B78     		ldrb	r3, [r3]	@ zero_extendqisi2
 1197 01a6 FF2B     		cmp	r3, #255
 1198 01a8 B9D1     		bne	.L4
 204:lv_drivers/ili9341.c **** 	}
 205:lv_drivers/ili9341.c **** //    lcd_start_reset();
 206:lv_drivers/ili9341.c **** //    sendStartSequence(ILI9341_regValues_2_4, sizeof(ILI9341_regValues_2_4));
 207:lv_drivers/ili9341.c ****     
 208:lv_drivers/ili9341.c ****     
 209:lv_drivers/ili9341.c **** }
 1199              		.loc 1 209 0
 1200 01aa 00BF     		nop
 1201 01ac 07F58877 		add	r7, r7, #272
 1202              		.cfi_def_cfa_offset 8
 1203 01b0 BD46     		mov	sp, r7
 1204              		.cfi_def_cfa_register 13
 1205              		@ sp needed
 1206 01b2 80BD     		pop	{r7, pc}
ARM GAS  C:\Users\Sava\AppData\Local\Temp\ccqTJW0n.s 			page 79


 1207              		.cfi_endproc
 1208              	.LFE170:
 1209              		.size	ILI9341_init, .-ILI9341_init
 1210              		.section	.text.ILI9341_fill,"ax",%progbits
 1211              		.align	2
 1212              		.global	ILI9341_fill
 1213              		.thumb
 1214              		.thumb_func
 1215              		.type	ILI9341_fill, %function
 1216              	ILI9341_fill:
 1217              	.LFB171:
 210:lv_drivers/ili9341.c **** 
 211:lv_drivers/ili9341.c **** void ILI9341_fill(int32_t x1, int32_t y1, int32_t x2, int32_t y2, lv_color_t color)
 212:lv_drivers/ili9341.c **** {
 1218              		.loc 1 212 0
 1219              		.cfi_startproc
 1220              		@ args = 4, pretend = 0, frame = 672
 1221              		@ frame_needed = 1, uses_anonymous_args = 0
 1222 0000 90B5     		push	{r4, r7, lr}
 1223              		.cfi_def_cfa_offset 12
 1224              		.cfi_offset 4, -12
 1225              		.cfi_offset 7, -8
 1226              		.cfi_offset 14, -4
 1227 0002 ADF5297D 		sub	sp, sp, #676
 1228              		.cfi_def_cfa_offset 688
 1229 0006 00AF     		add	r7, sp, #0
 1230              		.cfi_def_cfa_register 7
 1231 0008 07F10C04 		add	r4, r7, #12
 1232 000c 2060     		str	r0, [r4]
 1233 000e 07F10800 		add	r0, r7, #8
 1234 0012 0160     		str	r1, [r0]
 1235 0014 391D     		adds	r1, r7, #4
 1236 0016 0A60     		str	r2, [r1]
 1237 0018 3A46     		mov	r2, r7
 1238 001a 1360     		str	r3, [r2]
 213:lv_drivers/ili9341.c **** 	/* Display controller does not support
 214:lv_drivers/ili9341.c **** 	* setting a RAM address. It always starts 
 215:lv_drivers/ili9341.c **** 	* from XS/YS reading and writing! */
 216:lv_drivers/ili9341.c **** 	
 217:lv_drivers/ili9341.c **** 	uint8_t data[4];
 218:lv_drivers/ili9341.c **** 	
 219:lv_drivers/ili9341.c **** //	Set rectangle
 220:lv_drivers/ili9341.c **** 
 221:lv_drivers/ili9341.c **** 	/*Column address set*/
 222:lv_drivers/ili9341.c **** 	ILI9341_send_cmd(0x2A);
 1239              		.loc 1 222 0
 1240 001c 2A20     		movs	r0, #42
 1241 001e FFF7FEFF 		bl	ILI9341_send_cmd
 223:lv_drivers/ili9341.c **** 	data[0] = (x1 >> 8) & 0xFF;	/* High byte for x1 left coordinate start column; &0xFF is unnecessary
 1242              		.loc 1 223 0
 1243 0022 07F10C03 		add	r3, r7, #12
 1244 0026 1B68     		ldr	r3, [r3]
 1245 0028 1B12     		asrs	r3, r3, #8
 1246 002a DBB2     		uxtb	r3, r3
 1247 002c 87F89432 		strb	r3, [r7, #660]
 224:lv_drivers/ili9341.c **** 	data[1] = x1 & 0xFF;		/* Low byte for x1 left coordinate start column	*/
 1248              		.loc 1 224 0
ARM GAS  C:\Users\Sava\AppData\Local\Temp\ccqTJW0n.s 			page 80


 1249 0030 07F10C03 		add	r3, r7, #12
 1250 0034 1B68     		ldr	r3, [r3]
 1251 0036 DBB2     		uxtb	r3, r3
 1252 0038 87F89532 		strb	r3, [r7, #661]
 225:lv_drivers/ili9341.c **** 	data[2] = (x2 >> 8) & 0xFF;	/* High byte for x2 right coordinate end column; &0xFF is unnecessary	
 1253              		.loc 1 225 0
 1254 003c 3B1D     		adds	r3, r7, #4
 1255 003e 1B68     		ldr	r3, [r3]
 1256 0040 1B12     		asrs	r3, r3, #8
 1257 0042 DBB2     		uxtb	r3, r3
 1258 0044 87F89632 		strb	r3, [r7, #662]
 226:lv_drivers/ili9341.c **** 	data[3] = x2 & 0xFF;		/* Low byte for x2 right coordinate end column	*/
 1259              		.loc 1 226 0
 1260 0048 3B1D     		adds	r3, r7, #4
 1261 004a 1B68     		ldr	r3, [r3]
 1262 004c DBB2     		uxtb	r3, r3
 1263 004e 87F89732 		strb	r3, [r7, #663]
 227:lv_drivers/ili9341.c **** 	ILI9341_send_data(data, 4);
 1264              		.loc 1 227 0
 1265 0052 07F52573 		add	r3, r7, #660
 1266 0056 0421     		movs	r1, #4
 1267 0058 1846     		mov	r0, r3
 1268 005a FFF7FEFF 		bl	ILI9341_send_data
 228:lv_drivers/ili9341.c **** 
 229:lv_drivers/ili9341.c **** 	/*Page(Row) address set*/
 230:lv_drivers/ili9341.c **** 	ILI9341_send_cmd(0x2B);
 1269              		.loc 1 230 0
 1270 005e 2B20     		movs	r0, #43
 1271 0060 FFF7FEFF 		bl	ILI9341_send_cmd
 231:lv_drivers/ili9341.c **** 	data[0] = (y1 >> 8) & 0xFF;	/* High byte for y1 top coordinate start row; &0xFF is unnecessary	*/
 1272              		.loc 1 231 0
 1273 0064 07F10803 		add	r3, r7, #8
 1274 0068 1B68     		ldr	r3, [r3]
 1275 006a 1B12     		asrs	r3, r3, #8
 1276 006c DBB2     		uxtb	r3, r3
 1277 006e 87F89432 		strb	r3, [r7, #660]
 232:lv_drivers/ili9341.c **** 	data[1] = y1 & 0xFF;		/* Low byte for y1 top coordinate start row	*/
 1278              		.loc 1 232 0
 1279 0072 07F10803 		add	r3, r7, #8
 1280 0076 1B68     		ldr	r3, [r3]
 1281 0078 DBB2     		uxtb	r3, r3
 1282 007a 87F89532 		strb	r3, [r7, #661]
 233:lv_drivers/ili9341.c **** 	data[2] = (y2 >> 8) & 0xFF;	/* High byte for y2 bottom coordinate end row; &0xFF is unnecessary	*/
 1283              		.loc 1 233 0
 1284 007e 3B46     		mov	r3, r7
 1285 0080 1B68     		ldr	r3, [r3]
 1286 0082 1B12     		asrs	r3, r3, #8
 1287 0084 DBB2     		uxtb	r3, r3
 1288 0086 87F89632 		strb	r3, [r7, #662]
 234:lv_drivers/ili9341.c **** 	data[3] = y2 & 0xFF;		/* Low byte for y2 bottom coordinate end row	*/
 1289              		.loc 1 234 0
 1290 008a 3B46     		mov	r3, r7
 1291 008c 1B68     		ldr	r3, [r3]
 1292 008e DBB2     		uxtb	r3, r3
 1293 0090 87F89732 		strb	r3, [r7, #663]
 235:lv_drivers/ili9341.c **** 	ILI9341_send_data(data, 4);
 1294              		.loc 1 235 0
ARM GAS  C:\Users\Sava\AppData\Local\Temp\ccqTJW0n.s 			page 81


 1295 0094 07F52573 		add	r3, r7, #660
 1296 0098 0421     		movs	r1, #4
 1297 009a 1846     		mov	r0, r3
 1298 009c FFF7FEFF 		bl	ILI9341_send_data
 236:lv_drivers/ili9341.c **** 
 237:lv_drivers/ili9341.c **** 	/*Memory write mode*/
 238:lv_drivers/ili9341.c **** 	ILI9341_send_cmd(0x2C);	//Rectangle set
 1299              		.loc 1 238 0
 1300 00a0 2C20     		movs	r0, #44
 1301 00a2 FFF7FEFF 		bl	ILI9341_send_cmd
 239:lv_drivers/ili9341.c **** 
 240:lv_drivers/ili9341.c **** 	uint32_t size = (x2 - x1 + 1) * (y2 - y1 + 1);
 1302              		.loc 1 240 0
 1303 00a6 3A1D     		adds	r2, r7, #4
 1304 00a8 07F10C03 		add	r3, r7, #12
 1305 00ac 1268     		ldr	r2, [r2]
 1306 00ae 1B68     		ldr	r3, [r3]
 1307 00b0 D31A     		subs	r3, r2, r3
 1308 00b2 0133     		adds	r3, r3, #1
 1309 00b4 3946     		mov	r1, r7
 1310 00b6 07F10802 		add	r2, r7, #8
 1311 00ba 0968     		ldr	r1, [r1]
 1312 00bc 1268     		ldr	r2, [r2]
 1313 00be 8A1A     		subs	r2, r1, r2
 1314 00c0 0132     		adds	r2, r2, #1
 1315 00c2 02FB03F3 		mul	r3, r2, r3
 1316 00c6 C7F89C32 		str	r3, [r7, #668]
 241:lv_drivers/ili9341.c **** 	uint16_t buf[LV_HOR_RES];
 242:lv_drivers/ili9341.c **** 
 243:lv_drivers/ili9341.c **** 	uint32_t i;
 244:lv_drivers/ili9341.c **** 	if(size < LV_HOR_RES) {
 1317              		.loc 1 244 0
 1318 00ca D7F89C32 		ldr	r3, [r7, #668]
 1319 00ce B3F5A07F 		cmp	r3, #320
 1320 00d2 17D2     		bcs	.L6
 245:lv_drivers/ili9341.c **** 		for(i = 0; i < size; i++) buf[i] = color.full;
 1321              		.loc 1 245 0
 1322 00d4 0023     		movs	r3, #0
 1323 00d6 C7F89832 		str	r3, [r7, #664]
 1324 00da 0CE0     		b	.L7
 1325              	.L8:
 1326              		.loc 1 245 0 is_stmt 0 discriminator 3
 1327 00dc B7F8B012 		ldrh	r1, [r7, #688]
 1328 00e0 07F11403 		add	r3, r7, #20
 1329 00e4 D7F89822 		ldr	r2, [r7, #664]
 1330 00e8 23F81210 		strh	r1, [r3, r2, lsl #1]	@ movhi
 1331 00ec D7F89832 		ldr	r3, [r7, #664]
 1332 00f0 0133     		adds	r3, r3, #1
 1333 00f2 C7F89832 		str	r3, [r7, #664]
 1334              	.L7:
 1335              		.loc 1 245 0 discriminator 1
 1336 00f6 D7F89822 		ldr	r2, [r7, #664]
 1337 00fa D7F89C32 		ldr	r3, [r7, #668]
 1338 00fe 9A42     		cmp	r2, r3
 1339 0100 ECD3     		bcc	.L8
 1340 0102 23E0     		b	.L12
 1341              	.L6:
ARM GAS  C:\Users\Sava\AppData\Local\Temp\ccqTJW0n.s 			page 82


 246:lv_drivers/ili9341.c **** 
 247:lv_drivers/ili9341.c **** 	} else {
 248:lv_drivers/ili9341.c **** 		for(i = 0; i < LV_HOR_RES; i++) buf[i] = color.full;
 1342              		.loc 1 248 0 is_stmt 1
 1343 0104 0023     		movs	r3, #0
 1344 0106 C7F89832 		str	r3, [r7, #664]
 1345 010a 0CE0     		b	.L10
 1346              	.L11:
 1347              		.loc 1 248 0 is_stmt 0 discriminator 3
 1348 010c B7F8B012 		ldrh	r1, [r7, #688]
 1349 0110 07F11403 		add	r3, r7, #20
 1350 0114 D7F89822 		ldr	r2, [r7, #664]
 1351 0118 23F81210 		strh	r1, [r3, r2, lsl #1]	@ movhi
 1352 011c D7F89832 		ldr	r3, [r7, #664]
 1353 0120 0133     		adds	r3, r3, #1
 1354 0122 C7F89832 		str	r3, [r7, #664]
 1355              	.L10:
 1356              		.loc 1 248 0 discriminator 1
 1357 0126 D7F89832 		ldr	r3, [r7, #664]
 1358 012a B3F5A07F 		cmp	r3, #320
 1359 012e EDD3     		bcc	.L11
 249:lv_drivers/ili9341.c **** 	}
 250:lv_drivers/ili9341.c **** 
 251:lv_drivers/ili9341.c **** 	while(size > LV_HOR_RES) {
 1360              		.loc 1 251 0 is_stmt 1 discriminator 1
 1361 0130 0CE0     		b	.L12
 1362              	.L13:
 252:lv_drivers/ili9341.c **** 		ili9341_send_color(buf, LV_HOR_RES * 2);
 1363              		.loc 1 252 0
 1364 0132 07F11403 		add	r3, r7, #20
 1365 0136 4FF42071 		mov	r1, #640
 1366 013a 1846     		mov	r0, r3
 1367 013c FFF7FEFF 		bl	ili9341_send_color
 253:lv_drivers/ili9341.c **** 		size -= LV_HOR_RES;
 1368              		.loc 1 253 0
 1369 0140 D7F89C32 		ldr	r3, [r7, #668]
 1370 0144 A3F5A073 		sub	r3, r3, #320
 1371 0148 C7F89C32 		str	r3, [r7, #668]
 1372              	.L12:
 251:lv_drivers/ili9341.c **** 		ili9341_send_color(buf, LV_HOR_RES * 2);
 1373              		.loc 1 251 0
 1374 014c D7F89C32 		ldr	r3, [r7, #668]
 1375 0150 B3F5A07F 		cmp	r3, #320
 1376 0154 EDD8     		bhi	.L13
 254:lv_drivers/ili9341.c **** 	}
 255:lv_drivers/ili9341.c **** 
 256:lv_drivers/ili9341.c **** 	ili9341_send_color(buf, size * 2);	/*Send the remaining data*/
 1377              		.loc 1 256 0
 1378 0156 D7F89C32 		ldr	r3, [r7, #668]
 1379 015a 9BB2     		uxth	r3, r3
 1380 015c 5B00     		lsls	r3, r3, #1
 1381 015e 9AB2     		uxth	r2, r3
 1382 0160 07F11403 		add	r3, r7, #20
 1383 0164 1146     		mov	r1, r2
 1384 0166 1846     		mov	r0, r3
 1385 0168 FFF7FEFF 		bl	ili9341_send_color
 257:lv_drivers/ili9341.c **** }
ARM GAS  C:\Users\Sava\AppData\Local\Temp\ccqTJW0n.s 			page 83


 1386              		.loc 1 257 0
 1387 016c 00BF     		nop
 1388 016e 07F52977 		add	r7, r7, #676
 1389              		.cfi_def_cfa_offset 12
 1390 0172 BD46     		mov	sp, r7
 1391              		.cfi_def_cfa_register 13
 1392              		@ sp needed
 1393 0174 90BD     		pop	{r4, r7, pc}
 1394              		.cfi_endproc
 1395              	.LFE171:
 1396              		.size	ILI9341_fill, .-ILI9341_fill
 1397 0176 00BF     		.section	.text.ILI9341_flush,"ax",%progbits
 1398              		.align	2
 1399              		.global	ILI9341_flush
 1400              		.thumb
 1401              		.thumb_func
 1402              		.type	ILI9341_flush, %function
 1403              	ILI9341_flush:
 1404              	.LFB172:
 258:lv_drivers/ili9341.c **** 
 259:lv_drivers/ili9341.c **** 
 260:lv_drivers/ili9341.c **** void ILI9341_flush(int32_t x1, int32_t y1, int32_t x2, int32_t y2, const lv_color_t * color_map)
 261:lv_drivers/ili9341.c **** {
 1405              		.loc 1 261 0
 1406              		.cfi_startproc
 1407              		@ args = 4, pretend = 0, frame = 48
 1408              		@ frame_needed = 1, uses_anonymous_args = 0
 1409 0000 80B5     		push	{r7, lr}
 1410              		.cfi_def_cfa_offset 8
 1411              		.cfi_offset 7, -8
 1412              		.cfi_offset 14, -4
 1413 0002 8CB0     		sub	sp, sp, #48
 1414              		.cfi_def_cfa_offset 56
 1415 0004 00AF     		add	r7, sp, #0
 1416              		.cfi_def_cfa_register 7
 1417 0006 F860     		str	r0, [r7, #12]
 1418 0008 B960     		str	r1, [r7, #8]
 1419 000a 7A60     		str	r2, [r7, #4]
 1420 000c 3B60     		str	r3, [r7]
 262:lv_drivers/ili9341.c ****       /*Return if the area is out the screen*/
 263:lv_drivers/ili9341.c **** //    if (x2 < 0 || y2 < 0 || x1 > LV_HOR_RES - 1 || y1 > LV_VER_RES - 1)
 264:lv_drivers/ili9341.c **** //    {
 265:lv_drivers/ili9341.c **** //        lv_flush_ready();
 266:lv_drivers/ili9341.c **** //        return;
 267:lv_drivers/ili9341.c **** //    }
 268:lv_drivers/ili9341.c **** 
 269:lv_drivers/ili9341.c ****     /*Truncate the area to the screen*/
 270:lv_drivers/ili9341.c ****    int32 act_x1 = x1 < 0 ? 0 : x1;
 1421              		.loc 1 270 0
 1422 000e FB68     		ldr	r3, [r7, #12]
 1423 0010 23EAE373 		bic	r3, r3, r3, asr #31
 1424 0014 BB62     		str	r3, [r7, #40]
 271:lv_drivers/ili9341.c ****    int32 act_y1 = y1 < 0 ? 0 : y1;
 1425              		.loc 1 271 0
 1426 0016 BB68     		ldr	r3, [r7, #8]
 1427 0018 23EAE373 		bic	r3, r3, r3, asr #31
 1428 001c 7B62     		str	r3, [r7, #36]
ARM GAS  C:\Users\Sava\AppData\Local\Temp\ccqTJW0n.s 			page 84


 272:lv_drivers/ili9341.c ****    int32 act_x2 = x2 > LV_HOR_RES - 1 ? LV_HOR_RES - 1 : x2;
 1429              		.loc 1 272 0
 1430 001e 7B68     		ldr	r3, [r7, #4]
 1431 0020 40F23F12 		movw	r2, #319
 1432 0024 9342     		cmp	r3, r2
 1433 0026 A8BF     		it	ge
 1434 0028 1346     		movge	r3, r2
 1435 002a 3B62     		str	r3, [r7, #32]
 273:lv_drivers/ili9341.c ****    int32 act_y2 = y2 > LV_VER_RES - 1 ? LV_VER_RES - 1 : y2;  
 1436              		.loc 1 273 0
 1437 002c 3B68     		ldr	r3, [r7]
 1438 002e EF2B     		cmp	r3, #239
 1439 0030 A8BF     		it	ge
 1440 0032 EF23     		movge	r3, #239
 1441 0034 FB61     		str	r3, [r7, #28]
 274:lv_drivers/ili9341.c ****     
 275:lv_drivers/ili9341.c **** 	
 276:lv_drivers/ili9341.c **** 
 277:lv_drivers/ili9341.c **** /* Display controller does not support
 278:lv_drivers/ili9341.c ****  * setting a RAM address. It always starts 
 279:lv_drivers/ili9341.c ****  * from XS/YS reading and writing! */
 280:lv_drivers/ili9341.c **** 
 281:lv_drivers/ili9341.c **** /* - Orientation managed completely by controller */
 282:lv_drivers/ili9341.c **** 
 283:lv_drivers/ili9341.c **** //	Set rectangle
 284:lv_drivers/ili9341.c ****     uint8 data[4];
 285:lv_drivers/ili9341.c **** 	/*Column address set*/
 286:lv_drivers/ili9341.c **** 	ILI9341_send_cmd(0x2A);
 1442              		.loc 1 286 0
 1443 0036 2A20     		movs	r0, #42
 1444 0038 FFF7FEFF 		bl	ILI9341_send_cmd
 287:lv_drivers/ili9341.c **** 	data[0] = (act_x1 >> 8) & 0xFF;
 1445              		.loc 1 287 0
 1446 003c BB6A     		ldr	r3, [r7, #40]
 1447 003e 1B12     		asrs	r3, r3, #8
 1448 0040 DBB2     		uxtb	r3, r3
 1449 0042 3B75     		strb	r3, [r7, #20]
 288:lv_drivers/ili9341.c **** 	data[1] = act_x1 & 0xFF;
 1450              		.loc 1 288 0
 1451 0044 BB6A     		ldr	r3, [r7, #40]
 1452 0046 DBB2     		uxtb	r3, r3
 1453 0048 7B75     		strb	r3, [r7, #21]
 289:lv_drivers/ili9341.c **** 	data[2] = (act_x2 >> 8) & 0xFF;
 1454              		.loc 1 289 0
 1455 004a 3B6A     		ldr	r3, [r7, #32]
 1456 004c 1B12     		asrs	r3, r3, #8
 1457 004e DBB2     		uxtb	r3, r3
 1458 0050 BB75     		strb	r3, [r7, #22]
 290:lv_drivers/ili9341.c **** 	data[3] = act_x2 & 0xFF;
 1459              		.loc 1 290 0
 1460 0052 3B6A     		ldr	r3, [r7, #32]
 1461 0054 DBB2     		uxtb	r3, r3
 1462 0056 FB75     		strb	r3, [r7, #23]
 291:lv_drivers/ili9341.c **** 	ILI9341_send_data(data, sizeof(data));
 1463              		.loc 1 291 0
 1464 0058 07F11403 		add	r3, r7, #20
 1465 005c 0421     		movs	r1, #4
ARM GAS  C:\Users\Sava\AppData\Local\Temp\ccqTJW0n.s 			page 85


 1466 005e 1846     		mov	r0, r3
 1467 0060 FFF7FEFF 		bl	ILI9341_send_data
 292:lv_drivers/ili9341.c **** 
 293:lv_drivers/ili9341.c **** 	/*Page address set*/
 294:lv_drivers/ili9341.c **** 	ILI9341_send_cmd(0x2B);
 1468              		.loc 1 294 0
 1469 0064 2B20     		movs	r0, #43
 1470 0066 FFF7FEFF 		bl	ILI9341_send_cmd
 295:lv_drivers/ili9341.c **** 	data[0] = (act_y1 >> 8) & 0xFF;
 1471              		.loc 1 295 0
 1472 006a 7B6A     		ldr	r3, [r7, #36]
 1473 006c 1B12     		asrs	r3, r3, #8
 1474 006e DBB2     		uxtb	r3, r3
 1475 0070 3B75     		strb	r3, [r7, #20]
 296:lv_drivers/ili9341.c **** 	data[1] = act_y1 & 0xFF;
 1476              		.loc 1 296 0
 1477 0072 7B6A     		ldr	r3, [r7, #36]
 1478 0074 DBB2     		uxtb	r3, r3
 1479 0076 7B75     		strb	r3, [r7, #21]
 297:lv_drivers/ili9341.c **** 	data[2] = (act_y2 >> 8) & 0xFF;
 1480              		.loc 1 297 0
 1481 0078 FB69     		ldr	r3, [r7, #28]
 1482 007a 1B12     		asrs	r3, r3, #8
 1483 007c DBB2     		uxtb	r3, r3
 1484 007e BB75     		strb	r3, [r7, #22]
 298:lv_drivers/ili9341.c **** 	data[3] = act_y2 & 0xFF;
 1485              		.loc 1 298 0
 1486 0080 FB69     		ldr	r3, [r7, #28]
 1487 0082 DBB2     		uxtb	r3, r3
 1488 0084 FB75     		strb	r3, [r7, #23]
 299:lv_drivers/ili9341.c **** 	ILI9341_send_data(data, sizeof(data));
 1489              		.loc 1 299 0
 1490 0086 07F11403 		add	r3, r7, #20
 1491 008a 0421     		movs	r1, #4
 1492 008c 1846     		mov	r0, r3
 1493 008e FFF7FEFF 		bl	ILI9341_send_data
 300:lv_drivers/ili9341.c **** 
 301:lv_drivers/ili9341.c **** 	/*Memory write mode*/
 302:lv_drivers/ili9341.c **** 	ILI9341_send_cmd(0x2C);	//Rectangle set
 1494              		.loc 1 302 0
 1495 0092 2C20     		movs	r0, #44
 1496 0094 FFF7FEFF 		bl	ILI9341_send_cmd
 303:lv_drivers/ili9341.c ****     
 304:lv_drivers/ili9341.c ****     
 305:lv_drivers/ili9341.c ****     
 306:lv_drivers/ili9341.c ****     uint16 full_w = x2 - x1 +1;
 1497              		.loc 1 306 0
 1498 0098 7B68     		ldr	r3, [r7, #4]
 1499 009a 9AB2     		uxth	r2, r3
 1500 009c FB68     		ldr	r3, [r7, #12]
 1501 009e 9BB2     		uxth	r3, r3
 1502 00a0 D31A     		subs	r3, r2, r3
 1503 00a2 9BB2     		uxth	r3, r3
 1504 00a4 0133     		adds	r3, r3, #1
 1505 00a6 7B83     		strh	r3, [r7, #26]	@ movhi
 307:lv_drivers/ili9341.c ****     int16 i,j;
 308:lv_drivers/ili9341.c ****     uint16 act_w = act_x2 - act_x1 +1;
ARM GAS  C:\Users\Sava\AppData\Local\Temp\ccqTJW0n.s 			page 86


 1506              		.loc 1 308 0
 1507 00a8 3B6A     		ldr	r3, [r7, #32]
 1508 00aa 9AB2     		uxth	r2, r3
 1509 00ac BB6A     		ldr	r3, [r7, #40]
 1510 00ae 9BB2     		uxth	r3, r3
 1511 00b0 D31A     		subs	r3, r2, r3
 1512 00b2 9BB2     		uxth	r3, r3
 1513 00b4 0133     		adds	r3, r3, #1
 1514 00b6 3B83     		strh	r3, [r7, #24]	@ movhi
 309:lv_drivers/ili9341.c ****     for(i = act_y1; i <= act_y2; i++)
 1515              		.loc 1 309 0
 1516 00b8 7B6A     		ldr	r3, [r7, #36]
 1517 00ba FB85     		strh	r3, [r7, #46]	@ movhi
 1518 00bc 0FE0     		b	.L15
 1519              	.L16:
 310:lv_drivers/ili9341.c ****     {   
 311:lv_drivers/ili9341.c ****         GraphicLCDIntf_WriteM16_A1((uint16 *) color_map, act_w);
 1520              		.loc 1 311 0 discriminator 3
 1521 00be 3B8B     		ldrh	r3, [r7, #24]
 1522 00c0 1946     		mov	r1, r3
 1523 00c2 B86B     		ldr	r0, [r7, #56]
 1524 00c4 FFF7FEFF 		bl	GraphicLCDIntf_WriteM16_A1
 312:lv_drivers/ili9341.c ****                
 313:lv_drivers/ili9341.c ****     /*  Put put_px function here    */
 314:lv_drivers/ili9341.c ****         color_map += full_w;
 1525              		.loc 1 314 0 discriminator 3
 1526 00c8 7B8B     		ldrh	r3, [r7, #26]
 1527 00ca 5B00     		lsls	r3, r3, #1
 1528 00cc BA6B     		ldr	r2, [r7, #56]
 1529 00ce 1344     		add	r3, r3, r2
 1530 00d0 BB63     		str	r3, [r7, #56]
 309:lv_drivers/ili9341.c ****     {   
 1531              		.loc 1 309 0 discriminator 3
 1532 00d2 B7F92E30 		ldrsh	r3, [r7, #46]
 1533 00d6 9BB2     		uxth	r3, r3
 1534 00d8 0133     		adds	r3, r3, #1
 1535 00da 9BB2     		uxth	r3, r3
 1536 00dc FB85     		strh	r3, [r7, #46]	@ movhi
 1537              	.L15:
 309:lv_drivers/ili9341.c ****     {   
 1538              		.loc 1 309 0 is_stmt 0 discriminator 1
 1539 00de B7F92E20 		ldrsh	r2, [r7, #46]
 1540 00e2 FB69     		ldr	r3, [r7, #28]
 1541 00e4 9A42     		cmp	r2, r3
 1542 00e6 EADD     		ble	.L16
 315:lv_drivers/ili9341.c ****     }
 316:lv_drivers/ili9341.c ****     
 317:lv_drivers/ili9341.c **** //uint32  size = (x2 - x1 +1) * (y2 - y1 + 1);
 318:lv_drivers/ili9341.c **** //
 319:lv_drivers/ili9341.c **** //ILI9341_send_data((void *) color_map, size);
 320:lv_drivers/ili9341.c **** //    
 321:lv_drivers/ili9341.c ****     
 322:lv_drivers/ili9341.c **** 	lv_flush_ready();
 1543              		.loc 1 322 0 is_stmt 1
 1544 00e8 FFF7FEFF 		bl	lv_flush_ready
 323:lv_drivers/ili9341.c **** 
 324:lv_drivers/ili9341.c **** }
ARM GAS  C:\Users\Sava\AppData\Local\Temp\ccqTJW0n.s 			page 87


 1545              		.loc 1 324 0
 1546 00ec 00BF     		nop
 1547 00ee 3037     		adds	r7, r7, #48
 1548              		.cfi_def_cfa_offset 8
 1549 00f0 BD46     		mov	sp, r7
 1550              		.cfi_def_cfa_register 13
 1551              		@ sp needed
 1552 00f2 80BD     		pop	{r7, pc}
 1553              		.cfi_endproc
 1554              	.LFE172:
 1555              		.size	ILI9341_flush, .-ILI9341_flush
 1556              		.section	.text.lcd_start_reset,"ax",%progbits
 1557              		.align	2
 1558              		.thumb
 1559              		.thumb_func
 1560              		.type	lcd_start_reset, %function
 1561              	lcd_start_reset:
 1562              	.LFB173:
 325:lv_drivers/ili9341.c **** 
 326:lv_drivers/ili9341.c **** /**********************
 327:lv_drivers/ili9341.c ****  *   STATIC FUNCTIONS
 328:lv_drivers/ili9341.c ****  **********************/
 329:lv_drivers/ili9341.c **** static void lcd_start_reset (void)
 330:lv_drivers/ili9341.c ****     {
 1563              		.loc 1 330 0
 1564              		.cfi_startproc
 1565              		@ args = 0, pretend = 0, frame = 0
 1566              		@ frame_needed = 1, uses_anonymous_args = 0
 1567 0000 80B5     		push	{r7, lr}
 1568              		.cfi_def_cfa_offset 8
 1569              		.cfi_offset 7, -8
 1570              		.cfi_offset 14, -4
 1571 0002 00AF     		add	r7, sp, #0
 1572              		.cfi_def_cfa_register 7
 331:lv_drivers/ili9341.c ****      //************* Reset LCD Driver ****************//
 332:lv_drivers/ili9341.c **** CYPINWRITEHIGH
 1573              		.loc 1 332 0
 1574 0004 0120     		movs	r0, #1
 1575 0006 FFF7FEFF 		bl	RST_Write
 333:lv_drivers/ili9341.c **** CyDelay(1); // Delay 1ms
 1576              		.loc 1 333 0
 1577 000a 0120     		movs	r0, #1
 1578 000c FFF7FEFF 		bl	CyDelay
 334:lv_drivers/ili9341.c **** CYPINWRITELOW
 1579              		.loc 1 334 0
 1580 0010 0020     		movs	r0, #0
 1581 0012 FFF7FEFF 		bl	RST_Write
 335:lv_drivers/ili9341.c **** CyDelay(10); // Delay 10ms // This delay time is necessary
 1582              		.loc 1 335 0
 1583 0016 0A20     		movs	r0, #10
 1584 0018 FFF7FEFF 		bl	CyDelay
 336:lv_drivers/ili9341.c **** CYPINWRITEHIGH
 1585              		.loc 1 336 0
 1586 001c 0120     		movs	r0, #1
 1587 001e FFF7FEFF 		bl	RST_Write
 337:lv_drivers/ili9341.c **** CyDelay(120); // Delay 120 ms
 1588              		.loc 1 337 0
ARM GAS  C:\Users\Sava\AppData\Local\Temp\ccqTJW0n.s 			page 88


 1589 0022 7820     		movs	r0, #120
 1590 0024 FFF7FEFF 		bl	CyDelay
 338:lv_drivers/ili9341.c ****     } 
 1591              		.loc 1 338 0
 1592 0028 00BF     		nop
 1593 002a 80BD     		pop	{r7, pc}
 1594              		.cfi_endproc
 1595              	.LFE173:
 1596              		.size	lcd_start_reset, .-lcd_start_reset
 1597              		.section	.text.sendStartSequence,"ax",%progbits
 1598              		.align	2
 1599              		.thumb
 1600              		.thumb_func
 1601              		.type	sendStartSequence, %function
 1602              	sendStartSequence:
 1603              	.LFB174:
 339:lv_drivers/ili9341.c **** 
 340:lv_drivers/ili9341.c **** static void sendStartSequence(const uint8_t *buff, uint32_t len)
 341:lv_drivers/ili9341.c **** {
 1604              		.loc 1 341 0
 1605              		.cfi_startproc
 1606              		@ args = 0, pretend = 0, frame = 24
 1607              		@ frame_needed = 1, uses_anonymous_args = 0
 1608 0000 80B5     		push	{r7, lr}
 1609              		.cfi_def_cfa_offset 8
 1610              		.cfi_offset 7, -8
 1611              		.cfi_offset 14, -4
 1612 0002 86B0     		sub	sp, sp, #24
 1613              		.cfi_def_cfa_offset 32
 1614 0004 00AF     		add	r7, sp, #0
 1615              		.cfi_def_cfa_register 7
 1616 0006 7860     		str	r0, [r7, #4]
 1617 0008 3960     		str	r1, [r7]
 1618              	.LBB2:
 342:lv_drivers/ili9341.c ****     for(unsigned int i=0;i<len;i++)
 1619              		.loc 1 342 0
 1620 000a 0023     		movs	r3, #0
 1621 000c 7B61     		str	r3, [r7, #20]
 1622 000e 39E0     		b	.L19
 1623              	.L24:
 343:lv_drivers/ili9341.c ****     {
 344:lv_drivers/ili9341.c ****         if(buff[i] == 0xDD) // 
 1624              		.loc 1 344 0
 1625 0010 7A68     		ldr	r2, [r7, #4]
 1626 0012 7B69     		ldr	r3, [r7, #20]
 1627 0014 1344     		add	r3, r3, r2
 1628 0016 1B78     		ldrb	r3, [r3]	@ zero_extendqisi2
 1629 0018 DD2B     		cmp	r3, #221
 1630 001a 0BD1     		bne	.L20
 345:lv_drivers/ili9341.c ****         {
 346:lv_drivers/ili9341.c ****             //printf("Delay %d\r\n",buff[i+1]);
 347:lv_drivers/ili9341.c ****             CyDelay(buff[i+1]);
 1631              		.loc 1 347 0
 1632 001c 7B69     		ldr	r3, [r7, #20]
 1633 001e 0133     		adds	r3, r3, #1
 1634 0020 7A68     		ldr	r2, [r7, #4]
 1635 0022 1344     		add	r3, r3, r2
ARM GAS  C:\Users\Sava\AppData\Local\Temp\ccqTJW0n.s 			page 89


 1636 0024 1B78     		ldrb	r3, [r3]	@ zero_extendqisi2
 1637 0026 1846     		mov	r0, r3
 1638 0028 FFF7FEFF 		bl	CyDelay
 348:lv_drivers/ili9341.c ****             i=i+1;
 1639              		.loc 1 348 0
 1640 002c 7B69     		ldr	r3, [r7, #20]
 1641 002e 0133     		adds	r3, r3, #1
 1642 0030 7B61     		str	r3, [r7, #20]
 1643 0032 24E0     		b	.L21
 1644              	.L20:
 1645              	.LBB3:
 349:lv_drivers/ili9341.c ****         }
 350:lv_drivers/ili9341.c ****         else
 351:lv_drivers/ili9341.c ****         {
 352:lv_drivers/ili9341.c ****             ILI9341_send_cmd(buff[i]);
 1646              		.loc 1 352 0
 1647 0034 7A68     		ldr	r2, [r7, #4]
 1648 0036 7B69     		ldr	r3, [r7, #20]
 1649 0038 1344     		add	r3, r3, r2
 1650 003a 1B78     		ldrb	r3, [r3]	@ zero_extendqisi2
 1651 003c 9BB2     		uxth	r3, r3
 1652 003e 1846     		mov	r0, r3
 1653 0040 FFF7FEFF 		bl	ILI9341_send_cmd
 353:lv_drivers/ili9341.c ****             //printf("C = %02X ",buff[i]);
 354:lv_drivers/ili9341.c ****             i=i+1;
 1654              		.loc 1 354 0
 1655 0044 7B69     		ldr	r3, [r7, #20]
 1656 0046 0133     		adds	r3, r3, #1
 1657 0048 7B61     		str	r3, [r7, #20]
 355:lv_drivers/ili9341.c ****             unsigned int count;
 356:lv_drivers/ili9341.c ****             count = buff[i];
 1658              		.loc 1 356 0
 1659 004a 7A68     		ldr	r2, [r7, #4]
 1660 004c 7B69     		ldr	r3, [r7, #20]
 1661 004e 1344     		add	r3, r3, r2
 1662 0050 1B78     		ldrb	r3, [r3]	@ zero_extendqisi2
 1663 0052 FB60     		str	r3, [r7, #12]
 1664              	.LBB4:
 357:lv_drivers/ili9341.c ****             //printf("%02X ",count);
 358:lv_drivers/ili9341.c ****             for(unsigned int j=0;j<count;j++)
 1665              		.loc 1 358 0
 1666 0054 0023     		movs	r3, #0
 1667 0056 3B61     		str	r3, [r7, #16]
 1668 0058 0DE0     		b	.L22
 1669              	.L23:
 359:lv_drivers/ili9341.c ****             {
 360:lv_drivers/ili9341.c ****                 i=i+1;
 1670              		.loc 1 360 0 discriminator 3
 1671 005a 7B69     		ldr	r3, [r7, #20]
 1672 005c 0133     		adds	r3, r3, #1
 1673 005e 7B61     		str	r3, [r7, #20]
 361:lv_drivers/ili9341.c ****                 GraphicLCDIntf_Write16_A1(buff[i]);
 1674              		.loc 1 361 0 discriminator 3
 1675 0060 7A68     		ldr	r2, [r7, #4]
 1676 0062 7B69     		ldr	r3, [r7, #20]
 1677 0064 1344     		add	r3, r3, r2
 1678 0066 1B78     		ldrb	r3, [r3]	@ zero_extendqisi2
ARM GAS  C:\Users\Sava\AppData\Local\Temp\ccqTJW0n.s 			page 90


 1679 0068 9BB2     		uxth	r3, r3
 1680 006a 1846     		mov	r0, r3
 1681 006c FFF7FEFF 		bl	GraphicLCDIntf_Write16_A1
 358:lv_drivers/ili9341.c ****             {
 1682              		.loc 1 358 0 discriminator 3
 1683 0070 3B69     		ldr	r3, [r7, #16]
 1684 0072 0133     		adds	r3, r3, #1
 1685 0074 3B61     		str	r3, [r7, #16]
 1686              	.L22:
 358:lv_drivers/ili9341.c ****             {
 1687              		.loc 1 358 0 is_stmt 0 discriminator 1
 1688 0076 3A69     		ldr	r2, [r7, #16]
 1689 0078 FB68     		ldr	r3, [r7, #12]
 1690 007a 9A42     		cmp	r2, r3
 1691 007c EDD3     		bcc	.L23
 1692              	.L21:
 1693              	.LBE4:
 1694              	.LBE3:
 342:lv_drivers/ili9341.c ****     {
 1695              		.loc 1 342 0 is_stmt 1 discriminator 2
 1696 007e 7B69     		ldr	r3, [r7, #20]
 1697 0080 0133     		adds	r3, r3, #1
 1698 0082 7B61     		str	r3, [r7, #20]
 1699              	.L19:
 342:lv_drivers/ili9341.c ****     {
 1700              		.loc 1 342 0 is_stmt 0 discriminator 1
 1701 0084 7A69     		ldr	r2, [r7, #20]
 1702 0086 3B68     		ldr	r3, [r7]
 1703 0088 9A42     		cmp	r2, r3
 1704 008a C1D3     		bcc	.L24
 1705              	.LBE2:
 362:lv_drivers/ili9341.c ****             //    printf(" %02X",buff[i]);
 363:lv_drivers/ili9341.c ****             }
 364:lv_drivers/ili9341.c ****             //printf("\r\n");
 365:lv_drivers/ili9341.c ****         }
 366:lv_drivers/ili9341.c ****     }
 367:lv_drivers/ili9341.c **** }
 1706              		.loc 1 367 0 is_stmt 1
 1707 008c 00BF     		nop
 1708 008e 1837     		adds	r7, r7, #24
 1709              		.cfi_def_cfa_offset 8
 1710 0090 BD46     		mov	sp, r7
 1711              		.cfi_def_cfa_register 13
 1712              		@ sp needed
 1713 0092 80BD     		pop	{r7, pc}
 1714              		.cfi_endproc
 1715              	.LFE174:
 1716              		.size	sendStartSequence, .-sendStartSequence
 1717              		.section	.text.ILI9341_send_cmd,"ax",%progbits
 1718              		.align	2
 1719              		.thumb
 1720              		.thumb_func
 1721              		.type	ILI9341_send_cmd, %function
 1722              	ILI9341_send_cmd:
 1723              	.LFB175:
 368:lv_drivers/ili9341.c **** 
 369:lv_drivers/ili9341.c **** static void ILI9341_send_cmd(uint16 cmd)
ARM GAS  C:\Users\Sava\AppData\Local\Temp\ccqTJW0n.s 			page 91


 370:lv_drivers/ili9341.c **** {
 1724              		.loc 1 370 0
 1725              		.cfi_startproc
 1726              		@ args = 0, pretend = 0, frame = 8
 1727              		@ frame_needed = 1, uses_anonymous_args = 0
 1728 0000 80B5     		push	{r7, lr}
 1729              		.cfi_def_cfa_offset 8
 1730              		.cfi_offset 7, -8
 1731              		.cfi_offset 14, -4
 1732 0002 82B0     		sub	sp, sp, #8
 1733              		.cfi_def_cfa_offset 16
 1734 0004 00AF     		add	r7, sp, #0
 1735              		.cfi_def_cfa_register 7
 1736 0006 0346     		mov	r3, r0
 1737 0008 FB80     		strh	r3, [r7, #6]	@ movhi
 371:lv_drivers/ili9341.c **** //	gpio_set_level(ILI9341_DC, 0);	 /*Command mode*/
 372:lv_drivers/ili9341.c **** //	disp_spi_send_data(&cmd, 1);
 373:lv_drivers/ili9341.c ****     
 374:lv_drivers/ili9341.c ****     GraphicLCDIntf_Write16_A0(cmd);
 1738              		.loc 1 374 0
 1739 000a FB88     		ldrh	r3, [r7, #6]
 1740 000c 1846     		mov	r0, r3
 1741 000e FFF7FEFF 		bl	GraphicLCDIntf_Write16_A0
 375:lv_drivers/ili9341.c **** }
 1742              		.loc 1 375 0
 1743 0012 00BF     		nop
 1744 0014 0837     		adds	r7, r7, #8
 1745              		.cfi_def_cfa_offset 8
 1746 0016 BD46     		mov	sp, r7
 1747              		.cfi_def_cfa_register 13
 1748              		@ sp needed
 1749 0018 80BD     		pop	{r7, pc}
 1750              		.cfi_endproc
 1751              	.LFE175:
 1752              		.size	ILI9341_send_cmd, .-ILI9341_send_cmd
 1753 001a 00BF     		.section	.text.ILI9341_send_data,"ax",%progbits
 1754              		.align	2
 1755              		.thumb
 1756              		.thumb_func
 1757              		.type	ILI9341_send_data, %function
 1758              	ILI9341_send_data:
 1759              	.LFB176:
 376:lv_drivers/ili9341.c **** 
 377:lv_drivers/ili9341.c **** static void ILI9341_send_data(void * data, uint32 length)
 378:lv_drivers/ili9341.c **** {
 1760              		.loc 1 378 0
 1761              		.cfi_startproc
 1762              		@ args = 0, pretend = 0, frame = 8
 1763              		@ frame_needed = 1, uses_anonymous_args = 0
 1764 0000 80B5     		push	{r7, lr}
 1765              		.cfi_def_cfa_offset 8
 1766              		.cfi_offset 7, -8
 1767              		.cfi_offset 14, -4
 1768 0002 82B0     		sub	sp, sp, #8
 1769              		.cfi_def_cfa_offset 16
 1770 0004 00AF     		add	r7, sp, #0
 1771              		.cfi_def_cfa_register 7
ARM GAS  C:\Users\Sava\AppData\Local\Temp\ccqTJW0n.s 			page 92


 1772 0006 7860     		str	r0, [r7, #4]
 1773 0008 3960     		str	r1, [r7]
 379:lv_drivers/ili9341.c **** //	gpio_set_level(ILI9341_DC, 1);	 /*Data mode*/
 380:lv_drivers/ili9341.c **** //	disp_spi_send_data(data, length);
 381:lv_drivers/ili9341.c ****     
 382:lv_drivers/ili9341.c ****     GraphicLCDIntf_WriteM16_A1(data, length);
 1774              		.loc 1 382 0
 1775 000a 3B68     		ldr	r3, [r7]
 1776 000c 1946     		mov	r1, r3
 1777 000e 7868     		ldr	r0, [r7, #4]
 1778 0010 FFF7FEFF 		bl	GraphicLCDIntf_WriteM16_A1
 383:lv_drivers/ili9341.c **** }
 1779              		.loc 1 383 0
 1780 0014 00BF     		nop
 1781 0016 0837     		adds	r7, r7, #8
 1782              		.cfi_def_cfa_offset 8
 1783 0018 BD46     		mov	sp, r7
 1784              		.cfi_def_cfa_register 13
 1785              		@ sp needed
 1786 001a 80BD     		pop	{r7, pc}
 1787              		.cfi_endproc
 1788              	.LFE176:
 1789              		.size	ILI9341_send_data, .-ILI9341_send_data
 1790              		.section	.text.ili9341_send_color,"ax",%progbits
 1791              		.align	2
 1792              		.thumb
 1793              		.thumb_func
 1794              		.type	ili9341_send_color, %function
 1795              	ili9341_send_color:
 1796              	.LFB177:
 384:lv_drivers/ili9341.c **** 
 385:lv_drivers/ili9341.c **** static void ili9341_send_color(void * data, uint16 length)
 386:lv_drivers/ili9341.c **** {
 1797              		.loc 1 386 0
 1798              		.cfi_startproc
 1799              		@ args = 0, pretend = 0, frame = 8
 1800              		@ frame_needed = 1, uses_anonymous_args = 0
 1801 0000 80B5     		push	{r7, lr}
 1802              		.cfi_def_cfa_offset 8
 1803              		.cfi_offset 7, -8
 1804              		.cfi_offset 14, -4
 1805 0002 82B0     		sub	sp, sp, #8
 1806              		.cfi_def_cfa_offset 16
 1807 0004 00AF     		add	r7, sp, #0
 1808              		.cfi_def_cfa_register 7
 1809 0006 7860     		str	r0, [r7, #4]
 1810 0008 0B46     		mov	r3, r1
 1811 000a 7B80     		strh	r3, [r7, #2]	@ movhi
 387:lv_drivers/ili9341.c **** //    gpio_set_level(ILI9341_DC, 1);   /*Data mode*/
 388:lv_drivers/ili9341.c **** //    disp_spi_send_colors(data, length);
 389:lv_drivers/ili9341.c ****     
 390:lv_drivers/ili9341.c ****     GraphicLCDIntf_WriteM16_A1(data, length);
 1812              		.loc 1 390 0
 1813 000c 7B88     		ldrh	r3, [r7, #2]
 1814 000e 1946     		mov	r1, r3
 1815 0010 7868     		ldr	r0, [r7, #4]
 1816 0012 FFF7FEFF 		bl	GraphicLCDIntf_WriteM16_A1
ARM GAS  C:\Users\Sava\AppData\Local\Temp\ccqTJW0n.s 			page 93


 391:lv_drivers/ili9341.c **** }
 1817              		.loc 1 391 0
 1818 0016 00BF     		nop
 1819 0018 0837     		adds	r7, r7, #8
 1820              		.cfi_def_cfa_offset 8
 1821 001a BD46     		mov	sp, r7
 1822              		.cfi_def_cfa_register 13
 1823              		@ sp needed
 1824 001c 80BD     		pop	{r7, pc}
 1825              		.cfi_endproc
 1826              	.LFE177:
 1827              		.size	ili9341_send_color, .-ili9341_send_color
 1828 001e 00BF     		.text
 1829              	.Letext0:
 1830              		.file 2 "c:\\program files (x86)\\cypress\\psoc creator\\4.2\\psoc creator\\import\\gnu\\arm\\5.4.
 1831              		.file 3 "c:\\program files (x86)\\cypress\\psoc creator\\4.2\\psoc creator\\import\\gnu\\arm\\5.4.
 1832              		.file 4 "lv_drivers\\../lvgl/lv_hal/../lv_misc/lv_color.h"
 1833              		.file 5 "lv_drivers\\../lvgl/lv_objx/lv_btn.h"
 1834              		.file 6 "lv_drivers\\../lvgl/lv_objx/lv_calendar.h"
 1835              		.file 7 "Generated_Source\\PSoC5/cytypes.h"
 1836              		.file 8 "Generated_Source\\PSoC5/core_cm3.h"
 1837              		.section	.debug_info,"",%progbits
 1838              	.Ldebug_info0:
 1839 0000 D2050000 		.4byte	0x5d2
 1840 0004 0400     		.2byte	0x4
 1841 0006 00000000 		.4byte	.Ldebug_abbrev0
 1842 000a 04       		.byte	0x4
 1843 000b 01       		.uleb128 0x1
 1844 000c 9A010000 		.4byte	.LASF73
 1845 0010 0C       		.byte	0xc
 1846 0011 04010000 		.4byte	.LASF74
 1847 0015 E1020000 		.4byte	.LASF75
 1848 0019 00000000 		.4byte	.Ldebug_ranges0+0
 1849 001d 00000000 		.4byte	0
 1850 0021 00000000 		.4byte	.Ldebug_line0
 1851 0025 02       		.uleb128 0x2
 1852 0026 01       		.byte	0x1
 1853 0027 06       		.byte	0x6
 1854 0028 D5020000 		.4byte	.LASF0
 1855 002c 03       		.uleb128 0x3
 1856 002d 41020000 		.4byte	.LASF3
 1857 0031 02       		.byte	0x2
 1858 0032 1D       		.byte	0x1d
 1859 0033 37000000 		.4byte	0x37
 1860 0037 02       		.uleb128 0x2
 1861 0038 01       		.byte	0x1
 1862 0039 08       		.byte	0x8
 1863 003a 5E020000 		.4byte	.LASF1
 1864 003e 02       		.uleb128 0x2
 1865 003f 02       		.byte	0x2
 1866 0040 05       		.byte	0x5
 1867 0041 57000000 		.4byte	.LASF2
 1868 0045 03       		.uleb128 0x3
 1869 0046 8C000000 		.4byte	.LASF4
 1870 004a 02       		.byte	0x2
 1871 004b 2B       		.byte	0x2b
 1872 004c 50000000 		.4byte	0x50
ARM GAS  C:\Users\Sava\AppData\Local\Temp\ccqTJW0n.s 			page 94


 1873 0050 02       		.uleb128 0x2
 1874 0051 02       		.byte	0x2
 1875 0052 07       		.byte	0x7
 1876 0053 73030000 		.4byte	.LASF5
 1877 0057 03       		.uleb128 0x3
 1878 0058 CB020000 		.4byte	.LASF6
 1879 005c 02       		.byte	0x2
 1880 005d 3F       		.byte	0x3f
 1881 005e 62000000 		.4byte	0x62
 1882 0062 02       		.uleb128 0x2
 1883 0063 04       		.byte	0x4
 1884 0064 05       		.byte	0x5
 1885 0065 91010000 		.4byte	.LASF7
 1886 0069 03       		.uleb128 0x3
 1887 006a 7C000000 		.4byte	.LASF8
 1888 006e 02       		.byte	0x2
 1889 006f 41       		.byte	0x41
 1890 0070 74000000 		.4byte	0x74
 1891 0074 02       		.uleb128 0x2
 1892 0075 04       		.byte	0x4
 1893 0076 07       		.byte	0x7
 1894 0077 5F040000 		.4byte	.LASF9
 1895 007b 02       		.uleb128 0x2
 1896 007c 08       		.byte	0x8
 1897 007d 05       		.byte	0x5
 1898 007e 6C010000 		.4byte	.LASF10
 1899 0082 02       		.uleb128 0x2
 1900 0083 08       		.byte	0x8
 1901 0084 07       		.byte	0x7
 1902 0085 7A010000 		.4byte	.LASF11
 1903 0089 04       		.uleb128 0x4
 1904 008a 04       		.byte	0x4
 1905 008b 05       		.byte	0x5
 1906 008c 696E7400 		.ascii	"int\000"
 1907 0090 02       		.uleb128 0x2
 1908 0091 04       		.byte	0x4
 1909 0092 07       		.byte	0x7
 1910 0093 C2040000 		.4byte	.LASF12
 1911 0097 03       		.uleb128 0x3
 1912 0098 E5000000 		.4byte	.LASF13
 1913 009c 03       		.byte	0x3
 1914 009d 18       		.byte	0x18
 1915 009e 2C000000 		.4byte	0x2c
 1916 00a2 03       		.uleb128 0x3
 1917 00a3 63030000 		.4byte	.LASF14
 1918 00a7 03       		.byte	0x3
 1919 00a8 24       		.byte	0x24
 1920 00a9 45000000 		.4byte	0x45
 1921 00ad 03       		.uleb128 0x3
 1922 00ae D2030000 		.4byte	.LASF15
 1923 00b2 03       		.byte	0x3
 1924 00b3 2C       		.byte	0x2c
 1925 00b4 57000000 		.4byte	0x57
 1926 00b8 03       		.uleb128 0x3
 1927 00b9 2A010000 		.4byte	.LASF16
 1928 00bd 03       		.byte	0x3
 1929 00be 30       		.byte	0x30
ARM GAS  C:\Users\Sava\AppData\Local\Temp\ccqTJW0n.s 			page 95


 1930 00bf 69000000 		.4byte	0x69
 1931 00c3 02       		.uleb128 0x2
 1932 00c4 08       		.byte	0x8
 1933 00c5 04       		.byte	0x4
 1934 00c6 70000000 		.4byte	.LASF17
 1935 00ca 05       		.uleb128 0x5
 1936 00cb 04       		.byte	0x4
 1937 00cc 06       		.uleb128 0x6
 1938 00cd 02       		.byte	0x2
 1939 00ce 04       		.byte	0x4
 1940 00cf 74       		.byte	0x74
 1941 00d0 02010000 		.4byte	0x102
 1942 00d4 07       		.uleb128 0x7
 1943 00d5 CE000000 		.4byte	.LASF18
 1944 00d9 04       		.byte	0x4
 1945 00da 77       		.byte	0x77
 1946 00db A2000000 		.4byte	0xa2
 1947 00df 02       		.byte	0x2
 1948 00e0 05       		.byte	0x5
 1949 00e1 0B       		.byte	0xb
 1950 00e2 00       		.byte	0
 1951 00e3 07       		.uleb128 0x7
 1952 00e4 4B020000 		.4byte	.LASF19
 1953 00e8 04       		.byte	0x4
 1954 00e9 78       		.byte	0x78
 1955 00ea A2000000 		.4byte	0xa2
 1956 00ee 02       		.byte	0x2
 1957 00ef 06       		.byte	0x6
 1958 00f0 05       		.byte	0x5
 1959 00f1 00       		.byte	0
 1960 00f2 08       		.uleb128 0x8
 1961 00f3 72656400 		.ascii	"red\000"
 1962 00f7 04       		.byte	0x4
 1963 00f8 79       		.byte	0x79
 1964 00f9 A2000000 		.4byte	0xa2
 1965 00fd 02       		.byte	0x2
 1966 00fe 05       		.byte	0x5
 1967 00ff 00       		.byte	0
 1968 0100 00       		.byte	0
 1969 0101 00       		.byte	0
 1970 0102 09       		.uleb128 0x9
 1971 0103 02       		.byte	0x2
 1972 0104 04       		.byte	0x4
 1973 0105 72       		.byte	0x72
 1974 0106 1B010000 		.4byte	0x11b
 1975 010a 0A       		.uleb128 0xa
 1976 010b CC000000 		.4byte	0xcc
 1977 010f 0B       		.uleb128 0xb
 1978 0110 96040000 		.4byte	.LASF76
 1979 0114 04       		.byte	0x4
 1980 0115 81       		.byte	0x81
 1981 0116 A2000000 		.4byte	0xa2
 1982 011a 00       		.byte	0
 1983 011b 03       		.uleb128 0x3
 1984 011c 25000000 		.4byte	.LASF20
 1985 0120 04       		.byte	0x4
 1986 0121 82       		.byte	0x82
ARM GAS  C:\Users\Sava\AppData\Local\Temp\ccqTJW0n.s 			page 96


 1987 0122 02010000 		.4byte	0x102
 1988 0126 03       		.uleb128 0x3
 1989 0127 D3000000 		.4byte	.LASF21
 1990 012b 04       		.byte	0x4
 1991 012c 98       		.byte	0x98
 1992 012d 1B010000 		.4byte	0x11b
 1993 0131 02       		.uleb128 0x2
 1994 0132 04       		.byte	0x4
 1995 0133 07       		.byte	0x7
 1996 0134 61000000 		.4byte	.LASF22
 1997 0138 02       		.uleb128 0x2
 1998 0139 01       		.byte	0x1
 1999 013a 08       		.byte	0x8
 2000 013b A6030000 		.4byte	.LASF23
 2001 013f 0C       		.uleb128 0xc
 2002 0140 04       		.byte	0x4
 2003 0141 45010000 		.4byte	0x145
 2004 0145 0D       		.uleb128 0xd
 2005 0146 26010000 		.4byte	0x126
 2006 014a 0C       		.uleb128 0xc
 2007 014b 04       		.byte	0x4
 2008 014c 50010000 		.4byte	0x150
 2009 0150 0D       		.uleb128 0xd
 2010 0151 97000000 		.4byte	0x97
 2011 0155 02       		.uleb128 0x2
 2012 0156 01       		.byte	0x1
 2013 0157 02       		.byte	0x2
 2014 0158 1E040000 		.4byte	.LASF24
 2015 015c 0E       		.uleb128 0xe
 2016 015d 01       		.byte	0x1
 2017 015e 37000000 		.4byte	0x37
 2018 0162 05       		.byte	0x5
 2019 0163 2B       		.byte	0x2b
 2020 0164 8D010000 		.4byte	0x18d
 2021 0168 0F       		.uleb128 0xf
 2022 0169 ED000000 		.4byte	.LASF25
 2023 016d 00       		.byte	0
 2024 016e 0F       		.uleb128 0xf
 2025 016f 97000000 		.4byte	.LASF26
 2026 0173 01       		.byte	0x1
 2027 0174 0F       		.uleb128 0xf
 2028 0175 42000000 		.4byte	.LASF27
 2029 0179 02       		.byte	0x2
 2030 017a 0F       		.uleb128 0xf
 2031 017b 24040000 		.4byte	.LASF28
 2032 017f 03       		.byte	0x3
 2033 0180 0F       		.uleb128 0xf
 2034 0181 AB030000 		.4byte	.LASF29
 2035 0185 04       		.byte	0x4
 2036 0186 0F       		.uleb128 0xf
 2037 0187 DE040000 		.4byte	.LASF30
 2038 018b 05       		.byte	0x5
 2039 018c 00       		.byte	0
 2040 018d 0E       		.uleb128 0xe
 2041 018e 01       		.byte	0x1
 2042 018f 37000000 		.4byte	0x37
 2043 0193 05       		.byte	0x5
ARM GAS  C:\Users\Sava\AppData\Local\Temp\ccqTJW0n.s 			page 97


 2044 0194 36       		.byte	0x36
 2045 0195 B8010000 		.4byte	0x1b8
 2046 0199 0F       		.uleb128 0xf
 2047 019a 33010000 		.4byte	.LASF31
 2048 019e 00       		.byte	0
 2049 019f 0F       		.uleb128 0xf
 2050 01a0 BD000000 		.4byte	.LASF32
 2051 01a4 01       		.byte	0x1
 2052 01a5 0F       		.uleb128 0xf
 2053 01a6 BC030000 		.4byte	.LASF33
 2054 01aa 02       		.byte	0x2
 2055 01ab 0F       		.uleb128 0xf
 2056 01ac E1030000 		.4byte	.LASF34
 2057 01b0 03       		.byte	0x3
 2058 01b1 0F       		.uleb128 0xf
 2059 01b2 94030000 		.4byte	.LASF35
 2060 01b6 04       		.byte	0x4
 2061 01b7 00       		.byte	0
 2062 01b8 0E       		.uleb128 0xe
 2063 01b9 01       		.byte	0x1
 2064 01ba 37000000 		.4byte	0x37
 2065 01be 06       		.byte	0x6
 2066 01bf 29       		.byte	0x29
 2067 01c0 E3010000 		.4byte	0x1e3
 2068 01c4 0F       		.uleb128 0xf
 2069 01c5 9B040000 		.4byte	.LASF36
 2070 01c9 00       		.byte	0
 2071 01ca 0F       		.uleb128 0xf
 2072 01cb A7000000 		.4byte	.LASF37
 2073 01cf 01       		.byte	0x1
 2074 01d0 0F       		.uleb128 0xf
 2075 01d1 3D040000 		.4byte	.LASF38
 2076 01d5 02       		.byte	0x2
 2077 01d6 0F       		.uleb128 0xf
 2078 01d7 8A020000 		.4byte	.LASF39
 2079 01db 03       		.byte	0x3
 2080 01dc 0F       		.uleb128 0xf
 2081 01dd 6C020000 		.4byte	.LASF40
 2082 01e1 04       		.byte	0x4
 2083 01e2 00       		.byte	0
 2084 01e3 10       		.uleb128 0x10
 2085 01e4 FE000000 		.4byte	.LASF41
 2086 01e8 07       		.byte	0x7
 2087 01e9 E401     		.2byte	0x1e4
 2088 01eb 37000000 		.4byte	0x37
 2089 01ef 10       		.uleb128 0x10
 2090 01f0 DE000000 		.4byte	.LASF42
 2091 01f4 07       		.byte	0x7
 2092 01f5 E501     		.2byte	0x1e5
 2093 01f7 50000000 		.4byte	0x50
 2094 01fb 10       		.uleb128 0x10
 2095 01fc 58040000 		.4byte	.LASF43
 2096 0200 07       		.byte	0x7
 2097 0201 E601     		.2byte	0x1e6
 2098 0203 74000000 		.4byte	0x74
 2099 0207 10       		.uleb128 0x10
 2100 0208 47010000 		.4byte	.LASF44
ARM GAS  C:\Users\Sava\AppData\Local\Temp\ccqTJW0n.s 			page 98


 2101 020c 07       		.byte	0x7
 2102 020d E801     		.2byte	0x1e8
 2103 020f 3E000000 		.4byte	0x3e
 2104 0213 10       		.uleb128 0x10
 2105 0214 71040000 		.4byte	.LASF45
 2106 0218 07       		.byte	0x7
 2107 0219 E901     		.2byte	0x1e9
 2108 021b 62000000 		.4byte	0x62
 2109 021f 02       		.uleb128 0x2
 2110 0220 04       		.byte	0x4
 2111 0221 04       		.byte	0x4
 2112 0222 54010000 		.4byte	.LASF46
 2113 0226 02       		.uleb128 0x2
 2114 0227 08       		.byte	0x8
 2115 0228 04       		.byte	0x4
 2116 0229 77040000 		.4byte	.LASF47
 2117 022d 06       		.uleb128 0x6
 2118 022e 12       		.byte	0x12
 2119 022f 01       		.byte	0x1
 2120 0230 16       		.byte	0x16
 2121 0231 5A020000 		.4byte	0x25a
 2122 0235 11       		.uleb128 0x11
 2123 0236 636D6400 		.ascii	"cmd\000"
 2124 023a 01       		.byte	0x1
 2125 023b 17       		.byte	0x17
 2126 023c 97000000 		.4byte	0x97
 2127 0240 00       		.byte	0
 2128 0241 12       		.uleb128 0x12
 2129 0242 38040000 		.4byte	.LASF48
 2130 0246 01       		.byte	0x1
 2131 0247 18       		.byte	0x18
 2132 0248 5A020000 		.4byte	0x25a
 2133 024c 01       		.byte	0x1
 2134 024d 12       		.uleb128 0x12
 2135 024e 38030000 		.4byte	.LASF49
 2136 0252 01       		.byte	0x1
 2137 0253 19       		.byte	0x19
 2138 0254 97000000 		.4byte	0x97
 2139 0258 11       		.byte	0x11
 2140 0259 00       		.byte	0
 2141 025a 13       		.uleb128 0x13
 2142 025b 97000000 		.4byte	0x97
 2143 025f 6A020000 		.4byte	0x26a
 2144 0263 14       		.uleb128 0x14
 2145 0264 31010000 		.4byte	0x131
 2146 0268 0F       		.byte	0xf
 2147 0269 00       		.byte	0
 2148 026a 03       		.uleb128 0x3
 2149 026b CF040000 		.4byte	.LASF50
 2150 026f 01       		.byte	0x1
 2151 0270 1A       		.byte	0x1a
 2152 0271 2D020000 		.4byte	0x22d
 2153 0275 15       		.uleb128 0x15
 2154 0276 06000000 		.4byte	.LASF52
 2155 027a 01       		.byte	0x1
 2156 027b 81       		.byte	0x81
 2157 027c 00000000 		.4byte	.LFB170
ARM GAS  C:\Users\Sava\AppData\Local\Temp\ccqTJW0n.s 			page 99


 2158 0280 B4010000 		.4byte	.LFE170-.LFB170
 2159 0284 01       		.uleb128 0x1
 2160 0285 9C       		.byte	0x9c
 2161 0286 A8020000 		.4byte	0x2a8
 2162 028a 16       		.uleb128 0x16
 2163 028b 86030000 		.4byte	.LASF51
 2164 028f 01       		.byte	0x1
 2165 0290 83       		.byte	0x83
 2166 0291 A8020000 		.4byte	0x2a8
 2167 0295 03       		.uleb128 0x3
 2168 0296 91       		.byte	0x91
 2169 0297 E87D     		.sleb128 -280
 2170 0299 17       		.uleb128 0x17
 2171 029a 636D6400 		.ascii	"cmd\000"
 2172 029e 01       		.byte	0x1
 2173 029f C4       		.byte	0xc4
 2174 02a0 A2000000 		.4byte	0xa2
 2175 02a4 02       		.uleb128 0x2
 2176 02a5 91       		.byte	0x91
 2177 02a6 76       		.sleb128 -10
 2178 02a7 00       		.byte	0
 2179 02a8 13       		.uleb128 0x13
 2180 02a9 6A020000 		.4byte	0x26a
 2181 02ad B8020000 		.4byte	0x2b8
 2182 02b1 14       		.uleb128 0x14
 2183 02b2 31010000 		.4byte	0x131
 2184 02b6 0E       		.byte	0xe
 2185 02b7 00       		.byte	0
 2186 02b8 15       		.uleb128 0x15
 2187 02b9 51020000 		.4byte	.LASF53
 2188 02bd 01       		.byte	0x1
 2189 02be D3       		.byte	0xd3
 2190 02bf 00000000 		.4byte	.LFB171
 2191 02c3 76010000 		.4byte	.LFE171-.LFB171
 2192 02c7 01       		.uleb128 0x1
 2193 02c8 9C       		.byte	0x9c
 2194 02c9 4B030000 		.4byte	0x34b
 2195 02cd 18       		.uleb128 0x18
 2196 02ce 783100   		.ascii	"x1\000"
 2197 02d1 01       		.byte	0x1
 2198 02d2 D3       		.byte	0xd3
 2199 02d3 AD000000 		.4byte	0xad
 2200 02d7 03       		.uleb128 0x3
 2201 02d8 91       		.byte	0x91
 2202 02d9 DC7A     		.sleb128 -676
 2203 02db 18       		.uleb128 0x18
 2204 02dc 793100   		.ascii	"y1\000"
 2205 02df 01       		.byte	0x1
 2206 02e0 D3       		.byte	0xd3
 2207 02e1 AD000000 		.4byte	0xad
 2208 02e5 03       		.uleb128 0x3
 2209 02e6 91       		.byte	0x91
 2210 02e7 D87A     		.sleb128 -680
 2211 02e9 18       		.uleb128 0x18
 2212 02ea 783200   		.ascii	"x2\000"
 2213 02ed 01       		.byte	0x1
 2214 02ee D3       		.byte	0xd3
ARM GAS  C:\Users\Sava\AppData\Local\Temp\ccqTJW0n.s 			page 100


 2215 02ef AD000000 		.4byte	0xad
 2216 02f3 03       		.uleb128 0x3
 2217 02f4 91       		.byte	0x91
 2218 02f5 D47A     		.sleb128 -684
 2219 02f7 18       		.uleb128 0x18
 2220 02f8 793200   		.ascii	"y2\000"
 2221 02fb 01       		.byte	0x1
 2222 02fc D3       		.byte	0xd3
 2223 02fd AD000000 		.4byte	0xad
 2224 0301 03       		.uleb128 0x3
 2225 0302 91       		.byte	0x91
 2226 0303 D07A     		.sleb128 -688
 2227 0305 19       		.uleb128 0x19
 2228 0306 00000000 		.4byte	.LASF54
 2229 030a 01       		.byte	0x1
 2230 030b D3       		.byte	0xd3
 2231 030c 26010000 		.4byte	0x126
 2232 0310 02       		.uleb128 0x2
 2233 0311 91       		.byte	0x91
 2234 0312 00       		.sleb128 0
 2235 0313 16       		.uleb128 0x16
 2236 0314 38040000 		.4byte	.LASF48
 2237 0318 01       		.byte	0x1
 2238 0319 D9       		.byte	0xd9
 2239 031a 4B030000 		.4byte	0x34b
 2240 031e 02       		.uleb128 0x2
 2241 031f 91       		.byte	0x91
 2242 0320 64       		.sleb128 -28
 2243 0321 16       		.uleb128 0x16
 2244 0322 8B040000 		.4byte	.LASF55
 2245 0326 01       		.byte	0x1
 2246 0327 F0       		.byte	0xf0
 2247 0328 B8000000 		.4byte	0xb8
 2248 032c 02       		.uleb128 0x2
 2249 032d 91       		.byte	0x91
 2250 032e 6C       		.sleb128 -20
 2251 032f 17       		.uleb128 0x17
 2252 0330 62756600 		.ascii	"buf\000"
 2253 0334 01       		.byte	0x1
 2254 0335 F1       		.byte	0xf1
 2255 0336 5B030000 		.4byte	0x35b
 2256 033a 03       		.uleb128 0x3
 2257 033b 91       		.byte	0x91
 2258 033c E47A     		.sleb128 -668
 2259 033e 17       		.uleb128 0x17
 2260 033f 6900     		.ascii	"i\000"
 2261 0341 01       		.byte	0x1
 2262 0342 F3       		.byte	0xf3
 2263 0343 B8000000 		.4byte	0xb8
 2264 0347 02       		.uleb128 0x2
 2265 0348 91       		.byte	0x91
 2266 0349 68       		.sleb128 -24
 2267 034a 00       		.byte	0
 2268 034b 13       		.uleb128 0x13
 2269 034c 97000000 		.4byte	0x97
 2270 0350 5B030000 		.4byte	0x35b
 2271 0354 14       		.uleb128 0x14
ARM GAS  C:\Users\Sava\AppData\Local\Temp\ccqTJW0n.s 			page 101


 2272 0355 31010000 		.4byte	0x131
 2273 0359 03       		.byte	0x3
 2274 035a 00       		.byte	0
 2275 035b 13       		.uleb128 0x13
 2276 035c A2000000 		.4byte	0xa2
 2277 0360 6C030000 		.4byte	0x36c
 2278 0364 1A       		.uleb128 0x1a
 2279 0365 31010000 		.4byte	0x131
 2280 0369 3F01     		.2byte	0x13f
 2281 036b 00       		.byte	0
 2282 036c 1B       		.uleb128 0x1b
 2283 036d 55030000 		.4byte	.LASF56
 2284 0371 01       		.byte	0x1
 2285 0372 0401     		.2byte	0x104
 2286 0374 00000000 		.4byte	.LFB172
 2287 0378 F4000000 		.4byte	.LFE172-.LFB172
 2288 037c 01       		.uleb128 0x1
 2289 037d 9C       		.byte	0x9c
 2290 037e 4A040000 		.4byte	0x44a
 2291 0382 1C       		.uleb128 0x1c
 2292 0383 783100   		.ascii	"x1\000"
 2293 0386 01       		.byte	0x1
 2294 0387 0401     		.2byte	0x104
 2295 0389 AD000000 		.4byte	0xad
 2296 038d 02       		.uleb128 0x2
 2297 038e 91       		.byte	0x91
 2298 038f 54       		.sleb128 -44
 2299 0390 1C       		.uleb128 0x1c
 2300 0391 793100   		.ascii	"y1\000"
 2301 0394 01       		.byte	0x1
 2302 0395 0401     		.2byte	0x104
 2303 0397 AD000000 		.4byte	0xad
 2304 039b 02       		.uleb128 0x2
 2305 039c 91       		.byte	0x91
 2306 039d 50       		.sleb128 -48
 2307 039e 1C       		.uleb128 0x1c
 2308 039f 783200   		.ascii	"x2\000"
 2309 03a2 01       		.byte	0x1
 2310 03a3 0401     		.2byte	0x104
 2311 03a5 AD000000 		.4byte	0xad
 2312 03a9 02       		.uleb128 0x2
 2313 03aa 91       		.byte	0x91
 2314 03ab 4C       		.sleb128 -52
 2315 03ac 1C       		.uleb128 0x1c
 2316 03ad 793200   		.ascii	"y2\000"
 2317 03b0 01       		.byte	0x1
 2318 03b1 0401     		.2byte	0x104
 2319 03b3 AD000000 		.4byte	0xad
 2320 03b7 02       		.uleb128 0x2
 2321 03b8 91       		.byte	0x91
 2322 03b9 48       		.sleb128 -56
 2323 03ba 1D       		.uleb128 0x1d
 2324 03bb FE030000 		.4byte	.LASF57
 2325 03bf 01       		.byte	0x1
 2326 03c0 0401     		.2byte	0x104
 2327 03c2 3F010000 		.4byte	0x13f
 2328 03c6 02       		.uleb128 0x2
ARM GAS  C:\Users\Sava\AppData\Local\Temp\ccqTJW0n.s 			page 102


 2329 03c7 91       		.byte	0x91
 2330 03c8 00       		.sleb128 0
 2331 03c9 1E       		.uleb128 0x1e
 2332 03ca DA030000 		.4byte	.LASF58
 2333 03ce 01       		.byte	0x1
 2334 03cf 0E01     		.2byte	0x10e
 2335 03d1 13020000 		.4byte	0x213
 2336 03d5 02       		.uleb128 0x2
 2337 03d6 91       		.byte	0x91
 2338 03d7 70       		.sleb128 -16
 2339 03d8 1E       		.uleb128 0x1e
 2340 03d9 B4040000 		.4byte	.LASF59
 2341 03dd 01       		.byte	0x1
 2342 03de 0F01     		.2byte	0x10f
 2343 03e0 13020000 		.4byte	0x213
 2344 03e4 02       		.uleb128 0x2
 2345 03e5 91       		.byte	0x91
 2346 03e6 6C       		.sleb128 -20
 2347 03e7 1E       		.uleb128 0x1e
 2348 03e8 6C030000 		.4byte	.LASF60
 2349 03ec 01       		.byte	0x1
 2350 03ed 1001     		.2byte	0x110
 2351 03ef 13020000 		.4byte	0x213
 2352 03f3 02       		.uleb128 0x2
 2353 03f4 91       		.byte	0x91
 2354 03f5 68       		.sleb128 -24
 2355 03f6 1E       		.uleb128 0x1e
 2356 03f7 BB040000 		.4byte	.LASF61
 2357 03fb 01       		.byte	0x1
 2358 03fc 1101     		.2byte	0x111
 2359 03fe 13020000 		.4byte	0x213
 2360 0402 02       		.uleb128 0x2
 2361 0403 91       		.byte	0x91
 2362 0404 64       		.sleb128 -28
 2363 0405 1E       		.uleb128 0x1e
 2364 0406 38040000 		.4byte	.LASF48
 2365 040a 01       		.byte	0x1
 2366 040b 1C01     		.2byte	0x11c
 2367 040d 4A040000 		.4byte	0x44a
 2368 0411 02       		.uleb128 0x2
 2369 0412 91       		.byte	0x91
 2370 0413 5C       		.sleb128 -36
 2371 0414 1E       		.uleb128 0x1e
 2372 0415 83020000 		.4byte	.LASF62
 2373 0419 01       		.byte	0x1
 2374 041a 3201     		.2byte	0x132
 2375 041c EF010000 		.4byte	0x1ef
 2376 0420 02       		.uleb128 0x2
 2377 0421 91       		.byte	0x91
 2378 0422 62       		.sleb128 -30
 2379 0423 1F       		.uleb128 0x1f
 2380 0424 6900     		.ascii	"i\000"
 2381 0426 01       		.byte	0x1
 2382 0427 3301     		.2byte	0x133
 2383 0429 07020000 		.4byte	0x207
 2384 042d 02       		.uleb128 0x2
 2385 042e 91       		.byte	0x91
ARM GAS  C:\Users\Sava\AppData\Local\Temp\ccqTJW0n.s 			page 103


 2386 042f 76       		.sleb128 -10
 2387 0430 20       		.uleb128 0x20
 2388 0431 6A00     		.ascii	"j\000"
 2389 0433 01       		.byte	0x1
 2390 0434 3301     		.2byte	0x133
 2391 0436 07020000 		.4byte	0x207
 2392 043a 1E       		.uleb128 0x1e
 2393 043b 6A000000 		.4byte	.LASF63
 2394 043f 01       		.byte	0x1
 2395 0440 3401     		.2byte	0x134
 2396 0442 EF010000 		.4byte	0x1ef
 2397 0446 02       		.uleb128 0x2
 2398 0447 91       		.byte	0x91
 2399 0448 60       		.sleb128 -32
 2400 0449 00       		.byte	0
 2401 044a 13       		.uleb128 0x13
 2402 044b E3010000 		.4byte	0x1e3
 2403 044f 5A040000 		.4byte	0x45a
 2404 0453 14       		.uleb128 0x14
 2405 0454 31010000 		.4byte	0x131
 2406 0458 03       		.byte	0x3
 2407 0459 00       		.byte	0
 2408 045a 21       		.uleb128 0x21
 2409 045b 32000000 		.4byte	.LASF77
 2410 045f 01       		.byte	0x1
 2411 0460 4901     		.2byte	0x149
 2412 0462 00000000 		.4byte	.LFB173
 2413 0466 2C000000 		.4byte	.LFE173-.LFB173
 2414 046a 01       		.uleb128 0x1
 2415 046b 9C       		.byte	0x9c
 2416 046c 22       		.uleb128 0x22
 2417 046d 5A010000 		.4byte	.LASF66
 2418 0471 01       		.byte	0x1
 2419 0472 5401     		.2byte	0x154
 2420 0474 00000000 		.4byte	.LFB174
 2421 0478 94000000 		.4byte	.LFE174-.LFB174
 2422 047c 01       		.uleb128 0x1
 2423 047d 9C       		.byte	0x9c
 2424 047e E8040000 		.4byte	0x4e8
 2425 0482 1D       		.uleb128 0x1d
 2426 0483 87000000 		.4byte	.LASF64
 2427 0487 01       		.byte	0x1
 2428 0488 5401     		.2byte	0x154
 2429 048a 4A010000 		.4byte	0x14a
 2430 048e 02       		.uleb128 0x2
 2431 048f 91       		.byte	0x91
 2432 0490 64       		.sleb128 -28
 2433 0491 1C       		.uleb128 0x1c
 2434 0492 6C656E00 		.ascii	"len\000"
 2435 0496 01       		.byte	0x1
 2436 0497 5401     		.2byte	0x154
 2437 0499 B8000000 		.4byte	0xb8
 2438 049d 02       		.uleb128 0x2
 2439 049e 91       		.byte	0x91
 2440 049f 60       		.sleb128 -32
 2441 04a0 23       		.uleb128 0x23
 2442 04a1 0A000000 		.4byte	.LBB2
ARM GAS  C:\Users\Sava\AppData\Local\Temp\ccqTJW0n.s 			page 104


 2443 04a5 82000000 		.4byte	.LBE2-.LBB2
 2444 04a9 1F       		.uleb128 0x1f
 2445 04aa 6900     		.ascii	"i\000"
 2446 04ac 01       		.byte	0x1
 2447 04ad 5601     		.2byte	0x156
 2448 04af 90000000 		.4byte	0x90
 2449 04b3 02       		.uleb128 0x2
 2450 04b4 91       		.byte	0x91
 2451 04b5 74       		.sleb128 -12
 2452 04b6 23       		.uleb128 0x23
 2453 04b7 34000000 		.4byte	.LBB3
 2454 04bb 4A000000 		.4byte	.LBE3-.LBB3
 2455 04bf 1E       		.uleb128 0x1e
 2456 04c0 90040000 		.4byte	.LASF65
 2457 04c4 01       		.byte	0x1
 2458 04c5 6301     		.2byte	0x163
 2459 04c7 90000000 		.4byte	0x90
 2460 04cb 02       		.uleb128 0x2
 2461 04cc 91       		.byte	0x91
 2462 04cd 6C       		.sleb128 -20
 2463 04ce 23       		.uleb128 0x23
 2464 04cf 54000000 		.4byte	.LBB4
 2465 04d3 2A000000 		.4byte	.LBE4-.LBB4
 2466 04d7 1F       		.uleb128 0x1f
 2467 04d8 6A00     		.ascii	"j\000"
 2468 04da 01       		.byte	0x1
 2469 04db 6601     		.2byte	0x166
 2470 04dd 90000000 		.4byte	0x90
 2471 04e1 02       		.uleb128 0x2
 2472 04e2 91       		.byte	0x91
 2473 04e3 70       		.sleb128 -16
 2474 04e4 00       		.byte	0
 2475 04e5 00       		.byte	0
 2476 04e6 00       		.byte	0
 2477 04e7 00       		.byte	0
 2478 04e8 22       		.uleb128 0x22
 2479 04e9 19010000 		.4byte	.LASF67
 2480 04ed 01       		.byte	0x1
 2481 04ee 7101     		.2byte	0x171
 2482 04f0 00000000 		.4byte	.LFB175
 2483 04f4 1A000000 		.4byte	.LFE175-.LFB175
 2484 04f8 01       		.uleb128 0x1
 2485 04f9 9C       		.byte	0x9c
 2486 04fa 0E050000 		.4byte	0x50e
 2487 04fe 1C       		.uleb128 0x1c
 2488 04ff 636D6400 		.ascii	"cmd\000"
 2489 0503 01       		.byte	0x1
 2490 0504 7101     		.2byte	0x171
 2491 0506 EF010000 		.4byte	0x1ef
 2492 050a 02       		.uleb128 0x2
 2493 050b 91       		.byte	0x91
 2494 050c 76       		.sleb128 -10
 2495 050d 00       		.byte	0
 2496 050e 22       		.uleb128 0x22
 2497 050f 13000000 		.4byte	.LASF68
 2498 0513 01       		.byte	0x1
 2499 0514 7901     		.2byte	0x179
ARM GAS  C:\Users\Sava\AppData\Local\Temp\ccqTJW0n.s 			page 105


 2500 0516 00000000 		.4byte	.LFB176
 2501 051a 1C000000 		.4byte	.LFE176-.LFB176
 2502 051e 01       		.uleb128 0x1
 2503 051f 9C       		.byte	0x9c
 2504 0520 43050000 		.4byte	0x543
 2505 0524 1D       		.uleb128 0x1d
 2506 0525 38040000 		.4byte	.LASF48
 2507 0529 01       		.byte	0x1
 2508 052a 7901     		.2byte	0x179
 2509 052c CA000000 		.4byte	0xca
 2510 0530 02       		.uleb128 0x2
 2511 0531 91       		.byte	0x91
 2512 0532 74       		.sleb128 -12
 2513 0533 1D       		.uleb128 0x1d
 2514 0534 4D010000 		.4byte	.LASF69
 2515 0538 01       		.byte	0x1
 2516 0539 7901     		.2byte	0x179
 2517 053b FB010000 		.4byte	0x1fb
 2518 053f 02       		.uleb128 0x2
 2519 0540 91       		.byte	0x91
 2520 0541 70       		.sleb128 -16
 2521 0542 00       		.byte	0
 2522 0543 22       		.uleb128 0x22
 2523 0544 42030000 		.4byte	.LASF70
 2524 0548 01       		.byte	0x1
 2525 0549 8101     		.2byte	0x181
 2526 054b 00000000 		.4byte	.LFB177
 2527 054f 1E000000 		.4byte	.LFE177-.LFB177
 2528 0553 01       		.uleb128 0x1
 2529 0554 9C       		.byte	0x9c
 2530 0555 78050000 		.4byte	0x578
 2531 0559 1D       		.uleb128 0x1d
 2532 055a 38040000 		.4byte	.LASF48
 2533 055e 01       		.byte	0x1
 2534 055f 8101     		.2byte	0x181
 2535 0561 CA000000 		.4byte	0xca
 2536 0565 02       		.uleb128 0x2
 2537 0566 91       		.byte	0x91
 2538 0567 74       		.sleb128 -12
 2539 0568 1D       		.uleb128 0x1d
 2540 0569 4D010000 		.4byte	.LASF69
 2541 056d 01       		.byte	0x1
 2542 056e 8101     		.2byte	0x181
 2543 0570 EF010000 		.4byte	0x1ef
 2544 0574 02       		.uleb128 0x2
 2545 0575 91       		.byte	0x91
 2546 0576 72       		.sleb128 -14
 2547 0577 00       		.byte	0
 2548 0578 13       		.uleb128 0x13
 2549 0579 50010000 		.4byte	0x150
 2550 057d 88050000 		.4byte	0x588
 2551 0581 14       		.uleb128 0x14
 2552 0582 31010000 		.4byte	0x131
 2553 0586 1F       		.byte	0x1f
 2554 0587 00       		.byte	0
 2555 0588 16       		.uleb128 0x16
 2556 0589 AC020000 		.4byte	.LASF71
ARM GAS  C:\Users\Sava\AppData\Local\Temp\ccqTJW0n.s 			page 106


 2557 058d 01       		.byte	0x1
 2558 058e 29       		.byte	0x29
 2559 058f 99050000 		.4byte	0x599
 2560 0593 05       		.uleb128 0x5
 2561 0594 03       		.byte	0x3
 2562 0595 00000000 		.4byte	mcu35_init_sequence_web_edited
 2563 0599 0D       		.uleb128 0xd
 2564 059a 78050000 		.4byte	0x578
 2565 059e 13       		.uleb128 0x13
 2566 059f 50010000 		.4byte	0x150
 2567 05a3 AE050000 		.4byte	0x5ae
 2568 05a7 14       		.uleb128 0x14
 2569 05a8 31010000 		.4byte	0x131
 2570 05ac 34       		.byte	0x34
 2571 05ad 00       		.byte	0
 2572 05ae 16       		.uleb128 0x16
 2573 05af 08040000 		.4byte	.LASF72
 2574 05b3 01       		.byte	0x1
 2575 05b4 4E       		.byte	0x4e
 2576 05b5 BF050000 		.4byte	0x5bf
 2577 05b9 05       		.uleb128 0x5
 2578 05ba 03       		.byte	0x3
 2579 05bb 20000000 		.4byte	ILI9341_regValues_2_4
 2580 05bf 0D       		.uleb128 0xd
 2581 05c0 9E050000 		.4byte	0x59e
 2582 05c4 24       		.uleb128 0x24
 2583 05c5 7E040000 		.4byte	.LASF78
 2584 05c9 08       		.byte	0x8
 2585 05ca 1207     		.2byte	0x712
 2586 05cc D0050000 		.4byte	0x5d0
 2587 05d0 25       		.uleb128 0x25
 2588 05d1 AD000000 		.4byte	0xad
 2589 05d5 00       		.byte	0
 2590              		.section	.debug_abbrev,"",%progbits
 2591              	.Ldebug_abbrev0:
 2592 0000 01       		.uleb128 0x1
 2593 0001 11       		.uleb128 0x11
 2594 0002 01       		.byte	0x1
 2595 0003 25       		.uleb128 0x25
 2596 0004 0E       		.uleb128 0xe
 2597 0005 13       		.uleb128 0x13
 2598 0006 0B       		.uleb128 0xb
 2599 0007 03       		.uleb128 0x3
 2600 0008 0E       		.uleb128 0xe
 2601 0009 1B       		.uleb128 0x1b
 2602 000a 0E       		.uleb128 0xe
 2603 000b 55       		.uleb128 0x55
 2604 000c 17       		.uleb128 0x17
 2605 000d 11       		.uleb128 0x11
 2606 000e 01       		.uleb128 0x1
 2607 000f 10       		.uleb128 0x10
 2608 0010 17       		.uleb128 0x17
 2609 0011 00       		.byte	0
 2610 0012 00       		.byte	0
 2611 0013 02       		.uleb128 0x2
 2612 0014 24       		.uleb128 0x24
 2613 0015 00       		.byte	0
ARM GAS  C:\Users\Sava\AppData\Local\Temp\ccqTJW0n.s 			page 107


 2614 0016 0B       		.uleb128 0xb
 2615 0017 0B       		.uleb128 0xb
 2616 0018 3E       		.uleb128 0x3e
 2617 0019 0B       		.uleb128 0xb
 2618 001a 03       		.uleb128 0x3
 2619 001b 0E       		.uleb128 0xe
 2620 001c 00       		.byte	0
 2621 001d 00       		.byte	0
 2622 001e 03       		.uleb128 0x3
 2623 001f 16       		.uleb128 0x16
 2624 0020 00       		.byte	0
 2625 0021 03       		.uleb128 0x3
 2626 0022 0E       		.uleb128 0xe
 2627 0023 3A       		.uleb128 0x3a
 2628 0024 0B       		.uleb128 0xb
 2629 0025 3B       		.uleb128 0x3b
 2630 0026 0B       		.uleb128 0xb
 2631 0027 49       		.uleb128 0x49
 2632 0028 13       		.uleb128 0x13
 2633 0029 00       		.byte	0
 2634 002a 00       		.byte	0
 2635 002b 04       		.uleb128 0x4
 2636 002c 24       		.uleb128 0x24
 2637 002d 00       		.byte	0
 2638 002e 0B       		.uleb128 0xb
 2639 002f 0B       		.uleb128 0xb
 2640 0030 3E       		.uleb128 0x3e
 2641 0031 0B       		.uleb128 0xb
 2642 0032 03       		.uleb128 0x3
 2643 0033 08       		.uleb128 0x8
 2644 0034 00       		.byte	0
 2645 0035 00       		.byte	0
 2646 0036 05       		.uleb128 0x5
 2647 0037 0F       		.uleb128 0xf
 2648 0038 00       		.byte	0
 2649 0039 0B       		.uleb128 0xb
 2650 003a 0B       		.uleb128 0xb
 2651 003b 00       		.byte	0
 2652 003c 00       		.byte	0
 2653 003d 06       		.uleb128 0x6
 2654 003e 13       		.uleb128 0x13
 2655 003f 01       		.byte	0x1
 2656 0040 0B       		.uleb128 0xb
 2657 0041 0B       		.uleb128 0xb
 2658 0042 3A       		.uleb128 0x3a
 2659 0043 0B       		.uleb128 0xb
 2660 0044 3B       		.uleb128 0x3b
 2661 0045 0B       		.uleb128 0xb
 2662 0046 01       		.uleb128 0x1
 2663 0047 13       		.uleb128 0x13
 2664 0048 00       		.byte	0
 2665 0049 00       		.byte	0
 2666 004a 07       		.uleb128 0x7
 2667 004b 0D       		.uleb128 0xd
 2668 004c 00       		.byte	0
 2669 004d 03       		.uleb128 0x3
 2670 004e 0E       		.uleb128 0xe
ARM GAS  C:\Users\Sava\AppData\Local\Temp\ccqTJW0n.s 			page 108


 2671 004f 3A       		.uleb128 0x3a
 2672 0050 0B       		.uleb128 0xb
 2673 0051 3B       		.uleb128 0x3b
 2674 0052 0B       		.uleb128 0xb
 2675 0053 49       		.uleb128 0x49
 2676 0054 13       		.uleb128 0x13
 2677 0055 0B       		.uleb128 0xb
 2678 0056 0B       		.uleb128 0xb
 2679 0057 0D       		.uleb128 0xd
 2680 0058 0B       		.uleb128 0xb
 2681 0059 0C       		.uleb128 0xc
 2682 005a 0B       		.uleb128 0xb
 2683 005b 38       		.uleb128 0x38
 2684 005c 0B       		.uleb128 0xb
 2685 005d 00       		.byte	0
 2686 005e 00       		.byte	0
 2687 005f 08       		.uleb128 0x8
 2688 0060 0D       		.uleb128 0xd
 2689 0061 00       		.byte	0
 2690 0062 03       		.uleb128 0x3
 2691 0063 08       		.uleb128 0x8
 2692 0064 3A       		.uleb128 0x3a
 2693 0065 0B       		.uleb128 0xb
 2694 0066 3B       		.uleb128 0x3b
 2695 0067 0B       		.uleb128 0xb
 2696 0068 49       		.uleb128 0x49
 2697 0069 13       		.uleb128 0x13
 2698 006a 0B       		.uleb128 0xb
 2699 006b 0B       		.uleb128 0xb
 2700 006c 0D       		.uleb128 0xd
 2701 006d 0B       		.uleb128 0xb
 2702 006e 0C       		.uleb128 0xc
 2703 006f 0B       		.uleb128 0xb
 2704 0070 38       		.uleb128 0x38
 2705 0071 0B       		.uleb128 0xb
 2706 0072 00       		.byte	0
 2707 0073 00       		.byte	0
 2708 0074 09       		.uleb128 0x9
 2709 0075 17       		.uleb128 0x17
 2710 0076 01       		.byte	0x1
 2711 0077 0B       		.uleb128 0xb
 2712 0078 0B       		.uleb128 0xb
 2713 0079 3A       		.uleb128 0x3a
 2714 007a 0B       		.uleb128 0xb
 2715 007b 3B       		.uleb128 0x3b
 2716 007c 0B       		.uleb128 0xb
 2717 007d 01       		.uleb128 0x1
 2718 007e 13       		.uleb128 0x13
 2719 007f 00       		.byte	0
 2720 0080 00       		.byte	0
 2721 0081 0A       		.uleb128 0xa
 2722 0082 0D       		.uleb128 0xd
 2723 0083 00       		.byte	0
 2724 0084 49       		.uleb128 0x49
 2725 0085 13       		.uleb128 0x13
 2726 0086 00       		.byte	0
 2727 0087 00       		.byte	0
ARM GAS  C:\Users\Sava\AppData\Local\Temp\ccqTJW0n.s 			page 109


 2728 0088 0B       		.uleb128 0xb
 2729 0089 0D       		.uleb128 0xd
 2730 008a 00       		.byte	0
 2731 008b 03       		.uleb128 0x3
 2732 008c 0E       		.uleb128 0xe
 2733 008d 3A       		.uleb128 0x3a
 2734 008e 0B       		.uleb128 0xb
 2735 008f 3B       		.uleb128 0x3b
 2736 0090 0B       		.uleb128 0xb
 2737 0091 49       		.uleb128 0x49
 2738 0092 13       		.uleb128 0x13
 2739 0093 00       		.byte	0
 2740 0094 00       		.byte	0
 2741 0095 0C       		.uleb128 0xc
 2742 0096 0F       		.uleb128 0xf
 2743 0097 00       		.byte	0
 2744 0098 0B       		.uleb128 0xb
 2745 0099 0B       		.uleb128 0xb
 2746 009a 49       		.uleb128 0x49
 2747 009b 13       		.uleb128 0x13
 2748 009c 00       		.byte	0
 2749 009d 00       		.byte	0
 2750 009e 0D       		.uleb128 0xd
 2751 009f 26       		.uleb128 0x26
 2752 00a0 00       		.byte	0
 2753 00a1 49       		.uleb128 0x49
 2754 00a2 13       		.uleb128 0x13
 2755 00a3 00       		.byte	0
 2756 00a4 00       		.byte	0
 2757 00a5 0E       		.uleb128 0xe
 2758 00a6 04       		.uleb128 0x4
 2759 00a7 01       		.byte	0x1
 2760 00a8 0B       		.uleb128 0xb
 2761 00a9 0B       		.uleb128 0xb
 2762 00aa 49       		.uleb128 0x49
 2763 00ab 13       		.uleb128 0x13
 2764 00ac 3A       		.uleb128 0x3a
 2765 00ad 0B       		.uleb128 0xb
 2766 00ae 3B       		.uleb128 0x3b
 2767 00af 0B       		.uleb128 0xb
 2768 00b0 01       		.uleb128 0x1
 2769 00b1 13       		.uleb128 0x13
 2770 00b2 00       		.byte	0
 2771 00b3 00       		.byte	0
 2772 00b4 0F       		.uleb128 0xf
 2773 00b5 28       		.uleb128 0x28
 2774 00b6 00       		.byte	0
 2775 00b7 03       		.uleb128 0x3
 2776 00b8 0E       		.uleb128 0xe
 2777 00b9 1C       		.uleb128 0x1c
 2778 00ba 0B       		.uleb128 0xb
 2779 00bb 00       		.byte	0
 2780 00bc 00       		.byte	0
 2781 00bd 10       		.uleb128 0x10
 2782 00be 16       		.uleb128 0x16
 2783 00bf 00       		.byte	0
 2784 00c0 03       		.uleb128 0x3
ARM GAS  C:\Users\Sava\AppData\Local\Temp\ccqTJW0n.s 			page 110


 2785 00c1 0E       		.uleb128 0xe
 2786 00c2 3A       		.uleb128 0x3a
 2787 00c3 0B       		.uleb128 0xb
 2788 00c4 3B       		.uleb128 0x3b
 2789 00c5 05       		.uleb128 0x5
 2790 00c6 49       		.uleb128 0x49
 2791 00c7 13       		.uleb128 0x13
 2792 00c8 00       		.byte	0
 2793 00c9 00       		.byte	0
 2794 00ca 11       		.uleb128 0x11
 2795 00cb 0D       		.uleb128 0xd
 2796 00cc 00       		.byte	0
 2797 00cd 03       		.uleb128 0x3
 2798 00ce 08       		.uleb128 0x8
 2799 00cf 3A       		.uleb128 0x3a
 2800 00d0 0B       		.uleb128 0xb
 2801 00d1 3B       		.uleb128 0x3b
 2802 00d2 0B       		.uleb128 0xb
 2803 00d3 49       		.uleb128 0x49
 2804 00d4 13       		.uleb128 0x13
 2805 00d5 38       		.uleb128 0x38
 2806 00d6 0B       		.uleb128 0xb
 2807 00d7 00       		.byte	0
 2808 00d8 00       		.byte	0
 2809 00d9 12       		.uleb128 0x12
 2810 00da 0D       		.uleb128 0xd
 2811 00db 00       		.byte	0
 2812 00dc 03       		.uleb128 0x3
 2813 00dd 0E       		.uleb128 0xe
 2814 00de 3A       		.uleb128 0x3a
 2815 00df 0B       		.uleb128 0xb
 2816 00e0 3B       		.uleb128 0x3b
 2817 00e1 0B       		.uleb128 0xb
 2818 00e2 49       		.uleb128 0x49
 2819 00e3 13       		.uleb128 0x13
 2820 00e4 38       		.uleb128 0x38
 2821 00e5 0B       		.uleb128 0xb
 2822 00e6 00       		.byte	0
 2823 00e7 00       		.byte	0
 2824 00e8 13       		.uleb128 0x13
 2825 00e9 01       		.uleb128 0x1
 2826 00ea 01       		.byte	0x1
 2827 00eb 49       		.uleb128 0x49
 2828 00ec 13       		.uleb128 0x13
 2829 00ed 01       		.uleb128 0x1
 2830 00ee 13       		.uleb128 0x13
 2831 00ef 00       		.byte	0
 2832 00f0 00       		.byte	0
 2833 00f1 14       		.uleb128 0x14
 2834 00f2 21       		.uleb128 0x21
 2835 00f3 00       		.byte	0
 2836 00f4 49       		.uleb128 0x49
 2837 00f5 13       		.uleb128 0x13
 2838 00f6 2F       		.uleb128 0x2f
 2839 00f7 0B       		.uleb128 0xb
 2840 00f8 00       		.byte	0
 2841 00f9 00       		.byte	0
ARM GAS  C:\Users\Sava\AppData\Local\Temp\ccqTJW0n.s 			page 111


 2842 00fa 15       		.uleb128 0x15
 2843 00fb 2E       		.uleb128 0x2e
 2844 00fc 01       		.byte	0x1
 2845 00fd 3F       		.uleb128 0x3f
 2846 00fe 19       		.uleb128 0x19
 2847 00ff 03       		.uleb128 0x3
 2848 0100 0E       		.uleb128 0xe
 2849 0101 3A       		.uleb128 0x3a
 2850 0102 0B       		.uleb128 0xb
 2851 0103 3B       		.uleb128 0x3b
 2852 0104 0B       		.uleb128 0xb
 2853 0105 27       		.uleb128 0x27
 2854 0106 19       		.uleb128 0x19
 2855 0107 11       		.uleb128 0x11
 2856 0108 01       		.uleb128 0x1
 2857 0109 12       		.uleb128 0x12
 2858 010a 06       		.uleb128 0x6
 2859 010b 40       		.uleb128 0x40
 2860 010c 18       		.uleb128 0x18
 2861 010d 9642     		.uleb128 0x2116
 2862 010f 19       		.uleb128 0x19
 2863 0110 01       		.uleb128 0x1
 2864 0111 13       		.uleb128 0x13
 2865 0112 00       		.byte	0
 2866 0113 00       		.byte	0
 2867 0114 16       		.uleb128 0x16
 2868 0115 34       		.uleb128 0x34
 2869 0116 00       		.byte	0
 2870 0117 03       		.uleb128 0x3
 2871 0118 0E       		.uleb128 0xe
 2872 0119 3A       		.uleb128 0x3a
 2873 011a 0B       		.uleb128 0xb
 2874 011b 3B       		.uleb128 0x3b
 2875 011c 0B       		.uleb128 0xb
 2876 011d 49       		.uleb128 0x49
 2877 011e 13       		.uleb128 0x13
 2878 011f 02       		.uleb128 0x2
 2879 0120 18       		.uleb128 0x18
 2880 0121 00       		.byte	0
 2881 0122 00       		.byte	0
 2882 0123 17       		.uleb128 0x17
 2883 0124 34       		.uleb128 0x34
 2884 0125 00       		.byte	0
 2885 0126 03       		.uleb128 0x3
 2886 0127 08       		.uleb128 0x8
 2887 0128 3A       		.uleb128 0x3a
 2888 0129 0B       		.uleb128 0xb
 2889 012a 3B       		.uleb128 0x3b
 2890 012b 0B       		.uleb128 0xb
 2891 012c 49       		.uleb128 0x49
 2892 012d 13       		.uleb128 0x13
 2893 012e 02       		.uleb128 0x2
 2894 012f 18       		.uleb128 0x18
 2895 0130 00       		.byte	0
 2896 0131 00       		.byte	0
 2897 0132 18       		.uleb128 0x18
 2898 0133 05       		.uleb128 0x5
ARM GAS  C:\Users\Sava\AppData\Local\Temp\ccqTJW0n.s 			page 112


 2899 0134 00       		.byte	0
 2900 0135 03       		.uleb128 0x3
 2901 0136 08       		.uleb128 0x8
 2902 0137 3A       		.uleb128 0x3a
 2903 0138 0B       		.uleb128 0xb
 2904 0139 3B       		.uleb128 0x3b
 2905 013a 0B       		.uleb128 0xb
 2906 013b 49       		.uleb128 0x49
 2907 013c 13       		.uleb128 0x13
 2908 013d 02       		.uleb128 0x2
 2909 013e 18       		.uleb128 0x18
 2910 013f 00       		.byte	0
 2911 0140 00       		.byte	0
 2912 0141 19       		.uleb128 0x19
 2913 0142 05       		.uleb128 0x5
 2914 0143 00       		.byte	0
 2915 0144 03       		.uleb128 0x3
 2916 0145 0E       		.uleb128 0xe
 2917 0146 3A       		.uleb128 0x3a
 2918 0147 0B       		.uleb128 0xb
 2919 0148 3B       		.uleb128 0x3b
 2920 0149 0B       		.uleb128 0xb
 2921 014a 49       		.uleb128 0x49
 2922 014b 13       		.uleb128 0x13
 2923 014c 02       		.uleb128 0x2
 2924 014d 18       		.uleb128 0x18
 2925 014e 00       		.byte	0
 2926 014f 00       		.byte	0
 2927 0150 1A       		.uleb128 0x1a
 2928 0151 21       		.uleb128 0x21
 2929 0152 00       		.byte	0
 2930 0153 49       		.uleb128 0x49
 2931 0154 13       		.uleb128 0x13
 2932 0155 2F       		.uleb128 0x2f
 2933 0156 05       		.uleb128 0x5
 2934 0157 00       		.byte	0
 2935 0158 00       		.byte	0
 2936 0159 1B       		.uleb128 0x1b
 2937 015a 2E       		.uleb128 0x2e
 2938 015b 01       		.byte	0x1
 2939 015c 3F       		.uleb128 0x3f
 2940 015d 19       		.uleb128 0x19
 2941 015e 03       		.uleb128 0x3
 2942 015f 0E       		.uleb128 0xe
 2943 0160 3A       		.uleb128 0x3a
 2944 0161 0B       		.uleb128 0xb
 2945 0162 3B       		.uleb128 0x3b
 2946 0163 05       		.uleb128 0x5
 2947 0164 27       		.uleb128 0x27
 2948 0165 19       		.uleb128 0x19
 2949 0166 11       		.uleb128 0x11
 2950 0167 01       		.uleb128 0x1
 2951 0168 12       		.uleb128 0x12
 2952 0169 06       		.uleb128 0x6
 2953 016a 40       		.uleb128 0x40
 2954 016b 18       		.uleb128 0x18
 2955 016c 9642     		.uleb128 0x2116
ARM GAS  C:\Users\Sava\AppData\Local\Temp\ccqTJW0n.s 			page 113


 2956 016e 19       		.uleb128 0x19
 2957 016f 01       		.uleb128 0x1
 2958 0170 13       		.uleb128 0x13
 2959 0171 00       		.byte	0
 2960 0172 00       		.byte	0
 2961 0173 1C       		.uleb128 0x1c
 2962 0174 05       		.uleb128 0x5
 2963 0175 00       		.byte	0
 2964 0176 03       		.uleb128 0x3
 2965 0177 08       		.uleb128 0x8
 2966 0178 3A       		.uleb128 0x3a
 2967 0179 0B       		.uleb128 0xb
 2968 017a 3B       		.uleb128 0x3b
 2969 017b 05       		.uleb128 0x5
 2970 017c 49       		.uleb128 0x49
 2971 017d 13       		.uleb128 0x13
 2972 017e 02       		.uleb128 0x2
 2973 017f 18       		.uleb128 0x18
 2974 0180 00       		.byte	0
 2975 0181 00       		.byte	0
 2976 0182 1D       		.uleb128 0x1d
 2977 0183 05       		.uleb128 0x5
 2978 0184 00       		.byte	0
 2979 0185 03       		.uleb128 0x3
 2980 0186 0E       		.uleb128 0xe
 2981 0187 3A       		.uleb128 0x3a
 2982 0188 0B       		.uleb128 0xb
 2983 0189 3B       		.uleb128 0x3b
 2984 018a 05       		.uleb128 0x5
 2985 018b 49       		.uleb128 0x49
 2986 018c 13       		.uleb128 0x13
 2987 018d 02       		.uleb128 0x2
 2988 018e 18       		.uleb128 0x18
 2989 018f 00       		.byte	0
 2990 0190 00       		.byte	0
 2991 0191 1E       		.uleb128 0x1e
 2992 0192 34       		.uleb128 0x34
 2993 0193 00       		.byte	0
 2994 0194 03       		.uleb128 0x3
 2995 0195 0E       		.uleb128 0xe
 2996 0196 3A       		.uleb128 0x3a
 2997 0197 0B       		.uleb128 0xb
 2998 0198 3B       		.uleb128 0x3b
 2999 0199 05       		.uleb128 0x5
 3000 019a 49       		.uleb128 0x49
 3001 019b 13       		.uleb128 0x13
 3002 019c 02       		.uleb128 0x2
 3003 019d 18       		.uleb128 0x18
 3004 019e 00       		.byte	0
 3005 019f 00       		.byte	0
 3006 01a0 1F       		.uleb128 0x1f
 3007 01a1 34       		.uleb128 0x34
 3008 01a2 00       		.byte	0
 3009 01a3 03       		.uleb128 0x3
 3010 01a4 08       		.uleb128 0x8
 3011 01a5 3A       		.uleb128 0x3a
 3012 01a6 0B       		.uleb128 0xb
ARM GAS  C:\Users\Sava\AppData\Local\Temp\ccqTJW0n.s 			page 114


 3013 01a7 3B       		.uleb128 0x3b
 3014 01a8 05       		.uleb128 0x5
 3015 01a9 49       		.uleb128 0x49
 3016 01aa 13       		.uleb128 0x13
 3017 01ab 02       		.uleb128 0x2
 3018 01ac 18       		.uleb128 0x18
 3019 01ad 00       		.byte	0
 3020 01ae 00       		.byte	0
 3021 01af 20       		.uleb128 0x20
 3022 01b0 34       		.uleb128 0x34
 3023 01b1 00       		.byte	0
 3024 01b2 03       		.uleb128 0x3
 3025 01b3 08       		.uleb128 0x8
 3026 01b4 3A       		.uleb128 0x3a
 3027 01b5 0B       		.uleb128 0xb
 3028 01b6 3B       		.uleb128 0x3b
 3029 01b7 05       		.uleb128 0x5
 3030 01b8 49       		.uleb128 0x49
 3031 01b9 13       		.uleb128 0x13
 3032 01ba 00       		.byte	0
 3033 01bb 00       		.byte	0
 3034 01bc 21       		.uleb128 0x21
 3035 01bd 2E       		.uleb128 0x2e
 3036 01be 00       		.byte	0
 3037 01bf 03       		.uleb128 0x3
 3038 01c0 0E       		.uleb128 0xe
 3039 01c1 3A       		.uleb128 0x3a
 3040 01c2 0B       		.uleb128 0xb
 3041 01c3 3B       		.uleb128 0x3b
 3042 01c4 05       		.uleb128 0x5
 3043 01c5 27       		.uleb128 0x27
 3044 01c6 19       		.uleb128 0x19
 3045 01c7 11       		.uleb128 0x11
 3046 01c8 01       		.uleb128 0x1
 3047 01c9 12       		.uleb128 0x12
 3048 01ca 06       		.uleb128 0x6
 3049 01cb 40       		.uleb128 0x40
 3050 01cc 18       		.uleb128 0x18
 3051 01cd 9642     		.uleb128 0x2116
 3052 01cf 19       		.uleb128 0x19
 3053 01d0 00       		.byte	0
 3054 01d1 00       		.byte	0
 3055 01d2 22       		.uleb128 0x22
 3056 01d3 2E       		.uleb128 0x2e
 3057 01d4 01       		.byte	0x1
 3058 01d5 03       		.uleb128 0x3
 3059 01d6 0E       		.uleb128 0xe
 3060 01d7 3A       		.uleb128 0x3a
 3061 01d8 0B       		.uleb128 0xb
 3062 01d9 3B       		.uleb128 0x3b
 3063 01da 05       		.uleb128 0x5
 3064 01db 27       		.uleb128 0x27
 3065 01dc 19       		.uleb128 0x19
 3066 01dd 11       		.uleb128 0x11
 3067 01de 01       		.uleb128 0x1
 3068 01df 12       		.uleb128 0x12
 3069 01e0 06       		.uleb128 0x6
ARM GAS  C:\Users\Sava\AppData\Local\Temp\ccqTJW0n.s 			page 115


 3070 01e1 40       		.uleb128 0x40
 3071 01e2 18       		.uleb128 0x18
 3072 01e3 9642     		.uleb128 0x2116
 3073 01e5 19       		.uleb128 0x19
 3074 01e6 01       		.uleb128 0x1
 3075 01e7 13       		.uleb128 0x13
 3076 01e8 00       		.byte	0
 3077 01e9 00       		.byte	0
 3078 01ea 23       		.uleb128 0x23
 3079 01eb 0B       		.uleb128 0xb
 3080 01ec 01       		.byte	0x1
 3081 01ed 11       		.uleb128 0x11
 3082 01ee 01       		.uleb128 0x1
 3083 01ef 12       		.uleb128 0x12
 3084 01f0 06       		.uleb128 0x6
 3085 01f1 00       		.byte	0
 3086 01f2 00       		.byte	0
 3087 01f3 24       		.uleb128 0x24
 3088 01f4 34       		.uleb128 0x34
 3089 01f5 00       		.byte	0
 3090 01f6 03       		.uleb128 0x3
 3091 01f7 0E       		.uleb128 0xe
 3092 01f8 3A       		.uleb128 0x3a
 3093 01f9 0B       		.uleb128 0xb
 3094 01fa 3B       		.uleb128 0x3b
 3095 01fb 05       		.uleb128 0x5
 3096 01fc 49       		.uleb128 0x49
 3097 01fd 13       		.uleb128 0x13
 3098 01fe 3F       		.uleb128 0x3f
 3099 01ff 19       		.uleb128 0x19
 3100 0200 3C       		.uleb128 0x3c
 3101 0201 19       		.uleb128 0x19
 3102 0202 00       		.byte	0
 3103 0203 00       		.byte	0
 3104 0204 25       		.uleb128 0x25
 3105 0205 35       		.uleb128 0x35
 3106 0206 00       		.byte	0
 3107 0207 49       		.uleb128 0x49
 3108 0208 13       		.uleb128 0x13
 3109 0209 00       		.byte	0
 3110 020a 00       		.byte	0
 3111 020b 00       		.byte	0
 3112              		.section	.debug_aranges,"",%progbits
 3113 0000 54000000 		.4byte	0x54
 3114 0004 0200     		.2byte	0x2
 3115 0006 00000000 		.4byte	.Ldebug_info0
 3116 000a 04       		.byte	0x4
 3117 000b 00       		.byte	0
 3118 000c 0000     		.2byte	0
 3119 000e 0000     		.2byte	0
 3120 0010 00000000 		.4byte	.LFB170
 3121 0014 B4010000 		.4byte	.LFE170-.LFB170
 3122 0018 00000000 		.4byte	.LFB171
 3123 001c 76010000 		.4byte	.LFE171-.LFB171
 3124 0020 00000000 		.4byte	.LFB172
 3125 0024 F4000000 		.4byte	.LFE172-.LFB172
 3126 0028 00000000 		.4byte	.LFB173
ARM GAS  C:\Users\Sava\AppData\Local\Temp\ccqTJW0n.s 			page 116


 3127 002c 2C000000 		.4byte	.LFE173-.LFB173
 3128 0030 00000000 		.4byte	.LFB174
 3129 0034 94000000 		.4byte	.LFE174-.LFB174
 3130 0038 00000000 		.4byte	.LFB175
 3131 003c 1A000000 		.4byte	.LFE175-.LFB175
 3132 0040 00000000 		.4byte	.LFB176
 3133 0044 1C000000 		.4byte	.LFE176-.LFB176
 3134 0048 00000000 		.4byte	.LFB177
 3135 004c 1E000000 		.4byte	.LFE177-.LFB177
 3136 0050 00000000 		.4byte	0
 3137 0054 00000000 		.4byte	0
 3138              		.section	.debug_ranges,"",%progbits
 3139              	.Ldebug_ranges0:
 3140 0000 00000000 		.4byte	.LFB170
 3141 0004 B4010000 		.4byte	.LFE170
 3142 0008 00000000 		.4byte	.LFB171
 3143 000c 76010000 		.4byte	.LFE171
 3144 0010 00000000 		.4byte	.LFB172
 3145 0014 F4000000 		.4byte	.LFE172
 3146 0018 00000000 		.4byte	.LFB173
 3147 001c 2C000000 		.4byte	.LFE173
 3148 0020 00000000 		.4byte	.LFB174
 3149 0024 94000000 		.4byte	.LFE174
 3150 0028 00000000 		.4byte	.LFB175
 3151 002c 1A000000 		.4byte	.LFE175
 3152 0030 00000000 		.4byte	.LFB176
 3153 0034 1C000000 		.4byte	.LFE176
 3154 0038 00000000 		.4byte	.LFB177
 3155 003c 1E000000 		.4byte	.LFE177
 3156 0040 00000000 		.4byte	0
 3157 0044 00000000 		.4byte	0
 3158              		.section	.debug_line,"",%progbits
 3159              	.Ldebug_line0:
 3160 0000 04030000 		.section	.debug_str,"MS",%progbits,1
 3160      0200C501 
 3160      00000201 
 3160      FB0E0D00 
 3160      01010101 
 3161              	.LASF54:
 3162 0000 636F6C6F 		.ascii	"color\000"
 3162      7200
 3163              	.LASF52:
 3164 0006 494C4939 		.ascii	"ILI9341_init\000"
 3164      3334315F 
 3164      696E6974 
 3164      00
 3165              	.LASF68:
 3166 0013 494C4939 		.ascii	"ILI9341_send_data\000"
 3166      3334315F 
 3166      73656E64 
 3166      5F646174 
 3166      6100
 3167              	.LASF20:
 3168 0025 6C765F63 		.ascii	"lv_color16_t\000"
 3168      6F6C6F72 
 3168      31365F74 
 3168      00
ARM GAS  C:\Users\Sava\AppData\Local\Temp\ccqTJW0n.s 			page 117


 3169              	.LASF77:
 3170 0032 6C63645F 		.ascii	"lcd_start_reset\000"
 3170      73746172 
 3170      745F7265 
 3170      73657400 
 3171              	.LASF27:
 3172 0042 4C565F42 		.ascii	"LV_BTN_STATE_TGL_REL\000"
 3172      544E5F53 
 3172      54415445 
 3172      5F54474C 
 3172      5F52454C 
 3173              	.LASF2:
 3174 0057 73686F72 		.ascii	"short int\000"
 3174      7420696E 
 3174      7400
 3175              	.LASF22:
 3176 0061 73697A65 		.ascii	"sizetype\000"
 3176      74797065 
 3176      00
 3177              	.LASF63:
 3178 006a 6163745F 		.ascii	"act_w\000"
 3178      7700
 3179              	.LASF17:
 3180 0070 6C6F6E67 		.ascii	"long double\000"
 3180      20646F75 
 3180      626C6500 
 3181              	.LASF8:
 3182 007c 5F5F7569 		.ascii	"__uint32_t\000"
 3182      6E743332 
 3182      5F7400
 3183              	.LASF64:
 3184 0087 62756666 		.ascii	"buff\000"
 3184      00
 3185              	.LASF4:
 3186 008c 5F5F7569 		.ascii	"__uint16_t\000"
 3186      6E743136 
 3186      5F7400
 3187              	.LASF26:
 3188 0097 4C565F42 		.ascii	"LV_BTN_STATE_PR\000"
 3188      544E5F53 
 3188      54415445 
 3188      5F505200 
 3189              	.LASF37:
 3190 00a7 4C565F43 		.ascii	"LV_CALENDAR_ACTION_PR\000"
 3190      414C454E 
 3190      4441525F 
 3190      41435449 
 3190      4F4E5F50 
 3191              	.LASF32:
 3192 00bd 4C565F42 		.ascii	"LV_BTN_ACTION_PR\000"
 3192      544E5F41 
 3192      4354494F 
 3192      4E5F5052 
 3192      00
 3193              	.LASF18:
 3194 00ce 626C7565 		.ascii	"blue\000"
 3194      00
ARM GAS  C:\Users\Sava\AppData\Local\Temp\ccqTJW0n.s 			page 118


 3195              	.LASF21:
 3196 00d3 6C765F63 		.ascii	"lv_color_t\000"
 3196      6F6C6F72 
 3196      5F7400
 3197              	.LASF42:
 3198 00de 75696E74 		.ascii	"uint16\000"
 3198      313600
 3199              	.LASF13:
 3200 00e5 75696E74 		.ascii	"uint8_t\000"
 3200      385F7400 
 3201              	.LASF25:
 3202 00ed 4C565F42 		.ascii	"LV_BTN_STATE_REL\000"
 3202      544E5F53 
 3202      54415445 
 3202      5F52454C 
 3202      00
 3203              	.LASF41:
 3204 00fe 75696E74 		.ascii	"uint8\000"
 3204      3800
 3205              	.LASF74:
 3206 0104 6C765F64 		.ascii	"lv_drivers\\ili9341.c\000"
 3206      72697665 
 3206      72735C69 
 3206      6C693933 
 3206      34312E63 
 3207              	.LASF67:
 3208 0119 494C4939 		.ascii	"ILI9341_send_cmd\000"
 3208      3334315F 
 3208      73656E64 
 3208      5F636D64 
 3208      00
 3209              	.LASF16:
 3210 012a 75696E74 		.ascii	"uint32_t\000"
 3210      33325F74 
 3210      00
 3211              	.LASF31:
 3212 0133 4C565F42 		.ascii	"LV_BTN_ACTION_CLICK\000"
 3212      544E5F41 
 3212      4354494F 
 3212      4E5F434C 
 3212      49434B00 
 3213              	.LASF44:
 3214 0147 696E7431 		.ascii	"int16\000"
 3214      3600
 3215              	.LASF69:
 3216 014d 6C656E67 		.ascii	"length\000"
 3216      746800
 3217              	.LASF46:
 3218 0154 666C6F61 		.ascii	"float\000"
 3218      7400
 3219              	.LASF66:
 3220 015a 73656E64 		.ascii	"sendStartSequence\000"
 3220      53746172 
 3220      74536571 
 3220      75656E63 
 3220      6500
 3221              	.LASF10:
ARM GAS  C:\Users\Sava\AppData\Local\Temp\ccqTJW0n.s 			page 119


 3222 016c 6C6F6E67 		.ascii	"long long int\000"
 3222      206C6F6E 
 3222      6720696E 
 3222      7400
 3223              	.LASF11:
 3224 017a 6C6F6E67 		.ascii	"long long unsigned int\000"
 3224      206C6F6E 
 3224      6720756E 
 3224      7369676E 
 3224      65642069 
 3225              	.LASF7:
 3226 0191 6C6F6E67 		.ascii	"long int\000"
 3226      20696E74 
 3226      00
 3227              	.LASF73:
 3228 019a 474E5520 		.ascii	"GNU C11 5.4.1 20160609 (release) [ARM/embedded-5-br"
 3228      43313120 
 3228      352E342E 
 3228      31203230 
 3228      31363036 
 3229 01cd 616E6368 		.ascii	"anch revision 237715] -mcpu=cortex-m3 -mthumb -g -O"
 3229      20726576 
 3229      6973696F 
 3229      6E203233 
 3229      37373135 
 3230 0200 30202D66 		.ascii	"0 -ffunction-sections -ffat-lto-objects -finline-fu"
 3230      66756E63 
 3230      74696F6E 
 3230      2D736563 
 3230      74696F6E 
 3231 0233 6E637469 		.ascii	"nctions -flto\000"
 3231      6F6E7320 
 3231      2D666C74 
 3231      6F00
 3232              	.LASF3:
 3233 0241 5F5F7569 		.ascii	"__uint8_t\000"
 3233      6E74385F 
 3233      7400
 3234              	.LASF19:
 3235 024b 67726565 		.ascii	"green\000"
 3235      6E00
 3236              	.LASF53:
 3237 0251 494C4939 		.ascii	"ILI9341_fill\000"
 3237      3334315F 
 3237      66696C6C 
 3237      00
 3238              	.LASF1:
 3239 025e 756E7369 		.ascii	"unsigned char\000"
 3239      676E6564 
 3239      20636861 
 3239      7200
 3240              	.LASF40:
 3241 026c 4C565F43 		.ascii	"LV_CALENDAR_ACTION_NUM\000"
 3241      414C454E 
 3241      4441525F 
 3241      41435449 
 3241      4F4E5F4E 
ARM GAS  C:\Users\Sava\AppData\Local\Temp\ccqTJW0n.s 			page 120


 3242              	.LASF62:
 3243 0283 66756C6C 		.ascii	"full_w\000"
 3243      5F7700
 3244              	.LASF39:
 3245 028a 4C565F43 		.ascii	"LV_CALENDAR_ACTION_LONG_PR_REPEAT\000"
 3245      414C454E 
 3245      4441525F 
 3245      41435449 
 3245      4F4E5F4C 
 3246              	.LASF71:
 3247 02ac 6D637533 		.ascii	"mcu35_init_sequence_web_edited\000"
 3247      355F696E 
 3247      69745F73 
 3247      65717565 
 3247      6E63655F 
 3248              	.LASF6:
 3249 02cb 5F5F696E 		.ascii	"__int32_t\000"
 3249      7433325F 
 3249      7400
 3250              	.LASF0:
 3251 02d5 7369676E 		.ascii	"signed char\000"
 3251      65642063 
 3251      68617200 
 3252              	.LASF75:
 3253 02e1 433A5C55 		.ascii	"C:\\Users\\Sava\\Documents\\PSoC Creator\\GUI_and_d"
 3253      73657273 
 3253      5C536176 
 3253      615C446F 
 3253      63756D65 
 3254 030f 6973706C 		.ascii	"isplay\\LittlevGL(5v3)_demo_ILI9341.cydsn\000"
 3254      61795C4C 
 3254      6974746C 
 3254      6576474C 
 3254      28357633 
 3255              	.LASF49:
 3256 0338 64617461 		.ascii	"databytes\000"
 3256      62797465 
 3256      7300
 3257              	.LASF70:
 3258 0342 696C6939 		.ascii	"ili9341_send_color\000"
 3258      3334315F 
 3258      73656E64 
 3258      5F636F6C 
 3258      6F7200
 3259              	.LASF56:
 3260 0355 494C4939 		.ascii	"ILI9341_flush\000"
 3260      3334315F 
 3260      666C7573 
 3260      6800
 3261              	.LASF14:
 3262 0363 75696E74 		.ascii	"uint16_t\000"
 3262      31365F74 
 3262      00
 3263              	.LASF60:
 3264 036c 6163745F 		.ascii	"act_x2\000"
 3264      783200
 3265              	.LASF5:
ARM GAS  C:\Users\Sava\AppData\Local\Temp\ccqTJW0n.s 			page 121


 3266 0373 73686F72 		.ascii	"short unsigned int\000"
 3266      7420756E 
 3266      7369676E 
 3266      65642069 
 3266      6E7400
 3267              	.LASF51:
 3268 0386 696C695F 		.ascii	"ili_init_cmds\000"
 3268      696E6974 
 3268      5F636D64 
 3268      7300
 3269              	.LASF35:
 3270 0394 4C565F42 		.ascii	"LV_BTN_ACTION_NUM\000"
 3270      544E5F41 
 3270      4354494F 
 3270      4E5F4E55 
 3270      4D00
 3271              	.LASF23:
 3272 03a6 63686172 		.ascii	"char\000"
 3272      00
 3273              	.LASF29:
 3274 03ab 4C565F42 		.ascii	"LV_BTN_STATE_INA\000"
 3274      544E5F53 
 3274      54415445 
 3274      5F494E41 
 3274      00
 3275              	.LASF33:
 3276 03bc 4C565F42 		.ascii	"LV_BTN_ACTION_LONG_PR\000"
 3276      544E5F41 
 3276      4354494F 
 3276      4E5F4C4F 
 3276      4E475F50 
 3277              	.LASF15:
 3278 03d2 696E7433 		.ascii	"int32_t\000"
 3278      325F7400 
 3279              	.LASF58:
 3280 03da 6163745F 		.ascii	"act_x1\000"
 3280      783100
 3281              	.LASF34:
 3282 03e1 4C565F42 		.ascii	"LV_BTN_ACTION_LONG_PR_REPEAT\000"
 3282      544E5F41 
 3282      4354494F 
 3282      4E5F4C4F 
 3282      4E475F50 
 3283              	.LASF57:
 3284 03fe 636F6C6F 		.ascii	"color_map\000"
 3284      725F6D61 
 3284      7000
 3285              	.LASF72:
 3286 0408 494C4939 		.ascii	"ILI9341_regValues_2_4\000"
 3286      3334315F 
 3286      72656756 
 3286      616C7565 
 3286      735F325F 
 3287              	.LASF24:
 3288 041e 5F426F6F 		.ascii	"_Bool\000"
 3288      6C00
 3289              	.LASF28:
ARM GAS  C:\Users\Sava\AppData\Local\Temp\ccqTJW0n.s 			page 122


 3290 0424 4C565F42 		.ascii	"LV_BTN_STATE_TGL_PR\000"
 3290      544E5F53 
 3290      54415445 
 3290      5F54474C 
 3290      5F505200 
 3291              	.LASF48:
 3292 0438 64617461 		.ascii	"data\000"
 3292      00
 3293              	.LASF38:
 3294 043d 4C565F43 		.ascii	"LV_CALENDAR_ACTION_LONG_PR\000"
 3294      414C454E 
 3294      4441525F 
 3294      41435449 
 3294      4F4E5F4C 
 3295              	.LASF43:
 3296 0458 75696E74 		.ascii	"uint32\000"
 3296      333200
 3297              	.LASF9:
 3298 045f 6C6F6E67 		.ascii	"long unsigned int\000"
 3298      20756E73 
 3298      69676E65 
 3298      6420696E 
 3298      7400
 3299              	.LASF45:
 3300 0471 696E7433 		.ascii	"int32\000"
 3300      3200
 3301              	.LASF47:
 3302 0477 646F7562 		.ascii	"double\000"
 3302      6C6500
 3303              	.LASF78:
 3304 047e 49544D5F 		.ascii	"ITM_RxBuffer\000"
 3304      52784275 
 3304      66666572 
 3304      00
 3305              	.LASF55:
 3306 048b 73697A65 		.ascii	"size\000"
 3306      00
 3307              	.LASF65:
 3308 0490 636F756E 		.ascii	"count\000"
 3308      7400
 3309              	.LASF76:
 3310 0496 66756C6C 		.ascii	"full\000"
 3310      00
 3311              	.LASF36:
 3312 049b 4C565F43 		.ascii	"LV_CALENDAR_ACTION_CLICK\000"
 3312      414C454E 
 3312      4441525F 
 3312      41435449 
 3312      4F4E5F43 
 3313              	.LASF59:
 3314 04b4 6163745F 		.ascii	"act_y1\000"
 3314      793100
 3315              	.LASF61:
 3316 04bb 6163745F 		.ascii	"act_y2\000"
 3316      793200
 3317              	.LASF12:
 3318 04c2 756E7369 		.ascii	"unsigned int\000"
ARM GAS  C:\Users\Sava\AppData\Local\Temp\ccqTJW0n.s 			page 123


 3318      676E6564 
 3318      20696E74 
 3318      00
 3319              	.LASF50:
 3320 04cf 6C63645F 		.ascii	"lcd_init_cmd_t\000"
 3320      696E6974 
 3320      5F636D64 
 3320      5F7400
 3321              	.LASF30:
 3322 04de 4C565F42 		.ascii	"LV_BTN_STATE_NUM\000"
 3322      544E5F53 
 3322      54415445 
 3322      5F4E554D 
 3322      00
 3323              		.comm	__gnu_lto_v1,1,1
 3324              		.ident	"GCC: (GNU Tools for ARM Embedded Processors) 5.4.1 20160609 (release) [ARM/embedded-5-bran
