ARM GAS  C:\Users\Sava\AppData\Local\Temp\cciOOXM3.s 			page 1


   1              		.syntax unified
   2              		.cpu cortex-m3
   3              		.fpu softvfp
   4              		.eabi_attribute 20, 1
   5              		.eabi_attribute 21, 1
   6              		.eabi_attribute 23, 3
   7              		.eabi_attribute 24, 1
   8              		.eabi_attribute 25, 1
   9              		.eabi_attribute 26, 1
  10              		.eabi_attribute 30, 6
  11              		.eabi_attribute 34, 1
  12              		.eabi_attribute 18, 4
  13              		.thumb
  14              		.syntax unified
  15              		.file	"lv_color.c"
  16              		.text
  17              	.Ltext0:
  18              		.section	.gnu.lto_.inline.d4b9d6d,"",%progbits
  19 0000 789C6361 		.ascii	"x\234ca`d\000\001M\006\004`b`0\327\003RY\017\316\261"
  19      60640001 
  19      4D060460 
  19      626030D7 
  19      0352590F 
  20 0016 32B080B8 		.ascii	"2\260\200\270\014@U\2467@Ri\015\367\271`b\014\000\205"
  20      0C4055A6 
  20      37405269 
  20      0DF7B960 
  20      620C0085 
  21 002a C805A0   		.ascii	"\310\005\240"
  22              		.text
  23              		.section	.gnu.lto_lv_color_hsv_to_rgb.d4b9d6d,"",%progbits
  24 0000 789C9D58 		.ascii	"x\234\235XipTU\026~\347\275\336;\233\212\31065\240D"
  24      69705455 
  24      167EE7BD 
  24      DE3B9B8A 
  24      C83635A0 
  25 0015 F64D50C3 		.ascii	"\366MP\303\276\313\276/\005%\326\214\303P\014U(\012"
  25      BECBBE2F 
  25      0525D68C 
  25      C3500C55 
  25      280A
  26 0027 0EBFACF2 		.ascii	"\016\277\254\362\221N:dD\260\031\310&\221\231\201\221"
  26      914E3A64 
  26      44B019C8 
  26      26919981 
  26      91
  27 0038 806C81E8 		.ascii	"\200l\201\350\230\001\241\003Y\024\302\022V#aO2\014"
  27      9801A103 
  27      5914C212 
  27      5623614F 
  27      320C
  28 004a E00C59C0 		.ascii	"\340\014Y\300\001!\231s\316\275/\325\335/I\245I\345"
  28      01219973 
  28      CEBD2FD5 
  28      DD2F49A5 
  28      49E5
  29 005c 9D7EEFEB 		.ascii	"\235~\357\353\357\373\356\271\373\355gQ@\241\277\316"
ARM GAS  C:\Users\Sava\AppData\Local\Temp\cciOOXM3.s 			page 2


  29      EFFBEEB9 
  29      FBED6751 
  29      40A1BFCE 
  30 006c 6D15650C 		.ascii	"m\025e\014~~H\017Q\012\250\012^\252\246(\272j\301`\321"
  30      7E7E480F 
  30      510AA80A 
  30      5EAAA628 
  30      BA6AC160 
  31 0081 2002118B 		.ascii	" \002\021\213\315\205_[\361\262\341e\307\313\201\227"
  31      CD855F5B 
  31      F1B2E165 
  31      C7CB8197 
  32 0091 933070E3 		.ascii	"\2230p\343\3676\216v\216\016\216N\216.\216n\366\210"
  32      F7368E76 
  32      8E0E8E4E 
  32      8E2E8E6E 
  32      F688
  33 00a3 80488C91 		.ascii	"\200H\214\221@\345\202\362\221\252Y\2546\273\303\351"
  33      40E582F2 
  33      91AA59AC 
  33      36BBC3E9 
  34 00b3 724744C2 		.ascii	"rGD\302Gp_}\242BA\375\317\376\350Z5Q\303\034\360\361"
  34      47705F7D 
  34      A24241FD 
  34      CFFEE85A 
  34      3551C31C 
  35 00c9 CCBDE24C 		.ascii	"\314\275\342L7=\002\304\340\343\316\274\332m\326n\333"
  35      373D02C4 
  35      E0E3CEBC 
  35      DA6DD66E 
  35      DB
  36 00da 74FCBB56 		.ascii	"t\374\273V\220\032\225\226\345\307\257T\245^U \013:"
  36      901A9596 
  36      E5C7AF54 
  36      A55E5520 
  36      0B3A
  37 00ec C036E840 		.ascii	"\3006\350@\316\333\241\033rO\326$otk\355A\301\373\273"
  37      CEDBA11B 
  37      724FD624 
  37      6F746BED 
  37      41C1FBBB 
  38 0100 FB373D8A 		.ascii	"\3737=\212\356\362w]\217\327\365\375o\353\326DM\203"
  38      EEF2775D 
  38      8FD7F5FD 
  38      6FEBD644 
  38      4D83
  39 0112 1DA005EA 		.ascii	"\035\240\005\352\020R\340K\350\202\354#\205\237\355"
  39      1052E04B 
  39      E882EC23 
  39      859FED
  40 0121 B16BBF62 		.ascii	"\261k\277b\345\245\207\267\237\250RY\372\226\256%j\026"
  40      E5A587B7 
  40      9FA85259 
  40      FA96AE25 
  40      6A16
  41 0133 D82994FD 		.ascii	"\330)\224\375;@_\322Y\024\330\305:\357\226\243\017#"
  41      3B405FD2 
ARM GAS  C:\Users\Sava\AppData\Local\Temp\cciOOXM3.s 			page 3


  41      5914D8C5 
  41      3AEF96A3 
  41      0F23
  42 0145 B55FB3AE 		.ascii	"\265_\263\2568\343Ff\204\324\325K\335n\223n\017t!r\345"
  42      38E34666 
  42      84D4D54B 
  42      DD6E936E 
  42      0F742172 
  43 015a C70587EC 		.ascii	"\307\005\207\354Z'\026\036<^\231o\211\335BU\364oNj\225"
  43      5A27161E 
  43      3C5E996F 
  43      89DD4255 
  43      F46F4E6A 
  44 016f A6FBE33B 		.ascii	"\246\373\343;b\035aop\272\364\207\354_r\013t\207\326"
  44      621D616F 
  44      70BAF487 
  44      EC5F720B 
  44      7487D6
  45 0182 9595770E 		.ascii	"\225\225w\016\036M\216 e\274\356\277\234\253\246\352"
  45      1E4D8E20 
  45      65BCEEBF 
  45      9CABA6EA 
  46 0192 FE551DA9 		.ascii	"\376U\035\251\330}\201\305J]\355\325\317\342U\255;\353"
  46      D87D81C5 
  46      4A5DEDD5 
  46      CFE255AD 
  46      3BEB
  47 01a4 92F2D30A 		.ascii	"\222\362\323\012\243\205NO}K\367\214 QN#\242b\177\362"
  47      A3854E4F 
  47      7D4BF78C 
  47      20514E23 
  47      A2627FF2 
  48 01b8 1E97D693 		.ascii	"\036\227\326\223E\307\263w\306GJ\221\317\020}\335\210"
  48      45C7B377 
  48      C6474A91 
  48      CF107DDD 
  48      88
  49 01c9 E8FB3B75 		.ascii	"\350\373;u\237Dk\275Y\364\335\375\314Gn)\272\264@\212"
  49      9F446BBD 
  49      59F4DDFD 
  49      CC476E29 
  49      BAB4408A 
  50 01dd BE6944F4 		.ascii	"\276iD\364\305\311G\275\2648\326\034Z\2351VJ\016\030"
  50      C5C947BD 
  50      B438D61C 
  50      5A9D3156 
  50      4A0E18
  51 01f0 927F3622 		.ascii	"\222\1776\"\331\344\335Q\241i\303YS\360\270\264\310"
  51      D9E4DD51 
  51      A169C359 
  51      53F0B8B4 
  51      C8
  52 0201 255BA274 		.ascii	"%[\242t\0274\264\304\301FtG\263J\317\333\264\221\254"
  52      1734B4C4 
  52      C1467447 
  52      B34ACFDB 
  52      B491AC
ARM GAS  C:\Users\Sava\AppData\Local\Temp\cciOOXM3.s 			page 4


  53 0214 CBACCC2F 		.ascii	"\313\254\314/\222-\250\227\030\205\035jDt>\347X!h\243"
  53      922DA897 
  53      18851D6A 
  53      44743EE7 
  53      582168A3 
  54 0228 5994BBF9 		.ascii	"Y\224\273\371\207\014[h\206\376FD7\262\3536F\332\022"
  54      870C5B68 
  54      86FE4644 
  54      37B2EB36 
  54      46DA12
  55 023b A8673B42 		.ascii	"\250g;B\036\304\302a\274\276\305\353\000^\271x\375\003"
  55      1EC4C261 
  55      BCBEC5EB 
  55      005EB978 
  55      FD03
  56 024d AFAFF0DA 		.ascii	"\257\257\360\332\217W6\304\322\260\306\321|\004\247"
  56      8F5736C4 
  56      D2B0C6D1 
  56      7C04A7
  57 025c 96A20C41 		.ascii	"\226\242\014A\203\222\204\275\233417,\370Xu\"\343f\224"
  57      839284BD 
  57      9B343137 
  57      2CF85875 
  57      22E36694 
  58 0270 981B1DF1 		.ascii	"\230\033\035\3611=\373Z\225UV\272$\033\322\263\374\011"
  58      313DFB5A 
  58      955556BA 
  58      241BD2B3 
  58      FC09
  59 0282 58692B4F 		.ascii	"Xi+O\216|\0345G\345\250\201\002\210\015\246\353\373"
  59      8E7C1C35 
  59      47E5A881 
  59      02880DA6 
  59      EBFB
  60 0294 CBFF027A 		.ascii	"\313\377\002z\362\210F\331\205&\366\346\212\246\331"
  60      F28846D9 
  60      8526F6E6 
  60      8AA6D9
  61 02a3 45CC5E7D 		.ascii	"E\314^}\250f\276\314\344\354\"\234\2444\202mJ\350\360"
  61      A866BECC 
  61      E4EC229C 
  61      A434826D 
  61      4AE8F0
  62 02b6 85EF42C8 		.ascii	"\205\357B\310\372\336\323:4\301\375>\224\273\316\353"
  62      FADED33A 
  62      34C1FD3E 
  62      94BBCEEB 
  63 02c6 CAD22D8D 		.ascii	"\312\322-\215r\217\205&q\276\231$\216\207\221Dq\030"
  63      728F8526 
  63      71BE9924 
  63      8E879144 
  63      7118
  64 02d8 499C60EE 		.ascii	"I\234`\356\216\332\254t'\221W\353\376\207\177\005\231"
  64      8EDAAC74 
  64      279157EB 
  64      FE877F05 
  64      99
ARM GAS  C:\Users\Sava\AppData\Local\Temp\cciOOXM3.s 			page 5


  65 02e9 46E88A85 		.ascii	"F\350\212\205\364\223L\337W\227\267\313h\346\335\230"
  65      F4934CDF 
  65      5797B7CB 
  65      68E6DD98 
  66 02f9 070D5BBB 		.ascii	"\007\015[\273\022<\222\340\024S\353}\333\337\013a:B"
  66      123C92E0 
  66      1453EB7D 
  66      DBDF0B61 
  66      3A42
  67 030b 99A75B6E 		.ascii	"\231\247[nZ\322\224\2513\224y\246\345\246g[\234\351"
  67      5AD294A9 
  67      339479A6 
  67      E5A6675B 
  67      9CE9
  68 031d B9D02EAB 		.ascii	"\271\320.\253\177\277\351.;\317\344\237\262\3632#\345"
  68      7FBFE92E 
  68      3BCFE49F 
  68      B2F33223 
  68      E5
  69 032e 42E9F3B6 		.ascii	"B\351\363\266\226\343\335e\036\223\027B\351\372\023"
  69      96E3DD65 
  69      1E931742 
  69      E9FA13
  70 033d 63BC37C2 		.ascii	"c\2747\302\276hb\357\303\244\233\260\376\301D.m\306"
  70      BE6862EF 
  70      C3A49BB0 
  70      FEC1442E 
  70      6DC6
  71 034f BAD4D472 		.ascii	"\272\324\324r\207\313\220M+\206\251\351~4\325q\2437"
  71      87CB904D 
  71      2B86A9E9 
  71      7E34D571 
  71      A337
  72 0361 AAE93A5E 		.ascii	"\252\351:^2%r\261\231D\312\302\251\343e\0239\267\031"
  72      322572B1 
  72      9944CAC2 
  72      A9E36513 
  72      39B719
  73 0374 EB2B2676 		.ascii	"\353+&vM3\354\253\246Z\2466W\313ka\231_\017\247\226"
  73      4D33ECAB 
  73      A65AA636 
  73      57CB6B61 
  73      995F0FA7 
  74 0389 37C221DF 		.ascii	"7\302!\3374\2213+\232\316\243<\254\276\251\010\253\271"
  74      3491332B 
  74      9ACEA33C 
  74      ACBEA908 
  74      ABB9
  75 039b 2B4DEC6F 		.ascii	"+M\354o\233\311\344_\246\346No\256\271o\205\325\334"
  75      9BC9E45F 
  75      A6E64E6F 
  75      AEB96F85 
  75      D5DC
  76 03ad FF36B17D 		.ascii	"\3776\261}\315\244r;\234\366\276\023V\"w\303j\223\237"
  76      CDA4723B 
  76      9CF6BE13 
  76      562277C3 
ARM GAS  C:\Users\Sava\AppData\Local\Temp\cciOOXM3.s 			page 6


  76      6A939F
  77 03c0 C2EA9DFF 		.ascii	"\302\352\235\377\204\325;\3775\261/7\223\311=S\357d"
  77      84D53BFF 
  77      35B12F37 
  77      93C93D53 
  77      EF64
  78 03d2 16AA4DF7 		.ascii	"\026\252M\367NU\350jB\307\305\324,\177\243+qu\213W\342"
  78      4E55E86A 
  78      42C7C5D4 
  78      2C7FA32B 
  78      71758B57 
  79 03e7 9A962FEF 		.ascii	"\232\226/\357\265-\3363\356\267\334\364A\2133\375\031"
  79      B52DDE33 
  79      EEB7DCF4 
  79      418B33FD 
  79      19
  80 03f8 8F492D38 		.ascii	"\217I-8F\355\231\351\327\353\353=\272\377\260\265\""
  80      46ED99E9 
  80      D7EBEB3D 
  80      BAFFB0B5 
  80      22
  81 0409 EAB7A090 		.ascii	"\352\267\240\220\006\215P\205\347(\324Y\201\216\375"
  81      068D5085 
  81      E728D459 
  81      818EFD
  82 0418 363C905B 		.ascii	"6<\220[\355\024\034\024\234\374[\300\005t\262w#`\213"
  82      ED141C14 
  82      9CFC5BC0 
  82      0574B277 
  82      23608B
  83 042b A0104921 		.ascii	"\240\020I!\212\217\373\321@\207\367\030\002\236\241"
  83      8A8FFBD1 
  83      4087F718 
  83      029EA1
  84 043a F02C85E7 		.ascii	"\360,\205\347\370D\337\212\213x\236\213h\315E\274\200"
  84      F844DF8A 
  84      8B789E8B 
  84      68CD45BC 
  84      80
  85 044b 5FDADB60 		.ascii	"_\332\333`p\264\245\273v\030\234\355\351\216~\0068:"
  85      70B4A5BB 
  85      76189CED 
  85      E98E7E06 
  85      383A
  86 045d 91F44585 		.ascii	"\221\364E\205\362\177\011o]\235)\304Rx\231B\027\"vU"
  86      F27F096F 
  86      5D9D29C4 
  86      52789942 
  86      17227655 
  87 0471 A86ADDE8 		.ascii	"\250j\335\350\271;\205\036\024zR\350E\241\267B\265\356"
  87      B93B851E 
  87      147A52E8 
  87      45A1B742 
  87      B5EE
  88 0483 43B77D29 		.ascii	"C\267})\364\243\360\012\205\376\024\006Px\225\302k\024"
  88      F4A3F00A 
  88      85FE1406 
ARM GAS  C:\Users\Sava\AppData\Local\Temp\cciOOXM3.s 			page 7


  88      507895C2 
  88      6B14
  89 0495 5E57A87D 		.ascii	"^W\250}\342\350v \205A\024\006S\030Ba(\205a\024\206"
  89      E2E87620 
  89      85411406 
  89      53184261 
  89      28856114 
  90 04aa 53184161 		.ascii	"S\030Aa\244B\3159\212nGs\365\306p\365\306r\365\336`"
  90      A442CD39 
  90      8A6E4773 
  90      F5C670F5 
  90      C672F5DE 
  91 04bf 641C23E3 		.ascii	"d\034#\343\031\231\300\310DF&12\231\221)\214Led\032"
  91      1999C0C8 
  91      44462631 
  91      32999129 
  91      8C4C6564 
  92 04d4 23D31999 		.ascii	"#\323\031\231\301\310LFf12\233\2219T\367\271\324H\363"
  92      C1C84C46 
  92      6631329B 
  92      913954F7 
  92      B9D448F3 
  93 04e8 E86E3E35 		.ascii	"\350n>5\334\233t\267\2000E\271G'd\245J\305\017\255\022"
  93      DC9B74B7 
  93      803045B9 
  93      472764A5 
  93      4AC50FAD 
  94 04fd E2AB930A 		.ascii	"\342\253\223\012\013\255t`\366h\370oU*\301\223\341-"
  94      0BAD7460 
  94      F668F86F 
  94      552AC193 
  94      E12D
  95 050f 0681D811 		.ascii	"\006\201\330\021\304\221\265'\261|\273\203N\315V\250"
  95      C491B527 
  95      B17CBB83 
  95      4ECD56A8 
  96 051f 07F81FCE 		.ascii	"\007\370\037\316&d\355\365>\266\010\226\003\211\310"
  96      2664EDF5 
  96      3EB60896 
  96      0389C8
  97 052e 5ABBBEBA 		.ascii	"Z\273\276\272\300\"X\267Tx\310,\264\037\"HN\344\011"
  97      C02258B7 
  97      5478C82C 
  97      B41F2248 
  97      4EE409
  98 0541 E0648A26 		.ascii	"\340d\212& \267\007\347(\225g\023\317\021\010\005\226"
  98      20B707E7 
  98      28956713 
  98      CF110805 
  98      96
  99 0552 66A3D21E 		.ascii	"f\243\322\036\031\245I\237H\344!\351\330\226\007G\254"
  99      19A5499F 
  99      48E421E9 
  99      D8960747 
  99      AC
 100 0563 8254AEC0 		.ascii	"\202T\256\300/\2620\273\340D!M\224u\301(+\306\243E\007"
 100      2FB230BB 
ARM GAS  C:\Users\Sava\AppData\Local\Temp\cciOOXM3.s 			page 8


 100      E044214D 
 100      9475C128 
 100      2BC6A345 
 101 0578 96F50C42 		.ascii	"\226\365\014B&\357g\021\017\365z\016a\345:$\374\350"
 101      26EF6711 
 101      0FF57A0E 
 101      61E53A24 
 101      FCE8
 102 058a B92EADA2 		.ascii	"\271.\255\242(\307\273\271\017#\251x;N\216\307ry\251"
 102      28C7BBB9 
 102      0F23A978 
 102      3B4E8EC7 
 102      7279A9
 103 059d A21700D4 		.ascii	"\242\027\000\324\246\031U\007\333\013n+4 \267\014\337"
 103      A6195507 
 103      DB0B6E2B 
 103      3420B70C 
 103      DF
 104 05ae 50013C6F 		.ascii	"P\001<o\000%\022h-\000O\265\2672I\366\303\013\010A\317"
 104      00251268 
 104      2D004FB5 
 104      B73249F6 
 104      C30B0841 
 105 05c3 A02CDA20 		.ascii	"\240,\332 \312,\231~[\244\004\376\362w\201\012O\202"
 105      CA2C997E 
 105      5BA404FE 
 105      F277810A 
 105      4F82
 106 05d5 136F87AC 		.ascii	"\023o\207\254@I{\263k\007D\3519\205\273\033\375\036"
 106      40497BB3 
 106      6B0744E9 
 106      3985BB1B 
 106      FD1E
 107 05e7 AF4D2AD3 		.ascii	"\257M*\323\372\354\242\2054&Qs\323\011\273\216\207\013"
 107      FAECA285 
 107      34265173 
 107      D309BB8E 
 107      870B
 108 05f9 FD147B90 		.ascii	"\375\024{\220\337\256\341+\007\324A\237:\225_J\324C"
 108      DFAEE12B 
 108      07D4419F 
 108      3A955F4A 
 108      D443
 109 060b 1F4CF0E9 		.ascii	"\037L\360\351|\234\240\253\350\303?\332V\251\350\323"
 109      7C9CA0AB 
 109      E8C33FDA 
 109      56A9E8D3 
 110 061b EE69F389 		.ascii	"\356i\363\211'\037\215|<\344\323\201\373\303\302\375"
 110      271F8D7C 
 110      3CE4D381 
 110      FBC3C2FD 
 111 062b 811D5C57 		.ascii	"\201\035\\W$;\257\023\216D\024\027\325\334:\353\024"
 111      243BAF13 
 111      8E441417 
 111      D5DC3AEB 
 111      14
 112 063c C3A70724 		.ascii	"\303\247\007$\250A\255\362\"\262\304\350)L\233'\240"
ARM GAS  C:\Users\Sava\AppData\Local\Temp\cciOOXM3.s 			page 9


 112      A841ADF2 
 112      22B2C4E8 
 112      294C9B27 
 112      A0
 113 064d 975025A0 		.ascii	"\227P%\240Z\351\323\031y\201\343)\026!\364}r\251n\257"
 113      5AE9D319 
 113      7981E329 
 113      1621F47D 
 113      72A96EAF 
 114 0661 263A640E 		.ascii	"&:d\016$\262\257'\305[\256\012\322\313\354\024+\234"
 114      24B2AF27 
 114      C55BAE0A 
 114      D2CBEC14 
 114      2B9C
 115 0673 1ECB39D6 		.ascii	"\036\3139\326\005\361@\247\256\010\241SE\326\321\233"
 115      05F140A7 
 115      AE08A153 
 115      45D6D19B 
 116 0683 2E72B2E0 		.ascii	".r\262\340oY\257\3140\351BZ\234`u\223\343\250:\251L"
 116      6F59AFCC 
 116      30E9425A 
 116      9C607593 
 116      E3A83AA9 
 117 0698 9A77C791 		.ascii	"\232w\307\221I>i\322\247G\340Tr\321TJR\261\303\273\213"
 117      493E69D2 
 117      A747E054 
 117      72D1544A 
 117      52B1C3BB 
 118 06ad 195E2E4B 		.ascii	"\031^.K\357\311V=\304\010,\226\225\353\2058\2523\016"
 118      EFC9563D 
 118      C4082C96 
 118      95EB8538 
 118      AA330E
 119 06c0 D41EB30A 		.ascii	"\324\036\263\012\265\003V\253\301\363\2717\322\004p"
 119      B50356AB 
 119      C1F3B937 
 119      D20470
 120 06cf C5C8A94F 		.ascii	"\305\310\251OCN\206Q_\221SC\323\366\303\352\005\326"
 120      434E8651 
 120      5F915343 
 120      D3F6C3EA 
 120      05D6
 121 06e1 F515A6F4 		.ascii	"\365\025\246\364\023\245\327\312\345\244?\342\2628O"
 121      13A5D7CA 
 121      E5A43FE2 
 121      B2384F
 122 06f0 9AD7A8DE 		.ascii	"\232\327\250\336\000\221~\377\340\364_\345R\007H\003"
 122      00917EFF 
 122      E0F45FE5 
 122      52074803 
 123 0700 397F5E43 		.ascii	"9\177^C\334\224\357\353\210\013\240\322\3107\316\224"
 123      DC94EFEB 
 123      880BA0D2 
 123      C837CE94 
 124 0710 EF4023DF 		.ascii	"\357@#\337\244|\231\314 \231\261\321\252\203E\032\203"
 124      A47C99CC 
 124      2099B1D1 
ARM GAS  C:\Users\Sava\AppData\Local\Temp\cciOOXM3.s 			page 10


 124      AA83451A 
 124      83
 125 0721 E43A2975 		.ascii	"\344:)uCX:88\215\241\210\233\3531L\030\014\015\256\307"
 125      43583A38 
 125      388DA188 
 125      9BEB314C 
 125      180C0DAE 
 126 0736 70CE6698 		.ascii	"p\316f\2304\220e\215@\334T\217\221\210\013\340A\232"
 126      3490658D 
 126      40DC548F 
 126      91880BE0 
 126      419A
 127 0748 4B40A368 		.ascii	"K@\243h,V\200l\343Q\330s)\245[oY}\260nU\002\375\320"
 127      2C56806C 
 127      E351D873 
 127      29A55B6F 
 127      597DB06E 
 128 0760 2B8A48D4 		.ascii	"+\212H\324\"\024E\327\370\010\220\254\372\200(\211G"
 128      221445D7 
 128      F80890AC 
 128      FA802889 
 128      47
 129 0771 4ED9C5F8 		.ascii	"N\331\305\370\242\331\364\371\027\311Y\232\241\370\334"
 129      A2D9F4F9 
 129      17C9599A 
 129      A1F8DC
 130 0780 8602F813 		.ascii	"\206\002\370\023\226\254k<\305?\026\232\257\222\212"
 130      96AC6B3C 
 130      C53F169A 
 130      AF928A
 131 078f B3E598A4 		.ascii	"\263\345\230\244\307\273y\311W\335\206\346\033\326\254"
 131      C7BB79C9 
 131      57DD86E6 
 131      1BD6AC
 132 079e 610D4FE7 		.ascii	"a\015O\347O\204\346\340\3465\333\245\206^Nn\273\267"
 132      4F84E6E0 
 132      E635DBA5 
 132      865E4E6E 
 132      BBB7
 133 07b0 FB7894A1 		.ascii	"\373x\224\2419\303\232\265\254\341\251\273Nh\2227\245"
 133      39C39AB5 
 133      ACE1A9BB 
 133      4E689237 
 133      A5
 134 07c1 7F2973D3 		.ascii	"\177)s\323hc\251\3109\020mh\312X\363"
 134      6863A9C8 
 134      39106D68 
 134      CA58F3
 135 07d0 296B2CA4 		.ascii	")k,\244\361\011M\336\265}Un\241\241\027=\271\247\377"
 135      F1094DDE 
 135      B57D556E 
 135      A1A1173D 
 135      B9A7FF
 136 07e3 56633734 		.ascii	"Vc74\017X\263\2365\3646\026\376\214\032^ \360I+\207"
 136      0F58B39E 
 136      35F43616 
 136      FE8C1A5E 
ARM GAS  C:\Users\Sava\AppData\Local\Temp\cciOOXM3.s 			page 11


 136      20F0492B 
 137 07f8 5531D474 		.ascii	"U1\324tTWZ\231\263\213\253d\267\216\226\003$\245\304"
 137      54575A99 
 137      B38BAB64 
 137      B78E9603 
 137      24A5C4
 138 080b D810C760 		.ascii	"\330\020\307`\0070\342;!\221\2618\025\330\312\026d\245"
 138      0730E23B 
 138      2191B138 
 138      15D8CA16 
 138      64A5
 139 081d 0ADD49C9 		.ascii	"\012\335I\311z\003\007\240\330\007NId\\\203\267\201"
 139      7A0307A0 
 139      D8074E49 
 139      645C83B7 
 139      81
 140 082e 8C379CEC 		.ascii	"\2147\234\354AN\232(\357\274dM \026o \0062\321p\362"
 140      414E9A28 
 140      EFBC644D 
 140      20166F20 
 140      0632D170 
 141 0843 5D90C824 		.ascii	"]\220\310$\312\222\234\034AN\026Q\336E\311\232,\235"
 141      CA929C1C 
 141      414E1651 
 141      DE45C99A 
 141      2C9D
 142 0855 527C6512 		.ascii	"R|e\022\231bdYb S\311\233\234\234ANV\241\273\"Y\323"
 142      99626459 
 142      622053C9 
 142      9B9C9C41 
 142      4E56A1BB 
 143 086c 8C562931 		.ascii	"\214V)1\220\351F\226\276\253\022\231a8\271\202\234\024"
 143      90E94696 
 143      BEAB1299 
 143      6138B982 
 143      9C14
 144 087e 519E310F 		.ascii	"Q\2361\017f6\324\245B\"\263\214,K\014d6eINn\261\272"
 144      6636D4A5 
 144      4222B38C 
 144      2C4B0C64 
 144      3665494E 
 145 0895 577BEB36 		.ascii	"W{\3536M\027_\315\361hZ\310\0367\027\321\240=%\177}"
 145      4D175FCD 
 145      F1685AC8 
 145      1E3717D1 
 145      A03D257F 
 146 08aa CE95C03D 		.ascii	"\316\225\300=%;`O\331\2655G\267\005l*\033Tc\223\333"
 146      253B604F 
 146      D9B53547 
 146      B7056C2A 
 146      1B546393 
 147 08bf 489BCADC 		.ascii	"H\233\312\334\300\375t\236G3\355\271\363\021~\312\302"
 147      C0FD749E 
 147      4733EDB9 
 147      F3117ECA 
 147      C2
 148 08d0 9C90D2B0 		.ascii	"\234\220\322\260\023\246Ra\363\003\013{\323\243AH\305"
ARM GAS  C:\Users\Sava\AppData\Local\Temp\cciOOXM3.s 			page 12


 148      13A65261 
 148      F3030B7B 
 148      D3A34148 
 148      C5
 149 08e1 1620FAD4 		.ascii	"\026 \372\324\025Kk\330-\323\251\254\005l\224}7\217"
 149      154B6BD8 
 149      2DD3A9AC 
 149      056C947D 
 149      378F
 150 08f3 073E6DB3 		.ascii	"\007>m\263\3742U\251\006\300Y`]\263\377C\034\302\266"
 150      FC3255A9 
 150      06C05960 
 150      5DB3FF43 
 150      1CC2B6
 151 0906 73B8324F 		.ascii	"s\2702O\260o\3055w\262\243\026\3434g>\256\2523]\033"
 151      B06FC535 
 151      77B2A316 
 151      E334673E 
 151      AEAA335D 
 152 091b 0656838A 		.ascii	"\006V\203\212s\303\272\001\011\343l\345\030'\332s\220"
 152      73C3BA01 
 152      09E36CE5 
 152      1827DA73 
 152      90
 153 092c 30C59180 		.ascii	"0\305\221\200\204\351\316s\030g\271\266\"M\303\011c"
 153      84E9CE73 
 153      1867B9B6 
 153      224DC309 
 153      63
 154 093d DD8A84F1 		.ascii	"\335\212\204\361\266Z\214\223\354\371H\233\352\330\200"
 154      B65A8C93 
 154      ECF9489B 
 154      EAD880
 155 094c 8419CE72 		.ascii	"\204\031\316r\214\263]9\003\261k#\270k\217\224\361R"
 155      8CB35D39 
 155      03B16B23 
 155      B86B8F94 
 155      F152
 156 095e 4AB9D0FB 		.ascii	"J\271\320\373\324k\376\365\326\270\257\365\325@o\003"
 156      D46BFEF5 
 156      D6B8AFF5 
 156      D5406F03 
 157 096e 21438DE3 		.ascii	"!C\215\343Q\020)\307\023\316m\233r\033\342c\370\305"
 157      511029C7 
 157      13CE6D9B 
 157      721BE263 
 157      F8C5
 158 0980 20D5FB1E 		.ascii	" \325\373\036u\035\266@\233\245+\027/]\260t\345o\336"
 158      751DB640 
 158      9BA52B17 
 158      2F5DB074 
 158      E56FDE
 159 0993 59B26221 		.ascii	"Y\262b!}.\\\266t\331\362\336\013\025\370\003\254\200"
 159      7D2E5CB6 
 159      74D9F2DE 
 159      0B15F803 
 159      AC80
ARM GAS  C:\Users\Sava\AppData\Local\Temp\cciOOXM3.s 			page 13


 160 09a5 95B6E58B 		.ascii	"\225\266\345\213V\374q\351\007\360\001\274\017\3579"
 160      56FC71E9 
 160      07F001BC 
 160      0FEF39
 161 09b4 972F7AE7 		.ascii	"\227/z\347\355%\357\376~\321r\204\027/Y\366.\374\016"
 161      ED25EFFE 
 161      7ED17284 
 161      172F59F6 
 161      2EFC0E
 162 09c7 16C3F2FF 		.ascii	"\026\303\362\377\003\371\022\273S"
 162      03F912BB 
 162      53
 163              		.text
 164              		.section	.gnu.lto_lv_color_rgb_to_hsv.d4b9d6d,"",%progbits
 165 0000 789C9558 		.ascii	"x\234\225XkL\024W\024\2363\263;\273\260\273\260\002"
 165      6B4C1457 
 165      149E33B3 
 165      3BBBB0BB 
 165      B002
 166 0012 3E818A0F 		.ascii	">\201\212\017\004E\\\224\372D\215\361\177\377\364G\223"
 166      04455C94 
 166      FA448DF1 
 166      7FFFF447 
 166      93
 167 0023 26364D35 		.ascii	"&6M5\2515\301j\2641M\323\324\201e\301\032\023\253U\254"
 167      A935C16A 
 167      B4314DD3 
 167      D48165C1 
 167      1A13AB55 
 168 0038 56536D6B 		.ascii	"VSmk\005\224\312\372,\242\262\240@\213\370\026\025\304"
 168      0594CAFA 
 168      2CA2B2A0 
 168      408BF816 
 168      15C4
 169 004a FA02EBBB 		.ascii	"\372\002\353\273\260`m\233\002=\347\336\273\310\356"
 169      B0606D9B 
 169      023DE7DE 
 169      BBC8EE
 170 0059 B01B7613 		.ascii	"\260\033v\023\276\3319\367;\347\236\373}w\036\213A\002"
 170      BED939F7 
 170      3BE79EFB 
 170      7D771E8B 
 170      4102
 171 006b 893E1543 		.ascii	"\211>\025C$i!\036\313\350$N\002Y\302?Y\221$M6 \030\024"
 171      2469211E 
 171      CBE8244E 
 171      0259C23F 
 171      5991244D 
 172 0083 3062C4C0 		.ascii	"0b\304\300\320(\253\0247Q\\\0053FL\014\315r\004\305"
 172      D028AB14 
 172      37515C05 
 172      33464C0C 
 172      CD7204C5 
 173 0097 23291E01 		.ascii	"#)\036\0011\030\211\224-\024\261R\304\302\"V\331F\221"
 173      31188994 
 173      2D14B152 
 173      C4C22256 
ARM GAS  C:\Users\Sava\AppData\Local\Temp\cciOOXM3.s 			page 14


 173      D94691
 174 00aa 288AD800 		.ascii	"(\212\330\000'\205(9\232\"v\212D\263\210\235\341\020"
 174      27852839 
 174      9A22768A 
 174      44B3889D 
 174      E110
 175 00bc C68F8158 		.ascii	"\306\217\201X\304X\240.AZ++\006\243j2GDZ\254\266\250"
 175      C458A02E 
 175      415A2B2B 
 175      06A36A32 
 175      47445AAC 
 176 00d2 68FB9098 		.ascii	"h\373\220\230XX\013/\345n\031.\347\225\355T\272d\227"
 176      58580B2F 
 176      E56E192E 
 176      E795ED54 
 176      BA6497
 177 00e5 825DE269 		.ascii	"\202]\342i\307\371\035\017\242\350\024 \011O\267\357"
 177      C7F91D0F 
 177      A2E81420 
 177      094FB7EF 
 178 00f5 A93D6198 		.ascii	"\251=a\230\270O\303\317\335\232\177\027l\326\\\251."
 178      B84FC3CF 
 178      DD9A7F17 
 178      6CD65CA9 
 178      2E
 179 0106 45967A65 		.ascii	"E\226ze\011\212 \001\366A\002\325/\206\211\310m<R_\013"
 179      098A2001 
 179      F64102D5 
 179      2F8689C8 
 179      6D3C525F 
 180 011b 4A3C4854 		.ascii	"J<HTf\367\343N%e\257\246\345jZ\371{\232\342R\024(\001"
 180      66F7E34E 
 180      2565AFA6 
 180      E56A5AF9 
 180      7B9AE252 
 181 0132 85F23213 		.ascii	"\205\3622\023 #A\302\200\004\373!\005\271g\212\232\032"
 181      202341C2 
 181      8004FB21 
 181      05B9678A 
 181      9A1A
 182 0144 552591E5 		.ascii	"U%\221\345\225\236{\321l\025ywD\336\001]^)\313\333\231"
 182      959E7BD1 
 182      6C157977 
 182      44DE015D 
 182      5E29CBDB 
 183 0159 5FD2A628 		.ascii	"_\322\246(\243Y\336\323|\357\213(\221\267\265\326\242"
 183      A359DED3 
 183      7CEF8B28 
 183      91B7B5D6 
 183      A2
 184 016a 6550E2CF 		.ascii	"eP\342\317\272\304\203\220B\354\252m\335\036Y\031\303"
 184      BAC48390 
 184      42ECAA6D 
 184      DD1E5919 
 184      C3
 185 017b 321BDC39 		.ascii	"2\033\3349\247,\311?P\246\347V\335\260m\232''\211\222"
 185      A72CC93F 
ARM GAS  C:\Users\Sava\AppData\Local\Temp\cciOOXM3.s 			page 15


 185      50A6E756 
 185      DDB06D9A 
 185      27278992 
 186 018f CBFA27D3 		.ascii	"\313\372'\323\007\271\0336Vl5*\251,\257r\357\201\253"
 186      07B91B36 
 186      566C352A 
 186      A92CAF72 
 186      EF81AB
 187 01a2 D13C4FAB 		.ascii	"\321<O\253X\2449\027P\322\241\001\222\276{\340\274\015"
 187      58A43917 
 187      50D2A101 
 187      92BE7BE0 
 187      BC0D
 188 01b4 8A8325D5 		.ascii	"\212\203%\325\256\377\366\261\231\2224\315\323T0,G\363"
 188      AEFFF6B1 
 188      999234CD 
 188      D354302C 
 188      47F3
 189 01c6 E4E26432 		.ascii	"\344\342d2\034\341y\257%e\231\367\335=[mj\036\261\223"
 189      1CE179AF 
 189      256599F7 
 189      DD3D5B6D 
 189      6A1EB193 
 190 01da E02824C3 		.ascii	"\340($\303a\374sC2\311\217\252\037\003\025\335MG\342"
 190      61FC7343 
 190      32C98FAA 
 190      1F0315DD 
 190      4D47E2
 191 01ed 8ED24735 		.ascii	"\216\322G5f%\223M\261\356\342O\371\242/\317\235\202"
 191      6625934D 
 191      B1EEE24F 
 191      F9A22FCF 
 191      9D82
 192 01ff A86D459E 		.ascii	"\250mE\236Ml=\307\373\267F\225\250\304/\220\214)\307"
 192      4D6C3DC7 
 192      FBB74695 
 192      A8C42F90 
 192      8C29C7
 193 0212 765F2FB1 		.ascii	"v_/\261*Y,\375FS\315\337\252Ho\257\263\254/\3133Sv\271"
 193      2A592CFD 
 193      4653CDDF 
 193      AA486FAF 
 193      B3AC2FCB 
 194 022a 5FB69B67 		.ascii	"_\266\233g\237`\331\207z\252J\215\"\343U\235\015'$\001"
 194      9F60D987 
 194      7AAA4A8D 
 194      22E3559D 
 194      0D272401 
 195 023e 0D92BF10 		.ascii	"\015\222\277\020P\301\310\336-\273\276W\210\274N\363"
 195      50C1C8DE 
 195      2DBBBE57 
 195      88BC4EF3 
 196 024e 7417C4E5 		.ascii	"t\027\304\345\024q\001\244\300\325\303IF\177\356\256"
 196      147101A4 
 196      C0D5C349 
 196      467FEEAE 
 197 025e DA65137A 		.ascii	"\332e\023z}]?t{\221'\017\351F=\375T ];tI\203 \344\323"
ARM GAS  C:\Users\Sava\AppData\Local\Temp\cciOOXM3.s 			page 16


 197      7D5D3F74 
 197      7B91270F 
 197      E9463DFD 
 197      54205D3B 
 198 0278 E1902B75 		.ascii	"\341\220+u\344\253\255\273A\373\022\375V\365lO\240$"
 198      E4ABADBB 
 198      41FB12FD 
 198      56F56C4F 
 198      A024
 199 028a DAE5DBC8 		.ascii	"\332\345\333\310\246\335\241S\244JW\371x[\360\312\325"
 199      A6DDA153 
 199      A44A57F9 
 199      785BF0CA 
 199      D5
 200 029b 419B1E80 		.ascii	"A\233\036\200|F\327\306\361\226`m\234\325\271\270\245"
 200      7C46D7C6 
 200      F196606D 
 200      9CD5B9B8 
 200      A5
 201 02ac 1E7DD7CC 		.ascii	"\036}\327\314\003pkt\256\270\353\337\010\356Jm8B\327"
 201      03706B74 
 201      AEB8EBDF 
 201      08EE4A6D 
 201      3842D7
 202 02bf 8543FE55 		.ascii	"\205C\376UG\356\360\2712\000\3737\035\273\274-8\273"
 202      47EEF0B9 
 202      3200FB37 
 202      1DBBBC2D 
 202      38BB
 203 02d1 3E9C46CE 		.ascii	">\234F\316\205Cn\320\221o\204\350\372<c\327\364\276"
 203      85436ED0 
 203      916F84E8 
 203      FA3C63D7 
 203      F4BE
 204 02e3 F244F3FB 		.ascii	"\362D\363\3733\335\256\257\2647\354\262\360\373\263"
 204      33DDAEAF 
 204      B437ECB2 
 204      F0FBB3
 205 02f2 9DAEF6D3 		.ascii	"\235\256\366\323\235\357\012\207+\357b)\027\2262\261"
 205      9DEF0A87 
 205      2BEF6229 
 205      179632B1 
 206 0302 5217B1D4 		.ascii	"R\027\261\324\005_\251K:\337\216\256\037\035\334\267"
 206      055FA94B 
 206      3ADF8EAE 
 206      1F1DDCB7 
 207 0312 CBE12CEA 		.ascii	"\313\341,\352J8\344\253:rg\010\005\256\351\330\025!"
 207      4A38E4AB 
 207      3A726708 
 207      05AEE9D8 
 207      1521
 208 0324 7C6B0CA7 		.ascii	"|k\014\247\221\353\341\220o\350\310\333B\364q\223\261"
 208      91EBE190 
 208      6FE8C8DB 
 208      42F47193 
 208      B1
 209 0335 07E94C53 		.ascii	"\007\351LS \271\014\333\240{\342\000\334f\235\213\345"
ARM GAS  C:\Users\Sava\AppData\Local\Temp\cciOOXM3.s 			page 17


 209      20B90CDB 
 209      A07BE200 
 209      DC669D8B 
 209      E5
 210 0346 F5215CBC 		.ascii	"\365!\\\274\025\316\022[\302!\337\326\221_\206p\361"
 210      15CE125B 
 210      C221DFD6 
 210      915F8670 
 210      F1
 211 0357 771DFB54 		.ascii	"w\035\373T\010\365\356\204\323\310\335p\310\367t\344"
 211      08F5EE84 
 211      D3C8DD70 
 211      C8F774E4 
 212 0367 ED21FAB8 		.ascii	"\355!\372\270\037\216\213\017\302p\261\025\037\342\375"
 212      1F8E8B0F 
 212      C270B115 
 212      1FE2FD
 213 0376 1EE607DF 		.ascii	"\036\346\007\337\366h\275\275N\315s\303Tu:r!\320\213"
 213      F668BDBD 
 213      4ECD73C3 
 213      54753A72 
 213      21D08B
 214 0389 8A4C6004 		.ascii	"\212L`\004z?R\201\336vL@\257.f\012G\020D\262'\270\205"
 214      7A3F5281 
 214      DE764C40 
 214      AF2E660A 
 214      471044B2 
 215 03a0 BE5A096C 		.ascii	"\276Z\011l\354\231l\307\257\2068\004\343P\202a\004\303"
 215      EC996CC7 
 215      AF863804 
 215      E3508261 
 215      04C3
 216 03b2 11D41134 		.ascii	"\021\324\02140\222\276\215\"\210\247\323D\202$\242\214"
 216      3092BE8D 
 216      2288A7D3 
 216      448224A2 
 216      8C
 217 03c3 21184B30 		.ascii	"!\030K0\216`<A2\301\004\202\024\202T\004\323$\372\226"
 217      8E603C41 
 217      32C10482 
 217      14825404 
 217      D324FA96 
 218 03d7 46309920 		.ascii	"F0\231 \235`\012\201\203 \203`*\3014\"g\022L\247\323"
 218      9D600A81 
 218      83208360 
 218      2AC13422 
 218      67124CA7 
 219 03ec 19043309 		.ascii	"\031\0043\011f\021\314&\230C\220E0\227`\036\221\347"
 219      6611CC26 
 219      98439045 
 219      3097601E 
 219      91E7
 220 03fe 1348523B 		.ascii	"\023HR;\275\333H\0352\036\224{\220w\301Y\2711\201^u"
 220      BDDB481D 
 220      321E947B 
 220      9077C159 
 220      B931815E 
ARM GAS  C:\Users\Sava\AppData\Local\Temp\cciOOXM3.s 			page 18


 221 0413 9C8AD189 		.ascii	"\234\212\321\211\217:>\210\357\327\312Cp6\253|\304\354"
 221      8F3A3E88 
 221      EFD7CA43 
 221      7036AB7C 
 221      C4EC
 222 0425 544C38CE 		.ascii	"TL8\316\206\014\376C\021lHeCF6\224[\010|(\322\251\200"
 222      860CFE43 
 222      116C4865 
 222      43463694 
 222      5B087C28 
 223 043c 8453DC74 		.ascii	"\204S\334t\336\213\366\237\301\013\200E\225\256y\230"
 223      DE8BF69F 
 223      C10B8045 
 223      95AE7998 
 224 044c 6FA04C95 		.ascii	"o\240L\225\027m\311\257\036\315\231\226~3\232\304\240"
 224      176DC9AF 
 224      1ECD9996 
 224      7E339AC4 
 224      A0
 225 045d 98D1DA6F 		.ascii	"\230\321\332oF\263\377\2146'ZK\347\356n\267B!\3344m"
 225      46B3FF8C 
 225      36275A4B 
 225      E7EE6EB7 
 225      4221DC34 
 226 0472 8FF67FA5 		.ascii	"\217\366\177\245:J\331~\234J\257Z\2707z\230\006\320"
 226      3A4AD97E 
 226      9C4AAF5A 
 226      B8377A98 
 226      06D0
 227 0484 060ECCA1 		.ascii	"\006\016\314\241\204\023\035\"\301\251\330\373r\322"
 227      84131D22 
 227      C1A9D8FB 
 227      72D2
 228 0492 FDD90FC1 		.ascii	"\375\331\017\301A\253iv\276\361\232x\360Y\371?6zZ\030"
 228      41AB6976 
 228      BEF19A78 
 228      F059F93F 
 228      367A5A18 
 229 04a6 40823FF8 		.ascii	"@\202?\370\016\364\202\214\375\253\033*Wb\257&\3522"
 229      0EF4828C 
 229      FDAB1B2A 
 229      5762AF26 
 229      EA32
 230 04b8 8277D955 		.ascii	"\202w\331U\326\3231PW\263]\212\231\317\303~L<\002\007"
 230      D6D33150 
 230      57B35D8A 
 230      99CFC37E 
 230      4C3C0207 
 231 04cc 120A5DD5 		.ascii	"\022\012]\325\027MT\331\214\225\037ce*\320\036\264\200"
 231      174D54D9 
 231      8C951F63 
 231      652AD01E 
 231      B480
 232 04de 6894BDB7 		.ascii	"h\224\275\267>\361/\200&\300S^\240\320\335\233cd\357"
 232      3EF12F80 
 232      26C0535E 
 232      A0D0DD9B 
ARM GAS  C:\Users\Sava\AppData\Local\Temp\cciOOXM3.s 			page 19


 232      6364EF
 233 04f1 B527F945 		.ascii	"\265'\371E\302D\214\344\355y\013.\024\275\303\227\026"
 233      C2448CE4 
 233      ED790B2E 
 233      14BDC397 
 233      16
 234 0502 2764F19A 		.ascii	"'d\361\232\370\371P4\023\317\235\337\3447\030xd\030"
 234      F8F95034 
 234      13CF9DDF 
 234      E4371878 
 234      6418
 235 0514 230DA5E0 		.ascii	"#\015\245\340\216\374\006\231\007\207c\234Dq\265\026"
 235      8EFC0699 
 235      0787639C 
 235      4471B516 
 236 0524 9B696615 		.ascii	"\233if\025z\001\236\361\251O\354y\223\223F\004\323\367"
 236      7A019EF1 
 236      A94FEC79 
 236      93934604 
 236      D3F7
 237 0536 39EACBDA 		.ascii	"9\352\313\332h1r\346H$\323\004e\302\370Ql\206\221\202"
 237      683172E6 
 237      4824D304 
 237      65C2F851 
 237      6C869182 
 238 054a 242C8FC7 		.ascii	"$,\217\307\270\324\267\005\202\372\315\204yA~\307\263"
 238      B8D4B705 
 238      82FACD84 
 238      79417EC7 
 238      B3
 239 055b 6EDC3587 		.ascii	"n\3345\207\204\337\211\003\364\303\330\177\006\370\235"
 239      84DF8903 
 239      F4C3D87F 
 239      06F89D
 240 056a E8331825 		.ascii	"\3503\030%\263\010G\333k\274\203p\264\035\034>\013\013"
 240      B30847DB 
 240      6BBC8370 
 240      B41D1C3E 
 240      0B0B
 241 057c DDB5B97A 		.ascii	"\335\265\271z\007\254\374ZlvVn1\365\355d\243\230\313"
 241      07ACFC5A 
 241      6C76566E 
 241      31F5ED64 
 241      A398CB
 242 058f E6B3A7B6 		.ascii	"\346\263\247\266\3703>\230D\333\277\237=c\360\212`\366"
 242      F8333E98 
 242      44DBBF9F 
 242      3D63F08A 
 242      60F6
 243 05a1 08A1C632 		.ascii	"\010\241\3062\312\030n\316Y\261\316q\030\3076\353:\037"
 243      CA186ECE 
 243      59B1CE71 
 243      18C736EB 
 243      3A1F
 244 05b3 5D8D2073 		.ascii	"]\215 s\214\220\006\035\274)oA\253\220||\200\361\311"
 244      8C90061D 
 244      BC296F41 
ARM GAS  C:\Users\Sava\AppData\Local\Temp\cciOOXM3.s 			page 20


 244      AB907C7C 
 244      80F1C9
 245 05c6 3EE345E5 		.ascii	">\343E\345\011\214\222\314\\\311o\021\266\247\260\342"
 245      098C92CC 
 245      5CC96F11 
 245      B6A7B0E2 
 246 05d6 1378A5FF 		.ascii	"\023x\245\377\204/\251\030\017\352K\200>^\362%\225-"
 246      842FA918 
 246      0FEA4B80 
 246      3E5EF225 
 246      952D
 247 05e8 36CAA744 		.ascii	"6\312\247D[\\\237\020\276\233R\264O\210\353\305\237"
 247      5B5C9F10 
 247      BE9B52B4 
 247      4F88EBC5 
 247      9F
 248 05f9 F3C1497C 		.ascii	"\363\301I|\341}\355\246\221j\375\332\235\314(ib\227"
 248      E17DEDA6 
 248      916AFDDA 
 248      9DCC2869 
 248      6297
 249 060b 0A21D231 		.ascii	"\012!\3221\376z\345\317\304\312\247\004\254\334\021"
 249      FE7AE5CF 
 249      C4CAA704 
 249      ACDC11
 250 061a B0F20C46 		.ascii	"\260\362\014Fq\210\225\213\253`*\253\226\341\277\362"
 250      7188958B 
 250      AB602AAB 
 250      96E1BFF2 
 251 062a 6918275A 		.ascii	"i\030'Z\241\310\314\304\020\375\206\3548\374\243\215"
 251      A1C8CCC4 
 251      10FD86EC 
 251      38FCA38D 
 252 063a 5FD08D12 		.ascii	"_\320\215\022t\212\3550\010u\272H\235L\246\200\335\247"
 252      748AED30 
 252      0875BA48 
 252      9D4CA680 
 252      DDA7
 253 064c C0C3E22F 		.ascii	"\300\303\342/x\361\351|\305}m\317\340[\243\257\355\231"
 253      78F1E97C 
 253      C57D6DCF 
 253      E05BA3AF 
 253      ED99
 254 065e 8C32832B 		.ascii	"\2142\203+pM(0\013\343\257\025\350\022\012\314\016P"
 254      704D2830 
 254      0BE3AF15 
 254      E8120ACC 
 254      0E50
 255 0670 604E8002 		.ascii	"`N\200\002Y\2142\207+\320*\024\230\313\252e\371+\200"
 255      598C3287 
 255      2BD02A14 
 255      98CBAA65 
 255      F92B80
 256 0683 B7F5B9FD 		.ascii	"\267\365\271\375\025\230\217!\\\343\236\356\222b\225"
 256      15988F21 
 256      5CE39EEE 
 256      926295
ARM GAS  C:\Users\Sava\AppData\Local\Temp\cciOOXM3.s 			page 21


 257 0692 2BB01FE0 		.ascii	"+\260\037\340\345\340\025\370\213\024\230\317\024\030"
 257      E5E015F8 
 257      8B1498CF 
 257      1418
 258 06a0 226EF89B 		.ascii	"\"n\370\233.\312\272\253(\206\215U\363\333\007E\351"
 258      2ECABAAB 
 258      28868D55 
 258      F3DB0745 
 258      E9
 259 06b1 FF2B773D 		.ascii	"\377+w=\233\215\263\216i\353\200~\005\303+\230\305\250"
 259      9B8DB38E 
 259      69EB807E 
 259      05C32B98 
 259      C5A8
 260 06c3 B1486D85 		.ascii	"\261Hm\205\034\273\244\341\223\356\011\344\332\331\017"
 260      1CBBA4E1 
 260      93EE09E4 
 260      DAD90F
 261 06d2 62DA66ED 		.ascii	"b\332f\3554%^\377#\262\327,\315^\224\275\346\375\345"
 261      34255EFF 
 261      23B2D72C 
 261      CD5E94BD 
 261      E6FDE5
 262 06e5 CB562FA1 		.ascii	"\313V/\241\343\222\025\331+VMY\"\301*X\012\213\325U"
 262      E39215D9 
 262      2B564D59 
 262      22C12A58 
 262      0A8BD555 
 263 06f9 4B17BFF5 		.ascii	"K\027\277\365\301\247\354\260\354c\345\243\325kL\313"
 263      C1A7ECB0 
 263      EC63E5A3 
 263      D56B4CCB 
 264 0709 3EFC64F9 		.ascii	">\374d\371\312)\031\3428\365\177\271It\014"
 264      CA2919E2 
 264      38F57FB9 
 264      49740C
 265              		.text
 266              		.section	.gnu.lto_.symbol_nodes.d4b9d6d,"",%progbits
 267 0000 789C6361 		.ascii	"x\234ca`dPa\000\002&\216z\006\206\011\347\030\030\200"
 267      60645061 
 267      0002268E 
 267      7A068609 
 267      E7181880 
 268 0014 D4AA4645 		.ascii	"\324\252FE\240\000g=#\212\000\003\000\217\270\007\220"
 268      A000673D 
 268      238A0003 
 268      008FB807 
 268      90
 269              		.text
 270              		.section	.gnu.lto_.refs.d4b9d6d,"",%progbits
 271 0000 789C6361 		.ascii	"x\234ca`\004B \000\000\0009\000\007"
 271      60044220 
 271      00000039 
 271      0007
 272              		.text
 273              		.section	.gnu.lto_.decls.d4b9d6d,"",%progbits
 274 0000 789CBD56 		.ascii	"x\234\275VYLTW\030\276\377\334\031\226a\321\010mI3\211"
ARM GAS  C:\Users\Sava\AppData\Local\Temp\cciOOXM3.s 			page 22


 274      594C5457 
 274      18BEFFDC 
 274      199661D1 
 274      086D4933 
 275 0015 542674FA 		.ascii	"T&t\372 J\265\306\364\251M\233\232\364\241\351K}\232"
 275      204AB5C6 
 275      F4A94D9B 
 275      9AF4A1E9 
 275      4B7D9A
 276 0028 640AC308 		.ascii	"d\012\303\010$\303\222\231\201\324\227\346\200\270\200"
 276      24C39299 
 276      81D497E6 
 276      80B880
 277 0037 B505EA8A 		.ascii	"\265\005\352\212\033\265\202X@67Pt\000\021Y\004A\001"
 277      1BB58258 
 277      40363750 
 277      74001159 
 277      044101
 278 004a 073714C1 		.ascii	"\0077\024\301\015\020\004\021\\B\377s\316\035\356\000"
 278      0D100411 
 278      5C42FF73 
 278      CE1DEE00 
 279 005a 83E9534F 		.ascii	"\203\351SO\374\231{\316\375\376\377\373\376\357\234"
 279      FC997BCE 
 279      FDFEFFFB 
 279      FEEF9C
 280 0069 73A35200 		.ascii	"s\243R\000\201\216J\265 \324\343\243\027\3064\016\021"
 280      818E4AB5 
 280      20D4E3A3 
 280      17C6340E 
 280      11
 281 007a D7D60BF2 		.ascii	"\327\326\013\362P`\334\303\030\025\346\017\272\356\207"
 281      5060DCC3 
 281      1815E60F 
 281      BAEE87
 282 0089 B1042310 		.ascii	"\261\004#\020\343\016\306y\2142\214O1B14\030\2271\032"
 282      E30EC679 
 282      8C328C4F 
 282      31423134 
 282      1897311A 
 283 009d 317EC468 		.ascii	"1~\304h\225\352+1n`\\\303h\303\350\300\000\251\246'"
 283      95EA2B31 
 283      6E605CC3 
 283      68C3E8C0 
 283      00A9A627 
 284 00b1 C60B8C31 		.ascii	"\306\013\2141\214q\214\227\030\023\030\2570&\347h\240"
 284      8C718C97 
 284      181318AF 
 284      3026E768 
 284      A0
 285 00c2 BABC5D34 		.ascii	"\272\274]4\014K\374\032\211\317C\322Au\321\336\236`"
 285      0C4BFC1A 
 285      89CF43D2 
 285      4175D1DE 
 285      9E60
 286 00d4 0C623C93 		.ascii	"\014b<\223\370F\245\337\2519u\337)\340\355\233\326\032"
 286      F846A5DF 
ARM GAS  C:\Users\Sava\AppData\Local\Temp\cciOOXM3.s 			page 23


 286      A93975DF 
 286      29E0ED9B 
 286      D61A
 287 00e6 CF5BE0A0 		.ascii	"\317[\340\240\257\201\016A\362lf\000\017\200\031\253"
 287      AF810E41 
 287      F26C6600 
 287      0F8019AB 
 288 00f6 6404C07C 		.ascii	"d\004\300|0+!\257\317\0010\377\331\220_\000'\346I\256"
 288      302B21AF 
 288      CF0130FF 
 288      D9905F00 
 288      27E649AE 
 289 010a 782735D2 		.ascii	"x'5\322\362G\020fT8\261.\365$\365\262\3309Ct6]\234\377"
 289      F2471066 
 289      5438B12E 
 289      F524F5B2 
 289      D8394374 
 290 0122 BBDD43C4 		.ascii	"\273\335C\304\232\370|o\252\340\273\260\"\202#\223\020"
 290      9AF87C6F 
 290      AAE0BBB0 
 290      22822393 
 290      10
 291 0133 4598EC4C 		.ascii	"E\230\354L\311\346\207\307\275\306\025\240Q\3034\320"
 291      C9E687C7 
 291      BDC615A0 
 291      51C334D0 
 292 0143 F960E594 		.ascii	"\371`\345\224\037\237\323\327'\355c\305Jq)}V\264W8\352"
 292      1F9FD3D7 
 292      27ED63C5 
 292      4A71297D 
 292      56B45738 
 293 0158 BD41A7CE 		.ascii	"\275A\247\316\247ez+^~\275\211\020\200\023\240\206\""
 293      A7657A2B 
 293      5E7EBD89 
 293      108013A0 
 293      8622
 294 016a 10E138D0 		.ascii	"\020\3418\320\252\230\207\177\267\021\222JF\216\020"
 294      AA98877F 
 294      B711924A 
 294      468E10
 295 0179 8F200156 		.ascii	"\217 \001Vi`\245F\200b\320\321\232\024\005\205\240\201"
 295      6960A546 
 295      8062D0D1 
 295      9A140585 
 295      A081
 296 018b 7F4043EB 		.ascii	"\177@C\353\037?\\p\311O,\002F0\264\363\3316q\206\300"
 296      1F3F5C70 
 296      C94F2C02 
 296      4630B4F3 
 296      D9367186 
 297 01a0 B15D5348 		.ascii	"\261]SH\310b(C\202\022\231\000\371\3343\224\272g\270"
 297      C8622843 
 297      82129900 
 297      F9DC3394 
 297      BA67B8
 298 01b3 FFBC7A9F 		.ascii	"\377\274z\237\247\222ZI\013E*\351Z\327\353\364l\345"
 298      A7925A49 
ARM GAS  C:\Users\Sava\AppData\Local\Temp\cciOOXM3.s 			page 24


 298      0B452AE9 
 298      5AD7EBF4 
 298      6CE5
 299 01c5 CC5A39B0 		.ascii	"\314Z9\260\305\274\327oFD\354<\024\235\230\026]\254"
 299      C5BCD76F 
 299      4644EC3C 
 299      149D9816 
 299      5DAC
 300 01d7 08E5565C 		.ascii	"\010\345V\\ln\314\367\025\013\271\237\365\323\257\354"
 300      6C6ECCF7 
 300      150BB99F 
 300      F5D3AFEC 
 301 01e7 8BF0DD12 		.ascii	"\213\360\335\0225(p\3321\322r\320\007\247\201jX\214"
 301      352870DA 
 301      31D272D0 
 301      07A7816A 
 301      588C
 302 01f9 8D74D4EE 		.ascii	"\215t\324\356}\347\003j\035SI6\021\265N\200\263(\351"
 302      7DE7036A 
 302      1D534936 
 302      11B54E80 
 302      B328E9
 303 020c 0C4A822A 		.ascii	"\014J\202*\324\031*\351<\205\213'qQ\262t\350{fi%\212"
 303      D4192AE9 
 303      3C858B27 
 303      7151B274 
 303      E87B6669 
 304 0222 3A2D771C 		.ascii	":-w\034\252\346[u!\353\326\200Z<\315\004(\216\366\221"
 304      AAE65B75 
 304      21EBD680 
 304      5A3CCD04 
 304      288EF691 
 305 0236 73CA8528 		.ascii	"s\312\205(\252\027\244pl\017-\242\246\236G\212s2E%H"
 305      AA17A470 
 305      6C0F2DA2 
 305      A69E478A 
 305      73324525 
 306 024b 1CAF77B7 		.ascii	"\034\257w\267\244\213\314\031\212\250\340\316\264\247"
 306      A48BCC19 
 306      8AA8E0CE 
 306      B4A7
 307 0259 951E1079 		.ascii	"\225\036\020y\263J\234\216^\315\351\363\347\315\006"
 307      B34A9C8E 
 307      5ECDE9F3 
 307      E7CD06
 308 0268 E3B4DB91 		.ascii	"\343\264\333\221V\011|\352\203\323\306\243Uo}\371T\205"
 308      56097CEA 
 308      83D3C6A3 
 308      556F7DF9 
 308      5485
 309 027a D3E6BC1D 		.ascii	"\323\346\274\035!\342E\246Yl\314\351\252\365A9\364\237"
 309      21E245A6 
 309      596CCCE9 
 309      AAF54139 
 309      F49F
 310 028c 3A87A0F4 		.ascii	":\207\240\364\021O\270\214\3249\304\213\375\362]M\315"
 310      114FB88C 
ARM GAS  C:\Users\Sava\AppData\Local\Temp\cciOOXM3.s 			page 25


 310      D439C48B 
 310      FDF25D4D 
 310      CD
 311 029d FD049CBB 		.ascii	"\375\004\234\273*\260u\001\3521\347\022\337\320\207"
 311      2AB07501 
 311      EA31E712 
 311      DFD087
 312 02ac 6F8AAB24 		.ascii	"o\212\253$z\017\234\036;^\267\305G\254\343\014\351\015"
 312      7A0F9C1E 
 312      3B5EB7C5 
 312      47ACE30C 
 312      E90D
 313 02be FDA755A0 		.ascii	"\375\247U\240\346\024R5\273k\265FV\255\011_7c5\312\333"
 313      E6145235 
 313      BB6BB546 
 313      56AD095F 
 313      376335CA 
 314 02d3 C8F8A996 		.ascii	"\310\370\251\226\245\354\031K\016\347\225\037\362\025"
 314      A5EC194B 
 314      0EE7951F 
 314      F215
 315 02e1 1B59498F 		.ascii	"\033YI\217\356c\243Y\012\320\006h\265:\355\021\346a"
 315      EE63A359 
 315      0AD00668 
 315      B53AED11 
 315      E661
 316 02f3 F5EE6F3B 		.ascii	"\365\356o;JI\346J\2721\320\012\001\262\357+(E8\375^"
 316      4A49E64A 
 316      BA31D00A 
 316      01B2EF2B 
 316      284538FD 
 317 0308 655124A1 		.ascii	"eQ$\241\273\251\220\367\205\243\321rh\307\015\272\006"
 317      BBA990F7 
 317      85A3D172 
 317      68C70DBA 
 317      06
 318 0319 5A68C3E8 		.ascii	"Zh\303\350\000-\273\214G\250\\\373\350\326\017\366\220"
 318      002DBB8C 
 318      47A85CFB 
 318      E8D60FF6 
 318      90
 319 032a 8C8FA914 		.ascii	"\214\217\251\024\270\202\033D3\032\200\237\360\025\032"
 319      B8821B44 
 319      331A809F 
 319      F0151A
 320 0339 B62B5731 		.ascii	"\266+W1\251\226\226\223R\3566\370\330k=\250Q\320\"e"
 320      A9969693 
 320      52EE36F8 
 320      D86B3DA8 
 320      51D02265 
 321 034d D4CECF60 		.ascii	"\324\316\317`\262\330!\260;\032\024\004;G\240 \035\000"
 321      B2D821B0 
 321      3B1A1404 
 321      3B47A020 
 321      1D00
 322 035f 997F4CE2 		.ascii	"\231\177L\342\247\325\352\026\256V\303\370\351G\246"
 322      A7D5EA16 
ARM GAS  C:\Users\Sava\AppData\Local\Temp\cciOOXM3.s 			page 26


 322      AE56C3F8 
 322      E947A6
 323 036e A4EB57F1 		.ascii	"\244\353W\361\021\263J\371\264\360Q\265/h\003\265:f"
 323      11B34AF9 
 323      B4F051B5 
 323      2F6803B5 
 323      3A66
 324 0380 943DAB49 		.ascii	"\224=\253I\261\227\330SE\316\324\011\201\356\234\312"
 324      B197D853 
 324      45CED409 
 324      81EE9CCA 
 325 0390 76EF1445 		.ascii	"v\357\024ES\247\272\321\251\033H\3305\313\245?3\026"
 325      53A7BAD1 
 325      A91B48D8 
 325      35CBA53F 
 325      3316
 326 03a2 F1CA54CF 		.ascii	"\361\312T\317u\224\271@q\336og\203/\355\0271\256\375"
 326      7594B940 
 326      71DE6F67 
 326      832FED17 
 326      31AEFD
 327 03b5 A2F8FD65 		.ascii	"\242\370\375e\375\203\336\342 \277Qe\223[{\324\020\250"
 327      FD83DEE2 
 327      20BF5165 
 327      935B7BD4 
 327      10A8
 328 03c7 732B087A 		.ascii	"s+\010zP\307B\2328\313\256&\240,\016\004\335\224o\026"
 328      50C7429A 
 328      38CBAE26 
 328      A02C0E04 
 328      DD946F16 
 329 03db 25655CF9 		.ascii	"%e\\\371\023d\2118\305\251N\326V\325\250@\027\310\023"
 329      13648938 
 329      C5A94ED6 
 329      56D5A840 
 329      17C813
 330 03ee 47333EA2 		.ascii	"G3>\242\211w0\361\226\234\350`\211\356\305\334~\217"
 330      897730F1 
 330      969CE860 
 330      89EEC5DC 
 330      7E8F
 331 0400 18FAB1CF 		.ascii	"\030\372\261\317\035\352\361\010\332\315\276\366\233"
 331      1DEAF108 
 331      DACDBEF6 
 331      9B
 332 040d 48B09295 		.ascii	"H\260\222\225\266c\362Ef\355]\010\302\277\027@\311\321"
 332      B663F245 
 332      66ED5D08 
 332      C2BF1740 
 332      C9D1
 333 041f 6995F5F7 		.ascii	"i\225\365\367\375\227\345\222\334\\\322\273/g\305\201"
 333      FD97E592 
 333      DC5CD2BB 
 333      2F67C581 
 334 042f 7242D231 		.ascii	"rB\3221SIqP \013\302G\372s\014E\012p\017\226ajy\315"
 334      53497150 
 334      200BC247 
ARM GAS  C:\Users\Sava\AppData\Local\Temp\cciOOXM3.s 			page 27


 334      FA730C45 
 334      0A700F96 
 335 0447 DD6C9578 		.ascii	"\335l\225xP\204\377\366\241\275\317?'9;ow*f\026\037"
 335      5084FFF6 
 335      A1BDCF3F 
 335      27393B6F 
 335      772A6616 
 336 045c F0C5E1B4 		.ascii	"\360\305\341\264\376^\351\013\032\204\323\332\313\373"
 336      FE5EE90B 
 336      1A84D3DA 
 336      CBFB
 337 046a 4B3CC532 		.ascii	"K<\3052^\271u,}\227\217X\301'[\376\256\233\362\023O"
 337      5EB9752C 
 337      7D978F58 
 337      C1275BFE 
 337      AE9BF213 
 338 047f B189EA6D 		.ascii	"\261\211\352m\345x\315\"\010\300\253\251e7.\323\316"
 338      E578CD22 
 338      08C0ABA9 
 338      65372ED3 
 338      CE
 339 0490 9D929B7D 		.ascii	"\235\222\233},\335\270\247h\323 \332\364\014\343\211"
 339      2CDDB8A7 
 339      68D320DA 
 339      F40CE389 
 340 04a0 EB59C2EB 		.ascii	"\353Y\302\353\034\335\321\267\231\224\376\314\344<\302"
 340      1CDDD1B7 
 340      9994FECC 
 340      E43CC2
 341 04af 8669CE2A 		.ascii	"\206i\316*\347\221\307\032\017A>K\273\232\331Yz\354"
 341      E791C71A 
 341      0F413E4B 
 341      BB9AD959 
 341      7AEC
 342 04c1 EEEEEC6F 		.ascii	"\356\356\354o\366\337C\354)\"+\324\357\246\320Y\227"
 342      F6DF43EC 
 342      29222BD4 
 342      EFA6D059 
 342      97
 343 04d2 5BBB6FBB 		.ascii	"[\273o\273\313\021\036\220\300n\2160\266\374\340iU\273"
 343      CB111E90 
 343      C06E8E30 
 343      B6FCE069 
 343      55BB
 344 04e4 289E612D 		.ascii	"(\236a-+~{\274\363\252\012\002tn\373\205\347\330\346"
 344      2B7E7BBC 
 344      F3AA0A02 
 344      746EFB85 
 344      E7D8E6
 345 04f7 FB5AE64D 		.ascii	"\373Z\346M\034nfGu\030\201C\362\006\323\236\030_\372"
 345      1C6E6647 
 345      75188143 
 345      F206D39E 
 345      185FFA
 346 050a 1FAD23A2 		.ascii	"\037\255#\242\353\371\241@\331\322\021v~\372\234\347"
 346      EBF9A140 
 346      D9D21176 
ARM GAS  C:\Users\Sava\AppData\Local\Temp\cciOOXM3.s 			page 28


 346      7EFA9CE7 
 347 051a E7C5812B 		.ascii	"\347\305\201+\331\312\231\363\223\224\222\267\205d\246"
 347      D9CA99F3 
 347      939492B7 
 347      8564A6
 348 0529 10F21503 		.ascii	"\020\362\025\003B\257\\\277\327\365\000\215\262\003"
 348      42AF5CBF 
 348      D7F5008D 
 348      B203
 349 0537 34505FDB 		.ascii	"4P_\333\352\033\362\027\377Z\340--\360\202\365\037\262"
 349      EA1BF217 
 349      FF5AE02D 
 349      2DF082F5 
 349      1FB2
 350 0549 D3C5FF67 		.ascii	"\323\305\377g\364\002B\0205y\375N\247\277\204:\344\221"
 350      F4024210 
 350      3579FD4E 
 350      A7BF843A 
 350      E491
 351 055b A1988D19 		.ascii	"\241\230\215\031c\230\342\252+m\236\022\346\354<\314"
 351      6398E2AA 
 351      2B6D9E12 
 351      E6EC3CCC 
 352 056b 38C39CD8 		.ascii	"8\303\234\330QfWI\230\216y\230\227\014\323C\006\226"
 352      51665749 
 352      988E7998 
 352      970CD343 
 352      0696
 353 057d 4B90DBF3 		.ascii	"K\220\333\363 \023\014Ru\263\245\311K\302L\314\303\274"
 353      20130C52 
 353      75B3A5C9 
 353      4BC24CCC 
 353      C3BC
 354 058f 62981B6D 		.ascii	"b\230\033m\2555N\311\025\353\310\2669}M2Pw\373\273\020"
 354      AD354EC9 
 354      15EBC8B6 
 354      397D4D32 
 354      5077FBBB 
 355 05a4 0973419D 		.ascii	"\011sA\235\312\353\214:!S\020\"\004\230\223\015\306"
 355      CAEB8C3A 
 355      21531022 
 355      0498930D 
 355      C6
 356 05b5 047382C5 		.ascii	"\004s\202\305\020cM6\330\022\014\226\350H\257u?\374"
 356      10634D36 
 356      D8120C96 
 356      E848AF75 
 356      3FFC
 357 05c7 14FC4D78 		.ascii	"\024\374Mx\270\340m0$\305\306\333\326\032l)`\374R\237"
 357      B8E06D30 
 357      24C5C6DB 
 357      D61A6C29 
 357      60FC529F 
 358 05db 684988B6 		.ascii	"hI\210\266D\304\005o\2105\233\254\301\272_\326\256\371"
 358      44C4056F 
 358      88359BAC 
 358      C1BA5FD6 
ARM GAS  C:\Users\Sava\AppData\Local\Temp\cciOOXM3.s 			page 29


 358      AEF9
 359 05ed 4C6FDC98 		.ascii	"Lo\334\230h1Y\255\372Dk\2021\330h1E\330\022,\372\325"
 359      683159AD 
 359      FA446B82 
 359      31D86831 
 359      45D8122C 
 360 0603 619FCF5E 		.ascii	"a\237\317^\210\215KL\260\330\364\321\361I\372\010K\234"
 360      888D4B4C 
 360      B0D8F4D1 
 360      F149FA08 
 360      4B9C
 361 0615 FE8BB0D5 		.ascii	"\376\213\260\325a\341\364iy|B\274i\271)\"2V\037\033"
 361      61E1F469 
 361      797C42BC 
 361      69B92922 
 361      32561F1B 
 362 0629 6F342745 		.ascii	"o4'E\231\364q\021\306\230\330x\223\336\020e\332\020"
 362      99F47111 
 362      C698D878 
 362      93DE1065 
 362      DA10
 363 063b 9164B619 		.ascii	"\221d\266\031l\033\023M\326\260\030\301S\222\222\374"
 363      6C1B134D 
 363      D6B018C1 
 363      539292FC 
 364 064b 7F29B16E 		.ascii	"\177)\261n\264\352\015V[\024\322\"\275\232{\021\276"
 364      B4EA0D56 
 364      5B14D222 
 364      BD9A7B11 
 364      BE
 365 065c C660F372 		.ascii	"\306`\363r>\210\026S\224*\332b2\305+#\315I\246 sr\264"
 365      3E881653 
 365      942ADA62 
 365      32C52B23 
 365      CD49A620 
 366 0673 598F86C6 		.ascii	"Y\217\206\306\305Z\215z\247\261\230\253\334\220d6\373"
 366      C55A8D7A 
 366      A7B198AB 
 366      DC906436 
 366      FB
 367 0684 3A1768A6 		.ascii	":\027h\246z\306v\333\002YF\227\255\301=\241[\203;\004"
 367      7AC676DB 
 367      02594697 
 367      ADC13DA1 
 367      5B833B04 
 368 0698 56888164 		.ascii	"V\210\201d\377\331\233\366/\327\334\274\016"
 368      FFD99BF6 
 368      2FD7DCBC 
 368      0E
 369              		.text
 370              		.section	.gnu.lto_.symtab.d4b9d6d,"",%progbits
 371 0000 6C765F63 		.ascii	"lv_color_hsv_to_rgb\000"
 371      6F6C6F72 
 371      5F687376 
 371      5F746F5F 
 371      72676200 
 372 0014 00       		.ascii	"\000"
ARM GAS  C:\Users\Sava\AppData\Local\Temp\cciOOXM3.s 			page 30


 373 0015 00       		.ascii	"\000"
 374 0016 00       		.ascii	"\000"
 375 0017 00000000 		.ascii	"\000\000\000\000\000\000\000\000"
 375      00000000 
 376 001f DF000000 		.ascii	"\337\000\000\000"
 377 0023 6C765F63 		.ascii	"lv_color_rgb_to_hsv\000"
 377      6F6C6F72 
 377      5F726762 
 377      5F746F5F 
 377      68737600 
 378 0037 00       		.ascii	"\000"
 379 0038 00       		.ascii	"\000"
 380 0039 00       		.ascii	"\000"
 381 003a 00000000 		.ascii	"\000\000\000\000\000\000\000\000"
 381      00000000 
 382 0042 F1000000 		.ascii	"\361\000\000\000"
 383              		.text
 384              		.section	.gnu.lto_.opts,"",%progbits
 385 0000 272D666D 		.ascii	"'-fmath-errno' '-fsigned-zeros' '-ftrapping-math' '"
 385      6174682D 
 385      6572726E 
 385      6F272027 
 385      2D667369 
 386 0033 2D666E6F 		.ascii	"-fno-trapv' '-fno-strict-overflow' '-fno-openmp' '-"
 386      2D747261 
 386      70762720 
 386      272D666E 
 386      6F2D7374 
 387 0066 666E6F2D 		.ascii	"fno-openacc' '-mcpu=cortex-m3' '-mthumb' '-g' '-O0'"
 387      6F70656E 
 387      61636327 
 387      20272D6D 
 387      6370753D 
 388 0099 20272D66 		.ascii	" '-ffunction-sections' '-ffat-lto-objects' '-finlin"
 388      66756E63 
 388      74696F6E 
 388      2D736563 
 388      74696F6E 
 389 00cc 652D6675 		.ascii	"e-functions' '-flto'\000"
 389      6E637469 
 389      6F6E7327 
 389      20272D66 
 389      6C746F27 
 390              		.text
 391              		.cfi_sections	.debug_frame
 392              		.section	.text.lv_color_hsv_to_rgb,"ax",%progbits
 393              		.align	2
 394              		.global	lv_color_hsv_to_rgb
 395              		.thumb
 396              		.thumb_func
 397              		.type	lv_color_hsv_to_rgb, %function
 398              	lv_color_hsv_to_rgb:
 399              	.LFB8:
 400              		.file 1 "lvgl\\lv_misc\\lv_color.c"
   1:lvgl\lv_misc/lv_color.c **** /**
   2:lvgl\lv_misc/lv_color.c ****  * @file lv_color.c
   3:lvgl\lv_misc/lv_color.c ****  *
ARM GAS  C:\Users\Sava\AppData\Local\Temp\cciOOXM3.s 			page 31


   4:lvgl\lv_misc/lv_color.c ****  */
   5:lvgl\lv_misc/lv_color.c **** 
   6:lvgl\lv_misc/lv_color.c **** /*********************
   7:lvgl\lv_misc/lv_color.c ****  *      INCLUDES
   8:lvgl\lv_misc/lv_color.c ****  *********************/
   9:lvgl\lv_misc/lv_color.c **** #include "lv_color.h"
  10:lvgl\lv_misc/lv_color.c **** 
  11:lvgl\lv_misc/lv_color.c **** /*********************
  12:lvgl\lv_misc/lv_color.c ****  *      DEFINES
  13:lvgl\lv_misc/lv_color.c ****  *********************/
  14:lvgl\lv_misc/lv_color.c **** 
  15:lvgl\lv_misc/lv_color.c **** /**********************
  16:lvgl\lv_misc/lv_color.c ****  *      TYPEDEFS
  17:lvgl\lv_misc/lv_color.c ****  **********************/
  18:lvgl\lv_misc/lv_color.c **** 
  19:lvgl\lv_misc/lv_color.c **** /**********************
  20:lvgl\lv_misc/lv_color.c ****  *  STATIC PROTOTYPES
  21:lvgl\lv_misc/lv_color.c ****  **********************/
  22:lvgl\lv_misc/lv_color.c **** 
  23:lvgl\lv_misc/lv_color.c **** /**********************
  24:lvgl\lv_misc/lv_color.c ****  *  STATIC VARIABLES
  25:lvgl\lv_misc/lv_color.c ****  **********************/
  26:lvgl\lv_misc/lv_color.c **** 
  27:lvgl\lv_misc/lv_color.c **** /**********************
  28:lvgl\lv_misc/lv_color.c ****  *      MACROS
  29:lvgl\lv_misc/lv_color.c ****  **********************/
  30:lvgl\lv_misc/lv_color.c **** 
  31:lvgl\lv_misc/lv_color.c **** /**********************
  32:lvgl\lv_misc/lv_color.c ****  *   GLOBAL FUNCTIONS
  33:lvgl\lv_misc/lv_color.c ****  **********************/
  34:lvgl\lv_misc/lv_color.c **** 
  35:lvgl\lv_misc/lv_color.c **** /**********************
  36:lvgl\lv_misc/lv_color.c ****  *   STATIC FUNCTIONS
  37:lvgl\lv_misc/lv_color.c ****  **********************/
  38:lvgl\lv_misc/lv_color.c **** 
  39:lvgl\lv_misc/lv_color.c **** /**
  40:lvgl\lv_misc/lv_color.c ****  * Convert a HSV color to RGB
  41:lvgl\lv_misc/lv_color.c ****  * @param h hue [0..359]
  42:lvgl\lv_misc/lv_color.c ****  * @param s saturation [0..100]
  43:lvgl\lv_misc/lv_color.c ****  * @param v value [0..100]
  44:lvgl\lv_misc/lv_color.c ****  * @return the given RGB color in RGB (with LV_COLOR_DEPTH depth)
  45:lvgl\lv_misc/lv_color.c ****  */
  46:lvgl\lv_misc/lv_color.c **** lv_color_t lv_color_hsv_to_rgb(uint16_t h, uint8_t s, uint8_t v)
  47:lvgl\lv_misc/lv_color.c **** {
 401              		.loc 1 47 0
 402              		.cfi_startproc
 403              		@ args = 0, pretend = 0, frame = 24
 404              		@ frame_needed = 1, uses_anonymous_args = 0
 405              		@ link register save eliminated.
 406 0000 90B4     		push	{r4, r7}
 407              		.cfi_def_cfa_offset 8
 408              		.cfi_offset 4, -8
 409              		.cfi_offset 7, -4
 410 0002 86B0     		sub	sp, sp, #24
 411              		.cfi_def_cfa_offset 32
 412 0004 00AF     		add	r7, sp, #0
 413              		.cfi_def_cfa_register 7
ARM GAS  C:\Users\Sava\AppData\Local\Temp\cciOOXM3.s 			page 32


 414 0006 0446     		mov	r4, r0
 415 0008 0846     		mov	r0, r1
 416 000a 1146     		mov	r1, r2
 417 000c 2246     		mov	r2, r4	@ movhi
 418 000e FA80     		strh	r2, [r7, #6]	@ movhi
 419 0010 0246     		mov	r2, r0
 420 0012 7A71     		strb	r2, [r7, #5]
 421 0014 0A46     		mov	r2, r1
 422 0016 3A71     		strb	r2, [r7, #4]
  48:lvgl\lv_misc/lv_color.c ****     h = (uint32_t)((uint32_t)h * 255) / 360;
 423              		.loc 1 48 0
 424 0018 F988     		ldrh	r1, [r7, #6]
 425 001a 0A46     		mov	r2, r1
 426 001c 1202     		lsls	r2, r2, #8
 427 001e 521A     		subs	r2, r2, r1
 428 0020 D208     		lsrs	r2, r2, #3
 429 0022 6949     		ldr	r1, .L13
 430 0024 A1FB0212 		umull	r1, r2, r1, r2
 431 0028 9208     		lsrs	r2, r2, #2
 432 002a FA80     		strh	r2, [r7, #6]	@ movhi
  49:lvgl\lv_misc/lv_color.c ****     s = (uint16_t)((uint16_t)s * 255) / 100;
 433              		.loc 1 49 0
 434 002c 7A79     		ldrb	r2, [r7, #5]	@ zero_extendqisi2
 435 002e 92B2     		uxth	r2, r2
 436 0030 1146     		mov	r1, r2	@ movhi
 437 0032 0902     		lsls	r1, r1, #8
 438 0034 8A1A     		subs	r2, r1, r2
 439 0036 92B2     		uxth	r2, r2
 440 0038 6449     		ldr	r1, .L13+4
 441 003a A1FB0212 		umull	r1, r2, r1, r2
 442 003e 5209     		lsrs	r2, r2, #5
 443 0040 92B2     		uxth	r2, r2
 444 0042 7A71     		strb	r2, [r7, #5]
  50:lvgl\lv_misc/lv_color.c ****     v = (uint16_t)((uint16_t)v * 255) / 100;
 445              		.loc 1 50 0
 446 0044 3A79     		ldrb	r2, [r7, #4]	@ zero_extendqisi2
 447 0046 92B2     		uxth	r2, r2
 448 0048 1146     		mov	r1, r2	@ movhi
 449 004a 0902     		lsls	r1, r1, #8
 450 004c 8A1A     		subs	r2, r1, r2
 451 004e 92B2     		uxth	r2, r2
 452 0050 5E49     		ldr	r1, .L13+4
 453 0052 A1FB0212 		umull	r1, r2, r1, r2
 454 0056 5209     		lsrs	r2, r2, #5
 455 0058 92B2     		uxth	r2, r2
 456 005a 3A71     		strb	r2, [r7, #4]
  51:lvgl\lv_misc/lv_color.c **** 
  52:lvgl\lv_misc/lv_color.c ****     uint8_t r, g, b;
  53:lvgl\lv_misc/lv_color.c **** 
  54:lvgl\lv_misc/lv_color.c ****     uint8_t region, remainder, p, q, t;
  55:lvgl\lv_misc/lv_color.c **** 
  56:lvgl\lv_misc/lv_color.c ****     if(s == 0) {
 457              		.loc 1 56 0
 458 005c 7A79     		ldrb	r2, [r7, #5]	@ zero_extendqisi2
 459 005e 002A     		cmp	r2, #0
 460 0060 1ED1     		bne	.L2
  57:lvgl\lv_misc/lv_color.c ****         r = v;
ARM GAS  C:\Users\Sava\AppData\Local\Temp\cciOOXM3.s 			page 33


 461              		.loc 1 57 0
 462 0062 3A79     		ldrb	r2, [r7, #4]
 463 0064 FA75     		strb	r2, [r7, #23]
  58:lvgl\lv_misc/lv_color.c ****         g = v;
 464              		.loc 1 58 0
 465 0066 3A79     		ldrb	r2, [r7, #4]
 466 0068 BA75     		strb	r2, [r7, #22]
  59:lvgl\lv_misc/lv_color.c ****         b = v;
 467              		.loc 1 59 0
 468 006a 3A79     		ldrb	r2, [r7, #4]
 469 006c 7A75     		strb	r2, [r7, #21]
  60:lvgl\lv_misc/lv_color.c ****         return LV_COLOR_MAKE(v, v, v);
 470              		.loc 1 60 0
 471 006e 3A79     		ldrb	r2, [r7, #4]	@ zero_extendqisi2
 472 0070 D208     		lsrs	r2, r2, #3
 473 0072 D2B2     		uxtb	r2, r2
 474 0074 02F01F02 		and	r2, r2, #31
 475 0078 D0B2     		uxtb	r0, r2
 476 007a 3A79     		ldrb	r2, [r7, #4]	@ zero_extendqisi2
 477 007c 9208     		lsrs	r2, r2, #2
 478 007e D2B2     		uxtb	r2, r2
 479 0080 02F03F02 		and	r2, r2, #63
 480 0084 D1B2     		uxtb	r1, r2
 481 0086 3A79     		ldrb	r2, [r7, #4]	@ zero_extendqisi2
 482 0088 D208     		lsrs	r2, r2, #3
 483 008a D2B2     		uxtb	r2, r2
 484 008c 02F01F02 		and	r2, r2, #31
 485 0090 D2B2     		uxtb	r2, r2
 486 0092 60F30403 		bfi	r3, r0, #0, #5
 487 0096 61F34A13 		bfi	r3, r1, #5, #6
 488 009a 62F3CF23 		bfi	r3, r2, #11, #5
 489 009e 8EE0     		b	.L12
 490              	.L2:
  61:lvgl\lv_misc/lv_color.c ****     }
  62:lvgl\lv_misc/lv_color.c **** 
  63:lvgl\lv_misc/lv_color.c ****     region = h / 43;
 491              		.loc 1 63 0
 492 00a0 FB88     		ldrh	r3, [r7, #6]
 493 00a2 4B4A     		ldr	r2, .L13+8
 494 00a4 A2FB0323 		umull	r2, r3, r2, r3
 495 00a8 DB08     		lsrs	r3, r3, #3
 496 00aa 9BB2     		uxth	r3, r3
 497 00ac 3B75     		strb	r3, [r7, #20]
  64:lvgl\lv_misc/lv_color.c ****     remainder = (h - (region * 43)) * 6;
 498              		.loc 1 64 0
 499 00ae FA88     		ldrh	r2, [r7, #6]
 500 00b0 3B7D     		ldrb	r3, [r7, #20]	@ zero_extendqisi2
 501 00b2 6FF02A01 		mvn	r1, #42
 502 00b6 01FB03F3 		mul	r3, r1, r3
 503 00ba 1344     		add	r3, r3, r2
 504 00bc DBB2     		uxtb	r3, r3
 505 00be 1A46     		mov	r2, r3
 506 00c0 5200     		lsls	r2, r2, #1
 507 00c2 1344     		add	r3, r3, r2
 508 00c4 5B00     		lsls	r3, r3, #1
 509 00c6 FB74     		strb	r3, [r7, #19]
  65:lvgl\lv_misc/lv_color.c **** 
ARM GAS  C:\Users\Sava\AppData\Local\Temp\cciOOXM3.s 			page 34


  66:lvgl\lv_misc/lv_color.c ****     p = (v * (255 - s)) >> 8;
 510              		.loc 1 66 0
 511 00c8 3B79     		ldrb	r3, [r7, #4]	@ zero_extendqisi2
 512 00ca 7A79     		ldrb	r2, [r7, #5]	@ zero_extendqisi2
 513 00cc C2F1FF02 		rsb	r2, r2, #255
 514 00d0 02FB03F3 		mul	r3, r2, r3
 515 00d4 1B12     		asrs	r3, r3, #8
 516 00d6 BB74     		strb	r3, [r7, #18]
  67:lvgl\lv_misc/lv_color.c ****     q = (v * (255 - ((s * remainder) >> 8))) >> 8;
 517              		.loc 1 67 0
 518 00d8 3B79     		ldrb	r3, [r7, #4]	@ zero_extendqisi2
 519 00da 7A79     		ldrb	r2, [r7, #5]	@ zero_extendqisi2
 520 00dc F97C     		ldrb	r1, [r7, #19]	@ zero_extendqisi2
 521 00de 01FB02F2 		mul	r2, r1, r2
 522 00e2 1212     		asrs	r2, r2, #8
 523 00e4 C2F1FF02 		rsb	r2, r2, #255
 524 00e8 02FB03F3 		mul	r3, r2, r3
 525 00ec 1B12     		asrs	r3, r3, #8
 526 00ee 7B74     		strb	r3, [r7, #17]
  68:lvgl\lv_misc/lv_color.c ****     t = (v * (255 - ((s * (255 - remainder)) >> 8))) >> 8;
 527              		.loc 1 68 0
 528 00f0 3B79     		ldrb	r3, [r7, #4]	@ zero_extendqisi2
 529 00f2 7A79     		ldrb	r2, [r7, #5]	@ zero_extendqisi2
 530 00f4 F97C     		ldrb	r1, [r7, #19]	@ zero_extendqisi2
 531 00f6 C1F1FF01 		rsb	r1, r1, #255
 532 00fa 01FB02F2 		mul	r2, r1, r2
 533 00fe 1212     		asrs	r2, r2, #8
 534 0100 C2F1FF02 		rsb	r2, r2, #255
 535 0104 02FB03F3 		mul	r3, r2, r3
 536 0108 1B12     		asrs	r3, r3, #8
 537 010a 3B74     		strb	r3, [r7, #16]
  69:lvgl\lv_misc/lv_color.c **** 
  70:lvgl\lv_misc/lv_color.c ****     switch(region) {
 538              		.loc 1 70 0
 539 010c 3B7D     		ldrb	r3, [r7, #20]	@ zero_extendqisi2
 540 010e 042B     		cmp	r3, #4
 541 0110 2FD8     		bhi	.L4
 542 0112 01A2     		adr	r2, .L6
 543 0114 52F823F0 		ldr	pc, [r2, r3, lsl #2]
 544              		.p2align 2
 545              	.L6:
 546 0118 2D010000 		.word	.L5+1
 547 011c 3B010000 		.word	.L7+1
 548 0120 49010000 		.word	.L8+1
 549 0124 57010000 		.word	.L9+1
 550 0128 65010000 		.word	.L10+1
 551              		.p2align 1
 552              	.L5:
  71:lvgl\lv_misc/lv_color.c ****         case 0:
  72:lvgl\lv_misc/lv_color.c ****             r = v;
 553              		.loc 1 72 0
 554 012c 3B79     		ldrb	r3, [r7, #4]
 555 012e FB75     		strb	r3, [r7, #23]
  73:lvgl\lv_misc/lv_color.c ****             g = t;
 556              		.loc 1 73 0
 557 0130 3B7C     		ldrb	r3, [r7, #16]
 558 0132 BB75     		strb	r3, [r7, #22]
ARM GAS  C:\Users\Sava\AppData\Local\Temp\cciOOXM3.s 			page 35


  74:lvgl\lv_misc/lv_color.c ****             b = p;
 559              		.loc 1 74 0
 560 0134 BB7C     		ldrb	r3, [r7, #18]
 561 0136 7B75     		strb	r3, [r7, #21]
  75:lvgl\lv_misc/lv_color.c ****             break;
 562              		.loc 1 75 0
 563 0138 22E0     		b	.L11
 564              	.L7:
  76:lvgl\lv_misc/lv_color.c ****         case 1:
  77:lvgl\lv_misc/lv_color.c ****             r = q;
 565              		.loc 1 77 0
 566 013a 7B7C     		ldrb	r3, [r7, #17]
 567 013c FB75     		strb	r3, [r7, #23]
  78:lvgl\lv_misc/lv_color.c ****             g = v;
 568              		.loc 1 78 0
 569 013e 3B79     		ldrb	r3, [r7, #4]
 570 0140 BB75     		strb	r3, [r7, #22]
  79:lvgl\lv_misc/lv_color.c ****             b = p;
 571              		.loc 1 79 0
 572 0142 BB7C     		ldrb	r3, [r7, #18]
 573 0144 7B75     		strb	r3, [r7, #21]
  80:lvgl\lv_misc/lv_color.c ****             break;
 574              		.loc 1 80 0
 575 0146 1BE0     		b	.L11
 576              	.L8:
  81:lvgl\lv_misc/lv_color.c ****         case 2:
  82:lvgl\lv_misc/lv_color.c ****             r = p;
 577              		.loc 1 82 0
 578 0148 BB7C     		ldrb	r3, [r7, #18]
 579 014a FB75     		strb	r3, [r7, #23]
  83:lvgl\lv_misc/lv_color.c ****             g = v;
 580              		.loc 1 83 0
 581 014c 3B79     		ldrb	r3, [r7, #4]
 582 014e BB75     		strb	r3, [r7, #22]
  84:lvgl\lv_misc/lv_color.c ****             b = t;
 583              		.loc 1 84 0
 584 0150 3B7C     		ldrb	r3, [r7, #16]
 585 0152 7B75     		strb	r3, [r7, #21]
  85:lvgl\lv_misc/lv_color.c ****             break;
 586              		.loc 1 85 0
 587 0154 14E0     		b	.L11
 588              	.L9:
  86:lvgl\lv_misc/lv_color.c ****         case 3:
  87:lvgl\lv_misc/lv_color.c ****             r = p;
 589              		.loc 1 87 0
 590 0156 BB7C     		ldrb	r3, [r7, #18]
 591 0158 FB75     		strb	r3, [r7, #23]
  88:lvgl\lv_misc/lv_color.c ****             g = q;
 592              		.loc 1 88 0
 593 015a 7B7C     		ldrb	r3, [r7, #17]
 594 015c BB75     		strb	r3, [r7, #22]
  89:lvgl\lv_misc/lv_color.c ****             b = v;
 595              		.loc 1 89 0
 596 015e 3B79     		ldrb	r3, [r7, #4]
 597 0160 7B75     		strb	r3, [r7, #21]
  90:lvgl\lv_misc/lv_color.c ****             break;
 598              		.loc 1 90 0
ARM GAS  C:\Users\Sava\AppData\Local\Temp\cciOOXM3.s 			page 36


 599 0162 0DE0     		b	.L11
 600              	.L10:
  91:lvgl\lv_misc/lv_color.c ****         case 4:
  92:lvgl\lv_misc/lv_color.c ****             r = t;
 601              		.loc 1 92 0
 602 0164 3B7C     		ldrb	r3, [r7, #16]
 603 0166 FB75     		strb	r3, [r7, #23]
  93:lvgl\lv_misc/lv_color.c ****             g = p;
 604              		.loc 1 93 0
 605 0168 BB7C     		ldrb	r3, [r7, #18]
 606 016a BB75     		strb	r3, [r7, #22]
  94:lvgl\lv_misc/lv_color.c ****             b = v;
 607              		.loc 1 94 0
 608 016c 3B79     		ldrb	r3, [r7, #4]
 609 016e 7B75     		strb	r3, [r7, #21]
  95:lvgl\lv_misc/lv_color.c ****             break;
 610              		.loc 1 95 0
 611 0170 06E0     		b	.L11
 612              	.L4:
  96:lvgl\lv_misc/lv_color.c ****         default:
  97:lvgl\lv_misc/lv_color.c ****             r = v;
 613              		.loc 1 97 0
 614 0172 3B79     		ldrb	r3, [r7, #4]
 615 0174 FB75     		strb	r3, [r7, #23]
  98:lvgl\lv_misc/lv_color.c ****             g = p;
 616              		.loc 1 98 0
 617 0176 BB7C     		ldrb	r3, [r7, #18]
 618 0178 BB75     		strb	r3, [r7, #22]
  99:lvgl\lv_misc/lv_color.c ****             b = q;
 619              		.loc 1 99 0
 620 017a 7B7C     		ldrb	r3, [r7, #17]
 621 017c 7B75     		strb	r3, [r7, #21]
 100:lvgl\lv_misc/lv_color.c ****             break;
 622              		.loc 1 100 0
 623 017e 00BF     		nop
 624              	.L11:
 101:lvgl\lv_misc/lv_color.c ****     }
 102:lvgl\lv_misc/lv_color.c **** 
 103:lvgl\lv_misc/lv_color.c ****     lv_color_t result = LV_COLOR_MAKE(r, g, b);
 625              		.loc 1 103 0
 626 0180 7B7D     		ldrb	r3, [r7, #21]	@ zero_extendqisi2
 627 0182 DB08     		lsrs	r3, r3, #3
 628 0184 DBB2     		uxtb	r3, r3
 629 0186 03F01F03 		and	r3, r3, #31
 630 018a DAB2     		uxtb	r2, r3
 631 018c 3B7B     		ldrb	r3, [r7, #12]
 632 018e 62F30403 		bfi	r3, r2, #0, #5
 633 0192 3B73     		strb	r3, [r7, #12]
 634 0194 BB7D     		ldrb	r3, [r7, #22]	@ zero_extendqisi2
 635 0196 9B08     		lsrs	r3, r3, #2
 636 0198 DBB2     		uxtb	r3, r3
 637 019a 03F03F03 		and	r3, r3, #63
 638 019e DAB2     		uxtb	r2, r3
 639 01a0 BB89     		ldrh	r3, [r7, #12]	@ movhi
 640 01a2 62F34A13 		bfi	r3, r2, #5, #6
 641 01a6 BB81     		strh	r3, [r7, #12]	@ movhi
 642 01a8 FB7D     		ldrb	r3, [r7, #23]	@ zero_extendqisi2
ARM GAS  C:\Users\Sava\AppData\Local\Temp\cciOOXM3.s 			page 37


 643 01aa DB08     		lsrs	r3, r3, #3
 644 01ac DBB2     		uxtb	r3, r3
 645 01ae 03F01F03 		and	r3, r3, #31
 646 01b2 DAB2     		uxtb	r2, r3
 647 01b4 7B7B     		ldrb	r3, [r7, #13]
 648 01b6 62F3C703 		bfi	r3, r2, #3, #5
 649 01ba 7B73     		strb	r3, [r7, #13]
 104:lvgl\lv_misc/lv_color.c ****     return result;
 650              		.loc 1 104 0
 651 01bc BB89     		ldrh	r3, [r7, #12]	@ movhi
 652              	.L12:
 105:lvgl\lv_misc/lv_color.c **** }
 653              		.loc 1 105 0 discriminator 1
 654 01be 1846     		mov	r0, r3	@ movhi
 655 01c0 1837     		adds	r7, r7, #24
 656              		.cfi_def_cfa_offset 8
 657 01c2 BD46     		mov	sp, r7
 658              		.cfi_def_cfa_register 13
 659              		@ sp needed
 660 01c4 90BC     		pop	{r4, r7}
 661              		.cfi_restore 7
 662              		.cfi_restore 4
 663              		.cfi_def_cfa_offset 0
 664 01c6 7047     		bx	lr
 665              	.L14:
 666              		.align	2
 667              	.L13:
 668 01c8 176CC116 		.word	381774871
 669 01cc 1F85EB51 		.word	1374389535
 670 01d0 83BEA02F 		.word	799063683
 671              		.cfi_endproc
 672              	.LFE8:
 673              		.size	lv_color_hsv_to_rgb, .-lv_color_hsv_to_rgb
 674              		.section	.text.lv_color_rgb_to_hsv,"ax",%progbits
 675              		.align	2
 676              		.global	lv_color_rgb_to_hsv
 677              		.thumb
 678              		.thumb_func
 679              		.type	lv_color_rgb_to_hsv, %function
 680              	lv_color_rgb_to_hsv:
 681              	.LFB9:
 106:lvgl\lv_misc/lv_color.c **** 
 107:lvgl\lv_misc/lv_color.c **** /**
 108:lvgl\lv_misc/lv_color.c ****  * Convert an RGB color to HSV
 109:lvgl\lv_misc/lv_color.c ****  * @param r red
 110:lvgl\lv_misc/lv_color.c ****  * @param g green
 111:lvgl\lv_misc/lv_color.c ****  * @param b blue
 112:lvgl\lv_misc/lv_color.c ****  * @return the given RGB color n HSV
 113:lvgl\lv_misc/lv_color.c ****  */
 114:lvgl\lv_misc/lv_color.c **** lv_color_hsv_t lv_color_rgb_to_hsv(uint8_t r, uint8_t g, uint8_t b)
 115:lvgl\lv_misc/lv_color.c **** {
 682              		.loc 1 115 0
 683              		.cfi_startproc
 684              		@ args = 0, pretend = 0, frame = 24
 685              		@ frame_needed = 1, uses_anonymous_args = 0
 686              		@ link register save eliminated.
 687 0000 80B4     		push	{r7}
ARM GAS  C:\Users\Sava\AppData\Local\Temp\cciOOXM3.s 			page 38


 688              		.cfi_def_cfa_offset 4
 689              		.cfi_offset 7, -4
 690 0002 87B0     		sub	sp, sp, #28
 691              		.cfi_def_cfa_offset 32
 692 0004 00AF     		add	r7, sp, #0
 693              		.cfi_def_cfa_register 7
 694 0006 0346     		mov	r3, r0
 695 0008 FB71     		strb	r3, [r7, #7]
 696 000a 0B46     		mov	r3, r1
 697 000c BB71     		strb	r3, [r7, #6]
 698 000e 1346     		mov	r3, r2
 699 0010 7B71     		strb	r3, [r7, #5]
 116:lvgl\lv_misc/lv_color.c ****     lv_color_hsv_t hsv;
 117:lvgl\lv_misc/lv_color.c ****     uint8_t rgbMin, rgbMax;
 118:lvgl\lv_misc/lv_color.c **** 
 119:lvgl\lv_misc/lv_color.c ****     rgbMin = r < g ? (r < b ? r : b) : (g < b ? g : b);
 700              		.loc 1 119 0
 701 0012 FA79     		ldrb	r2, [r7, #7]	@ zero_extendqisi2
 702 0014 BB79     		ldrb	r3, [r7, #6]	@ zero_extendqisi2
 703 0016 9A42     		cmp	r2, r3
 704 0018 06D2     		bcs	.L16
 705              		.loc 1 119 0 is_stmt 0 discriminator 1
 706 001a 7A79     		ldrb	r2, [r7, #5]	@ zero_extendqisi2
 707 001c FB79     		ldrb	r3, [r7, #7]	@ zero_extendqisi2
 708 001e 9342     		cmp	r3, r2
 709 0020 28BF     		it	cs
 710 0022 1346     		movcs	r3, r2
 711 0024 DBB2     		uxtb	r3, r3
 712 0026 05E0     		b	.L17
 713              	.L16:
 714              		.loc 1 119 0 discriminator 2
 715 0028 7A79     		ldrb	r2, [r7, #5]	@ zero_extendqisi2
 716 002a BB79     		ldrb	r3, [r7, #6]	@ zero_extendqisi2
 717 002c 9342     		cmp	r3, r2
 718 002e 28BF     		it	cs
 719 0030 1346     		movcs	r3, r2
 720 0032 DBB2     		uxtb	r3, r3
 721              	.L17:
 722              		.loc 1 119 0 discriminator 4
 723 0034 FB75     		strb	r3, [r7, #23]
 120:lvgl\lv_misc/lv_color.c ****     rgbMax = r > g ? (r > b ? r : b) : (g > b ? g : b);
 724              		.loc 1 120 0 is_stmt 1 discriminator 4
 725 0036 FA79     		ldrb	r2, [r7, #7]	@ zero_extendqisi2
 726 0038 BB79     		ldrb	r3, [r7, #6]	@ zero_extendqisi2
 727 003a 9A42     		cmp	r2, r3
 728 003c 06D9     		bls	.L18
 729              		.loc 1 120 0 is_stmt 0 discriminator 1
 730 003e 7A79     		ldrb	r2, [r7, #5]	@ zero_extendqisi2
 731 0040 FB79     		ldrb	r3, [r7, #7]	@ zero_extendqisi2
 732 0042 9342     		cmp	r3, r2
 733 0044 38BF     		it	cc
 734 0046 1346     		movcc	r3, r2
 735 0048 DBB2     		uxtb	r3, r3
 736 004a 05E0     		b	.L19
 737              	.L18:
 738              		.loc 1 120 0 discriminator 2
 739 004c 7A79     		ldrb	r2, [r7, #5]	@ zero_extendqisi2
ARM GAS  C:\Users\Sava\AppData\Local\Temp\cciOOXM3.s 			page 39


 740 004e BB79     		ldrb	r3, [r7, #6]	@ zero_extendqisi2
 741 0050 9342     		cmp	r3, r2
 742 0052 38BF     		it	cc
 743 0054 1346     		movcc	r3, r2
 744 0056 DBB2     		uxtb	r3, r3
 745              	.L19:
 746              		.loc 1 120 0 discriminator 4
 747 0058 BB75     		strb	r3, [r7, #22]
 121:lvgl\lv_misc/lv_color.c **** 
 122:lvgl\lv_misc/lv_color.c ****     hsv.v = rgbMax;
 748              		.loc 1 122 0 is_stmt 1 discriminator 4
 749 005a BB7D     		ldrb	r3, [r7, #22]
 750 005c FB73     		strb	r3, [r7, #15]
 123:lvgl\lv_misc/lv_color.c ****     if(hsv.v == 0) {
 751              		.loc 1 123 0 discriminator 4
 752 005e FB7B     		ldrb	r3, [r7, #15]	@ zero_extendqisi2
 753 0060 002B     		cmp	r3, #0
 754 0062 06D1     		bne	.L20
 124:lvgl\lv_misc/lv_color.c ****         hsv.h = 0;
 755              		.loc 1 124 0
 756 0064 0023     		movs	r3, #0
 757 0066 BB81     		strh	r3, [r7, #12]	@ movhi
 125:lvgl\lv_misc/lv_color.c ****         hsv.s = 0;
 758              		.loc 1 125 0
 759 0068 0023     		movs	r3, #0
 760 006a BB73     		strb	r3, [r7, #14]
 126:lvgl\lv_misc/lv_color.c ****         return hsv;
 761              		.loc 1 126 0
 762 006c FB68     		ldr	r3, [r7, #12]
 763 006e 3B61     		str	r3, [r7, #16]
 764 0070 49E0     		b	.L26
 765              	.L20:
 127:lvgl\lv_misc/lv_color.c ****     }
 128:lvgl\lv_misc/lv_color.c **** 
 129:lvgl\lv_misc/lv_color.c ****     hsv.s = 255 * (long)(rgbMax - rgbMin) / hsv.v;
 766              		.loc 1 129 0
 767 0072 BA7D     		ldrb	r2, [r7, #22]	@ zero_extendqisi2
 768 0074 FB7D     		ldrb	r3, [r7, #23]	@ zero_extendqisi2
 769 0076 D21A     		subs	r2, r2, r3
 770 0078 1346     		mov	r3, r2
 771 007a 1B02     		lsls	r3, r3, #8
 772 007c 9B1A     		subs	r3, r3, r2
 773 007e FA7B     		ldrb	r2, [r7, #15]	@ zero_extendqisi2
 774 0080 93FBF2F3 		sdiv	r3, r3, r2
 775 0084 DBB2     		uxtb	r3, r3
 776 0086 BB73     		strb	r3, [r7, #14]
 130:lvgl\lv_misc/lv_color.c ****     if(hsv.s == 0) {
 777              		.loc 1 130 0
 778 0088 BB7B     		ldrb	r3, [r7, #14]	@ zero_extendqisi2
 779 008a 002B     		cmp	r3, #0
 780 008c 04D1     		bne	.L22
 131:lvgl\lv_misc/lv_color.c ****         hsv.h = 0;
 781              		.loc 1 131 0
 782 008e 0023     		movs	r3, #0
 783 0090 BB81     		strh	r3, [r7, #12]	@ movhi
 132:lvgl\lv_misc/lv_color.c ****         return hsv;
 784              		.loc 1 132 0
ARM GAS  C:\Users\Sava\AppData\Local\Temp\cciOOXM3.s 			page 40


 785 0092 FB68     		ldr	r3, [r7, #12]
 786 0094 3B61     		str	r3, [r7, #16]
 787 0096 36E0     		b	.L26
 788              	.L22:
 133:lvgl\lv_misc/lv_color.c ****     }
 134:lvgl\lv_misc/lv_color.c **** 
 135:lvgl\lv_misc/lv_color.c ****     if(rgbMax == r)
 789              		.loc 1 135 0
 790 0098 BA7D     		ldrb	r2, [r7, #22]	@ zero_extendqisi2
 791 009a FB79     		ldrb	r3, [r7, #7]	@ zero_extendqisi2
 792 009c 9A42     		cmp	r2, r3
 793 009e 0DD1     		bne	.L23
 136:lvgl\lv_misc/lv_color.c ****         hsv.h = 0 + 43 * (g - b) / (rgbMax - rgbMin);
 794              		.loc 1 136 0
 795 00a0 BA79     		ldrb	r2, [r7, #6]	@ zero_extendqisi2
 796 00a2 7B79     		ldrb	r3, [r7, #5]	@ zero_extendqisi2
 797 00a4 D31A     		subs	r3, r2, r3
 798 00a6 2B22     		movs	r2, #43
 799 00a8 02FB03F2 		mul	r2, r2, r3
 800 00ac B97D     		ldrb	r1, [r7, #22]	@ zero_extendqisi2
 801 00ae FB7D     		ldrb	r3, [r7, #23]	@ zero_extendqisi2
 802 00b0 CB1A     		subs	r3, r1, r3
 803 00b2 92FBF3F3 		sdiv	r3, r2, r3
 804 00b6 9BB2     		uxth	r3, r3
 805 00b8 BB81     		strh	r3, [r7, #12]	@ movhi
 806 00ba 22E0     		b	.L24
 807              	.L23:
 137:lvgl\lv_misc/lv_color.c ****     else if(rgbMax == g)
 808              		.loc 1 137 0
 809 00bc BA7D     		ldrb	r2, [r7, #22]	@ zero_extendqisi2
 810 00be BB79     		ldrb	r3, [r7, #6]	@ zero_extendqisi2
 811 00c0 9A42     		cmp	r2, r3
 812 00c2 0FD1     		bne	.L25
 138:lvgl\lv_misc/lv_color.c ****         hsv.h = 85 + 43 * (b - r) / (rgbMax - rgbMin);
 813              		.loc 1 138 0
 814 00c4 7A79     		ldrb	r2, [r7, #5]	@ zero_extendqisi2
 815 00c6 FB79     		ldrb	r3, [r7, #7]	@ zero_extendqisi2
 816 00c8 D31A     		subs	r3, r2, r3
 817 00ca 2B22     		movs	r2, #43
 818 00cc 02FB03F2 		mul	r2, r2, r3
 819 00d0 B97D     		ldrb	r1, [r7, #22]	@ zero_extendqisi2
 820 00d2 FB7D     		ldrb	r3, [r7, #23]	@ zero_extendqisi2
 821 00d4 CB1A     		subs	r3, r1, r3
 822 00d6 92FBF3F3 		sdiv	r3, r2, r3
 823 00da 9BB2     		uxth	r3, r3
 824 00dc 5533     		adds	r3, r3, #85
 825 00de 9BB2     		uxth	r3, r3
 826 00e0 BB81     		strh	r3, [r7, #12]	@ movhi
 827 00e2 0EE0     		b	.L24
 828              	.L25:
 139:lvgl\lv_misc/lv_color.c ****     else
 140:lvgl\lv_misc/lv_color.c ****         hsv.h = 171 + 43 * (r - g) / (rgbMax - rgbMin);
 829              		.loc 1 140 0
 830 00e4 FA79     		ldrb	r2, [r7, #7]	@ zero_extendqisi2
 831 00e6 BB79     		ldrb	r3, [r7, #6]	@ zero_extendqisi2
 832 00e8 D31A     		subs	r3, r2, r3
 833 00ea 2B22     		movs	r2, #43
ARM GAS  C:\Users\Sava\AppData\Local\Temp\cciOOXM3.s 			page 41


 834 00ec 02FB03F2 		mul	r2, r2, r3
 835 00f0 B97D     		ldrb	r1, [r7, #22]	@ zero_extendqisi2
 836 00f2 FB7D     		ldrb	r3, [r7, #23]	@ zero_extendqisi2
 837 00f4 CB1A     		subs	r3, r1, r3
 838 00f6 92FBF3F3 		sdiv	r3, r2, r3
 839 00fa 9BB2     		uxth	r3, r3
 840 00fc AB33     		adds	r3, r3, #171
 841 00fe 9BB2     		uxth	r3, r3
 842 0100 BB81     		strh	r3, [r7, #12]	@ movhi
 843              	.L24:
 141:lvgl\lv_misc/lv_color.c **** 
 142:lvgl\lv_misc/lv_color.c ****     return hsv;
 844              		.loc 1 142 0
 845 0102 FB68     		ldr	r3, [r7, #12]
 846 0104 3B61     		str	r3, [r7, #16]
 847              	.L26:
 848 0106 0023     		movs	r3, #0
 849 0108 3A8A     		ldrh	r2, [r7, #16]
 850 010a 62F30F03 		bfi	r3, r2, #0, #16
 851 010e 7A8A     		ldrh	r2, [r7, #18]
 852 0110 62F31F43 		bfi	r3, r2, #16, #16
 143:lvgl\lv_misc/lv_color.c **** }
 853              		.loc 1 143 0 discriminator 1
 854 0114 1846     		mov	r0, r3
 855 0116 1C37     		adds	r7, r7, #28
 856              		.cfi_def_cfa_offset 4
 857 0118 BD46     		mov	sp, r7
 858              		.cfi_def_cfa_register 13
 859              		@ sp needed
 860 011a 80BC     		pop	{r7}
 861              		.cfi_restore 7
 862              		.cfi_def_cfa_offset 0
 863 011c 7047     		bx	lr
 864              		.cfi_endproc
 865              	.LFE9:
 866              		.size	lv_color_rgb_to_hsv, .-lv_color_rgb_to_hsv
 867 011e 00BF     		.text
 868              	.Letext0:
 869              		.file 2 "c:\\program files (x86)\\cypress\\psoc creator\\4.2\\psoc creator\\import\\gnu\\arm\\5.4.
 870              		.file 3 "c:\\program files (x86)\\cypress\\psoc creator\\4.2\\psoc creator\\import\\gnu\\arm\\5.4.
 871              		.file 4 "lvgl\\lv_misc\\lv_color.h"