ARM GAS  C:\Users\Sava\AppData\Local\Temp\cc1c2WDS.s 			page 1


   1              		.syntax unified
   2              		.cpu cortex-m3
   3              		.fpu softvfp
   4              		.eabi_attribute 20, 1
   5              		.eabi_attribute 21, 1
   6              		.eabi_attribute 23, 3
   7              		.eabi_attribute 24, 1
   8              		.eabi_attribute 25, 1
   9              		.eabi_attribute 26, 1
  10              		.eabi_attribute 30, 6
  11              		.eabi_attribute 34, 1
  12              		.eabi_attribute 18, 4
  13              		.thumb
  14              		.syntax unified
  15              		.file	"lv_ll.c"
  16              		.text
  17              	.Ltext0:
  18              		.section	.gnu.lto_.inline.d4bd9b5,"",%progbits
  19 0000 789C6361 		.ascii	"x\234ca`d\000\201\333L\014p\300\317\300\300\315\305"
  19      60640081 
  19      DB4C0C70 
  19      C0CFC0C0 
  19      CDC5
  20 0012 C0C024B4 		.ascii	"\300\300$\264`\016#\003\013\003X\206\221\201\215\025"
  20      600E2303 
  20      0B035886 
  20      91818D15 
  21 0022 28C431C1 		.ascii	"(\3041\301\017&\302\204!\302\314\300'\006\024\021\270"
  21      0F26C284 
  21      21C2CCC0 
  21      27061411 
  21      B8
  22 0033 D003D7C6 		.ascii	"\320\003\327\306\302\013\022\006+\341\025\005\312\361"
  22      C20B1206 
  22      2BE11505 
  22      CAF1
  23 0041 35D46248 		.ascii	"5\324bH\26120\003\005\230\230\026\310\303\244\330\030"
  23      B1323003 
  23      05989816 
  23      C8C3A4D8 
  23      18
  24 0052 44548122 		.ascii	"DT\201\"\"\037V\243\032\004T<\301\017\301bg\020S\007"
  24      221F56A3 
  24      1A04543C 
  24      C10FC162 
  24      67105307 
  25 0066 2A939870 		.ascii	"*\223\230p\032\2572\016\006\205\303 \367\3125\374BW"
  25      1AAF320E 
  25      0685C320 
  25      F7CA35FC 
  25      4257
  26 0078 0782D898 		.ascii	"\007\202\330\230\014\314<@/O\360\343d\320\371\014\322"
  26      0CCC3C40 
  26      2F4FF0E3 
  26      64D0F90C 
  26      D2
  27 0089 2AF5E016 		.ascii	"*\365\340\026\261Z1\230L \006\324<T\212\213A\351(\310"
ARM GAS  C:\Users\Sava\AppData\Local\Temp\cc1c2WDS.s 			page 2


  27      B15A3198 
  27      4C2006D4 
  27      3C548A8B 
  27      41E928C8 
  28 009d 74A50533 		.ascii	"t\245\0053\231Ht\0307\203\345$F\242\2652a0 \206\241"
  28      99487418 
  28      3783E524 
  28      46A2B532 
  28      61302086 
  29 00b2 3B0FB70C 		.ascii	";\017\267\014\017\203\240\011P\204\355\200\035<\372"
  29      0F83A009 
  29      5084ED80 
  29      1D3CFA
  30 00c1 B919215E 		.ascii	"\271\031!^a\204\231\312\210\242\203\227A\306\036\250"
  30      618499CA 
  30      88A28397 
  30      41C61EA8 
  31 00d1 4AECC06E 		.ascii	"J\354\300n\222\002\035l\004\037\203\332\023\006\354"
  31      92021D6C 
  31      041F83DA 
  31      1306EC
  32 00e0 0980A860 		.ascii	"\011\200\250`\207\033\204\344/0\237\001\000\020ctu"
  32      871B84E4 
  32      2F309F01 
  32      00106374 
  32      75
  33              		.text
  34              		.section	.gnu.lto_lv_ll_init.d4bd9b5,"",%progbits
  35 0000 789C9552 		.ascii	"x\234\225R\317k\023A\024\236of7\333\305\324\236\204"
  35      CF6B1341 
  35      149E6F66 
  35      37DBC5D4 
  35      9E84
  36 0012 1EAAE452 		.ascii	"\036\252\344Rc\016\232\203\377\203\177\200g!\2076Ha"
  36      630E9A83 
  36      FF837F80 
  36      67218736 
  36      4861
  37 0024 FD01851C 		.ascii	"\375\001\205\034\274t\315f[\017^-6*E\244$\325\232d\325"
  37      BC74CD66 
  37      5B0F5E2D 
  37      362A45A4 
  37      24D59A64 
  38 0039 B446A52C 		.ascii	"\264F\245,\021\025\004\021O\036D\254\032z\220\036\222"
  38      11150411 
  38      4F1E44AC 
  38      1A7A901E 
  38      92
  39 004a 525B8436 		.ascii	"R[\2046\361\275\331 \301\223\016\354\276y3\337\373\276"
  39      F1BDD920 
  39      C1930EEC 
  39      BE7933DF 
  39      FBBE
  40 005c F7DE3C43 		.ascii	"\367\336<C@\360\032QB\034'\233b\307\024\220\202>I\207"
  40      40F01A51 
  40      421C279B 
  40      62C71490 
ARM GAS  C:\Users\Sava\AppData\Local\Temp\cc1c2WDS.s 			page 3


  40      823E4987 
  41 0070 AE34E867 		.ascii	"\2564\350g(\220\201\001FC\314He`\006?\345\201Dsn\263"
  41      28908101 
  41      4643CC48 
  41      6560063F 
  41      E5814473 
  42 0086 21532597 		.ascii	"!S%\227\326\306\253\242r\313!|\212\353I\315+PB\212P"
  42      D6C6ABA2 
  42      72CB217C 
  42      8AEB49CD 
  42      2B50428A 
  43 009b 1F0AB5DB 		.ascii	"\037\012\265\333jG\372\0120\310\355\274+~?\314\256D"
  43      6A47FA0A 
  43      30C8EDBC 
  43      2B7E3FCC 
  43      AE44
  44 00ad 82DCCFC1 		.ascii	"\202\334\317\301z[\251Q\010\332\337\014+-;\271\344\272"
  44      7A5BA951 
  44      08DADF0C 
  44      2B2D3BB9 
  44      E4BA
  45 00bf 79D7DD9B 		.ascii	"y\327\335\233tm_)\334\207\">,c\014e\214\011:\022x\200"
  45      746D5F29 
  45      DC87223E 
  45      2C630C65 
  45      8C093A12 
  46 00d5 24A1DB2F 		.ascii	"$\241\333/Zs\246:\252#_z[_\314~d=\313\221\006V\376\216"
  46      5A73A63A 
  46      AA235F7A 
  46      5B5FCC7E 
  46      643DCB91 
  47 00ed 34041E22 		.ascii	"4\004\036\"\311\360oA\367\306p\254\300\211'\242tQA\214"
  47      C9F06F41 
  47      F7C670AC 
  47      C08927A2 
  47      7451418C 
  48 0101 0A045D2E 		.ascii	"\012\004].\004\033\035s\374\036s\205\007\313X(\207\205"
  48      041B1D73 
  48      FC1E7385 
  48      07CB5828 
  48      8785
  49 0113 84AF4C31 		.ascii	"\204\257L1H\246\313\253b\274z6t{=\317\015?\232\365\370"
  49      48A6CBAB 
  49      62BC7A36 
  49      747B3DCF 
  49      0D3F9AF5 
  50 0128 216801AA 		.ascii	"!h\001\252\223\022\214\201\367\026\311\232C\372\330"
  50      93128C81 
  50      F716C99A 
  50      43FAD8
  51 0137 8ED4455B 		.ascii	"\216\324E[w\247#\311\250M\344wj\253'X\234\204\347\375"
  51      77A723C9 
  51      A84DE477 
  51      6AAB2758 
  51      9C84E7FD 
  52 014b E67B8B3B 		.ascii	"\346{\213;\243tM{o\336^\213/\342\316UN\3634\021\305"
  52      A3744D7B 
ARM GAS  C:\Users\Sava\AppData\Local\Temp\cc1c2WDS.s 			page 4


  52      6FDE5E8B 
  52      2FE2CE55 
  52      4EF33411 
  53 0160 3CBAA9B1 		.ascii	"<\272\251\261:\335.\265\362\025+}\322W\026\002,\242"
  53      3ADD2EB5 
  53      F2152B7D 
  53      D2571602 
  53      2CA2
  54 0172 AB59F108 		.ascii	"\253Y\361\010\351A\"\2132zL\001\254\323\376\243\363"
  54      E941228B 
  54      327A4C01 
  54      ACD3FEA3 
  54      F3
  55 0183 CFC44F34 		.ascii	"\317\304O4\261~\367:\322}&o\177v\267d2\225\247,O1as"
  55      B17EF73A 
  55      D27D266F 
  55      7F76B764 
  55      3295A72C 
  56 019b BB568AB3 		.ascii	"\273V\212\263\236\011\205UB}E\341\223w\254\217!@u\253"
  56      9E098555 
  56      427D45E1 
  56      9377AC8F 
  56      214075AB 
  57 01af F16B3802 		.ascii	"\361k8\002\010\254\365\373\327\341\031S\232\260\273"
  57      08ACF5FB 
  57      D7E11953 
  57      9AB0BB
  58 01be D6271C8A 		.ascii	"\326'\034\212\010\327w\375\\\004\337\357\365z#x\032"
  58      08D777FD 
  58      5C04DFEF 
  58      F57A2378 
  58      1A
  59 01cf 29CFCF36 		.ascii	")\317\3176G#\234M\320\301\3212i>\033\232\267\303C\313"
  59      47239C4D 
  59      D0C1D132 
  59      693E1B9A 
  59      B7C343CB 
  60 01e3 8D2D06AF 		.ascii	"\215-\006\257\357\232\377W\261\201g\272b=\020\317\221"
  60      EF9AFF57 
  60      B18167BA 
  60      623D10CF 
  60      91
  61 01f4 F6E8217E 		.ascii	"\366\350!~ \037\336:\303<\234\3636@\031J\372\331\352"
  61      201FDE3A 
  61      C33C9CF3 
  61      3640194A 
  61      FAD9EA
  62 0207 7AB0027A 		.ascii	"z\260\002zMj\017\341\2178\271\363\3169'\227\27105=\301"
  62      4D6A0FE1 
  62      8F38B9F3 
  62      CE392797 
  62      B930353D 
  63 021c D6714E4D 		.ascii	"\326qNM\010\303q2\227\355\213\227&\263\231\351\251+"
  63      08C37132 
  63      97ED8B97 
  63      26B399E9 
  63      A92B
ARM GAS  C:\Users\Sava\AppData\Local\Temp\cc1c2WDS.s 			page 5


  64 022e D9DFFF02 		.ascii	"\331\337\377\002\004\024"
  64      0414
  65              		.text
  66              		.section	.gnu.lto_lv_ll_get_head.d4bd9b5,"",%progbits
  67 0000 789C6552 		.ascii	"x\234eRMkSQ\020\235s\347\276\304j\233v#\270\210\020"
  67      4D6B5351 
  67      109D73E7 
  67      BEC46A9B 
  67      7623B888 
  68 0015 17A174D3 		.ascii	"\027\241t\323\370\027\334\271v'\010EjQ\341\011\202P"
  68      F817DCB9 
  68      76270845 
  68      6A51E109 
  68      8250
  69 0027 DC486F92 		.ascii	"\334Ho\222\367@\272\260\272\260\264E\315B\244~\265M"
  69      F740BAB0 
  69      BAB0B445 
  69      CD42A47E 
  69      B54D
  70 0039 5C95FAC1 		.ascii	"\\\225\372\301\323*\005A\252+\021\021?Z\024J\027\211"
  70      D32A0541 
  70      AA2B1111 
  70      3F5A144A 
  70      1789
  71 004b 4D5B90A6 		.ascii	"M[\220\246q\346%\202\342\360\270s\347\3369g\316\314"
  71      71E62582 
  71      E2F0B873 
  71      E7DE3967 
  71      CECC
  72 005d 7D96406A 		.ascii	"}\226@j9CtH\374a\015\022\004\011a\014\0239ce\261\014"
  72      39437448 
  72      FC610D12 
  72      0409610C 
  72      13396365 
  73 0073 71B0F064 		.ascii	"q\260\360d\365\240\030\320\210a\353a\004\233\246a\360"
  73      F5A018D0 
  73      8861EB61 
  73      049BA661 
  73      F0
  74 0084 2E28DFE0 		.ascii	".(\337\340\272\011Y\262$\254\275\231ZIi\010d\364v\355"
  74      BA0959B2 
  74      24ACBD99 
  74      5A496908 
  74      64F476ED 
  75 0098 47B0AF6F 		.ascii	"G\260\257o\332\271\202\373\362\352\327\221k\305\360"
  75      DAB982FB 
  75      F2EAD791 
  75      6BC5F0
  76 00a7 68C8869A 		.ascii	"h\310\206\232\206p\027iL#\255\214\367\320'\271\237*"
  76      86701769 
  76      4C23AD8C 
  76      F7D027B9 
  76      9F2A
  77 00b9 CFAACC07 		.ascii	"\317\252\314\007@\262\237\210fW;z\357(\316\225\206\\"
  77      40B29F88 
  77      66573B7A 
  77      EF28CE95 
ARM GAS  C:\Users\Sava\AppData\Local\Temp\cc1c2WDS.s 			page 6


  77      865C
  78 00cb 47C88CFB 		.ascii	"G\310\214\373\340\277qrDx\200^M\337\330Y\\\357\342\203"
  78      E0BF7172 
  78      4478805E 
  78      4DDFD859 
  78      5CEFE283 
  79 00df 3174FDF3 		.ascii	"1t\375\363R\231\263\267\025\032}\030KM\272(\310HM<\374"
  79      5299B3B7 
  79      151A7D18 
  79      4B4DBA28 
  79      C8484D3C 
  80 00f4 17AE26D9 		.ascii	"\027\256&\331\337*\273\327\273\022\201\023\313`\006"
  80      DF2ABBD7 
  80      BB128113 
  80      CB6006
  81 0103 5995268A 		.ascii	"Y\225&\212f\221\220^\265\277\267O\257<\331\253t\243"
  81      6691905E 
  81      B5BFB74F 
  81      AF3CD9AB 
  81      74A3
  82 0115 2EAA2F77 		.ascii	".\252/w\216^\315\357\371\277\003A\314!\253\370\271c"
  82      8E5ECDEF 
  82      F9BF0341 
  82      CC21ABF8 
  82      B963
  83 0127 916B368B 		.ascii	"\221k6\213.z\337\375|\253;\011\322C\023\2572\022\221"
  83      2E7ADFFD 
  83      7CAB3B09 
  83      D24313AF 
  83      321291
  84 013a EBC5FB04 		.ascii	"\353\305\373\004)\011U\265\030\325\2148\376\216B\275"
  84      290955B5 
  84      18D58C38 
  84      FE8E42BD 
  85 014a BCB5C85A 		.ascii	"\274\265\310Z\273(z\373\323\364\025\301\307\342\343"
  85      BB287AFB 
  85      D3F415C1 
  85      C7E2E3
  86 0159 52B275C4 		.ascii	"R\262u\304\242f<|\261\234\324\361\2620\227\333\265k"
  86      A2663C7C 
  86      B19CD4F1 
  86      B23097DB 
  86      B56B
  87 016b FA5E8A5F 		.ascii	"\372^\212_\250m\257\264\361\236$o/\275\276\334Y\302"
  87      A86DAFB4 
  87      F19E246F 
  87      2FBDBEDC 
  87      59C2
  88 017d CDBC7677 		.ascii	"\315\274vw\\*Z!i\241\344\366\326\304\374F*7\343zB\366"
  88      5C2A5A21 
  88      69A1E4F6 
  88      D6C4FC46 
  88      2A37E37A 
  89 0193 504109BB 		.ascii	"PA\011\273\261\030<B.\346\264-\316\361J\343\217&\371"
  89      B1183C42 
  89      2EE6B42D 
  89      CEF14AE3 
ARM GAS  C:\Users\Sava\AppData\Local\Temp\cc1c2WDS.s 			page 7


  89      8F26F9
  90 01a6 64283F01 		.ascii	"d(?\001\221g^^\222\"\274\323\270(\251\362s\360*\362"
  90      91675E5E 
  90      9222BCD3 
  90      B828A9F2 
  90      73F02AF2 
  91 01ba 3DE444C8 		.ascii	"=\344D\310\032\012\321\346X\252\015Q\312\252\321Y\022"
  91      1A0AD1E6 
  91      58AA0D51 
  91      CAAAD159 
  91      12
  92 01cb EDF7874F 		.ascii	"\355\367\207O\373'\374\341\201sg/\014\252\367\375\376"
  92      FB27FCE1 
  92      8173672F 
  92      0CAAF7FD 
  92      FE
  93 01dc 41B2BE3F 		.ascii	"A\262\276?p\336\236\031:y\3527]\007\272\020"
  93      70DE9E19 
  93      3A79EA37 
  93      5D07BA10 
  94              		.text
  95              		.section	.gnu.lto_lv_ll_get_tail.d4bd9b5,"",%progbits
  96 0000 789C6552 		.ascii	"x\234eRKkSQ\020\236\357\314\2717Vk(\005\301E\204\270"
  96      4B6B5351 
  96      109EEFCC 
  96      B937566B 
  96      2805C145 
  97 0016 08A59BD6 		.ascii	"\010\245\233\326\337\340\312\265;A(RD\012W\020\224\202"
  97      DFE0CAB5 
  97      3B412852 
  97      440A5710 
  97      9482
  98 0028 AB9E24F7 		.ascii	"\253\236$\367\202\024\224\246`\037\322\032\361A}\265"
  98      821494A6 
  98      601FD21A 
  98      F1417DB5 
  99 0038 4D7C21BE 		.ascii	"M|!\276\270J\265 \024\037[\021\253\006\205\256\022\255"
  99      B84AB520 
  99      141F5B11 
  99      AB0685AE 
  99      12AD
 100 004a BAD1C699 		.ascii	"\272\321\306\231\233\010\212\303\345\314\231s\346\373"
 100      9B088AC3 
 100      E5CC9973 
 100      E6FB
 101 0058 E69B39D7 		.ascii	"\346\2339\327\022Hm\227!\332\251^\003\237 !\214a\"g"
 101      12486D97 
 101      21DAA95E 
 101      039F2021 
 101      8C612267 
 102 006c AC2C9621 		.ascii	"\254,\226!\016\026\236\254\036\024\003\0321l=\214\340"
 102      0E169EAC 
 102      1E14031A 
 102      316C3D8C 
 102      E0
 103 007d 9BF965F0 		.ascii	"\233\371e\360*\254\314\360\272\211X\262$l\254\234\371"
 103      2AACCCF0 
ARM GAS  C:\Users\Sava\AppData\Local\Temp\cc1c2WDS.s 			page 8


 103      BA8958B2 
 103      246CAC9C 
 103      F9
 104 008e 98D610C8 		.ascii	"\230\326\020\310\352\355\332\347pK\357\234s\005\267"
 104      EAEDDAE7 
 104      704BEF9C 
 104      7305B7
 105 009d FAF4FCEE 		.ascii	"\372\364\374\356R1\332\023\261\241\246!\\F\006s\310"
 105      5231DA13 
 105      B1A1A621 
 105      5C460673 
 105      C8
 106 00ae 28E315F4 		.ascii	"(\343\025\364J\356\333\352\243:\363v\220\354\247\342"
 106      4AEEDBEA 
 106      A33AF376 
 106      90ECA7E2 
 107 00be 855A47CF 		.ascii	"\205ZG\317%\305\271\362A\327\0211\343*\370o\234\034"
 107      25C5B9F2 
 107      41D71131 
 107      E32AF86F 
 107      9C1C
 108 00d0 11AEA147 		.ascii	"\021\256\241G\323\337\255\236;\351\363\216\004zs\354"
 108      D3DFAD9E 
 108      3BE9F38E 
 108      047A73EC 
 109 00e0 7B05B90B 		.ascii	"{\005\271\013\012\215\247\307\323\323.\016\263R\023"
 109      0A8DA7C7 
 109      D3D32E0E 
 109      B35213
 110 00ef D7FF85AB 		.ascii	"\327\377\205\253I\366\207\352\306\351\255~\350\304\262"
 110      49F687EA 
 110      C6E9AD7E 
 110      E8C4B2
 111 00fe 98474EA5 		.ascii	"\230GN\245\211\242\005\370\322\253\366\367\362\341\251"
 111      89A205F8 
 111      D2ABF6F7 
 111      F2E1A9
 112 010d 079B956E 		.ascii	"\007\233\225n\324\305\267^w\216\216\3457\375\337\201"
 112      D4C5B75E 
 112      778E8EE5 
 112      37FDDF81 
 113 011d 20169153 		.ascii	" \026\221S\374\342\336\3305\233E\027Ov?\276\323\235"
 113      FCE2DED8 
 113      359B4517 
 113      4F763FBE 
 113      D39D
 114 012f 02E9A149 		.ascii	"\002\351\241IV\031\211\310\365\222\275OJBu-F\015#\216"
 114      561989C8 
 114      F592BD4F 
 114      4A42752D 
 114      460D238E 
 115 0143 3FA1B05E 		.ascii	"?\241\260^y\266\304Z\273(z\3732\364\036\341\233\342"
 115      79B6C45A 
 115      BB287AFB 
 115      32F41EE1 
 115      9BE2
 116 0155 FD8BA9D6 		.ascii	"\375\213\251\326\021\213\232\211\350\311\213\224\216"
ARM GAS  C:\Users\Sava\AppData\Local\Temp\cc1c2WDS.s 			page 9


 116      118B9A89 
 116      E8C98B94 
 116      8E
 117 0162 9785B9D2 		.ascii	"\227\205\271\322\256\335\320\367R\374\275\306r\255\215"
 117      AEDDD0F7 
 117      52FCBDC6 
 117      72AD8D
 118 0171 F724F9C7 		.ascii	"\367$\371\307\362\363\023\235e\314\346\265\273}R\321"
 118      F2F3139D 
 118      65CCE6B5 
 118      BB7D52D1 
 119 0181 0A490B25 		.ascii	"\012I\013%\267g\247\356~M\367\317\273\256\210=TQ\306"
 119      B767A7EE 
 119      7E4DF7CF 
 119      BBAE883D 
 119      5451C6
 120 0194 46220637 		.ascii	"F\"\0067\320\237p\332\026\347Du\345\217&\371d(_\000"
 120      D09F70DA 
 120      16E74475 
 120      E58F26F9 
 120      64285F00 
 121 01a8 9167964A 		.ascii	"\221g\226J\342<\376Y:.\271\362wp\015\371.r\242d\015"
 121      E23CFE59 
 121      3A2EB9F2 
 121      77700DF9 
 121      2E72A264 
 122 01bd 85F8F678 		.ascii	"\205\370\366x\272\215Q\316\272\321a\022m\013\206\017"
 122      BA8D51CE 
 122      BAD16112 
 122      6D0B860F 
 123 01cd 05FB83E1 		.ascii	"\005\373\203\341\201\303CG\007\325\007A\337 \331 \030"
 123      81C34347 
 123      07D50741 
 123      DF20D920 
 123      18
 124 01de 38628F1D 		.ascii	"8b\217\035\030\012~\003\221\202\266\257"
 124      180A7E03 
 124      9182B6AF 
 125              		.text
 126              		.section	.gnu.lto_lv_ll_get_next.d4bd9b5,"",%progbits
 127 0000 789C6553 		.ascii	"x\234eS]HTA\024\236s\347\376\354\272\272\210\020\364"
 127      5D485441 
 127      149E73E7 
 127      FEECBABA 
 127      8810F4
 128 0013 B0A1208B 		.ascii	"\260\241 \213\371\242A/>FO\275\326s\260\204I\0047\011"
 128      F9A2412F 
 128      3E464FBD 
 128      D673B084 
 128      49043709 
 129 0027 12E96D47 		.ascii	"\022\351mGw\257XP\224\244\351fj\204h\226?\253i\376w"
 129      77AF5850 
 129      94A4E966 
 129      6A846896 
 129      3FAB69FE 
 130 003c B3A5C08A 		.ascii	"\263\245\300\212\266\036\212p\013\253\315Bz\330E\303"
 130      B61E8A70 
ARM GAS  C:\Users\Sava\AppData\Local\Temp\cc1c2WDS.s 			page 10


 130      0BABCD42 
 130      7AD845C3 
 131 004c 94743B67 		.ascii	"\224t;g\356\006\266\016\2733w\316|\3377\347|3\2432`"
 131      EE06B60E 
 131      BB3377CE 
 131      7CDF37E7 
 131      7C33A332 
 132 0061 D4B63863 		.ascii	"\324\2668c\2258\036\242\211\316@a\370W0(\024\025;\225"
 132      95381EA2 
 132      89CE4061 
 132      F8573028 
 132      14153B95 
 133 0075 030EA082 		.ascii	"\003\016\240\202\206\275\006\304\001\026T\270\252A\020"
 133      86BD06C4 
 133      011654B8 
 133      AA4110
 134 0084 7E29DB0A 		.ascii	"~)\333\012\274\011\217t\362u\305\342\210\302i\372U\344"
 134      BC098F74 
 134      F275C5E2 
 134      88C269FA 
 134      55E4
 135 0096 AB97A600 		.ascii	"\253\227\246\000%\264\272\372=\354)\357\023\242Q,\177"
 135      25B4BAFA 
 135      3DEC29EF 
 135      13A2512C 
 135      7F
 136 00a7 1B387A3D 		.ascii	"\0338z=d\035\263\270\3022\012\203~\360A\037\370H\361"
 136      641DB3B8 
 136      C2320A83 
 136      7EF0411F 
 136      F848F1
 137 00ba 1E9423F6 		.ascii	"\036\224#\366ct>\305\371~`\370\335n\017%\335e\275\304"
 137      63743EC5 
 137      F97E60F8 
 137      DD6E0F25 
 137      DD65BDC4 
 138 00ce 13DD35C2 		.ascii	"\023\3355\302mq\016\003\300w\3630\304\340>\224!:\322"
 138      6D710E03 
 138      C077F330 
 138      C4E03E94 
 138      213AD2
 139 00e1 F33266F0 		.ascii	"\3632f\360\003\22299|\2534K\334\220D\025\036\344\022"
 139      03923939 
 139      7CAB344B 
 139      DC904415 
 139      1EE412
 140 00f4 55068350 		.ascii	"U\006\203PF\350k\211\315Y\017/\225\314\310\342\013\323"
 140      46E86B89 
 140      CD590F2F 
 140      95CCC8E2 
 140      0BD3
 141 0106 7F57D88D 		.ascii	"\177W\330\215\302^j\361v\010;\\\202\271\302\320\377"
 141      C25E6AF1 
 141      76083B5C 
 141      82B9C2D0 
 141      FF
 142 0117 6C6A08FE 		.ascii	"lj\010\376\022\335i-\320\303\002[\011\014\203\237J\302"
ARM GAS  C:\Users\Sava\AppData\Local\Temp\cc1c2WDS.s 			page 11


 142      12DD692D 
 142      D0C3025B 
 142      090C839F 
 142      4AC2
 143 0129 4A464047 		.ascii	"JF@G\217t\004tD\227\323\032\312a\"\366\332\333\342\216"
 143      8F740474 
 143      4497D31A 
 143      CA6122F6 
 143      DADBE28E 
 144 013d 7E29A7B1 		.ascii	"~)\247\261\\-\210\202\377\177\270\030\215\013 0\333"
 144      5C2D8882 
 144      FF7FB818 
 144      8D0B2030 
 144      DB
 145 014e 0B1E95E0 		.ascii	"\013\036\225\340\233w\306\177{\262\340\261d\017\210"
 145      9B77C67F 
 145      7BB2E0B1 
 145      640F88
 146 015d 4B472CAE 		.ascii	"KG,\256\357E\217It|\356\352l\036\241/\013{\023\013s"
 146      EF458F49 
 146      747CEEEA 
 146      6C1EA12F 
 146      0B7B130B 
 147 0172 32C93D04 		.ascii	"2\311=\004\204?\004?\225B\033$\236u\351\374\240\264"
 147      843F043F 
 147      95421B24 
 147      9E75E9FC 
 147      A0B4
 148 0184 6567A621 		.ascii	"eg\246!\346\315\026\222n)\316\372\242\303\370^_`\002"
 148      E6CD1692 
 148      6E29CEFA 
 148      A2C3F85E 
 148      5F6002
 149 0197 FCC3276C 		.ascii	"\374\303'l\221\311\204\204\375\241\350\311VQ\201\012"
 149      91C98484 
 149      FDA1E8C9 
 149      5651810A 
 150 01a7 74467873 		.ascii	"tFxs\320p]\002\014<\000\315\205\035sc\247{\030\345\302"
 150      D0705D02 
 150      0C3C00CD 
 150      851D7363 
 150      A77B18E5 
 151 01bc 52641F4B 		.ascii	"Rd\037K+8\360\025h\\O\275\213q\351&&\004\025>\366\031"
 151      2B38F015 
 151      685C4FBD 
 151      8B71E926 
 151      2604153E 
 152 01d2 C24BA1C7 		.ascii	"\302K\241\307\275\006\305B\234nZ\233\265\360\332\240"
 152      BD06C542 
 152      9C6E5A9B 
 152      B5F0DAA0 
 153 01e2 9BC681C1 		.ascii	"\233\306\201\301\243l\006i\272\272$\020\211&\222F\356"
 153      A36C0669 
 153      BABA2410 
 153      89269246 
 153      EE
 154 01f3 39E1EEF2 		.ascii	"9\341\356\362\2100\323I\222\301\237\306\020<\235N\334"
ARM GAS  C:\Users\Sava\AppData\Local\Temp\cc1c2WDS.s 			page 12


 154      8830D349 
 154      92C19FC6 
 154      103C9D4E 
 154      DC
 155 0204 703B21E2 		.ascii	"p;!\342l<_l\316\357\206\333`q\003\367r\3041\336\325"
 155      6C3C5F6C 
 155      CEEF86DB 
 155      607103F7 
 155      72C431DE 
 156 0219 3EB9E6AD 		.ascii	">\271\346\255\034\024\205\026w\301\024t\303\216L\032"
 156      1C148516 
 156      77C11474 
 156      C38E4C1A 
 157 0229 A6A11255 		.ascii	"\246\241\022UBmM\177\270#\342B\035i\012F;u'\346\226"
 157      426D4D7F 
 157      B823E242 
 157      1D690A46 
 157      3B7527E6 
 158 023e DBB9D80F 		.ascii	"\333\271\330\017h\022\207)D\212SS?\227\214\340\266h"
 158      68128729 
 158      448A5353 
 158      3F978CE0 
 158      B668
 159 0250 1624EACE 		.ascii	"\026$\352\316(xy`\006\202\264\026\177\3774\006\270F"
 159      28787960 
 159      0682B416 
 159      7FFF3406 
 159      B846
 160 0262 EDB8C5F3 		.ascii	"\355\270\305\363\244\023\304\203Y\010\242\336\356\267"
 160      A413C483 
 160      5908A2DE 
 160      EEB7
 161 0270 E7C1173A 		.ascii	"\347\301\027:\007>\213\347K\017T\307\203\266\350'\307"
 161      073E8BE7 
 161      4B0F54C7 
 161      83B6E827 
 161      C7
 162 0281 C41002E8 		.ascii	"\304\020\002\350\216\256\300BB\373\347*\362\257\210"
 162      8EAEC042 
 162      42FBE72A 
 162      F2AF88
 163 0290 78ABBB6A 		.ascii	"x\253\273jB4\003\235\001\314C\225\244\343[\347Ih(d\002"
 163      4234039D 
 163      01CC4395 
 163      A4E35BE7 
 163      49682864 
 164 02a5 CD5C0525 		.ascii	"\315\\\005%+A\265\246(C\254z\237Y\177\306<i\326\007"
 164      2B41B5A6 
 164      2843AC7A 
 164      9F597FC6 
 164      3C69D607 
 165 02b9 CE9DBD50 		.ascii	"\316\235\275PM\243iVT3\3254\003\347\265\332\300\251"
 165      4DA36956 
 165      5433D534 
 165      03E7B5DA 
 165      C0A9
 166 02cb EA3AB5B6 		.ascii	"\352:\265\266\346b\235!?\003\247\377\002\245\326M\263"
ARM GAS  C:\Users\Sava\AppData\Local\Temp\cc1c2WDS.s 			page 13


 166      E6629D21 
 166      3F03A7FF 
 166      02A5D64D 
 166      B3
 167              		.text
 168              		.section	.gnu.lto_lv_ll_get_prev.d4bd9b5,"",%progbits
 169 0000 789C6553 		.ascii	"x\234eS[HTA\030\236\357\314\271\270\272-\202\004=l$"
 169      5B485441 
 169      189EEFCC 
 169      B9B8BA2D 
 169      82043D6C 
 170 0015 C8623EA4 		.ascii	"\310b>\244A/>\367\344k=\007K\230D\260\205T\370\272\243"
 170      412F3EF7 
 170      E46B3D07 
 170      4B9844B0 
 170      8554F8BA 
 171 002a BB472428 		.ascii	"\273G$(\010\323t\363J\230v\361\262\232\367\013'\221"
 171      08D374F3 
 171      4A9876F1 
 171      B29AF70B 
 171      2791
 172 003c 8228B27A 		.ascii	"\202(\262z\324@K2$i\227\014{H\267\377?g\003[\207sf\316"
 172      D4404B32 
 172      2469970C 
 172      7B48B7FF 
 172      3F67035B 
 173 0054 FCF37DDF 		.ascii	"\374\363}\337\374\377wft\001\301mT\012QA\343i\236\230"
 173      FCFF7766 
 173      7401C16D 
 173      540A5141 
 173      E3699E98 
 174 0068 029AA057 		.ascii	"\002\232\240W\243\240\322t\352t\011\032\240\303\240"
 174      A3A0D274 
 174      EA74091A 
 174      A0C3A0
 175 0077 DE007320 		.ascii	"\336\000s \242\232\324\015D\361K\333\323\360>>\322!"
 175      A29AD40D 
 175      44F14BDB 
 175      D3F03E3E 
 175      D221
 176 0089 77345B12 		.ascii	"w4[\022\212\246\351\267\211/\001\236\002\305\274\272"
 176      8AA6E9B7 
 176      892F019E 
 176      02C5BCBA 
 177 0099 B5192F28 		.ascii	"\265\031/(\353W\252A\255\365\215\235\275\033\263\253"
 177      EB57AA41 
 177      ADF58D9D 
 177      BD1BB3AB 
 178 00a9 6CA9898C 		.ascii	"l\251\211\214&0\200 \372\021d\305\307(#\354\247\344"
 178      26308020 
 178      FA1164C5 
 178      C72823EC 
 178      A7E4
 179 00bb 424ACA63 		.ascii	"BJ\312c\020\364\335\346\014m\370J\373\230\247\272k\224"
 179      10F4DDE6 
 179      0C6DF84A 
 179      FB98A7BA 
ARM GAS  C:\Users\Sava\AppData\Local\Temp\cc1c2WDS.s 			page 14


 179      6B94
 180 00cd CF96124F 		.ascii	"\317\226\022O \017\362($\360\024\245\204N\364\274Y\262"
 180      200FF228 
 180      24F014A5 
 180      844EF4BC 
 180      59B2
 181 00df E4719739 		.ascii	"\344q\22795\374\240$K\334u\211:\236\345\022u\201A\224"
 181      35FCA024 
 181      4BDC7589 
 181      3A9EE512 
 181      75814194 
 182 00f3 32BA6771 		.ascii	"2\272gq\375\224,q\211\211\017c\216\031z\250\234\006"
 182      FD942C71 
 182      89890F63 
 182      8E197AA8 
 182      9C06
 183 0105 E5743707 		.ascii	"\345t7\007\332\225\023/\246\\1\364?\233\033\241?'\367"
 183      DA95132F 
 183      A65C31F4 
 183      3F9B1BA1 
 183      3F27F7
 184 0118 5B8E9871 		.ascii	"[\216\230qE\255\030\303\010qIT\311\010L\362\310 @{r"
 184      45AD18C3 
 184      08714954 
 184      C9084CF2 
 184      C820407B 
 185 012d 2D6D901C 		.ascii	"-m\220\034%\342L~\364\267\017\270r\206\310\325B\022"
 185      25E24C7E 
 185      F4B70FB8 
 185      7286C8D5 
 185      4212
 186 013f 2182DFEF 		.ascii	"!\202\337\357\035\377]\340\301\325\350\262\002\203\315"
 186      1DFF5DE0 
 186      C1D5E8B2 
 186      0283CD
 187 014e C3E05117 		.ascii	"\303\340Q\027\274<\177g.\237\301\267\2243O\251z\332"
 187      BC3C7F67 
 187      2E9FC1B7 
 187      94334FA9 
 187      7ADA
 188 0160 B9B6127C 		.ascii	"\271\266\022|\014!N\216\365W_v\231\362\244[\351\376"
 188      0C214E8E 
 188      F5575F76 
 188      99F2A45B 
 188      E9FE
 189 0172 6CFD5220 		.ascii	"l\375R \233\332x\363\211l\245&\236\037\256\024\343\010"
 189      9BDA78F3 
 189      896CA526 
 189      9E1FAE14 
 189      E308
 190 0184 0D9F7754 		.ascii	"\015\237wT&\023SNg\321\213\205\"\277\016v\235\316\002"
 190      2613534E 
 190      67D18B85 
 190      22BF0E76 
 190      9DCE02
 191 0197 5968BA00 		.ascii	"Yh\272\000\213,5\362\2503\363\005\247!R\354\205Hk4\310"
 191      8B2C35F2 
ARM GAS  C:\Users\Sava\AppData\Local\Temp\cc1c2WDS.s 			page 15


 191      A833F305 
 191      A72152EC 
 191      85486B34 
 192 01ac AF68D849 		.ascii	"\257h\330Im.I\327\032\312\005\345A\261\216\370Jl\363"
 192      6D2E49D7 
 192      1ACA05E5 
 192      41B18EF8 
 192      4A6CF3
 193 01bf 91C5B198 		.ascii	"\221\305\261\230\344c\323j/\276\263\370\330H\010Ld7"
 193      E463D36A 
 193      2FBEB3F8 
 193      D848084C 
 193      6437
 194 01d1 4FF33964 		.ascii	"O\3639d\201Dr{\303\3125\2356v\375\246$'Y\206\036C\020"
 194      8144727B 
 194      C3CA359D 
 194      3676FDA6 
 194      24275986 
 195 01e8 7826BD7D 		.ascii	"x&\275}\317\347\205\230\263\373\352u\223\277\033\235"
 195      CFE78598 
 195      B3FBEA75 
 195      93BF1B9D 
 196 01f8 B0A5457B 		.ascii	"\260\245E{y\342\024\357j\233\372\031\250\030T\205\266"
 196      79E214EF 
 196      6A9BFA19 
 196      A8185485 
 196      B6
 197 0209 CCC314BA 		.ascii	"\314\303\024\272\261\357&\215iT\220J\254\243\361\217"
 197      B1EF268D 
 197      6954904A 
 197      ACA3F18F 
 198 0219 F444F25C 		.ascii	"\364D\362\\iK|C\243:\303!fOO\177_\261\242{\252I\261"
 198      694B7C43 
 198      A33AC321 
 198      664F4F7F 
 198      5FB1A27B 
 199 0230 802FA3D1 		.ascii	"\200/\243\321_\307\014\242\274\326\333\326_EK\334\316"
 199      5FC70CA2 
 199      BCD6DBD6 
 199      5F454BDC 
 199      CE
 200 0241 D932DF2D 		.ascii	"\3312\337-\232i\230E\224\344\016\336\231\002\272Ys\010"
 200      9A699845 
 200      94E40EDE 
 200      9902BA59 
 200      7308
 201 0253 DAD2EF96 		.ascii	"\332\322\357\226\253{\345\266&\177x~\305<6\345\263\270"
 201      AB7BE5B6 
 201      267F787E 
 201      C53C36E5 
 201      B3B8
 202 0265 6AFC3390 		.ascii	"j\3743\220\370\267\325r\213\257rB5\201\355\306<*]:\335"
 202      F8B7D572 
 202      8BAF7242 
 202      3581EDC6 
 202      3C2A5D3A 
 203 027a 51B981FA 		.ascii	"Q\271\201\372B\241\310\267-hY\011.+\305\011R\201G#u"
ARM GAS  C:\Users\Sava\AppData\Local\Temp\cc1c2WDS.s 			page 16


 203      42A1C8B7 
 203      2D685909 
 203      2E2BC509 
 203      52814723 
 204 028f 97231722 		.ascii	"\227#\027\"u\341\253WnT\363\030\211\224W\013=\022\011"
 204      75E1AB57 
 204      6E54F318 
 204      8994570B 
 204      3D1209
 205 02a2 D71AD7C2 		.ascii	"\327\032\327\302\027\253o\352\265\327k\352,\3673|\351"
 205      17AB6FEA 
 205      B5D76BEA 
 205      2CF7337C 
 205      E9
 206 02b3 2FCBB436 		.ascii	"/\313\2646\207"
 206      87
 207              		.text
 208              		.section	.gnu.lto_lv_ll_swap.d4bd9b5,"",%progbits
 209 0000 789C6361 		.ascii	"x\234ca`d\000\001' \245\006\244EA\034f\006F&\006 f\004"
 209      60640001 
 209      2720A506 
 209      A445411C 
 209      66064626 
 210 0018 C93132D4 		.ascii	"\31112\32431\3263~e\372\313\304x\250\375\331N&\315\345"
 210      3331D633 
 210      7E65FACB 
 210      C478A8FD 
 210      D94E26CD 
 211 002d 0D40F060 		.ascii	"\015@\360`\351.\243\206\025\007\030[\231\031\030\376"
 211      E92EA386 
 211      1507185B 
 211      991918FE 
 212 003d 3381CD60 		.ascii	"3\201\315``\\\316\250\011Tu\261e\303\034\346/L\255\314"
 212      605CCEA8 
 212      095475B1 
 212      65C31CE6 
 212      2F4CADCC 
 213 0051 8C8C2C40 		.ascii	"\214\214,@\356\307\263\263\036\363\201\270L\214\012"
 213      EEC7B3B3 
 213      1EF381B8 
 213      4C8C0A
 214 0060 40EEDD8D 		.ascii	"@\356\335\215\373>03K02\000\3313\016\254{\302\251\276"
 214      FB3E3033 
 214      4B303200 
 214      D9330EAC 
 214      7BC2A9BE 
 215 0074 B4A1A1A9 		.ascii	"\264\241\241\251\241\341{J\003g+33\343*Ff\240y\214+"
 215      A1E17B4A 
 215      03672B33 
 215      33E32A46 
 215      66A0798C 
 216 0089 19651857 		.ascii	"\031e\030W0\3120\000\205\030\030W3\252\003Uo\350\234"
 216      30CA3000 
 216      85181857 
 216      33AA0355 
 216      6FE89C
 217 009c 75838B59 		.ascii	"u\203\213Y\026\254\363\373\361\266\317\354P\235\033"
ARM GAS  C:\Users\Sava\AppData\Local\Temp\cc1c2WDS.s 			page 17


 217      16ACF3FB 
 217      F1B6CFEC 
 217      509D1B
 218 00ab 53413A59 		.ascii	"SA:Y\030\327\240\353da`\\\013\326\271v\322\204\313\254"
 218      18D7A0EB 
 218      6461605C 
 218      0BD6B976 
 218      D284CBAC 
 219 00bf CC4A609D 		.ascii	"\314J`\235\0357\276\366\363Bu\336\206\352\\\207E\347"
 219      1D37BEF6 
 219      F34275DE 
 219      86EA5C87 
 219      45E7
 220 00d1 7A467590 		.ascii	"zFu\220\362G\033\377M\345ek\001yY\001\342Q\306\015\214"
 220      F2471BFF 
 220      4DE5656B 
 220      01795901 
 220      E251C60D 
 221 00e6 6CA08059 		.ascii	"l\240\200Y\037t\240\341\377\377\346\206\003W\205\017"
 221      1F74A0E1 
 221      FFFFE686 
 221      0357850F 
 222 00f6 DE1306CA 		.ascii	"\336\023\006\312|\000\007\303G& \305\374\012\030z@u"
 222      7C0007C3 
 222      472620C5 
 222      FC0A187A 
 222      4075
 223 0108 E060F9C0 		.ascii	"\340`\371\300\004T\016\024\024\315)K\317\211\311)\213"
 223      04540E14 
 223      14CD294B 
 223      CF89C929 
 223      8B
 224 0119 CFCD2C4E 		.ascii	"\317\315,N\006\32199z\311\014,99\361\005,y\206 \302"
 224      06D13939 
 224      7AC90C2C 
 224      3939F105 
 224      2C798620 
 225 012e 28BE0000 		.ascii	"(\276\000\000%\357tG"
 225      25EF7447 
 226              		.text
 227              		.section	.gnu.lto_node_set_prev.d4bd9b5,"",%progbits
 228 0000 789C7D53 		.ascii	"x\234}S\315KTQ\024\277\347\335\367\241\276\231r\023"
 228      CD4B5451 
 228      14BFE7DD 
 228      F7A1BE99 
 228      7213
 229 0012 BAB0B0C5 		.ascii	"\272\260\260\305$\006i\264j\023\264\350/h[0\204I\030"
 229      240669B4 
 229      6A13B4E8 
 229      2F685B30 
 229      844918
 230 0025 53498641 		.ascii	"SI\206A\233\271\343\314S[\025\201\3318\312\030aZ\346"
 230      9BB9E3CC 
 230      535B1581 
 230      D938CA18 
 230      615AE6
 231 0038 C7686A63 		.ascii	"\307hjcj\343\020EAeP\004I0\226_H\305L(\265\321\351\234"
ARM GAS  C:\Users\Sava\AppData\Local\Temp\cc1c2WDS.s 			page 18


 231      6AE31045 
 231      41655004 
 231      4930965F 
 231      48C54C28 
 232 0050 FB9E548E 		.ascii	"\373\236T\216ta\346\336{\316\371\375\356\357|<\225\001"
 232      7461E6DE 
 232      7BCEF9FD 
 232      EEEF7C3C 
 232      9501
 233 0062 A3155619 		.ascii	"\243\025V\031;\214\3731\272\3441P\030\376\024\316\230"
 233      3B8CFB31 
 233      BAE43150 
 233      18FE14CE 
 233      98
 234 0073 50D02354 		.ascii	"P\320#T\016\006ZTE#\213N\026MZt\371o\000\261\000\363"
 234      0E065A54 
 234      45238B4E 
 234      164D5A74 
 234      F96F00B1 
 235 0089 2B5CD574 		.ascii	"+\\\325t\003\374\260\246\254+\220lZ\214+\345\335\002"
 235      03FCB0A6 
 235      AC2B906C 
 235      5A8C2BE5 
 235      DD02
 236 009b 57AAEBC7 		.ascii	"W\252\353\307\331\200\260\212-\244\314*\362I\006\335"
 236      D980B08A 
 236      2DA4CC2A 
 236      F24906DD 
 237 00ab 508E516F 		.ascii	"P\216QoC\203\355|U\2618\200\212\327\314\253\266/;\350"
 237      4383ED7C 
 237      55B13880 
 237      8AD7CCAB 
 237      B62F3BE8 
 238 00bf AA40295E 		.ascii	"\252@)^?\305\246\322\234\027\003\303\363\255D\377|~"
 238      3FC5A6D2 
 238      9C1703C3 
 238      F3AD44FF 
 238      7C7E
 239 00d1 5997100D 		.ascii	"Y\227\020\015BD\252E\276\3059\334\007\216|p\017J\240"
 239      4244AA45 
 239      BEC539DC 
 239      078E7C70 
 239      0F4AA0
 240 00e4 074A189A 		.ascii	"\007J\030\232\030\364B\031F\177\353\215\316q\276[\""
 240      18F44219 
 240      467FEB8D 
 240      CE71BE5B 
 240      22
 241 00f5 879B5E2F 		.ascii	"\207\233^/s\007\271&\221*<\330\212T\031\364Idgr\356"
 241      7307B926 
 241      912A3CD8 
 241      8A5419F4 
 241      49646772 
 242 010a 00DF2B81 		.ascii	"\000\337+\201\251\231\3211\035\201\011\004N>s\211\353"
 242      A999D131 
 242      1D810904 
 242      4E3E7389 
ARM GAS  C:\Users\Sava\AppData\Local\Temp\cc1c2WDS.s 			page 19


 242      EB
 243 011b 40D0FE6D 		.ascii	"@\320\376m\240\003PF\200\211\276\0277v\360}\022\274"
 243      A0035046 
 243      8089BE17 
 243      3776F07D 
 243      12BC
 244 012d 3E752DA5 		.ascii	">u-\245x\356\320\253\211H\353\316\260H\204J-\256\301"
 244      78EED0AB 
 244      8948EBCE 
 244      B048844A 
 244      2DAEC1
 245 0140 E0BF705A 		.ascii	"\340\277pZ\030\3759\266\321\342\326CT\255R\210\201\307"
 245      18FD39B6 
 245      D1E2D643 
 245      54AD5288 
 245      81C7
 246 0152 AE130C61 		.ascii	"\256\023\014a\215\031\3231 \022h\277\313\371!;!1\376"
 246      8D19D331 
 246      201268BF 
 246      CBF9213B 
 246      2131FE
 247 0165 DDED5077 		.ascii	"\335\355Pw\264\272\302=\222Z\205\341\\jx\010\036D\204"
 247      B4BAC23D 
 247      925A85E1 
 247      5C6A7808 
 247      1E4484
 248 0178 63A98C66 		.ascii	"c\251\214f#\304\344|'\210\253G-\256\263\234\350\021"
 248      23C4E47C 
 248      2788AB47 
 248      2DAEB39C 
 248      E811
 249 018a 19DD7A7B 		.ascii	"\031\335z{\344\227\351D\017\315\010\220\354\271\301"
 249      E497E944 
 249      0FCD0890 
 249      ECB9C1
 250 0199 A35BA913 		.ascii	"\243[\251\023\321V\267#f\033\356\261\034%\233\334Fn"
 250      D156B723 
 250      661BEEB1 
 250      1C259BDC 
 250      466E
 251 01ab F023F050 		.ascii	"\360#\360P\031\006\216'D6\033\024\211\226\242\351\301"
 251      19068E27 
 251      44361B14 
 251      8996A2E9 
 251      C1
 252 01bc 22B702D4 		.ascii	"\"\267\002\324$\2547\2724\252\274\016\324o\003\217z"
 252      24AC37BA 
 252      34AABC0E 
 252      D46F038F 
 252      7A
 253 01cd 1EDD0BE8 		.ascii	"\036\335\013\350d2\242di9i\031\0057>\007\241\217\301"
 253      6432A264 
 253      69396919 
 253      05373E07 
 253      A18FC1
 254 01e0 817E830A 		.ascii	"\201~\203\012\032\3444\2367\255\344\033\203&M\005\006"
 254      1AE4349E 
ARM GAS  C:\Users\Sava\AppData\Local\Temp\cc1c2WDS.s 			page 20


 254      37ADE41B 
 254      83264D05 
 254      06
 255 01f1 71E7D934 		.ascii	"q\347\3314\015=\317\320\324\363EhXM/.p\033B\3039\235"
 255      0D3DCFD0 
 255      D4F34568 
 255      584D2F2E 
 255      701B42C3 
 256 0207 1ACA9804 		.ascii	"\032\312\230\004\321@\205q\204`H[l\311rB49\005\370\322"
 256      D1408571 
 256      8460485B 
 256      6CC97242 
 256      343905F8 
 257 021c 6C70CFA6 		.ascii	"lp\317\246e\2238C\337\016Q\216\317\225\330>\343o\015"
 257      65933843 
 257      DF0E518E 
 257      CF95D83E 
 257      E36F0D
 258 022f 5CB6F5E7 		.ascii	"\\\266\365\347\363\227\315\256(t\004h\012.c\022yA\256"
 258      F397CDAE 
 258      28740468 
 258      0A2E6312 
 258      7941AE
 259 0242 C363A240 		.ascii	"\303c\242@o\327|C\277Q\331G>QG\032& \012\0332G\230\204"
 259      6FD77C43 
 259      BF51D947 
 259      3E51471A 
 259      26200A1B 
 260 025a 4A14136C 		.ascii	"J\024\023l\327mn\304)\370\002[\206Fq\204L\204\217\307"
 260      D76D6EC4 
 260      29F8025B 
 260      86467184 
 260      4C848FC7 
 261 026e BFCE1AFE 		.ascii	"\277\316\032\376u\321,D\241\305\363\263\012\016\026"
 261      75D12C44 
 261      A1C5F3B3 
 261      0A0E16
 262 027d 4C819F61 		.ascii	"L\201\237a<\272W\236F\026Lt\323\372\200s^@\331H,<\001"
 262      3CBA579E 
 262      46164C74 
 262      D3FA8073 
 262      5E40D948 
 263 0294 3F16C0E2 		.ascii	"?\026\300\342\246LDw\022\311,\275\327\354\347\012\266"
 263      A64C4477 
 263      12C92CBD 
 263      D7ECE70A 
 263      B6
 264 02a5 6AF7FE4F 		.ascii	"j\367\376O\373\011\322\236\370\243}\332\321\336\370"
 264      FB09D29E 
 264      F8A37DDA 
 264      D1DEF8
 265 02b4 0E6C3A53 		.ascii	"\016l:S\252/@\365\372\366\332]Y\352)$\245v\023\366\227"
 265      AA2F40F5 
 265      FAF6DA5D 
 265      59EA2924 
 265      A57613F6 
 266 02c9 48756EA9 		.ascii	"Hun\251\016\373\316\347!P\310\004vr\005\032\012\231"
ARM GAS  C:\Users\Sava\AppData\Local\Temp\cc1c2WDS.s 			page 21


 266      0EFBCEE7 
 266      2150C804 
 266      7672051A 
 266      0A99
 267 02db D358CC16 		.ascii	"\323X\314\026A\273|\365g|'}\365\336s5uU\264\373|\025"
 267      41BB7CF5 
 267      677C277D 
 267      F5DE7335 
 267      7555B4FB 
 268 02f1 554CF5F9 		.ascii	"UL\365\371\274\265\374T\325%\265\366bu\275y\376\302"
 268      BCB5FC54 
 268      D525B5F6 
 268      6275BD79 
 268      FEC2
 269 0303 E96A6FAD 		.ascii	"\351jo\255\267\256\346J\265N\206\212\203\277\001B\237"
 269      B7AEE64A 
 269      B54E868A 
 269      83BF0142 
 269      9F
 270 0314 810E     		.ascii	"\201\016"
 271              		.text
 272              		.section	.gnu.lto_node_set_next.d4bd9b5,"",%progbits
 273 0000 789C9554 		.ascii	"x\234\225T\335KTA\024\2373s?\334vW}\250\364A\303\036"
 273      DD4B5441 
 273      149F3373 
 273      3FDC7657 
 273      7DA8F441 
 274 0016 4C0C520A 		.ascii	"L\014R\012\202^\202\036\372\013z\016$L\302\330LP$z\331"
 274      825E821E 
 274      FA0B7A0E 
 274      244CC2D8 
 274      4C50247A 
 275 002b D1F5AA3D 		.ascii	"\321\365\252=%E\232f\230\204i\231\037\253Y\371\331\325"
 275      25459A66 
 275      98846999 
 275      1FAB59F9 
 275      D9D5
 276 003d A248FAA4 		.ascii	"\242H\372\244\0071S\264L\244\014\\\362\243\002\335\316"
 276      073153B4 
 276      4CA40C5C 
 276      F2A302DD 
 276      CE
 277 004e 99BD52B9 		.ascii	"\231\275R\271\0225\260\367\3369\363\373\375\346\374"
 277      1235B0F7 
 277      DE39F3FB 
 277      FDE6FC
 278 005d E69C598D 		.ascii	"\346\234Y\215\001\243\261Ug\354\000\276\017\323$\206"
 278      01A3B155 
 278      67EC00BE 
 278      0FD32486 
 279 006d 0167F8E3 		.ascii	"\001g\370\343\2021\3115|h\002L\214h\\\247\210A\021]"
 279      8231C935 
 279      7C68024C 
 279      8C685CA7 
 279      8841115D 
 280 0081 450CF534 		.ascii	"E\014\3654\201T\200\371\271\320t\303\004?,\361U\016"
 280      815480F9 
ARM GAS  C:\Users\Sava\AppData\Local\Temp\cc1c2WDS.s 			page 22


 280      B9D074C3 
 280      043F2CF1 
 280      550E
 281 0093 C3E5B33D 		.ascii	"\303\345\263=<\275I\342\230\262~\234,\226V\242\205\222"
 281      3CBD49E2 
 281      98B27E9C 
 281      2C9656A2 
 281      8592
 282 00a5 61AEB664 		.ascii	"a\256\266d\320\004\351\210z]\332Q'\026\271%\0004\234"
 282      D004E988 
 282      7A5DDA51 
 282      2716B925 
 282      00349C
 283 00b8 869ED77E 		.ascii	"\206\236\327~\210\245)\207\024\234N\004\007\027\204"
 283      88A52987 
 283      149C4E04 
 283      071784
 284 00c7 480486DF 		.ascii	"H\004\206\337\227\355\266\031WZ\243\224%R^\311\221."
 284      97EDB619 
 284      575AA394 
 284      25525EC9 
 284      912E
 285 00d9 4B08B805 		.ascii	"K\010\270\005\002\365\340&$A3$1\0141h\2014D\177i\251"
 285      02F5E026 
 285      24413324 
 285      310C3168 
 285      8134447F 
 286 00ef 9F162259 		.ascii	"\237\026\"Y1\273\312_\314\011\207\271\244\230\032\334"
 286      31BBCA5F 
 286      CC0987B9 
 286      A4981ADC 
 287 00ff DEC8D418 		.ascii	"\336\310\324\030\264*f\345\273\357\375n\261S1\307&\373"
 287      B42A66E5 
 287      BBEFFD6E 
 287      B15331C7 
 287      26FB
 288 0111 2E6AC8B4 		.ascii	".j\310\264\2219\360\330#+\201\270m\233p\333!\215\010"
 288      9139F0D8 
 288      232B81B8 
 288      6D9B70DB 
 288      218D08
 289 0124 FDAD4F2F 		.ascii	"\375\255O/\304\212]\212\274:x~\212\247^\247m\355\261"
 289      C48A5D8A 
 289      BC3A787E 
 289      8AA75EA7 
 289      6DEDB1
 290 0137 EAB81A69 		.ascii	"\352\270\032i\227\246XB\207\216?\3514\020\375>\270v"
 290      97A65842 
 290      878E3FE9 
 290      3410FD3E 
 290      B876
 291 0149 C96B94D2 		.ascii	"\311k\224\322q\245@\020R#\007\005\235x\310X\023\004"
 291      71A54010 
 291      52230705 
 291      9D78C858 
 291      1304
 292 015b 34D82337 		.ascii	"4\330#7\270\330\247\244k\312\307kuGz\274\332S\323\254"
ARM GAS  C:\Users\Sava\AppData\Local\Temp\cc1c2WDS.s 			page 23


 292      B8D8A7A4 
 292      6BCAC76B 
 292      75477ABC 
 292      DA53D3AC 
 293 016f A435E88A 		.ascii	"\2445\350\212\226\206;\220J\214\340T\310a\310\2573\327"
 293      96863B90 
 293      4A8CE054 
 293      C861C8AF 
 293      33D7
 294 0181 409E3B64 		.ascii	"@\236;d\011\203E\241\273\243\320\235\257$\220:D\203"
 294      098345A1 
 294      BBA3D09D 
 294      AF24903A 
 294      4483
 295 0193 EF2A7075 		.ascii	"\357*puC\3677\267\003\036X\227\326\242\321\3676J\333"
 295      43F737B7 
 295      031E5897 
 295      D6A2D1F7 
 295      364ADB
 296 01a6 13A3DB9D 		.ascii	"\023\243\333\235\3247\311\344\376\377d\322\023\225I"
 296      D437C9E4 
 296      FEFF64D2 
 296      139549
 297 01b5 F75F32E9 		.ascii	"\367_2\351\205T:\342\366#\266\014\207\003\322~\2230"
 297      85543AE2 
 297      F623B60C 
 297      8703D27E 
 297      9330
 298 01c7 349910C7 		.ascii	"4\231\020\307\201:\000k\211K:U\325\000j&\023?\215\030"
 298      813A006B 
 298      894B3A55 
 298      D5006A26 
 298      133F8D18 
 299 01db 7C808B82 		.ascii	"|\200\213\202n\232zh\352U\225g\013\252\241C\034_b\032"
 299      6E9A7A68 
 299      EA559567 
 299      0BAAA143 
 299      1C5F621A 
 300 01ef 4ADF065A 		.ascii	"J\337\006Z\332M*[@\320-\250\262\206_\232\324\320\032"
 300      DA4D2A5B 
 300      40D02DA8 
 300      B2865F9A 
 300      D4D01A
 301 0202 30E87312 		.ascii	"0\350s\022X\240\273%Bt\271\304,\224,v,\177\024\021\012"
 301      58A0BB25 
 301      4274B9C4 
 301      2C942C76 
 301      2C7F1411 
 302 0217 DD81A1A9 		.ascii	"\335\201\241\251\316\220\233(:h\320\217\024\204\324"
 302      CE909B28 
 302      3A68D08F 
 302      1484D4
 303 0226 86962D07 		.ascii	"\206\226-\007\242\253^\303\235\306\003;\326#\353\302"
 303      A2AB5EC3 
 303      9DC6033B 
 303      D623EBC2 
 304 0236 21BAA224 		.ascii	"!\272\242$\331;\235\034Y3\177\317A\250\346Yy2R\341\251"
ARM GAS  C:\Users\Sava\AppData\Local\Temp\cc1c2WDS.s 			page 24


 304      D93B9D1C 
 304      59337FCF 
 304      41A8E659 
 304      793252E1 
 305 024b 87ABD8CB 		.ascii	"\207\253\330\313f@\0300@d\2147\316\224\264\231\231{"
 305      66401830 
 305      40648C37 
 305      CE94B499 
 305      997B
 306 025d 68DF41A8 		.ascii	"h\337A\250\2075\345\013\036@&&\020\250*{\346\354\037"
 306      8735E50B 
 306      1E402626 
 306      10A82A7B 
 306      E6EC1F
 307 0270 83A2EA28 		.ascii	"\203\242\352(1ZgDb.4\213+l\016\312\344A\012\221^O\317"
 307      315A6744 
 307      622E348B 
 307      2B6C0ECA 
 307      E4410A91 
 308 0287 FCB8E95F 		.ascii	"\374\270\351_\225\025R\306[\"&\314\261\221\301\006?"
 308      951552C6 
 308      5B2226CC 
 308      B191C106 
 308      3F
 309 0298 433C55D6 		.ascii	"C<U\326\016~\366\3422\215Q\314\305E\276\024\027\206"
 309      0E7EF6E2 
 309      328D51CC 
 309      C545BE14 
 309      1786
 310 02aa C08F4761 		.ascii	"\300\217Ga\211-\312\222\341X\012\256,\351\221\355\334"
 310      892DCA92 
 310      E1580AAE 
 310      2CE991ED 
 310      DC
 311 02bb FFE662F8 		.ascii	"\377\346b\370\227\213\207\353.\346yD\302\203*\033]x"
 311      978B87EB 
 311      2EE67944 
 311      C2832A1B 
 311      5D78
 312 02cd 950B8F72 		.ascii	"\225\013\217r\261\177s\027\3560\325\031\036)\027^\330"
 312      B17F7317 
 312      EE30D519 
 312      1E29175E 
 312      D8
 313 02de 9DA4F2F4 		.ascii	"\235\244\362\364\250<\361\277P\314@q<\223X\335OP\022"
 313      A83CF1BF 
 313      50CC4071 
 313      3C9358DD 
 313      4F5012
 314 02f1 CF9C62A3 		.ascii	"\317\234b\243o$m\363\025\235\360\035\365\025e\235\312"
 314      6F246DF3 
 314      159DF01D 
 314      F515659D 
 314      CA
 315 0302 2DC8A6B7 		.ascii	"-\310\246\267\317\227\221\3154\237/+_\034\313.\324\362"
 315      CF9791CD 
 315      349F2F2B 
ARM GAS  C:\Users\Sava\AppData\Local\Temp\cc1c2WDS.s 			page 25


 315      5F1CCB2E 
 315      D4F2
 316 0314 72CE14BA 		.ascii	"r\316\024\272\363N\037\317\311\312\317*\310=\233cP "
 316      F34E1FCF 
 316      C9CACF2A 
 316      C83D9B63 
 316      5020
 317 0326 63EF4FC0 		.ascii	"c\357O\300D\240\337"
 317      44A0DF
 318              		.text
 319              		.section	.gnu.lto_lv_ll_ins_head.d4bd9b5,"",%progbits
 320 0000 789C8D54 		.ascii	"x\234\215TMHTQ\024\276\347\335\36733\2162\330\017-\214"
 320      4D485451 
 320      14BEE7DD 
 320      F733338E 
 320      32D80F2D 
 321 0015 24127151 		.ascii	"$\022qQ.Z\264p\343\262m\265\015\\\210D0I\020\330\322"
 321      2E5AB470 
 321      E3B26DB5 
 321      0D5C8844 
 321      304910D8 
 322 002a AB336FB2 		.ascii	"\2533o\262\240\300\"K+,\302\324\314\237Wi\351\250=\255"
 322      A0C0224B 
 322      2B2CC2D4 
 322      CC9F5769 
 322      E9A83DAD 
 323 003e B4842821 		.ascii	"\264\204(!\224\022KkPQ\027\016\030\266\321\351\2347"
 323      94124B6B 
 323      5051170E 
 323      18B6D1E9 
 323      9C37
 324 0050 EF39A3A3 		.ascii	"\3579\243\243\346\2059\367\276w\277\373\235\357|\367"
 324      E68539F7 
 324      BE77BFFB 
 324      9DEF7CF7 
 325 0060 BC911930 		.ascii	"\274\221\0310\032GT\306\016\343|\212\036\334\014$\206"
 325      1A4754C6 
 325      0EE37C8A 
 325      1EDC0C24 
 325      86
 326 0071 3F893326 		.ascii	"?\2113&$\015\203\314%\231\326\012\255e\300\011\024I"
 326      240D83CC 
 326      2599D60A 
 326      AD65C009 
 326      1449
 327 0083 5DDF5501 		.ascii	"]\337U\001'\320\300\205\321\005\304\010\254\\\342\262"
 327      27D0C085 
 327      D105C408 
 327      AC5CE2B2 
 328 0093 A26A2E28 		.ascii	"\242j.(\207?\322\252\004\243\301\216\373|Y\3229\003"
 328      873FD2AA 
 328      04A3C18E 
 328      FB7C59D2 
 328      3903
 329 00a5 191FA39F 		.ascii	"\031\037\243\237\352~g\320#@6\355\316\317\006\323\362"
 329      EA7E67D0 
 329      234036ED 
ARM GAS  C:\Users\Sava\AppData\Local\Temp\cc1c2WDS.s 			page 26


 329      CECF06D3 
 329      F2
 330 00b6 1A85A814 		.ascii	"\032\205\250\024S\372lau@?\251s\211\305$\006M\220\005"
 330      53FA6C61 
 330      75403FA9 
 330      7389C524 
 330      064D9005 
 331 00ca 8D9045A4 		.ascii	"\215\220E\244\315\220\207\330I\243\177\211\363\003\300"
 331      CD9087D8 
 331      49A37F89 
 331      F303C0
 332 00d9 707DD76C 		.ascii	"p}\327l\213\270s\033\350\234\270U\"\334:\347\360\024"
 332      8BB8731B 
 332      E89CB855 
 332      22DC3AE7 
 332      F014
 333 00eb 78F2397C 		.ascii	"x\3629|\305\240\005r\011\336\334U\367D\341\007\255\243"
 333      C5A00572 
 333      09DEDC55 
 333      F744E107 
 333      ADA3
 334 00fd 630B0BAD 		.ascii	"c\013\013\255\0319\217\351\250\331\027\332_+\314`\266"
 334      19398FE9 
 334      A8D917DA 
 334      5F2BCC60 
 334      B6
 335 010e CE6578B6 		.ascii	"\316ex\266\3618\015D\3772\326n\247\253A\201#\033Z!\207"
 335      F1380D44 
 335      FF32D66E 
 335      A7AB4181 
 335      231B5A21 
 336 0123 A4A1A236 		.ascii	"\244\241\2426P\261\\\027\002j\215\251\250b\323\215\206"
 336      50B15C17 
 336      026A8DA9 
 336      A862D38D 
 336      86
 337 0134 0ED53659 		.ascii	"\016\3256Yt\012\333\314\005\355\220\263\021.\302\221"
 337      740ADBCC 
 337      05ED90B3 
 337      112EC291 
 338 0144 8720AE16 		.ascii	"\207 \256\026n\211\356\260\320w\036u\376M\263\311\277"
 338      6E89EEB0 
 338      D0771E75 
 338      FE4DB3C9 
 338      BF
 339 0155 0D796D72 		.ascii	"\015ymr9\025n\244\300'C{\267\207?O\201\377\034\312\330"
 339      39156EA4 
 339      C027437B 
 339      B7873F4F 
 339      81FF1CCA 
 340 016a 1EFE2205 		.ascii	"\036\376\"\005\276\262\023\373K\013\376\245\357F\257"
 340      BEB213FB 
 340      4B0BFEA5 
 340      EF46AF
 341 0179 87E0D784 		.ascii	"\207\340\327\204Y}\305a\337|\267\010\357\204\034r\266"
 341      597DC561 
 341      DF7CB708 
ARM GAS  C:\Users\Sava\AppData\Local\Temp\cc1c2WDS.s 			page 27


 341      EF841C72 
 341      B6
 342 018a FDB42962 		.ascii	"\375\264)b\261\2000\303\352\300Mm\217\014ty\012^\243"
 342      B18030C3 
 342      EAC04D6D 
 342      8F0C7479 
 342      0A5EA3
 343 019d A2527031 		.ascii	"\242Rp1\002yp){)\244S\360Q\310dD\313\226\350bXT\302"
 343      02797029 
 343      7B29A453 
 343      F051C864 
 343      44CB96E8 
 344 01b5 89CF4065 		.ascii	"\211\317@e\217\361uZ\243{\012p\005\325\324\350\203\237"
 344      8FF1755A 
 344      A37B0A70 
 344      05D5D4E8 
 344      839F
 345 01c7 35EA3B6E 		.ascii	"5\352;n5\301\312\360H\225\267\036\036\200\316\021 C"
 345      35C1CAF0 
 345      4895B71E 
 345      1E80CE11 
 345      2043
 346 01d9 1789C1F7 		.ascii	"\027\211\301\367\015\221\3126-\377\250\3165x\005\365"
 346      0D91CA36 
 346      2DFFA8CE 
 346      357805F5 
 347 01e9 B06671C2 		.ascii	"\260fq\302k\310g3\020\250\011-B\234\321&\255\013/\217"
 347      6BC86733 
 347      10A8092D 
 347      429CD126 
 347      AD0B2F8F 
 348 01fd 2844AA60 		.ascii	"(D\252`\373w#\305\034\004\305\2118\204z\243\273{qB+"
 348      FB7723C5 
 348      1C04C589 
 348      38847AA3 
 348      BB7B7142 
 349 0212 5F155542 		.ascii	"_\025UB\370t\356\212I\3303\320\003\345\014\031t\356"
 349      F874EE8A 
 349      49D833D0 
 349      03E50C19 
 349      74EE
 350 0224 66D3109C 		.ascii	"f\323\020\234\010\264\\\327\022'\326e\312\300 l;\024"
 350      08B45CD7 
 350      1227D665 
 350      CAC0206C 
 350      3B14
 351 0236 A50F92CF 		.ascii	"\245\017\222\317A\310\034\037\362\022\226\245p{bT7\364"
 351      41C81C1F 
 351      F21296A5 
 351      707B6254 
 351      37F4
 352 0248 5ADC3272 		.ascii	"Z\3342r\321a\235\2471r\242z\314\226\355I\252\274\202"
 352      D1619DA7 
 352      3172A27A 
 352      CC96ED49 
 352      AABC82
 353 025b 5ADA00B6 		.ascii	"Z\332\000\266\245\001\255\264)\216\223\214>\313\006"
ARM GAS  C:\Users\Sava\AppData\Local\Temp\cc1c2WDS.s 			page 28


 353      A501ADB4 
 353      298E938C 
 353      3ECB06
 354 026a EBDBEE47 		.ascii	"\353\333\356G\033\346\260\361\267S\200*\341\315\272"
 354      1BE6B0F1 
 354      B753802A 
 354      E1CDBA
 355 0279 024CE708 		.ascii	"\002L\347\0100\306+\224\270\002\357n\274\227\301L$\035"
 355      30C62B94 
 355      B802EF6E 
 355      BC97C14C 
 355      241D
 356 028b C0A4964F 		.ascii	"\300\244\226O\2456C\222-\262}\325\321\361Q\036\337M"
 356      A5364392 
 356      2DB27DD5 
 356      D1F1511E 
 356      DF4D
 357 029d DF5CE1BD 		.ascii	"\337\\\341\275\035+,\240d\203\211do\377S!y\374\316\251"
 357      1D2B2CA0 
 357      64838964 
 357      6FFF5321 
 357      79FCCEA9 
 358 02b1 301D8BA4 		.ascii	"0\035\213\244\012I\211\022WRcL\016X\225n\226Q\260\265"
 358      0A498912 
 358      5752634C 
 358      0E58956E 
 358      9651B0B5 
 359 02c5 0AABD8F7 		.ascii	"\012\253\330\367\211\374C\220\217\244\226g\321I\307"
 359      89FC4390 
 359      8FA49667 
 359      D149C7
 360 02d4 33DFEE3C 		.ascii	"3\337\356<\033\266h\254\177\247\017q\317\276;\236\371"
 360      1BB668AC 
 360      7FA70F71 
 360      CFBE3B9E 
 360      F9
 361 02e5 923C531D 		.ascii	"\222<S\035\245?*\264\255\224\236\331A\351\307D\212\221"
 361      A53F2AB4 
 361      AD949ED9 
 361      41E9C744 
 361      8A91
 362 02f7 B85262D4 		.ascii	"\270Rb\324\034\306\310\200}\013\231\316\026F\036\201"
 362      1CC6C880 
 362      7D0B99CE 
 362      16461E81 
 363 0307 0A1F13D8 		.ascii	"\012\037\023\330\033\363 \331\333\244d\211*F\252}\376"
 363      1BF320D9 
 363      DBA46489 
 363      2A46AA7D 
 363      FE
 364 0318 B273FEB3 		.ascii	"\262s\376\263\376\262\242\013\347/\025\323\354\367\037"
 364      FEB2A20B 
 364      E72F15D3 
 364      ECF71F
 365 0327 2B66B2DF 		.ascii	"+f\262\337_tQ)-*-\271\374\017\345k\363\023"
 365      5F745129 
 365      2D2A2DB9 
ARM GAS  C:\Users\Sava\AppData\Local\Temp\cc1c2WDS.s 			page 29


 365      FC0FE56B 
 365      F313
 366              		.text
 367              		.section	.gnu.lto_lv_ll_ins_prev.d4bd9b5,"",%progbits
 368 0000 789C7D54 		.ascii	"x\234}Tmk\024W\024\276\347\336y\331\331\231\335l\210"
 368      6D6B1457 
 368      14BEE7DE 
 368      79D9D999 
 368      DD6C88
 369 0013 2DB1D512 		.ascii	"-\261\325\022\220%(\350\376\002\321\217\375\354\347"
 369      902528E8 
 369      FE02D18F 
 369      FDECE7
 370 0022 429010A4 		.ascii	"B\220\020\244\260\206\320\226H\241\220kv\307U?\370\322"
 370      B086D096 
 370      48A1906B 
 370      76C7553F 
 370      F8D2
 371 0034 D260A262 		.ascii	"\322`\242b@\242\361-q\253Fc\\\235X! \212\025K\241\212"
 371      40A2F12D 
 371      71AB4663 
 371      5C9D5821 
 371      208A154B 
 372 004a 686B5031 		.ascii	"hkP1A\334\220\246-b\246\347\334;\223\246Y\323\201\235"
 372      41DC90A6 
 372      2D62A6E7 
 372      DC3B93A6 
 372      59D3819D 
 373 005e 7BEF39CF 		.ascii	"{\3579\317s\316y\316\271\263\006\003F\317\224\311X\016"
 373      73CE79CE 
 373      B9B30603 
 373      46CF94C9 
 373      580E
 374 0070 D7AFE990 		.ascii	"\327\257\351\220b\300\031\376\270\301\230\344\002_\206"
 374      62C019FE 
 374      B8C198E4 
 374      025F86
 375 007f D07B93F6 		.ascii	"\320{\223\366\006x\3505\271E\226\004Y,n\323\336\245"
 375      0678E835 
 375      B9459604 
 375      592C6ED3 
 375      DEA5
 376 0091 BDADBC09 		.ascii	"\275\255\274\011\356\220%I\026GY\222\200np\325\336\003"
 376      EE902549 
 376      16475992 
 376      806E70D5 
 376      DE03
 377 00a3 CA0AAC8B 		.ascii	"\312\012\254\213\013\303\264\354\204\223t=\350\202?"
 377      0BC3B4EC 
 377      8493743D 
 377      E8823F
 378 00b2 F83B0EF7 		.ascii	"\370;\016\367\213\347\217\210Y\356\013\006\006\036\253"
 378      8BE78F88 
 378      59EE0B06 
 378      061EAB
 379 00c1 77FB9EA5 		.ascii	"w\373\236\245\351\010\320D\336W/\212\356\332\223Rv\313"
 379      E908D044 
ARM GAS  C:\Users\Sava\AppData\Local\Temp\cc1c2WDS.s 			page 30


 379      DE572F8A 
 379      EEDA9352 
 379      76CB
 380 00d3 A703739B 		.ascii	"\247\003s\233\017\026\374O}\301Y\310\031\014\302*8\011"
 380      0F16FC4F 
 380      7DC159C8 
 380      190CC22A 
 380      3809
 381 00e5 AB28F029 		.ascii	"\253(\360)X\213\330\307\345\353o\204h\004\206\373C\301"
 381      588BD8C7 
 381      E5EB6F84 
 381      680486FB 
 381      43C1
 382 00f7 D0A4D33C 		.ascii	"\320\244\323<@<\371]\233t|!\3404\210\305<418\003\315"
 382      403CF95D 
 382      9B747C21 
 382      E03488C5 
 382      3C343138 
 383 010d 88EEEBBF 		.ascii	"\210\356\353\277s\313\026\253\025\363\312\360\3415\021"
 383      73CB16AB 
 383      15F3CAF0 
 383      E13511
 384 011c B1A2881C 		.ascii	"\261\242\210\034\316.%\342\341\0344\023\372\355\361"
 384      CE2E25E2 
 384      E11C3413 
 384      FAEDF1
 385 012b 0B7FD789 		.ascii	"\013\177\327\2115\2129\376\355\353!\221=N\324`\264\364"
 385      358A39FE 
 385      EDEB2191 
 385      3D4ED460 
 385      B4F4
 386 013d 61AF0C8A 		.ascii	"a\257\014\212M\2760`\350\277tz\020}j\244\357\204)\326"
 386      4DBE3060 
 386      E8BF747A 
 386      107D6AA4 
 386      EF8429D6 
 387 0151 29E62F53 		.ascii	")\346/SS\347\322\021sd\302\223\007v&\210x\376\275\304"
 387      53E7D211 
 387      7364C293 
 387      07762688 
 387      78FEBDC4 
 388 0165 DFCBF3DF 		.ascii	"\337\313\363\337\247\254\242\304\247\011\312\220\205"
 388      A7ACA2C4 
 388      A709CA90 
 388      85
 389 0172 61C85243 		.ascii	"a\310RC\260\017?\200\205\215\266\020\364Se\337\265$"
 389      B00F3F80 
 389      858DB610 
 389      F45365DF 
 389      B524
 390 0184 45DC2B83 		.ascii	"E\334+\203J)\327;\250jY\3328\244\\\200,\302{\313O\253"
 390      4A29D73B 
 390      A86A59DA 
 390      38A45C80 
 390      2CC27BCB 
 391 019a 6654C0FD 		.ascii	"fT\300\375\222\267<\374b\015\374\327R6\202\233\265\360"
 391      92B73CFC 
ARM GAS  C:\Users\Sava\AppData\Local\Temp\cc1c2WDS.s 			page 31


 391      620DFCD7 
 391      5236829B 
 391      B5F0
 392 01ac 4B4BE1F2 		.ascii	"KK\341\362\301d?\310=\233\337\213\036A1\221\240\341"
 392      C1643FC8 
 392      3D9BDF8B 
 392      1E413191 
 392      A0E1
 393 01be 2D810CC3 		.ascii	"-\201\014\303\202\014.\331\343\363\366G\300\310\301"
 393      820C2ED9 
 393      E3F3F647 
 393      C0C8C1
 394 01cd A9F526D0 		.ascii	"\251\365&\320\320,\240\0118dp\225\317\243m\012_f\232"
 394      D02CA009 
 394      38647095 
 394      CFA36D0A 
 394      5F669A
 395 01e0 5E1965AC 		.ascii	"^\031e\254'c\003\243\200\215\264]\251f\307\336P\263"
 395      276303A3 
 395      808DB45D 
 395      A966C7DE 
 395      50B3
 396 01f2 5895E322 		.ascii	"X\225\343\"~\203\342\303\302\333}6\365\256 L\254\266"
 396      7E83E2C3 
 396      C2DB7D36 
 396      F5AE204C 
 396      ACB6
 397 0204 C7BF79CF 		.ascii	"\307\277y\317\246\033(0\353\345\250\266*}\026\032<\002"
 397      A61B2830 
 397      EBE5A8B6 
 397      2A7D161A 
 397      3C02
 398 0216 1A6BC186 		.ascii	"\032k\301\206\330\207\337\212x\016\335\263\3759\355"
 398      D887DF8A 
 398      780EDDB3 
 398      FD39ED
 399 0225 5AA95D55 		.ascii	"Z\251]U\372~\304K(RO\265\307\301\004\243\243\323\217"
 399      FA7EC44B 
 399      28524FB5 
 399      C7C104A3 
 399      A3D38F
 400 0238 ECAE7772 		.ascii	"\354\256wr\267\224\031_X!\307\231\301\025\350b\230\337"
 400      B794195F 
 400      5821C799 
 400      C115E862 
 400      98DF
 401 024a 17365359 		.ascii	"\0276SY>\211\360\230'JbE\261\036L\324i\237[\023+\021"
 401      3E89F098 
 401      274A6245 
 401      B11E4CD4 
 401      699F5B13 
 402 0260 9226188D 		.ascii	"\222&\030\215c9:\326\231\375\037\377\313X\220g\240\274"
 402      63393AD6 
 402      99FD1FFF 
 402      CB589067 
 402      A0BC
 403 0272 AB0BF2EC 		.ascii	"\253\013\362\354XBVC\275XBB;\256\036\234\213t\2470\310"
ARM GAS  C:\Users\Sava\AppData\Local\Temp\cc1c2WDS.s 			page 32


 403      58425643 
 403      BD584242 
 403      3BAE1E9C 
 403      8B74A730 
 404 0287 9F13B777 		.ascii	"\237\023\267w{\307\340(\370\"\211\231t\233\320>0\331"
 404      7BC7E028 
 404      F8228999 
 404      749BD03E 
 404      30D9
 405 0299 3D64E7D6 		.ascii	"=d\347\326\373\302\20518\006\363\252\321p\015r\3549"
 405      FBC28531 
 405      3806F3AA 
 405      D1700D72 
 405      EC39
 406 02ab 147A76DD 		.ascii	"\024zv\335\341:DZG\351\033\233\275mR)&$\240\202!P\236"
 406      E13A445A 
 406      47E91B9B 
 406      BD6D5229 
 406      2624A082 
 407 02c2 DCA42199 		.ascii	"\334\244!\231\032q^H3\200\353J\\\332\027)-\356r,.\263"
 407      1A715E48 
 407      3380EB4A 
 407      5CDA1729 
 407      2DEE722C 
 408 02d8 488DB344 		.ascii	"H\215\263DM}\254&\251\232\350\007OJ+\264\247\241&O:"
 408      4D7DAC26 
 408      A99AE807 
 408      4F4A2BB4 
 408      A7A1264F 
 409 02ed A479C20D 		.ascii	"\244y\302\015\335D\354\277/\352\260\262]AuB\015\221"
 409      DD44ECBF 
 409      2FEAB0B2 
 409      5D417542 
 409      0D91
 410 02ff D5303221 		.ascii	"\32502!\015\032\202\230\321\200\305\370\242^\221f\354"
 410      0D1A8298 
 410      D180C5F8 
 410      A25E9166 
 410      EC
 411 0310 65393850 		.ascii	"e98P\030\2179\031\244\305\234\331\377\347\334\\\250"
 411      188F3919 
 411      A4C59CD9 
 411      FFE7DC5C 
 411      A8
 412 0321 6C519EB9 		.ascii	"lQ\236\271\3459T\333\217\213\362X\304\241f\270\272K"
 412      E53954DB 
 412      8F8BF258 
 412      C4A166B8 
 412      BA4B
 413 0333 3DE5705C 		.ascii	"=\345p\\\350n4\026\360\322\263\031\000\274+\326\221"
 413      E86E3416 
 413      F0D2B319 
 413      00BC2BD6 
 413      91
 414 0344 CA37884F 		.ascii	"\3127\210O\336\332\210P\374\027\027\223\2603\303$\316"
 414      DEDA8850 
 414      FC171793 
ARM GAS  C:\Users\Sava\AppData\Local\Temp\cc1c2WDS.s 			page 33


 414      B033C324 
 414      CE
 415 0355 E0157467 		.ascii	"\340\025tg0\032\015w\0068^wcz\354/\\=\373le\020\327"
 415      301A0D77 
 415      06385E77 
 415      637AEC2F 
 415      5C3DFB6C 
 416 036c 7AE7E78D 		.ascii	"z\347\347\215\030\313\235\276\321\201\337\032\006D\344"
 416      18CB9DBE 
 416      D181DF1A 
 416      0644E4
 417 037b 07F9CE6D 		.ascii	"\007\371\316m\371\317\362\235-\333?\377\262\225\326"
 417      F9CFF29D 
 417      2DDB3FFF 
 417      B295D6
 418 038a 7C7E432B 		.ascii	"|~C+3\362\371\226\016\263\275ek\353WV{K\307\027m\235"
 418      33F2F996 
 418      0EB3BD65 
 418      6BEB5756 
 418      7B4BC717 
 419 03a0 78686FDB 		.ascii	"xho\333\361\0174c\336\251"
 419      F10F3463 
 419      DEA9
 420              		.text
 421              		.section	.gnu.lto_lv_ll_ins_tail.d4bd9b5,"",%progbits
 422 0000 789C8D54 		.ascii	"x\234\215TMHTQ\024\276\347\335\3677o\374\0310\243\205"
 422      4D485451 
 422      14BEE7DD 
 422      F7376FFC 
 422      1930A385 
 423 0014 9104122D 		.ascii	"\221\004\022-\312E\213\026nj\327\272\266\201\013\221"
 423      CA458B16 
 423      6E6AD7BA 
 423      B6810B91 
 424 0024 08260922 		.ascii	"\010&\011\"[z\235\231\027\345\"\210\312\322\012\215"
 424      5B7A9D99 
 424      17E52288 
 424      CAD20A8D 
 425 0034 28ADFC7B 		.ascii	"(\255\374{\225\232\377\243e?\003Q\226($\201\225\224"
 425      959AFFA3 
 425      653F0351 
 425      96282481 
 425      9594
 426 0046 94901396 		.ascii	"\224\220\023\226nt:\347\276\371\323Q\353\301\334\373"
 426      6E743AE7 
 426      BEF9D351 
 426      EBC1DCFB 
 427 0056 DE3DDFF9 		.ascii	"\336=\337\371\316w\276{\357\250\014\030=\247u\306v\342"
 427      CE77BE7B 
 427      EFA80C18 
 427      3DA775C6 
 427      76E2
 428 0068 5C4E1F5E 		.ascii	"\\N\037^\006\012\303\237\302\031\023\212\212\203\312"
 428      060AC39F 
 428      C219138A 
 428      8A83CA
 429 0077 C1C21555 		.ascii	"\301\302\025U\321h\305C+\232\242\323\273A\357:\340\004"
ARM GAS  C:\Users\Sava\AppData\Local\Temp\cc1c2WDS.s 			page 34


 429      D168C543 
 429      2B9AA2D3 
 429      BB41EF3A 
 429      E004
 430 0089 866226A3 		.ascii	"\206b&\243&\340\004\036\231e\001\325\000V\245pU\323"
 430      26E0041E 
 430      996501D5 
 430      0056A570 
 430      55D3
 431 009b 0DD36341 		.ascii	"\015\323cA\025\374V\226\025\030\013u\334\340\013\212"
 431      15FC5696 
 431      15180B75 
 431      DCE00B8A 
 432 00ab CD911A3F 		.ascii	"\315\221\032?\243\257\353\277\344\320'@!E\277\177\013"
 432      A3AFEBBF 
 432      E4D02740 
 432      2145BF7F 
 432      0B
 433 00bc 79773709 		.ascii	"yw7\011\021\020\323\243\267\017^\014\332\207l\256\260"
 433      1110D3A3 
 433      B70F5E0C 
 433      DA876CAE 
 433      B0
 434 00cd 98C2A019 		.ascii	"\230\302\240\031\012\240\011\012\210\366\036\354F\354"
 434      0AA0090A 
 434      88F61EEC 
 434      46EC
 435 00db 4767709E 		.ascii	"Ggp\236\363m\300\360\375Z\270m\306\263\353\016\345\211"
 435      F36DC0F0 
 435      FD5AB86D 
 435      C6B3EB0E 
 435      E589
 436 00ed 4BE5C263 		.ascii	"K\345\302cs\016\367\201\247\347\341\022\203\007\260"
 436      730EF781 
 436      A7E7E112 
 436      8307B0
 437 00fc 8BE0F7BA 		.ascii	"\213\340\367\272\352\357j|\273L\235\370\361\2435\247"
 437      EAEF6A7C 
 437      BB4C9DF8 
 437      F1A335A7 
 438 010c E836A586 		.ascii	"\3506\245\206\235\232\255u\"\034*\264\271\012-\253\323"
 438      9D9AAD75 
 438      221C2AB4 
 438      B90A2DAB 
 438      D3
 439 011d E941F467 		.ascii	"\351A\364gg\345J\266\036\022\370\024B+\024\2214T\324"
 439      67E54AB6 
 439      1E12F814 
 439      422B1491 
 439      3454D4
 440 0130 063A366C 		.ascii	"\006:6l\"\240\316\231\216jq\272\316\232\035u\315\222"
 440      22A0CE99 
 440      8E6A71BA 
 440      CE9A1D75 
 440      CD92
 441 0142 4E636BB9 		.ascii	"Nck\271\240\035\212V\303E\337L#\210\363\007\326EwH\364"
 441      A01D8A56 
ARM GAS  C:\Users\Sava\AppData\Local\Temp\cc1c2WDS.s 			page 35


 441      C345DF4C 
 441      2388F307 
 441      D6457748 
 442 0157 DB810BFD 		.ascii	"\333\201\013\375\026\241kD\270;I\276\326\037\204;\022"
 442      16A16B44 
 442      B83B49BE 
 442      D61F843B 
 442      12
 443 0168 7EF556E7 		.ascii	"~\365V\347\2227\256e(\222\025\207\253\231\360\207\031"
 443      9237AE65 
 443      28921587 
 443      AB99F087 
 443      19
 444 0179 F0B19A2D 		.ascii	"\360\261\232-\033\303\037e\300\337Gr6\206?\316\200O"
 444      1BC31F65 
 444      C0DF4772 
 444      36863FCE 
 444      804F
 445 018b 6DC6DE09 		.ascii	"m\306\336\011E\344l\373\341\260\210\305\202\"\334`\015"
 445      45E46CFB 
 445      E1B088C5 
 445      8222DC60 
 445      0D
 446 019c FFB1B602 		.ascii	"\377\261\266\002n\240\242\003\355\240\201\257\232I\203"
 446      6EA0A203 
 446      EDA081AF 
 446      9A4983
 447 01ab C508E9A5 		.ascii	"\305\010\351\245P6\016j.\015>\032\362h\310\247\000c"
 447      50360E6A 
 447      2E0D3E1A 
 447      F268C8A7 
 447      0063
 448 01bd F3B4452C 		.ascii	"\363\264E,\252\340\304\277B\240\327y\375\331\240\035"
 448      AAE0C4BF 
 448      42A0D779 
 448      FDD9A01D 
 449 01cd 0B720375 		.ascii	"\013r\003u\325\332#o\014:\201\\\036\207\305\027\221"
 449      D5DA236F 
 449      0C3A815C 
 449      1E87C517 
 449      91
 450 01de 73590D70 		.ascii	"sY\015p\023l\216\000\035\272H\026\256\337\231\011\264"
 450      136C8E00 
 450      1DBA4816 
 450      AEDF9909 
 450      B4
 451 01ef 19C57B6C 		.ascii	"\031\305{ln@74\300\212\344\204'P\314\276B\260\366\354"
 451      6E403734 
 451      C08AE484 
 451      2750CCBE 
 451      42B0F6EC 
 452 0203 1CB88CA6 		.ascii	"\034\270\214\246KZ\337\267\020\321\210T\003\023z\220"
 452      4B5ADFB7 
 452      10D18854 
 452      03137A90 
 453 0213 62164262 		.ascii	"b\026Bb\277\013\2610\336\32337eT-\213sB\370ln\306\024"
 453      BF0BB130 
ARM GAS  C:\Users\Sava\AppData\Local\Temp\cc1c2WDS.s 			page 36


 453      DED33337 
 453      65542D8B 
 453      7342F86C 
 454 022a 3C3DD00B 		.ascii	"<=\320\013U\014\031l\356a\237 \364!\370\363\262\221"
 454      550C196C 
 454      EE619F20 
 454      F421F8F3 
 454      B291
 455 023c CA48CA54 		.ascii	"\312H\312T\201A_\334\253(]W\352i\241q\207\013\365\302"
 455      81415FDC 
 455      AB285D57 
 455      EA69A171 
 455      870BF5C2 
 456 0250 DE0219C0 		.ascii	"\336\002\031\300+\314\221e*\270\230dIK\303;\315g\341"
 456      2BCC9165 
 456      2AB89864 
 456      494BC33B 
 456      CD67E1
 457 0263 6C782092 		.ascii	"lx \222EA\226!\311\212\221]\320/%%\222m\356ed\340\330"
 457      45419621 
 457      C98A915D 
 457      D02F2525 
 457      926DEE65 
 458 027a 1BC5A5CC 		.ascii	"\033\305\245\314N3\254\232\356\204C\333\264\216o\255"
 458      4E33AC9A 
 458      EE8443DB 
 458      B48E6FAD 
 459 028a 1414FB48 		.ascii	"\024\024\373H\375\200tO\376=\014\242{\263xs6R\200\315"
 459      FD80744F 
 459      FE3D0CA2 
 459      7BB37873 
 459      365280CD 
 460 029e C1505201 		.ascii	"\301PR\001\226K\010p\306\003\232\253 \367\177\266L\205"
 460      964B0870 
 460      C6039AAB 
 460      20F77FB6 
 460      4C85
 461 02b0 70AAE830 		.ascii	"p\252\3500\026\225\306T\304\031\322l\321\343'$:\376"
 461      1695C654 
 461      C419D26C 
 461      D1E32724 
 461      3AFE
 462 02c2 8EBB51DF 		.ascii	"\216\273Q\337\332\016\257o\332a\011\025\033I\025{\372"
 462      DA0EAF6F 
 462      DA610915 
 462      1B49157B 
 462      FA
 463 02d3 8F0EC9E3 		.ascii	"\217\016\311\343g\211\016}\330$uHJ\014WI\25531\";]+"
 463      67890E7D 
 463      D8247548 
 463      4A0C5749 
 463      AD333122 
 464 02ea A3647D15 		.ascii	"\243d}\025\262\331\321T\375\347P\214\244\322\263\350"
 464      B2D9D154 
 464      FDE7508C 
 464      A4D2B3E8 
 465 02fa 44C2B3BC 		.ascii	"D\302\263\274\377\363\354\205\244\221\177o/]\317>$<"
ARM GAS  C:\Users\Sava\AppData\Local\Temp\cc1c2WDS.s 			page 37


 465      FFF3EC85 
 465      A4917F6F 
 465      2F5DCF3E 
 465      243C
 466 030c CB4BF3CC 		.ascii	"\313K\363\314L(\235\014\030\353)=\262\211\322W\251\022"
 466      4C289D0C 
 466      18EB293D 
 466      B289D257 
 466      A912
 467 031e 11572931 		.ascii	"\021W)1z\022\214\037G\342\273\220\237\010\341\310g\240"
 467      7A128C1F 
 467      47E2BB90 
 467      9F08E1C8 
 467      67A0
 468 0330 DAC7049E 		.ascii	"\332\307\004\236\215\357\020\360\241s\324\350/\000<"
 468      8DEF10F0 
 468      A173D4E8 
 468      2F003C
 469 033f FBBCFFFD 		.ascii	"\373\274\377\375\022\316\371\236\226\311\223x\3531\200"
 469      12CEF99E 
 469      96C99378 
 469      EB3180
 470 034e D4F9FECA 		.ascii	"\324\371\376\312c\376\243\376\312\322\023\307O\225\321"
 470      63FEA3FE 
 470      CAD213C7 
 470      4F95D1
 471 035d ECF7EF2D 		.ascii	"\354\367\357-c\252\337_zR\253(\255(?\363\027\022G\012"
 471      63AADF5F 
 471      7A52AB28 
 471      AD283FF3 
 471      1712470A 
 472 0371 63       		.ascii	"c"
 473              		.text
 474              		.section	.gnu.lto_lv_ll_rem.d4bd9b5,"",%progbits
 475 0000 789C9D56 		.ascii	"x\234\235V\335O\024W\024\277g\356\314\316\354\316\260"
 475      DD4F1457 
 475      14BF67EE 
 475      CCCEECCE 
 475      B0
 476 0011 D6E04A43 		.ascii	"\326\340JC\326\226\207\022b\032K|\366O\360M_Mx\020\322"
 476      D6968712 
 476      621A4B7C 
 476      F64FF04D 
 476      5F4D7810 
 477 0026 986C29B1 		.ascii	"\230l)\261\015i|a\334\335\261$k\332\246\251\037\370"
 477      0D697C61 
 477      DCDDB124 
 477      6BDAA6A9 
 477      1FF8
 478 0038 11838488 		.ascii	"\021\203\204\210\266\002+\245\355\242\300@\265\264\256"
 478      B6022BA5 
 478      EDA2C040 
 478      B5B4AE
 479 0047 8AF8556D 		.ascii	"\212\370Umc\304\326\030\323X\303&\340gt=\347\316\214"
 479      63C4D618 
 479      D358C326 
 479      E067743D 
ARM GAS  C:\Users\Sava\AppData\Local\Temp\cc1c2WDS.s 			page 38


 479      E7CE8C
 480 005a BBEC3288 		.ascii	"\273\3542\210n\262\367c\357\371\375\356\357\334\363"
 480      6EB2F763 
 480      EFF9FDEE 
 480      EFDCF3
 481 0069 9B3B2B33 		.ascii	"\233;+3`\364i\326\030[\213\3756\232\204\031H\014\277"
 481      60F469D6 
 481      185B8BFD 
 481      369A8419 
 481      480CBF
 482 007c 1267CC94 		.ascii	"\022g\314\224Tld.\3114Vh,C\000W\025\321\006\240\002"
 482      546C642E 
 482      C9345668 
 482      2C430057 
 482      15D106A0 
 483 0091 5B55D268 		.ascii	"[U\322h\325\240UM\012\3228D\343 \350\270\032\022\255"
 483      D5A0554D 
 483      0AD23844 
 483      E320E8B8 
 483      1A12AD
 484 00a4 2E220DD1 		.ascii	".\"\015\321V\000\355\012\254M\342\262\022P\265`H7*\240"
 484      5600ED0A 
 484      AC4DE2B2 
 484      1250B560 
 484      48372AA0 
 485 00b8 0DE6A4E7 		.ascii	"\015\346\244\347\022\214\177y7#\255>b\342g\332\032X"
 485      128C7F79 
 485      3723AD3E 
 485      62E267DA 
 485      1A58
 486 00ca 6BF6D860 		.ascii	"k\366\330`\241\220\274$\20428\002\2531j*\331\177\200"
 486      A190BC24 
 486      84323802 
 486      AB316A2A 
 486      D97F80
 487 00dd CF4A1607 		.ascii	"\317J\026\007\220q\232;\277\357\3370M%\250\301\351\315"
 487      90719A3B 
 487      BFEFDF30 
 487      4D25A8C1 
 487      E9CD
 488 00ef F4C80CE7 		.ascii	"\364\310\014\347\357\002\303\361^\273\367N\260\256\333"
 488      EF02C3F1 
 488      5EBBF74E 
 488      B0AEDB
 489 00fe 34E3A6F9 		.ascii	"4\343\246\371\250\321\014Z\234\3031\340\310\007G!\012"
 489      A8D10C5A 
 489      9CC331E0 
 489      C8074721 
 489      0A
 490 010f 3D1065F8 		.ascii	"=\020e\370\023\203\357\241\016\243\277\233\274=\032"
 490      1383EFA1 
 490      0EA3BF9B 
 490      BC3D1A
 491 011e E0AB04F2 		.ascii	"\340\253\004\362\353\361\211N\303E\246\233\010)\303"
 491      EBF1894E 
 491      C345A69B 
 491      0829C3
ARM GAS  C:\Users\Sava\AppData\Local\Temp\cc1c2WDS.s 			page 39


 492 012d 0FA54899 		.ascii	"\017\245H\231\301q\250\243\360\177\322/vU\004\222$\274"
 492      C171A8A3 
 492      F07FD22F 
 492      76550492 
 492      24BC
 493 013f C6910BBD 		.ascii	"\306\221\013\275x@\214\205p\261#=\235Sj\273\210\313"
 493      78408C85 
 493      70B1233D 
 493      9D536ABB 
 493      88CB
 494 0151 3E98323A 		.ascii	">\2302:z\354d\015\201\213\311Dz}P[\022\236NU\371\207"
 494      7AEC640D 
 494      818BC944 
 494      7A7D505B 
 494      129E4E55 
 495 0167 F78BF03D 		.ascii	"\367\213\360=\235\203\217u7| \265\302\015W\312\303\323"
 495      9D838F75 
 495      377C20B5 
 495      C20D57CA 
 495      C3D3
 496 0179 65E1996C 		.ascii	"e\341\231l\330?\374D\231\230\341\3542\1771\003e\341"
 496      D83FFC44 
 496      9998E1EC 
 496      327F3103 
 496      65E1
 497 018b 538B69FF 		.ascii	"S\213i\377\261L\314\345\305\264\017\226\205\337XL\373"
 497      B14CCCE5 
 497      C5B40F96 
 497      85DF584C 
 497      FB
 498 019c 4F22FC59 		.ascii	"O\"\374Y\327\300\223e\374\003Q\317\261o\037\364r\027"
 498      D7C09365 
 498      FC0351CF 
 498      B16F1FF4 
 498      7217
 499 01ae 7A2B15ED 		.ascii	"z+\025\3550\035(\374<\277\246\002\375\213@\357Lg/\032"
 499      301D28FC 
 499      3CBFA602 
 499      FD8B40EF 
 499      4C672F1A 
 500 01c2 FC4381BE 		.ascii	"\374C\201\276\376\325\341\275\252\213\236\311\032\346"
 500      FED5E1BD 
 500      AA8B9EC9 
 500      1AE6
 501 01d0 37DB3502 		.ascii	"7\3335\002g\026\000\017Am\337\006\333\314\347\023\246"
 501      6716000F 
 501      416DDF06 
 501      DBCCE713 
 501      A6
 502 01e1 BD5F1F7B 		.ascii	"\275_\037{\252\277\257\000\371K%\277h@\206\011\321\320"
 502      AABFAF00 
 502      F94B25BF 
 502      68408609 
 502      D1D0
 503 01f3 C0460953 		.ascii	"\300F\011S\263\234\246\225\324DhZEM\265P\021\025t\214"
 503      B39CA695 
 503      D444685A 
ARM GAS  C:\Users\Sava\AppData\Local\Temp\cc1c2WDS.s 			page 40


 503      454DB550 
 503      1115748C 
 504 0207 CD08FFE7 		.ascii	"\315\010\377\347$\354\370=H\222\211\310^\011\256\242"
 504      24ECF83D 
 504      489289C8 
 504      5E09AEA2 
 505 0217 B64CE6FE 		.ascii	"\266L\346\376\337j\333s\263\3354\337\261x /\241\353"
 505      DF6ADB73 
 505      B3DD34DF 
 505      B178202F 
 505      A1EB
 506 0229 E024B4B1 		.ascii	"\340$\264\261\004W,\256\262\333\220\374+\361\236\033"
 506      04572CAE 
 506      B2DB90FC 
 506      2BF19E1B 
 507 0239 9FE01A73 		.ascii	"\237\340\032s\270\270\340\262\310a\316Z\250\214K\313"
 507      B8B8E0B2 
 507      C861CE5A 
 507      A88C4BCB 
 508 0249 D38E70CA 		.ascii	"\323\216p\312\341B\250\305\203\354.\304ww\256$\010\306"
 508      E142A8C5 
 508      83EC2EC4 
 508      7777AE24 
 508      08C6
 509 025b EFB6C627 		.ascii	"\357\266\306'Uz\364\2708\246G\023g\333\215Cpp;=\007"
 509      557AF4B8 
 509      38A64713 
 509      67DB8D43 
 509      70703B3D 
 510 0270 EB308F10 		.ascii	"\3530\217\020\342`\230\216\006W\273\357\304{\325\372"
 510      E260988E 
 510      0657BBEF 
 510      C47BD5FA 
 511 0280 35747023 		.ascii	"5tp#p\010^\210\244`\024\352qo\242\035\312\335\217+\216"
 511      70085E88 
 511      A46014EA 
 511      716FA21D 
 511      CADD8F2B 
 512 0295 16A3880C 		.ascii	"\026\243\210\014\374i\354\002\315\030\324;\2316\027"
 512      FC69EC02 
 512      CD18D43B 
 512      993617
 513 02a4 185EA953 		.ascii	"\030^\251S\200\301\270[\240\034\335f\034\267\233\355"
 513      80C1B85B 
 513      A01CDD66 
 513      1CB79BED 
 514 02b4 FF3FAEBA 		.ascii	"\377?\256\272y\314\023\276q\021\341\277\212\035\305"
 514      79CC13BE 
 514      7111E1BF 
 514      8A1DC5
 515 02c3 0D761AEA 		.ascii	"\015v\032\352]\322\034\335\215D9\224~p\211;\373\207"
 515      5DD21CDD 
 515      8D443994 
 515      7E70893B 
 515      FB87
 516 02d5 4B59F7C3 		.ascii	"KY\367\303\302\264\307MqXD~\246\220\316o\230\316=\274"
 516      C2B4C74D 
ARM GAS  C:\Users\Sava\AppData\Local\Temp\cc1c2WDS.s 			page 41


 516      7158447E 
 516      A690CE6F 
 516      98CE3DBC 
 517 02e9 40908B95 		.ascii	"@\220\213\225\325E\317S\365`\302\253K\230tX\334\020"
 517      D545CF53 
 517      F560C2AB 
 517      4B987458 
 517      DC10
 518 02fb 52F066E6 		.ascii	"R\360f\346\324\253\256W\360\241u\024-_\310+x\026\360"
 518      D4ABAE57 
 518      F0A17514 
 518      2D5FC82B 
 518      7816F0
 519 030e 7B8957B6 		.ascii	"{\211W\266\271\361\005\257h\256W\246<\257T.\344\025"
 519      B9F105AF 
 519      68AE57A6 
 519      3CAF542E 
 519      E415
 520 0320 3C04F8C3 		.ascii	"<\004\370\303\337+K6\307\331\302\031g\311\034\225\216"
 520      DF2B4B36 
 520      C7D9C219 
 520      67C91C95 
 520      8E
 521 0331 39663D73 		.ascii	"9f=sD\226f\216s\005\232\363%\346\210\024\271!\350\271"
 521      4496668E 
 521      73059AF3 
 521      25E68814 
 521      B921E8B9 
 522 0345 61EECDDD 		.ascii	"a\356\315\335p\241P\260\311\"7\204<7<\364\334P\365\026"
 522      70A150B0 
 522      C9223784 
 522      3C373CF4 
 522      DC50F516 
 523 0359 6EB858D0 		.ascii	"n\270X\320?\365\0327\320\333\370\222w\362U\305n\320"
 523      3FF51A37 
 523      D0DBF892 
 523      77F255C5 
 523      6ED0
 524 036b 5D37186E 		.ascii	"]7\030n\005\361\352+y[\321=#n\031\301\316\3402\351\255"
 524      05F1EA2B 
 524      795BD13D 
 524      236E19C1 
 524      CEE032E9 
 525 0380 F6ABEF95 		.ascii	"\366\253\357\225y\365%\306\031\335\201D\375\256\217"
 525      79F525C6 
 525      19DD8144 
 525      FDAE8F
 526 038f AB25901D 		.ascii	"\253%\220\035\366\\\326 \214o*\327<D5\322R&\004z\250"
 526      F65CD620 
 526      8C6F2AD7 
 526      3C4435D2 
 526      5226047A 
 527 03a4 FB62E861 		.ascii	"\373b\350a\370\323\303D\021\346e\217\3777\370\177\020"
 527      F8D3C344 
 527      11E6658F 
 527      FF37F87F 
 527      10
ARM GAS  C:\Users\Sava\AppData\Local\Temp\cc1c2WDS.s 			page 42


 528 03b5 B79FAD77 		.ascii	"\267\237\255w\222ct\225\342\211\242\254H\254\365\343"
 528      92637495 
 528      E289A2AC 
 528      48ACF5E3 
 529 03c5 D8A6586B 		.ascii	"\330\246Xk\303'[>\333L},\366\321f&\307b\015-\201\346"
 529      C3275B3E 
 529      DB4C7D2C 
 529      F6D16626 
 529      C7620D2D 
 530 03db 4F1B9BA8 		.ascii	"O\033\233\250kh\331\332\324\212]s\323\027\237\277\004"
 530      6B68D9DA 
 530      D48A5D73 
 530      D3179FBF 
 530      04
 531 03ec 45CCB5E5 		.ascii	"E\314\265\345"
 532              		.text
 533              		.section	.gnu.lto_lv_ll_clear.d4bd9b5,"",%progbits
 534 0000 789C6D92 		.ascii	"x\234m\222\317k\023Q\020\307\347\373f\263i4]<(\210D"
 534      CF6B1351 
 534      10C7E7FB 
 534      66B36934 
 534      5D3C2888 
 535 0015 C8C1507A 		.ascii	"\310\301Pz)x\363\257\360\340Y\310\241\212\004V\021\224"
 535      2978F3AF 
 535      F0E059C8 
 535      A18A0456 
 535      1194
 536 0027 E22DCF24 		.ascii	"\342-\317$\213R\244\210\240\264%\036DJ\353\257\246\261"
 536      8B52A488 
 536      A0B4251E 
 536      444AEBAF 
 536      A6B1
 537 0039 BDE46059 		.ascii	"\275\344`Y\355Q\015\010\325\036\212\240U\213\210`\242"
 537      ED510D08 
 537      D51E8AA0 
 537      558B8860 
 537      A2
 538 004a ED4124AE 		.ascii	"\355A$\2563\273\021\224v\016\363\336\274\367\375\314"
 538      33BB1194 
 538      760EF3DE 
 538      BCF7FDCC 
 539 005a 8FB7EB10 		.ascii	"\217\267\353\020H\355\216!*\310zL\003\227 !\014\034"
 539      48ED8E21 
 539      2AC87A4C 
 539      03972021 
 539      0C1C
 540 006c F11C7BC7 		.ascii	"\361\034{\3070\2215)qN\012\312\200\312\206e_6\016%\266"
 540      30913529 
 540      714E0ACA 
 540      80CA8665 
 540      5F360E25 
 541 0081 6D7A06CF 		.ascii	"mz\006\317\256l\266\314\360\254\025{\367i\343\250\235"
 541      AE6CB6CC 
 541      F0AC157B 
 541      F769E3A8 
 541      9D
 542 0092 0B11081A 		.ascii	"\013\021\010\032\231D\203Y\014\213\352Um\241\316[&`"
ARM GAS  C:\Users\Sava\AppData\Local\Temp\cc1c2WDS.s 			page 43


 542      99448359 
 542      0C8BEA55 
 542      6DA1CE5B 
 542      2660
 543 00a4 C091B0FB 		.ascii	"\300\221\260\373r\372\203\247\241A^\302\267\315\345"
 543      72FA83A7 
 543      A1415EC2 
 543      B7CDE5
 544 00b3 0EF34190 		.ascii	"\016\363A\220\354'\303\371\217\231\241\031k+\326\376"
 544      EC27C3F9 
 544      8F99A119 
 544      6B2BD6FE 
 545 00c3 3C653301 		.ascii	"<e3\0013\356\203%\037\356!\2079\344H\216\010\0170\244"
 545      33EE8325 
 545      1FEE2187 
 545      39E4488E 
 545      080F30A4 
 546 00d7 F21B8DF1 		.ascii	"\362\033\215\361\361\024\037\216\321\327\275\265_\251"
 546      F1141F8E 
 546      D1D7BDB5 
 546      5FA9
 547 00e5 C25D45C3 		.ascii	"\302]E\303\333\023\336\224\015k\371\200\035<\374\037"
 547      DB13DE94 
 547      0D6BF980 
 547      1D3CFC1F 
 548 00f5 5713F5CC 		.ascii	"W\023\365\314\363\225e\217\217\304\344\252]\212\320"
 548      F395658F 
 548      8FC4E4AA 
 548      5D8AD0
 549 0104 27A7DB59 		.ascii	"'\247\333Y{\375\362\200\202\363\273\202\033\315\337"
 549      7BFDF280 
 549      82F3BB82 
 549      1BCDDF
 550 0113 3707DD9A 		.ascii	"7\007\335\232N\234G\003\005<B!\231\027\013p\345\251"
 550      4E9C4703 
 550      053C4221 
 550      99170B70 
 550      E5A9
 551 0125 CCDFD3C6 		.ascii	"\314\337\323\306\211\320FQ\325\206S\336\3237\336 H/"
 551      89D04651 
 551      D58653DE 
 551      D337DE20 
 551      482F
 552 0137 1C68EF6E 		.ascii	"\034h\357n\274O\223\3122\261\317\306'D\235\370\345\272"
 552      BC4F93CA 
 552      32B1CFC6 
 552      27449DF8 
 552      E5BA
 553 0149 4616FE8C 		.ascii	"F\026\376\214Z\330l\263\346\255\262+\265[\255\257\353"
 553      5AD86CB3 
 553      E6ADB22B 
 553      B55BADAF 
 553      EB
 554 015a E972CF5E 		.ascii	"\351r\317^\265v_\300\251\310H94Q\246*;\001\273\264\211"
 554      B5765FC0 
 554      A9C84839 
 554      3451A62A 
ARM GAS  C:\Users\Sava\AppData\Local\Temp\cc1c2WDS.s 			page 44


 554      3B01BBB4 
 555 016f CA56E7C5 		.ascii	"\312V\347\305J\237Hc$\027\347\3428W\020\266&\366'7\231"
 555      4A9F4863 
 555      2417E7E2 
 555      385710B6 
 555      26F62737 
 556 0184 1DB9D291 		.ascii	"\035\271\322\221V\304\343$W\225\345+\016\2202O\332Y"
 556      56C4E324 
 556      5795E52B 
 556      0E90324F 
 556      DA59
 557 0196 65680791 		.ascii	"eh\007\221\2114/\026\377!\366\220v\274\354\355\016\354"
 557      89342F16 
 557      FF21F690 
 557      76BCECED 
 557      0EEC
 558 01a8 8DF4D7C1 		.ascii	"\215\364\327\301R\014\210:\253\355\336\352\256.\366"
 558      520C883A 
 558      ABEDDEEA 
 558      AE2EF6
 559 01b7 DBCD4A5F 		.ascii	"\333\315J_q\273\242\342\367\250\255W\277\325\017%WH"
 559      71BBA2E2 
 559      F7A8AD57 
 559      BFD50F25 
 559      5748
 560 01c9 26A1EF80 		.ascii	"&\241\357\200<\204\271\366#'r\256o\373\242\226\177\224"
 560      3C84B9F6 
 560      232772AE 
 560      6FFBA296 
 560      7F94
 561 01db BFA012AE 		.ascii	"\277\240\022\256\035\217\313\252u\364]d\234\003\376"
 561      1D8FCBAA 
 561      75F45D64 
 561      9C03FE
 562 01ea D819FFA4 		.ascii	"\330\031\377\244?V<[\2720\252\253\357\217\214\222\343"
 562      3F563C5B 
 562      BA30AAAB 
 562      EF8F8C92 
 562      E3
 563 01fb FBC5F36E 		.ascii	"\373\305\363n\251x\356\364\245\213(\375\001L\220\337"
 563      A978EEF4 
 563      A58B28FD 
 563      014C90DF 
 564 020b D2       		.ascii	"\322"
 565              		.text
 566              		.section	.gnu.lto_lv_ll_chg_list.d4bd9b5,"",%progbits
 567 0000 789C8D54 		.ascii	"x\234\215T\337K\024Q\030\275\337\2753;\256\273\272\005"
 567      DF4B1451 
 567      18BDDFBD 
 567      333BAEBB 
 567      BA05
 568 0012 093D48D8 		.ascii	"\011=H\330\203\210A.\321c\3647\004\365\032\354\203J"
 568      8388412E 
 568      D163F437 
 568      04F51AEC 
 568      834A
 569 0024 08934A81 		.ascii	"\010\223J\201=\356mg\247|K\220\022\245\020\011\3212"
ARM GAS  C:\Users\Sava\AppData\Local\Temp\cc1c2WDS.s 			page 45


 569      3DEE6D67 
 569      A77C4B90 
 569      12A51009 
 569      D132
 570 0036 7F6CA6B6 		.ascii	"\177l\246\266\2266\256f\020\224\010A\220`\277t\223\220"
 570      9636AE66 
 570      10940841 
 570      9060BF74 
 570      9390
 571 0048 70A1C87E 		.ascii	"p\241\310~\350\366}ww\333e]\255\013s\357\334\231\357"
 571      E8F67D77 
 571      77DB655D 
 571      AD0B73EF 
 571      DC99EF
 572 005b 9CEF9C73 		.ascii	"\234\357\234s\207\321\0300\032e:c5\270\236\244\215\301"
 572      87D11830 
 572      1A653A63 
 572      35B89EA4 
 572      8DC1
 573 006d 8033BCB8 		.ascii	"\2003\274\270`Lr\015'M\000.\240q\235\236\270\350\211"
 573      604C720D 
 573      274D002E 
 573      A0719D9E 
 573      B8E889
 574 0080 0EB8800B 		.ascii	"\016\270\200\013\010\017,\310\205\246\273 \010\337\370"
 574      080F2CC8 
 574      85A6BB20 
 574      08DFF8
 575 008f 1687D8D5 		.ascii	"\026\207\330\325x\224W\367I\034\357V\277\034\223\375"
 575      789457F7 
 575      491CEF56 
 575      BF1C93FD 
 576 009f 0ED8C895 		.ascii	"\016\330\310\225\344\252\027\203>\250\306\252\305\360"
 576      E4AA1783 
 576      3EA8C6AA 
 576      C5F0
 577 00ad C84DF195 		.ascii	"\310M\361\225\333\002@\303m\342E\327\307R\332r\250\300"
 577      DB0240C3 
 577      6DE245D7 
 577      C752DA72 
 577      A8C0
 578 00bf ED72CFD4 		.ascii	"\355r\317\324\246[\034\004\206\367\323v|C\257\352\225"
 578      A65B1C04 
 578      86F7D376 
 578      7C43AFEA 
 578      95
 579 00d0 322465B2 		.ascii	"2$e\262N\272m!\340.\010\344\203;P\016\375P\316\360\021"
 579      4EBA6D21 
 579      E02E08E4 
 579      833B500E 
 579      FD50CEF0 
 580 00e5 8301A8C2 		.ascii	"\203\001\250\302\352\320\253\267+B\034V\310\337\263"
 580      EAD0ABB7 
 580      2B421C56 
 580      C8DFB3
 581 00f4 933F8BD3 		.ascii	"\223?\213\323\310\327\365)\344\275\002\310A\205\354"
 581      C8D7F529 
ARM GAS  C:\Users\Sava\AppData\Local\Temp\cc1c2WDS.s 			page 46


 581      E4BD02C8 
 581      4185EC
 582 0103 E8892D7B 		.ascii	"\350\211-{\305\021\205\334\236\033\030,I#;\347\275\262"
 582      C51185DC 
 582      9E1B182C 
 582      49233BE7 
 582      BDB2
 583 0115 0D2D6830 		.ascii	"\015-h0\224\217\325\030\014C\025\001>D\266\257\227\270"
 583      948FD518 
 583      0C431501 
 583      3E44B6AF 
 583      97B8
 584 0127 C264BA22 		.ascii	"\302d\272\"e\025F0\037\3064\305<\266\351\251\274MlN"
 584      65154630 
 584      1FC634C5 
 584      3CB6E9A9 
 584      BC4D6C4E 
 585 013b FB02EFEC 		.ascii	"\373\002\357\354w\302\025\266\320Y.\231\212&\002\225"
 585      77C215B6 
 585      D0592E99 
 585      8A260295 
 586 014b 79E51DD7 		.ascii	"y\345\035\327\016\354^~\177Gy\347\202w\367\362\321\035"
 586      0EEC5E7E 
 586      7F4779E7 
 586      8277F7F2 
 586      D11D
 587 015d E591BDD8 		.ascii	"\345\221\275\330\037@\345\360iG&\223\226t~\224\316\214"
 587      1F40E5F0 
 587      69472693 
 587      96747E94 
 587      CE8C
 588 016f FBF66B40 		.ascii	"\373\366k@!\353@\246\015\240\330\334\030\202\356\241"
 588      21EB40A6 
 588      0DA0D8DC 
 588      1882EEA1 
 589 017f C94B938F 		.ascii	"\311K\223\217&\3066\324Q'8.b\015l\347\327KNiPN\321\350"
 589      26C636D4 
 589      5127382E 
 589      620D6CE7 
 589      D74B4E69 
 590 0197 FA9211DC 		.ascii	"\372\222\021\334\222\255R\356\263\205+\3111\"\030\203"
 590      92AD52EE 
 590      B3852BC9 
 590      31221883 
 591 01a7 20B38466 		.ascii	" \263\204f\011\335\026\006[\203+N\233\2570\240(I\244"
 591      09DD1606 
 591      5B832B4E 
 591      9BAF30A0 
 591      2849A4
 592 01ba 30AE0006 		.ascii	"0\256\000\006\002\260\342\206\035[0\350\323\321\201"
 592      02B0E286 
 592      1D5B30E8 
 592      D3D181
 593 01c9 C10494DB 		.ascii	"\301\004\224\333\302\315\342\020\232\\\\\021Db\011w"
 593      C2CDE210 
 593      9A5C5C11 
 593      44620977 
ARM GAS  C:\Users\Sava\AppData\Local\Temp\cc1c2WDS.s 			page 47


 594 01d9 6E9150E7 		.ascii	"n\221P\347\373\375\331\363Vo7\334\272L\0076\001(\273"
 594      FBFDD9F3 
 594      566F37DC 
 594      BA4C0736 
 594      0128BB
 595 01ec 18F9E021 		.ascii	"\030\371\340!y\307\327\275+\241!\303?H/\245\207\210"
 595      79C7D7BD 
 595      2BA121C3 
 595      3F482FA5 
 595      8788
 596 01fe A3D00DDB 		.ascii	"\243\320\015\333\312\025L\202\037%\272v\325\207\237"
 596      CA154C82 
 596      1F25BA76 
 596      D5879F
 597 020d 3A3CFAAB 		.ascii	":<\372\253\017\273g\364$V-=%\310\223\243\000\012\266"
 597      0FBB67F4 
 597      24562D3D 
 597      25C893A3 
 597      000AB6
 598 0220 3E4A4D1F 		.ascii	">JM\037g\233Na\323\367\020^\262\016\245\031\310(K\245"
 598      679B4E61 
 598      D3F7105E 
 598      B20EA519 
 598      C8284BA5 
 599 0234 8C0D05F1 		.ascii	"\214\015\005\361G\342\355i\303\336|\207\243{:<N\315"
 599      47E2ED69 
 599      C3DE7C87 
 599      A37B3A3C 
 599      4ECD
 600 0246 A6B3CD9E 		.ascii	"\246\263\315\236\374\303!\235\200\223q\350U\247\346"
 600      FCC3219D 
 600      809371E8 
 600      55A7E6
 601 0255 564AB494 		.ascii	"VJ\264\224\222\256\304\247Y\3454_\306\211\302*\224\331"
 601      92AEC4A7 
 601      59E5345F 
 601      C689C22A 
 601      94D9
 602 0267 996CFF18 		.ascii	"\231l\377\030\370\221Te\026Y\317d\346\373\277\314f\025"
 602      F8915465 
 602      1659CF64 
 602      E6FBBFCC 
 602      6615
 603 0279 8DFA2DCD 		.ascii	"\215\372-\315\2452{\223\311\314\227\223\231\236Q\272"
 603      A5327B93 
 603      C9CC9793 
 603      999E51BA 
 604 0289 6E198594 		.ascii	"n\031\205\224\236\331C\351\323l\213\371\224Rb\304\377"
 604      9ED943E9 
 604      D36C8BF9 
 604      945262C4 
 604      FF
 605 029a A1F80C21 		.ascii	"\241\370\014!g\342\224\312\215\306\006\025\241\2452"
 605      67E294CA 
 605      8DC60615 
 605      A1A532
 606 02a9 B3E59C79 		.ascii	"\263\345\234y\326l\011\234o\270XK\253i\326\324\262\""
ARM GAS  C:\Users\Sava\AppData\Local\Temp\cc1c2WDS.s 			page 48


 606      D66C099C 
 606      6FB8584B 
 606      AB69D6D4 
 606      B222
 607 02bb D30C345D 		.ascii	"\323\0144]h\0104\323Mc\375\245@\263\326\330TW\377\007"
 607      680834D3 
 607      4D63FDA5 
 607      40B3D6D8 
 607      5457FF07 
 608 02cf 719FA8B6 		.ascii	"q\237\250\266"
 609              		.text
 610              		.section	.gnu.lto_lv_ll_move_before.d4bd9b5,"",%progbits
 611 0000 789C7D94 		.ascii	"x\234}\224\337K\024Q\024\307\357\271wfggGM\"\245\007"
 611      DF4B1451 
 611      14C7EFB9 
 611      77666767 
 611      474D22A5 
 612 0015 03414CA4 		.ascii	"\003AL\244R\250\177\242\347\236\203\245d\215`\2620\361"
 612      52A87FA2 
 612      E79E83A5 
 612      648D60B2 
 612      30F1
 613 0027 A587BDEE 		.ascii	"\245\207\275\356\356\224OE\017JZb\021\342\217\374\265"
 613      EE944F45 
 613      0F4A5A62 
 613      11E28FFC 
 613      B5
 614 0038 FE48D744 		.ascii	"\376H\327D'\011\2120\254\036|\320\202\314\037\210\030"
 614      27098A30 
 614      AC1E7CD0 
 614      82CC1F88 
 614      18
 615 0049 B851F410 		.ascii	"\270Q\364\020:\235sgW,\315\013;w\357\367\236\3179\347"
 615      3A9D7367 
 615      572CCD0B 
 615      3B77EFF7 
 615      9ECF39E7 
 616 005d 9E7B6634 		.ascii	"\236{f4\006\214\3061\215\261s8\333\264\310a\300\031"
 616      068CC631 
 616      8DB17338 
 616      DBB4C861 
 616      C019
 617 006f FEB8604C 		.ascii	"\376\270`Lr\334\221\232\000\013\025\215\353\244\004"
 617      72DC919A 
 617      000B158D 
 617      EBA404
 618 007e 48D1C140 		.ascii	"H\321\301@%\240\236\006\017\222n\222\036T\226&\017\221"
 618      25A09E06 
 618      0F926E92 
 618      1E549626 
 618      0F91
 619 0090 62911252 		.ascii	"b\221\022R\212\005\024\011X\224\013M\017\030A3dA\024"
 619      8A051409 
 619      58940B4D 
 619      0F184133 
 619      644114
 620 00a3 7EF26D0E 		.ascii	"~\362m\0163w\326R\274\274S\342\370\262:}Vv\271\340`"
ARM GAS  C:\Users\Sava\AppData\Local\Temp\cc1c2WDS.s 			page 49


 620      3377D652 
 620      BCBC53E2 
 620      F8B23A7D 
 620      5676B9E0 
 621 00b8 688FABD4 		.ascii	"h\217\253\324\030tB9Z}H\014>\022?\270#\0004\\\246\337"
 621      18744239 
 621      5A7D480C 
 621      3E123FB8 
 621      2300345C 
 622 00ce B52EE7D1 		.ascii	"\265.\347\321\222C1.?'\247\266\2048\016\014\377?p\373"
 622      9243312E 
 622      3F27A7B6 
 622      84380E0C 
 622      FF3F70FB 
 623 00e2 57CCB20E 		.ascii	"W\314\262\016)cR6E\244\351\010\001= \320\037tC\021t"
 623      29635236 
 623      45A4E908 
 623      013D20D0 
 623      1F744311 
 624 00f7 41114389 		.ascii	"A\021C\211\3013(C\353\326\307\263\257\014qB\221\343"
 624      C1332843 
 624      EBD6C7B3 
 624      AF0C7142 
 624      91E3
 625 0109 030F4B32 		.ascii	"\003\017K2\340\264\0025\350\375\027\324\030\364)\260"
 625      E0B40235 
 625      E8FD17D4 
 625      18F429B0 
 626 0119 E7DBC879 		.ascii	"\347\333\310yQ\242\270\324\275\331\015-\003\376\316"
 626      51A2B8D4 
 626      BDD90D2D 
 626      03FECE
 627 0128 80FD0780 		.ascii	"\200\375\007\200\003PF\346\253w'\336\230\342\224B\033"
 627      035046E6 
 627      AB7727DE 
 627      98E29442 
 627      1B
 628 0139 12734347 		.ascii	"\022sCGJ\237\022\352\2664\347\265H7QL\370\340\3378\015"
 628      4A9F12EA 
 628      B634E7B5 
 628      4837514C 
 628      F8E0DF38 
 629 014e B4FE9ADC 		.ascii	"\264\376\232\334i\312\015$\250T\305\220\204R\277H0\204"
 629      69CA0D24 
 629      A854C590 
 629      8452BF48 
 629      3084
 630 0160 17811329 		.ascii	"\027\201\023)\003\027\\\351yq\351\336/|\271Px\024\030"
 630      03175CE9 
 630      7971E9DE 
 630      2F7CB950 
 630      781418
 631 0173 891A50CE 		.ascii	"\211\032P\316:P\002\006\320\301M\245[\352\311\330\226"
 631      3A500206 
 631      D0C14DA5 
 631      5BEAC9D8 
 631      96
ARM GAS  C:\Users\Sava\AppData\Local\Temp\cc1c2WDS.s 			page 50


 632 0184 2A759AE3 		.ascii	"*u\232\343$\226 \261\020\357\3545\310i\\hq\241\253\340"
 632      249620B1 
 632      10EFEC35 
 632      C8695C68 
 632      71A1ABE0 
 633 0198 5BD40D22 		.ascii	"[\324\015\"M\355@&\213\361\321\323\276\205\016\025~"
 633      4DED4026 
 633      8BF1D1D3 
 633      BE850E15 
 633      7E
 634 01a9 7A69EA0E 		.ascii	"zi\352\016\261\016\216l\002\177\313\244\322\2446\027"
 634      B10E8E6C 
 634      027FCBA4 
 634      D2A43617 
 635 01b9 8DE8B66C 		.ascii	"\215\350\266l\2242\337\021\272\307)\321a\210\262\270"
 635      9432DF11 
 635      BAC729D1 
 635      6188B2B8 
 636 01c9 30107644 		.ascii	"0\020vD@\241\001\205&\334\266\371\002\237\265\366\261"
 636      40A10185 
 636      26DCB6F9 
 636      029FB5F6 
 636      B1
 637 01da 8647F9C1 		.ascii	"\206G\371\301\210\317:\"\250@#\233\362\362\236\224U"
 637      88CF3A22 
 637      A840239B 
 637      F2F29E94 
 637      55
 638 01eb 537F07C0 		.ascii	"S\177\007\300\024\364O\311n\216\356\002\233\311>\300"
 638      14F44FC9 
 638      6E8EEE02 
 638      9BC93EC0 
 639 01fb 5304D529 		.ascii	"S\004\325)L?Swl\236\023\304\366\0053=:/\214f\023\325"
 639      4C3F5377 
 639      6C9E13C4 
 639      F605333D 
 639      3A2F8C66 
 640 0211 1C1162EB 		.ascii	"\034\021b\353p\333\235,<\030\260<*\015<\317\002\240"
 640      70DB9D2C 
 640      3C18B03C 
 640      2A0D3CCF 
 640      02A0
 641 0223 981CC54C 		.ascii	"\230\034\305L\375\237\301\222\301\330n\020\304\262\314"
 641      FD9FC192 
 641      C1D86E10 
 641      C4B2CC
 642 0232 FBC399F1 		.ascii	"\373\303\231\361\335\012\356\211\363\361\360\334R{\342"
 642      DD0AEE89 
 642      F3F1F0DC 
 642      527BE2
 643 0241 E8C4A8BA 		.ascii	"\350\304\250\272\015\367\031\373.\022_^\261\006\261"
 643      0DF719FB 
 643      2E125F5E 
 643      B106B1
 644 0250 D6272769 		.ascii	"\326''i\013\3755;3s\006\275mB5\355\257\327o\033s\332"
 644      0BFD353B 
 644      337306BD 
ARM GAS  C:\Users\Sava\AppData\Local\Temp\cc1c2WDS.s 			page 51


 644      6D4235ED 
 644      AFD76F1B 
 645 0266 A1AD811A 		.ascii	"\241\255\201\032\361\026\366v.\372\205\011\352S\334"
 645      F116F676 
 645      2EFA8509 
 645      EA53DC
 646 0275 ED5889F5 		.ascii	"\355X\211\365\033\225g\034\221\007/\240\035vTs\301$"
 646      1B95671C 
 646      91072FA0 
 646      1D765473 
 646      C124
 647 0287 546264E5 		.ascii	"Tbd\345\036\277\007b\005\032\362\231\304\032o@,\237"
 647      1EBF0762 
 647      051AF299 
 647      C41A6F40 
 647      2C9F
 648 0299 655A0CEF 		.ascii	"eZ\014\357\015\215\013\354\372+\366E\273>|\355\352\315"
 648      0D8D0BEC 
 648      FA2BF645 
 648      BB3E7CED 
 648      EACD
 649 02ab 2A9A6DBB 		.ascii	"*\232m\273\242\212i\266\035\276\241\327\204/U\325\031"
 649      A28A69B6 
 649      1DBEA1D7 
 649      842F55D5 
 649      19
 650 02bc F8ACAE8B 		.ascii	"\370\254\256\213\324\006k\302\227#\325\327k#\177\000"
 650      D4066BC2 
 650      9723D5D7 
 650      6B237F00 
 651 02cc AFE34F75 		.ascii	"\257\343Ou"
 652              		.text
 653              		.section	.gnu.lto_.symbol_nodes.d4bd9b5,"",%progbits
 654 0000 789C5D90 		.ascii	"x\234]\220MN\3030\020\205_b\327q\342\374\237\000\216"
 654      4D4EC330 
 654      10855F62 
 654      D771E2FC 
 654      9F008E
 655 0013 C2C9A655 		.ascii	"\302\311\246U*\220\312\206\033 \024\026\210k\244k\226"
 655      2A90CA86 
 655      1B201416 
 655      886BA46B 
 655      96
 656 0024 ACA9D225 		.ascii	"\254\251\322%g@\330\036GbX\315\233\357\275\031\377h"
 656      6740D81E 
 656      476258CD 
 656      9BEFBD19 
 656      FF68
 657 0036 64F8CC01 		.ascii	"d\370\314\001\344 \340\351\003\241\274\037n=((\223\300"
 657      E420E0E9 
 657      03A1BC1F 
 657      6E3D2828 
 657      93C0
 658 0048 522E4149 		.ascii	"R.AIJ\202\212\264\004\216v\0224d6\360vx\331+\217Z*\376"
 658      4A828AB4 
 658      048E7612 
 658      346436F0 
ARM GAS  C:\Users\Sava\AppData\Local\Temp\cc1c2WDS.s 			page 52


 658      7678D92B 
 659 0060 A38CAC1C 		.ascii	"\243\214\254\034\313\251\224@Q%\201&'\301\216j\011\014"
 659      CBA99440 
 659      51258126 
 659      27C18E6A 
 659      090C
 660 0072 3512D4D4 		.ascii	"5\022\324\324\012\220\015\324E\000\354\3677\276\037"
 660      0A900DD4 
 660      4500ECF7 
 660      37BE1F
 661 0081 A9177D47 		.ascii	"\251\027}G\203\350{\032\377\366Ju\270^~\356\224\356"
 661      83E87B1A 
 661      FFF64A75 
 661      B85E7EEE 
 661      94EE
 662 0093 700ED5A4 		.ascii	"p\016\325\244\336\3648\337\177?[Ut8\262\350q|\010\302"
 662      DEF438DF 
 662      7F3F5B55 
 662      7438B2E8 
 662      717C08C2 
 663 00a7 0EB87EF9 		.ascii	"\016\270~\371\2105\230C\324\026X/\334\2571Yf\230\002"
 663      88359843 
 663      D416582F 
 663      DCAF3159 
 663      669802
 664 00ba 282D9658 		.ascii	"(-\226X\375\000\033\032K\\Q\372\021\026\006\323)\211"
 664      FD001B1A 
 664      4B5C51FA 
 664      111606D3 
 664      2989
 665 00cc F994AC25 		.ascii	"\371\224\254%\212*\035S\245\365\225O\304-\036\314q\330"
 665      8A2A1D53 
 665      A5F5954F 
 665      C42D1ECC 
 665      71D8
 666 00de 659843C2 		.ascii	"e\230C\302)\254\261n\011\227ca\2411qt\333\352\311\312"
 666      29ACB16E 
 666      09976361 
 666      A1317174 
 666      DBEAC9CA 
 667 00f2 42617A4C 		.ascii	"BazL\326\314\302`\211\242N{\353\264\267v\374\236z\304"
 667      D6CCC260 
 667      89A24E7B 
 667      EBB4B776 
 667      FC9E7AC4 
 668 0106 6BA88D63 		.ascii	"k\250\215c\277\361\003\261\026\354\373~\212\307\266"
 668      BFF103B1 
 668      16ECFB7E 
 668      8AC7B6
 669 0115 9A07DB9C 		.ascii	"\232\007\333\234\215\326\361\023\332b\013l7\365\202"
 669      8DD6F113 
 669      DA620B6C 
 669      37F582
 670 0124 6FEAADF8 		.ascii	"o\352\255\370y\370\005\021U\317\357"
 670      79F80511 
 670      55CFEF
 671              		.text
ARM GAS  C:\Users\Sava\AppData\Local\Temp\cc1c2WDS.s 			page 53


 672              		.section	.gnu.lto_.refs.d4bd9b5,"",%progbits
 673 0000 789C6361 		.ascii	"x\234ca`\004B \000\000\0009\000\007"
 673      60044220 
 673      00000039 
 673      0007
 674              		.text
 675              		.section	.gnu.lto_.decls.d4bd9b5,"",%progbits
 676 0000 789CBD58 		.ascii	"x\234\275XiP\024g\032\356\257{\230\201\221#\321\304"
 676      69501467 
 676      1AEEAF7B 
 676      98819123 
 676      D1C4
 677 0012 CD0F7617 		.ascii	"\315\017v\027\243Uq7\025\263&\232\312f\377$\233\335"
 677      A3557137 
 677      15B3269A 
 677      CA66FF24 
 677      9BDD
 678 0024 247BA8D9 		.ascii	"${\250\331\2552\277\250\232\302q\324\251\032\006\226"
 678      AD32BFA8 
 678      9AC271D4 
 678      A91A0696 
 679 0034 194D4C55 		.ascii	"\031MLUj[A\202x\201 \212\240\034\301\003\344\024\017"
 679      6A5B4182 
 679      7881208A 
 679      A01CC103 
 679      E4140F
 680 0047 74C40C08 		.ascii	"t\304\014\010\012*\202\002r\250\\j4\012\242\202(\250"
 680      0A2A8202 
 680      72A85C6A 
 680      340AA282 
 680      28A8
 681 0059 B0EF774D 		.ascii	"\260\357wM\367\2143\306\252M\245\313\227\356\376\372"
 681      F78C33C6 
 681      AA4DA5CB 
 681      97EEFEFA 
 682 0069 F9DEE779 		.ascii	"\371\336\347y\217\357\233n5\002\022\360q\373UA\310\223"
 682      8FEF9B6E 
 682      350212F0 
 682      71FB5541 
 682      C893
 683 007b 04E133AD 		.ascii	"\004\3413\255 L\300\361\022\214}!(\307\024\260\013`"
 683      204CC0F1 
 683      128C7D21 
 683      28C714B0 
 683      0B60
 684 008d ED609D60 		.ascii	"\355`\235`\335`\275`7\300\006\300\006\301\206\300\036"
 684      DD60BD60 
 684      37C006C0 
 684      06C186C0 
 684      1E
 685 009e 818D814D 		.ascii	"\201\215\201M\200I\340:\000l\022\3304\2607\301\336\006"
 685      8049E03A 
 685      006C12D8 
 685      34B037C1 
 685      DE06
 686 00b0 7B1709CF 		.ascii	"{\027\011\317\034\330\267?\343\234\014\366\012X#\330"
 686      1CD8B73F 
ARM GAS  C:\Users\Sava\AppData\Local\Temp\cc1c2WDS.s 			page 54


 686      E39C0CF6 
 686      0A5823D8 
 687 00c0 7EB037C0 		.ascii	"~\2607\300\032\300\252\261O\260z\260:\2603`\210\315"
 687      1AC0AAB1 
 687      4FB07AB0 
 687      3AB03360 
 687      88CD
 688 00d2 F53CB04E 		.ascii	"\365<\260N\255\312\327B\260V\260\026\2609\210\316\253"
 688      ADCAD742 
 688      B056B016 
 688      B03988CE 
 688      AB
 689 00e3 67F3DBD9 		.ascii	"g\363\333\331y\256\207\256\316\027\360Q\307\346v\262"
 689      79AE87AE 
 689      CE17F051 
 689      C7E676B2 
 690 00f3 F37B1E3E 		.ascii	"\363{\036>p\236\202\274\370\230\307\342z\037Q\177\177"
 690      709E82BC 
 690      F898C7E2 
 690      7A1F517F 
 690      7F
 691 0104 84F30760 		.ascii	"\204\363\007`\177\002[\000\367\0371\3778F\221\371\231"
 691      7F025B00 
 691      F71F31FF 
 691      384691F9 
 691      99
 692 0115 C6C6FEEC 		.ascii	"\306\306\376\354\301\321\3733q\364\2528>\366\340\300"
 692      C1D1FB33 
 692      71F4AA38 
 692      3EF6E0C0 
 693 0125 75F6139E 		.ascii	"u\366\023\236\255\317B\366\0341\214\347\201{#\330\313"
 693      ADCF42F6 
 693      1C318CE7 
 693      817B23D8 
 693      CB
 694 0136 3C5C4B5E 		.ascii	"<\\K^[\354\003\327\027k\373\013\242\272\376\012\366"
 694      5BEC03D7 
 694      176BFB0B 
 694      A2BAFE0A 
 694      F6
 695 0147 7B953E89 		.ascii	"{\225>\211\371\342}\204\307?\361\3208\310\362\360<\256"
 695      F9E27D84 
 695      C73FF1D0 
 695      38C8F2F0 
 695      3CAE
 696 0159 17E119F4 		.ascii	"\027\341\031\364\340\371\324\203\007\367y\240G\2769"
 696      E0F9D483 
 696      07F779A0 
 696      47BE39
 697 0168 0FE7C07C 		.ascii	"\017\347\300|\237\301\274Y`\177\003\353g\2761\007\357"
 697      9FC1BC59 
 697      607F03EB 
 697      67BE3107 
 697      EF
 698 0179 5F0DF385 		.ascii	"_\015\363\205\327\004_C\230\352\357\036|\217\030\227"
 698      D7045F43 
 698      98EAEF1E 
ARM GAS  C:\Users\Sava\AppData\Local\Temp\cc1c2WDS.s 			page 55


 698      7C8F1897 
 699 0189 2FBE7F00 		.ascii	"/\276\177\000\276\015\316\377\204\363}/\374\363\300"
 699      BE0DCEFF 
 699      84F37D2F 
 699      FCF3C0
 700 0198 BA044507 		.ascii	"\272\004E\007\217U\307|\267\253t\3642\035\003\0147\337"
 700      8F55C77C 
 700      B7AB74F4 
 700      321D030C 
 700      37DF
 701 01aa 43CBD8FF 		.ascii	"C\313\330\377\031{\035\213_\303|aN5\337\002\017\276"
 701      197B1D8B 
 701      5FC37C61 
 701      4E35DF02 
 701      0FBE
 702 01bc 091F355D 		.ascii	"\011\0375]\3108y\354<\306\006U\234\242*\327:\346\013"
 702      C83879EC 
 702      3CC60655 
 702      9CA22AD7 
 702      3AE60B
 703 01cf C7DACDF8 		.ascii	"\307\332\315\370\360\232\345\361z\036x\357\362\305\353"
 703      F09AE5F1 
 703      7A1E78EF 
 703      F2C5EB
 704 01de C9F9399C 		.ascii	"\311\3719\234\307\341\374/8\277\303\364\3731\037\234"
 704      C7E1FC2F 
 704      38BFC3F4 
 704      FB311F9C 
 705 01ee 0F737BDB 		.ascii	"\017s{\333\367\310\376\370\234\370\270o\036S\203G\\"
 705      F7C8FEF8 
 705      9CF8B86F 
 705      1E538347 
 705      5C
 706 01ff 1AE66342 		.ascii	"\032\346cBPz\310\363\300\373o\210\017\016\036\003\217"
 706      507AC8F3 
 706      C0FB6F88 
 706      0F0E1E03 
 706      8F
 707 0210 C91B1FD6 		.ascii	"\311\033\037\326\301\367:-\363\327\313\3627!\270\327"
 707      C1F73A2D 
 707      F3D7CBF2 
 707      3721B8D7 
 708 0220 EFDF1E31 		.ascii	"\357\337\0361>\025\321\223\307\347\252t\227P\007~\202"
 708      3E15D193 
 708      C7E7AA74 
 708      9750077E 
 708      82
 709 0231 F021081E 		.ascii	"\360!\010\036 D\015\321a\221\017\321g\350Y0q\241\214"
 709      20440DD1 
 709      61910FD1 
 709      67E85930 
 709      71A18C
 710 0244 7BA67582 		.ascii	"{\246u\202\037\312\003D\211\351$5\236S\003-\275D\202"
 710      1FCA0344 
 710      89E92435 
 710      9E53032D 
 710      BD4482
ARM GAS  C:\Users\Sava\AppData\Local\Temp\cc1c2WDS.s 			page 56


 711 0257 4B05C7AA 		.ascii	"K\005\307\252\3741\365\212X\217C\342A\027\356\2718W"
 711      FC31F58A 
 711      588F43E2 
 711      4117EEB9 
 711      3857
 712 0269 029770D9 		.ascii	"\002\227p\331=\272\367\223Y\2052\034I\262,\376ZI\314"
 712      3DBAF793 
 712      5985321C 
 712      49B22CFE 
 712      5A49CC
 713 027c 95BAFC7D 		.ascii	"\225\272\374}\322\260\210\336\320#\354=\004\206J\372"
 713      D2B088DE 
 713      D023EC3D 
 713      04864AFA 
 714 028c 8F8C06D1 		.ascii	"\217\214\006\321!\214\270\260\351~\236N\232J\256\317"
 714      218CB8B0 
 714      E97E9E4E 
 714      9A4AAECF 
 715 029c C7956662 		.ascii	"\307\225fb\364d=\322\300\355\275\206\355W\203\341\366"
 715      F4643DD2 
 715      C0EDBD86 
 715      ED5783E1 
 715      F6
 716 02ad 153D0A7B 		.ascii	"\025=\012{*\212\373\222o_\010@3\365\2731OO\312\256\300"
 716      2A8AFB92 
 716      6F5F0840 
 716      33F5BB31 
 716      4F4FCAAE 
 717 02c2 23B2FC12 		.ascii	"#\262\374\022*EzT\210$\224\217f\341X\336\320\303\337"
 717      2A457A54 
 717      8824948F 
 717      66E158DE 
 717      D0C3DF
 718 02d5 04595E2D 		.ascii	"\004Y^-'\305\312\223?\023P1\012EE(T@%h&\346\3048\264"
 718      27C5CA93 
 718      3F135031 
 718      0A454528 
 718      54402568 
 719 02ee 0F060B60 		.ascii	"\017\006\013`\020H\362\363\222s\265R\036\302\002\304"
 719      1048F2F3 
 719      9273B552 
 719      1EC202C4 
 720 02fe 82E2C693 		.ascii	"\202\342\306\223:\244\237\351\325A\271\027\007T\213"
 720      3AA49FE9 
 720      D541B917 
 720      07548B
 721 030d 63DD9C42 		.ascii	"c\335\234B\254e?h)S\264\2004\232\205\336\023[\344`\015"
 721      AC653F68 
 721      2953B480 
 721      349A85DE 
 721      135BE460 
 722 0322 4E37462C 		.ascii	"N7F,\322\340\261\355\216\341\323~4V\177\270\035zr\242"
 722      D2E0B1ED 
 722      8EE1D37E 
 722      34567FB8 
 722      1D7A72A2 
 723 0336 3F48CAA3 		.ascii	"?H\312\243\351,Ys-\337\037\236\205B\326\220*e\2414e"
ARM GAS  C:\Users\Sava\AppData\Local\Temp\cc1c2WDS.s 			page 57


 723      E92C5973 
 723      2DDF1F9E 
 723      8542D690 
 723      2A65A134 
 724 034b 079C4345 		.ascii	"\007\234CE\032)\237`\305\363\345\035\265\252\254<\370"
 724      1A299F60 
 724      C5F3E51D 
 724      B5AAAC3C 
 724      F8
 725 035c 28569611 		.ascii	"(V\226\021r\000\317\021EI\250++wse\355k\002z7\024\375"
 725      7200CF11 
 725      4549A82B 
 725      2B777365 
 725      ED6B027A 
 726 0373 01423A0A 		.ascii	"\001B:\012!\205\262\220* \244\303,'Y{k\202\244rJ0\220"
 726      2185B290 
 726      2A20A4C3 
 726      2C27597B 
 726      6B82A472 
 727 038a 7A3B4172 		.ascii	"z;Ar\0218\326\205\356\303\241\036\007\202c\012\201\003"
 727      1138D685 
 727      EEC3A11E 
 727      0782630A 
 727      8103
 728 039c F960A8F4 		.ascii	"\371`\250\364\316\320\360\260\377\241(9(C{zgM\240\213"
 728      CED0F0B0 
 728      FFA12839 
 728      28437B7A 
 728      674DA08B 
 729 03b0 A12CEDB7 		.ascii	"\241,\355\267\371\230\241\012\030\276W\030\216\373b"
 729      F998A10A 
 729      18BE5718 
 729      8EFB62
 730 03bf 707A6768 		.ascii	"pzgh|\220Y\021\020\230\350*$\361\307k)\240j\024\310"
 730      7C905911 
 730      1098E82A 
 730      24F1C76B 
 730      29A06A14 
 731 03d4 5A74DB25 		.ascii	"Zt\333%\307)\215\324E3\377\370fj\007\242U\011\204\333"
 731      C7298DD4 
 731      4533FFF8 
 731      666A07A2 
 731      550984DB 
 732 03e8 D58E8EE4 		.ascii	"\325\216\216\344\020\332\201=\244\317{\2627h\245\353"
 732      10DA813D 
 732      A4CF7BB2 
 732      3768A5EB 
 733 03f8 04EB77A0 		.ascii	"\004\353w\240\256)\307\017M\2311c\346\214d\326\3722"
 733      AE29C70F 
 733      4D993163 
 733      E68C64D6 
 733      FA32
 734 040a D208A816 		.ascii	"\322\010\250\026Hj\010\311)4\005\353B\247A\342\0314"
 734      486A08C9 
 734      293405EB 
 734      42A741E2 
 734      1934
ARM GAS  C:\Users\Sava\AppData\Local\Temp\cc1c2WDS.s 			page 58


 735 041c 03D583D5 		.ascii	"\003\325\203\325\241\031dq\344be\316\214\"\224.;\343"
 735      A1196471 
 735      E46265CE 
 735      8C22942E 
 735      3BE3
 736 042e 24AC079D 		.ascii	"$\254\007\235\204h\361\024W\307\035$^f\207\272\340\333"
 736      8468F114 
 736      57C71D24 
 736      5E6687BA 
 736      E0DB
 737 0440 4CF25A2D 		.ascii	"L\362Z-\301\036\362\304\276\215\241\305x\002mJg\212"
 737      C11EF2C4 
 737      BE8DA1C5 
 737      78026D4A 
 737      678A
 738 0452 4996FD31 		.ascii	"I\226\3751F`)TX\267\256\244\244\270\033OxuD8!\340\201"
 738      46602954 
 738      58B7AEA4 
 738      A4B81B4F 
 738      78754438 
 739 0469 BB7B5BB4 		.ascii	"\273{[\264\322-Z\247G\273:G\003\320\224\231^\243E\347"
 739      D22D5AA7 
 739      47BB3A47 
 739      03D09499 
 739      5EA345E7 
 740 047d 20C8E705 		.ascii	" \310\347\005LU\355\010\222\241\372\000;\253\224\026"
 740      4C55ED08 
 740      92A1FA00 
 740      3BAB9416 
 741 048d 6B246C13 		.ascii	"k$l\023\353k2\374\3245kP\011\023P\243\253f\267\023\307"
 741      EB6B32FC 
 741      D4356B50 
 741      091350A3 
 741      AB66B713 
 742 04a2 EFD10505 		.ascii	"\357\321\005\005c\350\000\"+*msb\253\356\2654\".V\016"
 742      63E80022 
 742      2B2A6D73 
 742      62ABEEB5 
 742      34222E56 
 743 04b7 D3A02FA6 		.ascii	"\323\240/\246\252&\237G\257\301\337&\244\241\036\356"
 743      AA269F47 
 743      AFC1DF26 
 743      A4A11EEE 
 744 04c7 8FDFB8A1 		.ascii	"\217\337\270\241\177=[\316\316\226{Z\267\316M\213\225"
 744      7F3D5BCE 
 744      CE967B5A 
 744      B7CE4D8B 
 744      95
 745 04d8 EB605E18 		.ascii	"\353`^\030\206\241\275\2124\270\304\247=\350\022\354"
 745      86A1BD8A 
 745      34B8C4A7 
 745      3DE812EC 
 746 04e8 8817D0EB 		.ascii	"\210\027\320\35303\375\314h\225(\301\222\300n\2327l"
 746      3033FDCC 
 746      689528C1 
 746      92C06E9A 
 746      376C
ARM GAS  C:\Users\Sava\AppData\Local\Temp\cc1c2WDS.s 			page 59


 747 04fa 49405358 		.ascii	"I@SXB\234>\023\"<\223\015\274+\304\247\307K\352h[\334"
 747      429C3E13 
 747      223C930D 
 747      BC2BC4A7 
 747      C74BEA68 
 748 0510 A26D7545 		.ascii	"\242muE\273\376\304x#\215\026\306\330\366Q\226TqU\243"
 748      BBFEC478 
 748      238D16C6 
 748      D8F65196 
 748      547155A3 
 749 0524 0E7661A0 		.ascii	"\016va\240jn\033\011\366\"\017Vn\216m\011\206`{\262"
 749      6A6E1B09 
 749      F6220F56 
 749      6E8E6D09 
 749      86607BB2 
 750 0538 6567EBA6 		.ascii	"eg\353\246@\\|\230'b\030jV\202mV\007\333N\202\035\036"
 750      405C7C98 
 750      2762186A 
 750      56826D56 
 750      07DB4E82 
 751 054e DEBF4594 		.ascii	"\336\277E\224\266\322`\3537:\367k\231\233\324\013\201"
 751      B6D260EB 
 751      373AF76B 
 751      999BD40B 
 751      81
 752 055f 72D22A59 		.ascii	"r\322*Y\376\2208\351P\234t\250\235t\022')'\356\335\321"
 752      FE9038E9 
 752      509C74A8 
 752      9D741227 
 752      2927EEDD 
 753 0574 48BBA993 		.ascii	"H\273\251\223\342\302\307\245z\022\314<\036K}\177Z\037"
 753      E2C2C7A5 
 753      7A12CC3C 
 753      1E4B7D7F 
 753      5A1F
 754 0586 72C57799 		.ascii	"r\305w\231V\263h\347\311\221I>\003\354\"\001^\341\001"
 754      56B368E7 
 754      C991493E 
 754      03EC2201 
 754      5EE101
 755 0599 6EAECE3A 		.ascii	"n\256\316:\353\317\224]t)\003\020\250p)\273\244V\326"
 755      EBCF945D 
 755      74290310 
 755      A87029BB 
 755      A456D6
 756 05ac 4D9425AF 		.ascii	"M\224%\257*\255\017\221\016Re\031'b\013\020s\262\275"
 756      2AAD0F91 
 756      0E526519 
 756      27620B10 
 756      73B2BD
 757 05bf 59EDA447 		.ascii	"Y\355\244Gq\322\243v\322K\234\334\031\350\252\320I5"
 757      71D2A376 
 757      D24B9CDC 
 757      19E8AAD0 
 757      4935
 758 05d1 9EE12DE4 		.ascii	"\236\341-\344\341\365\356\271\276\234\217\\\245\301"
 758      E1F5EEB9 
ARM GAS  C:\Users\Sava\AppData\Local\Temp\cc1c2WDS.s 			page 60


 758      BE9C8F5C 
 758      A5C1
 759 05df 55B575EF 		.ascii	"U\265u\357\230\344\352\337kt\260?)\356V\220\317\376"
 759      98E4EADF 
 759      6B74B03F 
 759      29EE5690 
 759      CFFE
 760 05f1 FD81447C 		.ascii	"\375\201D|\235G|\263\376p\267\206\366\257\2639Er\225"
 760      9D477CB3 
 760      FE70B786 
 760      F6AFB339 
 760      457295
 761 0604 1460A84F 		.ascii	"\024`\250O\221\333\247\226{\203\310\335\235\263%Y+5"
 761      91DBA796 
 761      7B83C8DD 
 761      9DB32559 
 761      2B35
 762 0616 52B95557 		.ascii	"R\271UW\263\0335DH\265\253\265\256\356\356y(\271\306"
 762      B31B3544 
 762      48B5ABB5 
 762      AEEEEE79 
 762      28B9C6
 763 0629 7EA4E2EA 		.ascii	"~\244\342\352*k\317\204\270\024\337\242\203\337Ug\365"
 763      2A6BCF84 
 763      B814DFA2 
 763      83DF5567 
 763      F5
 764 063a 697D2AEE 		.ascii	"i}*\356'\212os\305\347n\265\014\207\200b'\374Ki\013"
 764      278A6F73 
 764      C5E76EB5 
 764      0C878062 
 764      27FC4B69 
 765 064f 76290618 		.ascii	"v)\006\030\272\251(\276\251V<@\024\237\277\262\315\031"
 765      BAA928BE 
 765      A9563C40 
 765      149FBFB2 
 765      CD19
 766 0661 225DA18A 		.ascii	"\"]\241\212\233j\327~\217\230\233\2466^%\354\344\216"
 766      9B6AD77E 
 766      8F989BA6 
 766      365E25EC 
 766      E48E
 767 0673 E2E48EDA 		.ascii	"\342\344\216\332\311 q\362\250\347\262C'\335\246N\222"
 767      C92071F2 
 767      A8E7B243 
 767      27DDA64E 
 767      92
 768 0684 8EC53D54 		.ascii	"\216\305=T\242\241aw\244\237\252\010\361\331p\367I0"
 768      A2A16177 
 768      A49FAA08 
 768      F1D970F7 
 768      4930
 769 0696 F77830E9 		.ascii	"\367x0\351O\373\2624\254W\216\304++\012`\350\256\242"
 769      4FFBB234 
 769      AC578EC4 
 769      2B2B0A60 
 769      E8AEA2
ARM GAS  C:\Users\Sava\AppData\Local\Temp\cc1c2WDS.s 			page 61


 770 06a9 E3AE5AC7 		.ascii	"\343\256Z\307\020\321\221_\331Y\035,\215\371\354\026"
 770      10D1915F 
 770      D9591D2C 
 770      8DF9EC16 
 771 06b9 67D6F57D 		.ascii	"g\326\365}\032\227\264\0074\321\031\253\357]\223|j{"
 771      1A97B407 
 771      34D119AB 
 771      EF5D937C 
 771      6A7B
 772 06cb 48B48D70 		.ascii	"H\264\215pm\371\345\235\321\2543\366\237\342\011\002"
 772      6DF9E59D 
 772      D1AC33F6 
 772      9FE20902 
 773 06db 0C1A5684 		.ascii	"\014\032V\204\015\253\205=\242\302z\206\257\212\322"
 773      0DAB853D 
 773      A2C27A86 
 773      AF8AD2
 774 06ea 5A0D1156 		.ascii	"Z\015\021VT\336\332\030\314\234d\236\346Npt\243\212"
 774      54DEDA18 
 774      CC9C649E 
 774      E64E7074 
 774      A38A
 775 06fc 9351B593 		.ascii	"\223Q\265\2231\342\244\312q\253L\224\266i^,\272'>\242"
 775      31E2A4CA 
 775      71AB4C94 
 775      B6695E2C 
 775      BA273EA2 
 776 0710 736BA371 		.ascii	"sk\243q\022\335S\036]{zS%\337\313\322\327)\215\0170"
 776      12DD531E 
 776      5D7B7A53 
 776      25DFCBD2 
 776      D7298D0F 
 777 0725 F458D1F6 		.ascii	"\364X\321\366X\255m\202h{p\277\251Z#\345j^\274\003\334"
 777      58AD6D82 
 777      687B70BF 
 777      A95A23E5 
 777      6A5EBC03 
 778 073a 74AC16B1 		.ascii	"t\254\026\261\216U\"\323Q\3654\313\301~@\234i\347x\206"
 778      8E5522D3 
 778      51F534CB 
 778      C17E409C 
 778      69E77886 
 779 074e 008464D1 		.ascii	"\000\204d\321\245\002.\025\025\261\"\311P~1\222\212"
 779      A5022E15 
 779      15B122C9 
 779      507E3192 
 779      8A
 780 075f 5F30416B 		.ascii	"_0AkD2\230\231\225\333\342\357\032\214\247\203Y\211"
 780      44329899 
 780      95DBE2EF 
 780      1A8CA783 
 780      5989
 781 0771 7543937C 		.ascii	"uC\223|\252M j\277\345j\273k\317\264HL\355\210K-\200"
 781      AA4D206A 
 781      BFE56ABB 
 781      6BCFB448 
 781      4CED884B 
ARM GAS  C:\Users\Sava\AppData\Local\Temp\cc1c2WDS.s 			page 62


 782 0787 509CA236 		.ascii	"P\234\2426N\255v-Q\373\344l\232]\252\244j7\215%\225"
 782      4EAD762D 
 782      51FBE46C 
 782      9A5DAAA4 
 782      6A378D25 
 783 079c 21E663DC 		.ascii	"!\346c\334\265?\342\015'Q\361\221\250\366\261\216\370"
 783      B53FE20D 
 783      2751F191 
 783      A8F6B18E 
 783      F8
 784 07ad C8287094 		.ascii	"\310(p\224\303\206C\2354\224\374\270N+]\2447\245\031"
 784      C386439D 
 784      3494FCB8 
 784      4E2B5DA4 
 784      37A519
 785 07c0 3F9CD641 		.ascii	"?\234\326A\\h\003\231\205GV9\367\004I\227"
 785      5C680399 
 785      85475639 
 785      F7044997 
 786 07d0 E8E3DC5D 		.ascii	"\350\343\334];/\004\340\307\233\3401\332H\303Vr\366"
 786      3B2F04E0 
 786      C79BE031 
 786      DA48C356 
 786      72F6
 787 07e2 C554B74F 		.ascii	"\305T\267O\214\005\317~b,\240\357\313y\243\203\207\003"
 787      8C05CF7E 
 787      622CA0EF 
 787      CB79A383 
 787      8703
 788 07f4 A5ABC4A9 		.ascii	"\245\253\304\251x\363\350\241\235\312\353\354\301\033"
 788      78F3E8A1 
 788      9DCAEBEC 
 788      C11B
 789 0802 1F3ABAF0 		.ascii	"\037:\272\360\357~\232\250G\251J\030\013|~Fl\021gb\277"
 789      EF7E9AA8 
 789      47A94A18 
 789      0B7C7E46 
 789      6C116762 
 790 0817 E4473D45 		.ascii	"\344G=E\014E\233E\362\272Y\376xO>\3354\261\247d\252"
 790      0C459B45 
 790      F2BA59FE 
 790      784F3EDD 
 790      34B1A764 
 791 082c 755B75DB 		.ascii	"u[u\333\313\374\247n+\035J\277\336'\213\274\344\333"
 791      CBFCA76E 
 791      2B1D4ABF 
 791      DE278BBC 
 791      E4DB
 792 083e E8D8C5D8 		.ascii	"\350\330\305\330\365#\301\323n\371e\311\376$\242\312"
 792      F523C1D3 
 792      6EF965C9 
 792      FE24A2CA 
 793 084e F41FCB69 		.ascii	"\364\037\313i\017l\027\247\221\221\221\276\015):\251"
 793      0F6C17A7 
 793      919191BE 
 793      0D293AA9 
 794 085e DF8F8473 		.ascii	"\337\217\204s/kh\267\026\247%\023\364f\340\012\343\037"
ARM GAS  C:\Users\Sava\AppData\Local\Temp\cc1c2WDS.s 			page 63


 794      2F6B68B7 
 794      16A72513 
 794      F466E00A 
 794      E31F
 795 0870 EACBE9C7 		.ascii	"\352\313\351\307\374\244a\212\330\2675\257\211\344u"
 795      FCA4618A 
 795      D8B735AF 
 795      89E475
 796 087f 274EDC0E 		.ascii	"'N\334\016\312R\337\\\275\306\307\033\003\312\002\010"
 796      CA52DF5C 
 796      BDC6C71B 
 796      03CA0208 
 797 088f CA262D93 		.ascii	"\312&-\223\316[\346n~W\016\331\342\222\344\236\321\301"
 797      CE5BE66E 
 797      7E570ED9 
 797      E292E49E 
 797      D1C1
 798 08a1 AF567F17 		.ascii	"\257V\177\027\357\204\212K\355\257b Z\317s\205\222D"
 798      EF848A4B 
 798      EDAF6220 
 798      5ACF7385 
 798      9244
 799 08b3 0DBEA39F 		.ascii	"\015\276\243\237\2329\244\342%\207\217m\360\223\356"
 799      9A39A4E2 
 799      25878F6D 
 799      F093EE
 800 08c2 687D14D9 		.ascii	"h}\024\331\275\256\337Qyu}C_\273\362G\327\302\221\343"
 800      BDAEDF51 
 800      79757D43 
 800      5FBBF247 
 800      D7C291E3 
 801 08d6 05DDF4BD 		.ascii	"\005\335\364\275\347s=\332Eaw\276\035\270\346Z2\273"
 801      E7733DDA 
 801      456177BE 
 801      1DB8E65A 
 801      32BB
 802 08e8 E998D784 		.ascii	"\351\230\327\204\270\347`/E\336\035\352\227\365>r\220"
 802      B8E7602F 
 802      45DE1DEA 
 802      97F53E72 
 802      90
 803 08f9 8F735040 		.ascii	"\217sP@r\260\207\347\340\320`FK\010\315\201s\350r N"
 803      72B087E7 
 803      E0D06046 
 803      4B08CD81 
 803      73E87220 
 804 090e 40ACDCF3 		.ascii	"@\254\334\363&\206\241\\W\006\362 \003\271<\003\373"
 804      2686A15C 
 804      5706F220 
 804      03B93C03 
 804      FB
 805 091f 48066A1F 		.ascii	"H\006j\037^:\251\225\036\320\014x\373\374k\352\255\310"
 805      5E3AA995 
 805      1ED00C78 
 805      FBFC6BEA 
 805      ADC8
 806 0931 08F4B9A3 		.ascii	"\010\364\271\243\027\023\031E\\FA|\346V\362f\002\035"
ARM GAS  C:\Users\Sava\AppData\Local\Temp\cc1c2WDS.s 			page 64


 806      17131945 
 806      5C46417C 
 806      E656F266 
 806      021D
 807 0943 BB65ECC3 		.ascii	"\273e\354\303\364\322kr\302d\202B\205J\317\026r\011"
 807      F4D26B72 
 807      C2648242 
 807      854ACF16 
 807      7209
 808 0955 2544C2AD 		.ascii	"%D\302\255\201\254\351R\272\316\327KW\373\232\226\235"
 808      81ACE952 
 808      BACED74B 
 808      57FB9A96 
 808      9D
 809 0966 A2CFED63 		.ascii	"\242\317\355c?\021P\306\005d$\256m\015\240\002\234\225"
 809      3F1150C6 
 809      056424AE 
 809      6D0DA002 
 809      9C95
 810 0978 F1B0E956 		.ascii	"\361\260\351Vk0\004\225*\354\245\234\275\234\260\027"
 810      6B300495 
 810      2AECA59C 
 810      BD9CB017 
 811 0988 6DCC29D1 		.ascii	"m\314)\321\363\227\333$_\237_\350\200\210?\263\216]"
 811      F397DB24 
 811      5F9F5FE8 
 811      80883FB3 
 811      8E5D
 812 099a 39FB9BE9 		.ascii	"9\373\233\3519dA\266\266}\223\"'\275\204\0277~\005\245"
 812      396441B6 
 812      B67D9322 
 812      27BD8417 
 812      377E05A5 
 813 09ae 2E0F8AD3 		.ascii	".\017\212\323\361\322ImO\021)\314yh\362j\221`:9\346"
 813      F1D2496D 
 813      4F1129CC 
 813      7968F26A 
 813      91603A39 
 814 09c3 10C1645E 		.ascii	"\020\301d^\331\221\250\327\263\257\304\244\237\376J"
 814      D991A8D7 
 814      B3AFC4A4 
 814      9FFE4A
 815 09d2 EC1AB97D 		.ascii	"\354\032\271}\323\355\213\343\260\250\226Y!R\231\025"
 815      D3ED8BE3 
 815      B0A89659 
 815      21529915 
 816 09e2 4466C6BD 		.ascii	"Df\306\275\204mZ}\202+\246\237\370\277\001tD\324\303"
 816      846D5A7D 
 816      822BA69F 
 816      F8BF0174 
 816      44D4C3
 817 09f5 ACB8CEEA 		.ascii	"\254\270\316\3522\235\232\002/\037\205\342(\2438J(\206"
 817      329D9A02 
 817      2F1F85E2 
 817      28A3384A 
 817      2886
 818 0a07 524EEF12 		.ascii	"RN\357\022\325`\267\266p0\254\203`\275\254\230\315\015"
ARM GAS  C:\Users\Sava\AppData\Local\Temp\cc1c2WDS.s 			page 65


 818      D560B7B6 
 818      7030AC83 
 818      60BDAC98 
 818      CD0D
 819 0a19 C399FE7C 		.ascii	"\303\231\376|z\034L\237\257.\352<\376A\321Q\224\334"
 819      7A1C4C9F 
 819      AF2EEA3C 
 819      FE41D151 
 819      94DC
 820 0a2b 487F4F2A 		.ascii	"H\177O*\305@tL\364>\327\255!@\007-4 +F\342\012\351\373"
 820      C540744C 
 820      F43ED7AD 
 820      2140072D 
 820      34202B46 
 821 0a43 FAF730FD 		.ascii	"\372\3670\3758\235^p\362\362\321\347n/U\244\245\234"
 821      389D5E70 
 821      F2F2D1E7 
 821      6E2F55A4 
 821      A59C
 822 0a55 A4A5F00D 		.ascii	"\244\245\360\015\3149\033\337\372(\204Ut\214W\264\233"
 822      CC391BDF 
 822      FA288455 
 822      748C57B4 
 822      9B
 823 0a66 57B49A54 		.ascii	"W\264\232T\264f(\271.\210a\216Oa\230^\2169A0\207\236"
 823      B46628B9 
 823      2E88618E 
 823      4F61985E 
 823      8E394130 
 824 0a7c 76A66AD4 		.ascii	"v\246j\324Y\303/\256\212\366\032\226\266\032\332l\227"
 824      59C32FAE 
 824      8AF61A96 
 824      B61ADA6C 
 824      97
 825 0a8d 9B27DC3E 		.ascii	"\233'\334>\273\012\334\352Q\313\300\265\004<r\351\356"
 825      BB0ADCEA 
 825      51CBC0B5 
 825      043C72E9 
 825      EE
 826 0a9e 0ECE5EFA 		.ascii	"\016\316^\372+\306>\300\331O\022\366\236\234\2412\211"
 826      2BC63EC0 
 826      D94F12F6 
 826      9E9CA132 
 826      89
 827 0aaf 61BA3866 		.ascii	"a\2728f\220cN\021LnB\316\341\0205i\261\033i\035#\255"
 827      90634E11 
 827      4C6E42CE 
 827      E1103569 
 827      B11B691D 
 828 0ac5 23A477AA 		.ascii	"#\244w\252\262z\335\232\022\277\335*\340z\006\256'\340"
 828      B27ADD9A 
 828      12BFDD2A 
 828      E07A06AE 
 828      27E0
 829 0ad7 939BAABF 		.ascii	"\223\233\252\277a\344\233u\214|\210\223\237&\344;7\244"
 829      61E49B75 
 829      8C7C8893 
ARM GAS  C:\Users\Sava\AppData\Local\Temp\cc1c2WDS.s 			page 66


 829      9F26E43B 
 829      37A4
 830 0ae9 D5B8FD57 		.ascii	"\325\270\375WH\233\233\2773\314\337\031\342\357\370"
 830      489B9BBF 
 830      33CCDF19 
 830      E2EFF8
 831 0af8 D6CB8941 		.ascii	"\326\313\211Aj\360}7\360Y\006>K\300\251\025-\345n\211"
 831      6AF07D37 
 831      F059063E 
 831      4BC0A915 
 831      2DE56E89 
 832 0b0c EF720337 		.ascii	"\357r\00370p\003\001oOM\351\340\325\036\347R\037q\251"
 832      30700301 
 832      6F4F4DE9 
 832      E0D51EE7 
 832      521F71A9 
 833 0b20 E7689E6A 		.ascii	"\347h\236j\306K\264\0143\242g\2301\216i$\230\303\025"
 833      C64BB40C 
 833      33A26798 
 833      318E6924 
 833      98C315
 834 0b33 853D6E6B 		.ascii	"\205=nkd\334\215\264\211\2216\021\322\335\033\345\355"
 834      64DC8DB4 
 834      89913611 
 834      D2DD1BE5 
 834      ED
 835 0b44 7A3578BF 		.ascii	"z5x\277[\342\3173\360y\002^\237\352\274\306\025vNe\354"
 835      5BE2CF33 
 835      F079025E 
 835      9FEABCC6 
 835      15764E65 
 836 0b59 F01243D9 		.ascii	"\360\022C\331/\210\323\005\275e\205\301b1\230\255f\273"
 836      2F88D305 
 836      BD6585C1 
 836      623198AD 
 836      66BB
 837 0b6b FFA7F317 		.ascii	"\377\247\363\027\206}<{\266\2407\030\226\233\255\366"
 837      867D3C7B 
 837      B6A03718 
 837      969BADF6 
 838 0b7b 77DF31D8 		.ascii	"w\3371\330W!\343\007\341\3211QKc\"\"\303\226\230-&["
 838      5721E307 
 838      E1D13151 
 838      4B632222 
 838      C396982D 
 839 0b91 D8CCAFDE 		.ascii	"\330\314\257\336\177\357w\341\306\225\3211&\233-<\332"
 839      7FEF77E1 
 839      C695D131 
 839      269B2D3C 
 839      DA
 840 0ba2 16650C33 		.ascii	"\026e\0143\306\230\"\354Q1\341sf\275\343>`\216\214\216"
 840      C69822EC 
 840      5131E173 
 840      66BDE33E 
 840      608E8C8E 
 841 0bb6 8AB1872F 		.ascii	"\212\261\207/\265.\017\217\210\211\014\237;k\316\254"
 841      B52E0F8F 
ARM GAS  C:\Users\Sava\AppData\Local\Temp\cc1c2WDS.s 			page 67


 841      88890C9F 
 841      3B6BCEAC 
 842 0bc6 D9F8EA2D 		.ascii	"\331\370\352-k\224\325\364\226)b\2219\334l5Z\226/6\205"
 842      6B94D5F4 
 842      96296291 
 842      39DC6C35 
 842      5A962F36 
 843 0bdb 47461897 		.ascii	"GF\030\227\231\255\246p\303b\323\222\210\345\026\273"
 843      99ADA670 
 843      C362D392 
 843      88E516BB 
 844 0beb C1BE32DA 		.ascii	"\301\2762\332d\233\265L\360\347ZV\374RRl+m\341\006\233"
 844      649BB54C 
 844      F0E75A56 
 844      FC52526C 
 844      2B6DE106 
 845 0c00 7D31F002 		.ascii	"}1\360\002\277f\231)bq\000M\311\373\006\273\216\235"
 845      BF669929 
 845      6271004D 
 845      C9FB06BB 
 845      8E9D
 846 0c12 0369E2AC 		.ascii	"\003i\342\254Q\213M\006\373\253\226\025K-\3410\022i"
 846      518B4D06 
 846      FBAB9615 
 846      4B2DE130 
 846      1269
 847 0c24 B619C3C9 		.ascii	"\266\031\303\311\023\230\251\265\032l\346\257M\032{"
 847      1398A9B5 
 847      1A6CE6AF 
 847      4D1A7B
 848 0c33 84D9A2A3 		.ascii	"\204\331\242\243p\257H\243\020L\237.5\331\015\230Mu"
 848      70AF48A3 
 848      104C9F2E 
 848      35D90D98 
 848      4D75
 849 0c45 8BE7AA6E 		.ascii	"\213\347\252n\255\246\257\354\252[\010|\005\253\240"
 849      ADA6AFEC 
 849      AA5B087C 
 849      05ABA0
 850 0c54 EDCB88E8 		.ascii	"\355\313\210\350 \242\306\306\036(w\252Yf\253MM\201"
 850      20A2C6C6 
 850      1E2877AA 
 850      5966AB4D 
 850      4D81
 851 0c66 6F315675 		.ascii	"o1Vu\213\031\003\350m\214)r\022\2752ZL\0211\014d\\\266"
 851      8B1903E8 
 851      6D8C2972 
 851      12BD325A 
 851      4C11310C 
 852 0c7d D46031DB 		.ascii	"\324`1\333\354/\323\333\310\250\025&\303\"\323\222\250"
 852      EC2FD3DB 
 852      C8A81526 
 852      C322D392 
 852      A8
 853 0c8e 189336D2 		.ascii	"\030\2236\322\024i\214^\251\001\360\022\2355\312\276"
 853      14698C5E 
 853      A901F012 
ARM GAS  C:\Users\Sava\AppData\Local\Temp\cc1c2WDS.s 			page 68


 853      9D35CABE 
 854 0c9e 2C26EA4B 		.ascii	",&\352K-N\201\301\376\337\237\277x\026\363\242\360\245"
 854      2D4E81C1 
 854      FEDF9FBF 
 854      7816F3A2 
 854      F0A5
 855 0cb0 46A34711 		.ascii	"F\243G\021\3513W)\355\213\241\237\240\026h\266n\211"
 855      E9335729 
 855      ED8BA19F 
 855      A01668B6 
 855      6E89
 856 0cc2 35CC166D 		.ascii	"5\314\026m2\2020\253u\271\305\362\237_\254\235\3541"
 856      328230AB 
 856      75B9C5F2 
 856      9F5FAC9D 
 856      EC31
 857 0cd4 66EB52DC 		.ascii	"f\353R\334\017\220\036(\007\356\034\2702DX,Q\306\251"
 857      0F901E28 
 857      07EE1CB8 
 857      3244582C 
 857      51C6A9
 858 0ce7 9EFD004F 		.ascii	"\236\375\000O\000:\211a\226\304\230L\377\003\366\203"
 858      003A8961 
 858      96C4984C 
 858      FF03F683 
 859 0cf7 40D6     		.ascii	"@\326"
 860              		.text
 861              		.section	.gnu.lto_.symtab.d4bd9b5,"",%progbits
 862 0000 6C765F6C 		.ascii	"lv_ll_init\000"
 862      6C5F696E 
 862      697400
 863 000b 00       		.ascii	"\000"
 864 000c 00       		.ascii	"\000"
 865 000d 00       		.ascii	"\000"
 866 000e 00000000 		.ascii	"\000\000\000\000\000\000\000\000"
 866      00000000 
 867 0016 D2000000 		.ascii	"\322\000\000\000"
 868 001a 6C765F6C 		.ascii	"lv_ll_get_head\000"
 868      6C5F6765 
 868      745F6865 
 868      616400
 869 0029 00       		.ascii	"\000"
 870 002a 00       		.ascii	"\000"
 871 002b 00       		.ascii	"\000"
 872 002c 00000000 		.ascii	"\000\000\000\000\000\000\000\000"
 872      00000000 
 873 0034 D8000000 		.ascii	"\330\000\000\000"
 874 0038 6C765F6C 		.ascii	"lv_ll_get_tail\000"
 874      6C5F6765 
 874      745F7461 
 874      696C00
 875 0047 00       		.ascii	"\000"
 876 0048 00       		.ascii	"\000"
 877 0049 00       		.ascii	"\000"
 878 004a 00000000 		.ascii	"\000\000\000\000\000\000\000\000"
 878      00000000 
 879 0052 DA000000 		.ascii	"\332\000\000\000"
ARM GAS  C:\Users\Sava\AppData\Local\Temp\cc1c2WDS.s 			page 69


 880 0056 6C765F6C 		.ascii	"lv_ll_get_next\000"
 880      6C5F6765 
 880      745F6E65 
 880      787400
 881 0065 00       		.ascii	"\000"
 882 0066 00       		.ascii	"\000"
 883 0067 00       		.ascii	"\000"
 884 0068 00000000 		.ascii	"\000\000\000\000\000\000\000\000"
 884      00000000 
 885 0070 DF000000 		.ascii	"\337\000\000\000"
 886 0074 6C765F6C 		.ascii	"lv_ll_get_prev\000"
 886      6C5F6765 
 886      745F7072 
 886      657600
 887 0083 00       		.ascii	"\000"
 888 0084 00       		.ascii	"\000"
 889 0085 00       		.ascii	"\000"
 890 0086 00000000 		.ascii	"\000\000\000\000\000\000\000\000"
 890      00000000 
 891 008e E1000000 		.ascii	"\341\000\000\000"
 892 0092 6C765F6C 		.ascii	"lv_ll_swap\000"
 892      6C5F7377 
 892      617000
 893 009d 00       		.ascii	"\000"
 894 009e 00       		.ascii	"\000"
 895 009f 00       		.ascii	"\000"
 896 00a0 00000000 		.ascii	"\000\000\000\000\000\000\000\000"
 896      00000000 
 897 00a8 E7000000 		.ascii	"\347\000\000\000"
 898 00ac 6C765F6C 		.ascii	"lv_ll_ins_head\000"
 898      6C5F696E 
 898      735F6865 
 898      616400
 899 00bb 00       		.ascii	"\000"
 900 00bc 00       		.ascii	"\000"
 901 00bd 00       		.ascii	"\000"
 902 00be 00000000 		.ascii	"\000\000\000\000\000\000\000\000"
 902      00000000 
 903 00c6 F3000000 		.ascii	"\363\000\000\000"
 904 00ca 6C765F6C 		.ascii	"lv_ll_ins_prev\000"
 904      6C5F696E 
 904      735F7072 
 904      657600
 905 00d9 00       		.ascii	"\000"
 906 00da 00       		.ascii	"\000"
 907 00db 00       		.ascii	"\000"
 908 00dc 00000000 		.ascii	"\000\000\000\000\000\000\000\000"
 908      00000000 
 909 00e4 F8000000 		.ascii	"\370\000\000\000"
 910 00e8 6C765F6C 		.ascii	"lv_ll_ins_tail\000"
 910      6C5F696E 
 910      735F7461 
 910      696C00
 911 00f7 00       		.ascii	"\000"
 912 00f8 00       		.ascii	"\000"
 913 00f9 00       		.ascii	"\000"
 914 00fa 00000000 		.ascii	"\000\000\000\000\000\000\000\000"
ARM GAS  C:\Users\Sava\AppData\Local\Temp\cc1c2WDS.s 			page 70


 914      00000000 
 915 0102 FA000000 		.ascii	"\372\000\000\000"
 916 0106 6C765F6C 		.ascii	"lv_ll_rem\000"
 916      6C5F7265 
 916      6D00
 917 0110 00       		.ascii	"\000"
 918 0111 00       		.ascii	"\000"
 919 0112 00       		.ascii	"\000"
 920 0113 00000000 		.ascii	"\000\000\000\000\000\000\000\000"
 920      00000000 
 921 011b FF000000 		.ascii	"\377\000\000\000"
 922 011f 6C765F6C 		.ascii	"lv_ll_clear\000"
 922      6C5F636C 
 922      65617200 
 923 012b 00       		.ascii	"\000"
 924 012c 00       		.ascii	"\000"
 925 012d 00       		.ascii	"\000"
 926 012e 00000000 		.ascii	"\000\000\000\000\000\000\000\000"
 926      00000000 
 927 0136 03010000 		.ascii	"\003\001\000\000"
 928 013a 6C765F6C 		.ascii	"lv_ll_chg_list\000"
 928      6C5F6368 
 928      675F6C69 
 928      737400
 929 0149 00       		.ascii	"\000"
 930 014a 00       		.ascii	"\000"
 931 014b 00       		.ascii	"\000"
 932 014c 00000000 		.ascii	"\000\000\000\000\000\000\000\000"
 932      00000000 
 933 0154 09010000 		.ascii	"\011\001\000\000"
 934 0158 6C765F6C 		.ascii	"lv_ll_move_before\000"
 934      6C5F6D6F 
 934      76655F62 
 934      65666F72 
 934      6500
 935 016a 00       		.ascii	"\000"
 936 016b 00       		.ascii	"\000"
 937 016c 00       		.ascii	"\000"
 938 016d 00000000 		.ascii	"\000\000\000\000\000\000\000\000"
 938      00000000 
 939 0175 0B010000 		.ascii	"\013\001\000\000"
 940 0179 6C765F6D 		.ascii	"lv_mem_alloc\000"
 940      656D5F61 
 940      6C6C6F63 
 940      00
 941 0186 00       		.ascii	"\000"
 942 0187 02       		.ascii	"\002"
 943 0188 00       		.ascii	"\000"
 944 0189 00000000 		.ascii	"\000\000\000\000\000\000\000\000"
 944      00000000 
 945 0191 2F010000 		.ascii	"/\001\000\000"
 946 0195 6C765F6D 		.ascii	"lv_mem_free\000"
 946      656D5F66 
 946      72656500 
 947 01a1 00       		.ascii	"\000"
 948 01a2 02       		.ascii	"\002"
 949 01a3 00       		.ascii	"\000"
ARM GAS  C:\Users\Sava\AppData\Local\Temp\cc1c2WDS.s 			page 71


 950 01a4 00000000 		.ascii	"\000\000\000\000\000\000\000\000"
 950      00000000 
 951 01ac 33010000 		.ascii	"3\001\000\000"
 952              		.text
 953              		.section	.gnu.lto_.opts,"",%progbits
 954 0000 272D666D 		.ascii	"'-fmath-errno' '-fsigned-zeros' '-ftrapping-math' '"
 954      6174682D 
 954      6572726E 
 954      6F272027 
 954      2D667369 
 955 0033 2D666E6F 		.ascii	"-fno-trapv' '-fno-strict-overflow' '-fno-openmp' '-"
 955      2D747261 
 955      70762720 
 955      272D666E 
 955      6F2D7374 
 956 0066 666E6F2D 		.ascii	"fno-openacc' '-mcpu=cortex-m3' '-mthumb' '-g' '-O0'"
 956      6F70656E 
 956      61636327 
 956      20272D6D 
 956      6370753D 
 957 0099 20272D66 		.ascii	" '-ffunction-sections' '-ffat-lto-objects' '-finlin"
 957      66756E63 
 957      74696F6E 
 957      2D736563 
 957      74696F6E 
 958 00cc 652D6675 		.ascii	"e-functions' '-flto'\000"
 958      6E637469 
 958      6F6E7327 
 958      20272D66 
 958      6C746F27 
 959              		.text
 960              		.cfi_sections	.debug_frame
 961              		.section	.text.lv_ll_init,"ax",%progbits
 962              		.align	2
 963              		.global	lv_ll_init
 964              		.thumb
 965              		.thumb_func
 966              		.type	lv_ll_init, %function
 967              	lv_ll_init:
 968              	.LFB0:
 969              		.file 1 "lvgl\\lv_misc\\lv_ll.c"
   1:lvgl\lv_misc/lv_ll.c **** /**
   2:lvgl\lv_misc/lv_ll.c ****  * @file lv_ll.c
   3:lvgl\lv_misc/lv_ll.c ****  * Handle linked lists.
   4:lvgl\lv_misc/lv_ll.c ****  * The nodes are dynamically allocated by the 'lv_mem' module,
   5:lvgl\lv_misc/lv_ll.c ****  */
   6:lvgl\lv_misc/lv_ll.c **** 
   7:lvgl\lv_misc/lv_ll.c **** /*********************
   8:lvgl\lv_misc/lv_ll.c ****  *      INCLUDES
   9:lvgl\lv_misc/lv_ll.c ****  *********************/
  10:lvgl\lv_misc/lv_ll.c **** #include <stdint.h>
  11:lvgl\lv_misc/lv_ll.c **** #include <string.h>
  12:lvgl\lv_misc/lv_ll.c **** 
  13:lvgl\lv_misc/lv_ll.c **** #include "lv_ll.h"
  14:lvgl\lv_misc/lv_ll.c **** #include "lv_mem.h"
  15:lvgl\lv_misc/lv_ll.c **** 
  16:lvgl\lv_misc/lv_ll.c **** /*********************
ARM GAS  C:\Users\Sava\AppData\Local\Temp\cc1c2WDS.s 			page 72


  17:lvgl\lv_misc/lv_ll.c ****  *      DEFINES
  18:lvgl\lv_misc/lv_ll.c ****  *********************/
  19:lvgl\lv_misc/lv_ll.c **** #define LL_NODE_META_SIZE (sizeof(lv_ll_node_t*) + sizeof(lv_ll_node_t*))
  20:lvgl\lv_misc/lv_ll.c **** #define LL_PREV_P_OFFSET(ll_p) (ll_p->n_size)
  21:lvgl\lv_misc/lv_ll.c **** #define LL_NEXT_P_OFFSET(ll_p) (ll_p->n_size + sizeof(lv_ll_node_t*))
  22:lvgl\lv_misc/lv_ll.c **** 
  23:lvgl\lv_misc/lv_ll.c **** /**********************
  24:lvgl\lv_misc/lv_ll.c ****  *      TYPEDEFS
  25:lvgl\lv_misc/lv_ll.c ****  **********************/
  26:lvgl\lv_misc/lv_ll.c **** 
  27:lvgl\lv_misc/lv_ll.c **** /**********************
  28:lvgl\lv_misc/lv_ll.c ****  *  STATIC PROTOTYPES
  29:lvgl\lv_misc/lv_ll.c ****  **********************/
  30:lvgl\lv_misc/lv_ll.c **** static void node_set_prev(lv_ll_t * ll_p, lv_ll_node_t * act, lv_ll_node_t * prev);
  31:lvgl\lv_misc/lv_ll.c **** static void node_set_next(lv_ll_t * ll_p, lv_ll_node_t * act, lv_ll_node_t * next);
  32:lvgl\lv_misc/lv_ll.c **** 
  33:lvgl\lv_misc/lv_ll.c **** /**********************
  34:lvgl\lv_misc/lv_ll.c ****  *  STATIC VARIABLES
  35:lvgl\lv_misc/lv_ll.c ****  **********************/
  36:lvgl\lv_misc/lv_ll.c **** 
  37:lvgl\lv_misc/lv_ll.c **** /**********************
  38:lvgl\lv_misc/lv_ll.c ****  *      MACROS
  39:lvgl\lv_misc/lv_ll.c ****  **********************/
  40:lvgl\lv_misc/lv_ll.c **** 
  41:lvgl\lv_misc/lv_ll.c **** /**********************
  42:lvgl\lv_misc/lv_ll.c ****  *   GLOBAL FUNCTIONS
  43:lvgl\lv_misc/lv_ll.c ****  **********************/
  44:lvgl\lv_misc/lv_ll.c **** 
  45:lvgl\lv_misc/lv_ll.c **** /**
  46:lvgl\lv_misc/lv_ll.c ****  * Initialize linked list
  47:lvgl\lv_misc/lv_ll.c ****  * @param ll_dsc pointer to ll_dsc variable
  48:lvgl\lv_misc/lv_ll.c ****  * @param node_size the size of 1 node in bytes
  49:lvgl\lv_misc/lv_ll.c ****  */
  50:lvgl\lv_misc/lv_ll.c **** void lv_ll_init(lv_ll_t * ll_p, uint32_t node_size)
  51:lvgl\lv_misc/lv_ll.c **** {
 970              		.loc 1 51 0
 971              		.cfi_startproc
 972              		@ args = 0, pretend = 0, frame = 8
 973              		@ frame_needed = 1, uses_anonymous_args = 0
 974              		@ link register save eliminated.
 975 0000 80B4     		push	{r7}
 976              		.cfi_def_cfa_offset 4
 977              		.cfi_offset 7, -4
 978 0002 83B0     		sub	sp, sp, #12
 979              		.cfi_def_cfa_offset 16
 980 0004 00AF     		add	r7, sp, #0
 981              		.cfi_def_cfa_register 7
 982 0006 7860     		str	r0, [r7, #4]
 983 0008 3960     		str	r1, [r7]
  52:lvgl\lv_misc/lv_ll.c ****     ll_p->head = NULL;
 984              		.loc 1 52 0
 985 000a 7B68     		ldr	r3, [r7, #4]
 986 000c 0022     		movs	r2, #0
 987 000e 5A60     		str	r2, [r3, #4]
  53:lvgl\lv_misc/lv_ll.c ****     ll_p->tail = NULL;
 988              		.loc 1 53 0
 989 0010 7B68     		ldr	r3, [r7, #4]
ARM GAS  C:\Users\Sava\AppData\Local\Temp\cc1c2WDS.s 			page 73


 990 0012 0022     		movs	r2, #0
 991 0014 9A60     		str	r2, [r3, #8]
  54:lvgl\lv_misc/lv_ll.c **** #ifdef LV_MEM_ENV64
  55:lvgl\lv_misc/lv_ll.c ****     /*Round the size up to 8*/
  56:lvgl\lv_misc/lv_ll.c ****     if(node_size & 0x7) {
  57:lvgl\lv_misc/lv_ll.c ****         node_size = node_size & (~0x7);
  58:lvgl\lv_misc/lv_ll.c ****         node_size += 8;
  59:lvgl\lv_misc/lv_ll.c ****     }
  60:lvgl\lv_misc/lv_ll.c **** #else
  61:lvgl\lv_misc/lv_ll.c ****     /*Round the size up to 4*/
  62:lvgl\lv_misc/lv_ll.c ****     if(node_size & 0x3) {
 992              		.loc 1 62 0
 993 0016 3B68     		ldr	r3, [r7]
 994 0018 03F00303 		and	r3, r3, #3
 995 001c 002B     		cmp	r3, #0
 996 001e 06D0     		beq	.L2
  63:lvgl\lv_misc/lv_ll.c ****         node_size = node_size & (~0x3);
 997              		.loc 1 63 0
 998 0020 3B68     		ldr	r3, [r7]
 999 0022 23F00303 		bic	r3, r3, #3
 1000 0026 3B60     		str	r3, [r7]
  64:lvgl\lv_misc/lv_ll.c ****         node_size += 4;
 1001              		.loc 1 64 0
 1002 0028 3B68     		ldr	r3, [r7]
 1003 002a 0433     		adds	r3, r3, #4
 1004 002c 3B60     		str	r3, [r7]
 1005              	.L2:
  65:lvgl\lv_misc/lv_ll.c ****     }
  66:lvgl\lv_misc/lv_ll.c **** #endif
  67:lvgl\lv_misc/lv_ll.c **** 
  68:lvgl\lv_misc/lv_ll.c ****     ll_p->n_size = node_size;
 1006              		.loc 1 68 0
 1007 002e 7B68     		ldr	r3, [r7, #4]
 1008 0030 3A68     		ldr	r2, [r7]
 1009 0032 1A60     		str	r2, [r3]
  69:lvgl\lv_misc/lv_ll.c **** }
 1010              		.loc 1 69 0
 1011 0034 00BF     		nop
 1012 0036 0C37     		adds	r7, r7, #12
 1013              		.cfi_def_cfa_offset 4
 1014 0038 BD46     		mov	sp, r7
 1015              		.cfi_def_cfa_register 13
 1016              		@ sp needed
 1017 003a 80BC     		pop	{r7}
 1018              		.cfi_restore 7
 1019              		.cfi_def_cfa_offset 0
 1020 003c 7047     		bx	lr
 1021              		.cfi_endproc
 1022              	.LFE0:
 1023              		.size	lv_ll_init, .-lv_ll_init
 1024 003e 00BF     		.section	.text.lv_ll_ins_head,"ax",%progbits
 1025              		.align	2
 1026              		.global	lv_ll_ins_head
 1027              		.thumb
 1028              		.thumb_func
 1029              		.type	lv_ll_ins_head, %function
 1030              	lv_ll_ins_head:
ARM GAS  C:\Users\Sava\AppData\Local\Temp\cc1c2WDS.s 			page 74


 1031              	.LFB1:
  70:lvgl\lv_misc/lv_ll.c **** 
  71:lvgl\lv_misc/lv_ll.c **** /**
  72:lvgl\lv_misc/lv_ll.c ****  * Add a new head to a linked list
  73:lvgl\lv_misc/lv_ll.c ****  * @param ll_p pointer to linked list
  74:lvgl\lv_misc/lv_ll.c ****  * @return pointer to the new head
  75:lvgl\lv_misc/lv_ll.c ****  */
  76:lvgl\lv_misc/lv_ll.c **** void * lv_ll_ins_head(lv_ll_t * ll_p)
  77:lvgl\lv_misc/lv_ll.c **** {
 1032              		.loc 1 77 0
 1033              		.cfi_startproc
 1034              		@ args = 0, pretend = 0, frame = 16
 1035              		@ frame_needed = 1, uses_anonymous_args = 0
 1036 0000 80B5     		push	{r7, lr}
 1037              		.cfi_def_cfa_offset 8
 1038              		.cfi_offset 7, -8
 1039              		.cfi_offset 14, -4
 1040 0002 84B0     		sub	sp, sp, #16
 1041              		.cfi_def_cfa_offset 24
 1042 0004 00AF     		add	r7, sp, #0
 1043              		.cfi_def_cfa_register 7
 1044 0006 7860     		str	r0, [r7, #4]
  78:lvgl\lv_misc/lv_ll.c ****     lv_ll_node_t * n_new;
  79:lvgl\lv_misc/lv_ll.c **** 
  80:lvgl\lv_misc/lv_ll.c ****     n_new = lv_mem_alloc(ll_p->n_size + LL_NODE_META_SIZE);
 1045              		.loc 1 80 0
 1046 0008 7B68     		ldr	r3, [r7, #4]
 1047 000a 1B68     		ldr	r3, [r3]
 1048 000c 0833     		adds	r3, r3, #8
 1049 000e 1846     		mov	r0, r3
 1050 0010 FFF7FEFF 		bl	lv_mem_alloc
 1051 0014 F860     		str	r0, [r7, #12]
  81:lvgl\lv_misc/lv_ll.c **** 
  82:lvgl\lv_misc/lv_ll.c ****     if(n_new != NULL) {
 1052              		.loc 1 82 0
 1053 0016 FB68     		ldr	r3, [r7, #12]
 1054 0018 002B     		cmp	r3, #0
 1055 001a 20D0     		beq	.L4
  83:lvgl\lv_misc/lv_ll.c ****         node_set_prev(ll_p, n_new, NULL);           /*No prev. before the new head*/
 1056              		.loc 1 83 0
 1057 001c 0022     		movs	r2, #0
 1058 001e F968     		ldr	r1, [r7, #12]
 1059 0020 7868     		ldr	r0, [r7, #4]
 1060 0022 FFF7FEFF 		bl	node_set_prev
  84:lvgl\lv_misc/lv_ll.c ****         node_set_next(ll_p, n_new, ll_p->head);     /*After new comes the old head*/
 1061              		.loc 1 84 0
 1062 0026 7B68     		ldr	r3, [r7, #4]
 1063 0028 5B68     		ldr	r3, [r3, #4]
 1064 002a 1A46     		mov	r2, r3
 1065 002c F968     		ldr	r1, [r7, #12]
 1066 002e 7868     		ldr	r0, [r7, #4]
 1067 0030 FFF7FEFF 		bl	node_set_next
  85:lvgl\lv_misc/lv_ll.c **** 
  86:lvgl\lv_misc/lv_ll.c ****         if(ll_p->head != NULL) { /*If there is old head then before it goes the new*/
 1068              		.loc 1 86 0
 1069 0034 7B68     		ldr	r3, [r7, #4]
 1070 0036 5B68     		ldr	r3, [r3, #4]
ARM GAS  C:\Users\Sava\AppData\Local\Temp\cc1c2WDS.s 			page 75


 1071 0038 002B     		cmp	r3, #0
 1072 003a 06D0     		beq	.L5
  87:lvgl\lv_misc/lv_ll.c ****             node_set_prev(ll_p, ll_p->head, n_new);
 1073              		.loc 1 87 0
 1074 003c 7B68     		ldr	r3, [r7, #4]
 1075 003e 5B68     		ldr	r3, [r3, #4]
 1076 0040 FA68     		ldr	r2, [r7, #12]
 1077 0042 1946     		mov	r1, r3
 1078 0044 7868     		ldr	r0, [r7, #4]
 1079 0046 FFF7FEFF 		bl	node_set_prev
 1080              	.L5:
  88:lvgl\lv_misc/lv_ll.c ****         }
  89:lvgl\lv_misc/lv_ll.c **** 
  90:lvgl\lv_misc/lv_ll.c ****         ll_p->head = n_new;         /*Set the new head in the dsc.*/
 1081              		.loc 1 90 0
 1082 004a 7B68     		ldr	r3, [r7, #4]
 1083 004c FA68     		ldr	r2, [r7, #12]
 1084 004e 5A60     		str	r2, [r3, #4]
  91:lvgl\lv_misc/lv_ll.c ****         if(ll_p->tail == NULL) {/*If there is no tail (1. node) set the tail too*/
 1085              		.loc 1 91 0
 1086 0050 7B68     		ldr	r3, [r7, #4]
 1087 0052 9B68     		ldr	r3, [r3, #8]
 1088 0054 002B     		cmp	r3, #0
 1089 0056 02D1     		bne	.L4
  92:lvgl\lv_misc/lv_ll.c ****             ll_p->tail = n_new;
 1090              		.loc 1 92 0
 1091 0058 7B68     		ldr	r3, [r7, #4]
 1092 005a FA68     		ldr	r2, [r7, #12]
 1093 005c 9A60     		str	r2, [r3, #8]
 1094              	.L4:
  93:lvgl\lv_misc/lv_ll.c ****         }
  94:lvgl\lv_misc/lv_ll.c ****     }
  95:lvgl\lv_misc/lv_ll.c **** 
  96:lvgl\lv_misc/lv_ll.c ****     return n_new;
 1095              		.loc 1 96 0
 1096 005e FB68     		ldr	r3, [r7, #12]
  97:lvgl\lv_misc/lv_ll.c **** }
 1097              		.loc 1 97 0
 1098 0060 1846     		mov	r0, r3
 1099 0062 1037     		adds	r7, r7, #16
 1100              		.cfi_def_cfa_offset 8
 1101 0064 BD46     		mov	sp, r7
 1102              		.cfi_def_cfa_register 13
 1103              		@ sp needed
 1104 0066 80BD     		pop	{r7, pc}
 1105              		.cfi_endproc
 1106              	.LFE1:
 1107              		.size	lv_ll_ins_head, .-lv_ll_ins_head
 1108              		.section	.text.lv_ll_ins_prev,"ax",%progbits
 1109              		.align	2
 1110              		.global	lv_ll_ins_prev
 1111              		.thumb
 1112              		.thumb_func
 1113              		.type	lv_ll_ins_prev, %function
 1114              	lv_ll_ins_prev:
 1115              	.LFB2:
  98:lvgl\lv_misc/lv_ll.c **** 
ARM GAS  C:\Users\Sava\AppData\Local\Temp\cc1c2WDS.s 			page 76


  99:lvgl\lv_misc/lv_ll.c **** /**
 100:lvgl\lv_misc/lv_ll.c ****  * Insert a new node in front of the n_act node
 101:lvgl\lv_misc/lv_ll.c ****  * @param ll_p pointer to linked list
 102:lvgl\lv_misc/lv_ll.c ****  * @param n_act pointer a node
 103:lvgl\lv_misc/lv_ll.c ****  * @return pointer to the new head
 104:lvgl\lv_misc/lv_ll.c ****  */
 105:lvgl\lv_misc/lv_ll.c **** void * lv_ll_ins_prev(lv_ll_t * ll_p, void * n_act)
 106:lvgl\lv_misc/lv_ll.c **** {
 1116              		.loc 1 106 0
 1117              		.cfi_startproc
 1118              		@ args = 0, pretend = 0, frame = 16
 1119              		@ frame_needed = 1, uses_anonymous_args = 0
 1120 0000 80B5     		push	{r7, lr}
 1121              		.cfi_def_cfa_offset 8
 1122              		.cfi_offset 7, -8
 1123              		.cfi_offset 14, -4
 1124 0002 84B0     		sub	sp, sp, #16
 1125              		.cfi_def_cfa_offset 24
 1126 0004 00AF     		add	r7, sp, #0
 1127              		.cfi_def_cfa_register 7
 1128 0006 7860     		str	r0, [r7, #4]
 1129 0008 3960     		str	r1, [r7]
 107:lvgl\lv_misc/lv_ll.c ****     lv_ll_node_t * n_new;
 108:lvgl\lv_misc/lv_ll.c ****     lv_ll_node_t * n_prev;
 109:lvgl\lv_misc/lv_ll.c **** 
 110:lvgl\lv_misc/lv_ll.c ****     if(NULL == ll_p || NULL == n_act) return NULL;
 1130              		.loc 1 110 0
 1131 000a 7B68     		ldr	r3, [r7, #4]
 1132 000c 002B     		cmp	r3, #0
 1133 000e 02D0     		beq	.L8
 1134              		.loc 1 110 0 is_stmt 0 discriminator 2
 1135 0010 3B68     		ldr	r3, [r7]
 1136 0012 002B     		cmp	r3, #0
 1137 0014 01D1     		bne	.L9
 1138              	.L8:
 1139              		.loc 1 110 0 discriminator 3
 1140 0016 0023     		movs	r3, #0
 1141 0018 35E0     		b	.L10
 1142              	.L9:
 111:lvgl\lv_misc/lv_ll.c **** 
 112:lvgl\lv_misc/lv_ll.c ****     if(lv_ll_get_head(ll_p) == n_act) {
 1143              		.loc 1 112 0 is_stmt 1
 1144 001a 7868     		ldr	r0, [r7, #4]
 1145 001c FFF7FEFF 		bl	lv_ll_get_head
 1146 0020 0246     		mov	r2, r0
 1147 0022 3B68     		ldr	r3, [r7]
 1148 0024 9A42     		cmp	r2, r3
 1149 0026 08D1     		bne	.L11
 113:lvgl\lv_misc/lv_ll.c ****         n_new = lv_ll_ins_head(ll_p);
 1150              		.loc 1 113 0
 1151 0028 7868     		ldr	r0, [r7, #4]
 1152 002a FFF7FEFF 		bl	lv_ll_ins_head
 1153 002e F860     		str	r0, [r7, #12]
 114:lvgl\lv_misc/lv_ll.c ****         if(n_new == NULL) return NULL;
 1154              		.loc 1 114 0
 1155 0030 FB68     		ldr	r3, [r7, #12]
 1156 0032 002B     		cmp	r3, #0
ARM GAS  C:\Users\Sava\AppData\Local\Temp\cc1c2WDS.s 			page 77


 1157 0034 26D1     		bne	.L12
 1158              		.loc 1 114 0 is_stmt 0 discriminator 1
 1159 0036 0023     		movs	r3, #0
 1160 0038 25E0     		b	.L10
 1161              	.L11:
 115:lvgl\lv_misc/lv_ll.c ****     } else {
 116:lvgl\lv_misc/lv_ll.c ****         n_new = lv_mem_alloc(ll_p->n_size + LL_NODE_META_SIZE);
 1162              		.loc 1 116 0 is_stmt 1
 1163 003a 7B68     		ldr	r3, [r7, #4]
 1164 003c 1B68     		ldr	r3, [r3]
 1165 003e 0833     		adds	r3, r3, #8
 1166 0040 1846     		mov	r0, r3
 1167 0042 FFF7FEFF 		bl	lv_mem_alloc
 1168 0046 F860     		str	r0, [r7, #12]
 117:lvgl\lv_misc/lv_ll.c ****         if(n_new == NULL) return NULL;
 1169              		.loc 1 117 0
 1170 0048 FB68     		ldr	r3, [r7, #12]
 1171 004a 002B     		cmp	r3, #0
 1172 004c 01D1     		bne	.L13
 1173              		.loc 1 117 0 is_stmt 0 discriminator 1
 1174 004e 0023     		movs	r3, #0
 1175 0050 19E0     		b	.L10
 1176              	.L13:
 118:lvgl\lv_misc/lv_ll.c **** 
 119:lvgl\lv_misc/lv_ll.c ****         n_prev = lv_ll_get_prev(ll_p, n_act);
 1177              		.loc 1 119 0 is_stmt 1
 1178 0052 3968     		ldr	r1, [r7]
 1179 0054 7868     		ldr	r0, [r7, #4]
 1180 0056 FFF7FEFF 		bl	lv_ll_get_prev
 1181 005a B860     		str	r0, [r7, #8]
 120:lvgl\lv_misc/lv_ll.c ****         node_set_next(ll_p, n_prev, n_new);
 1182              		.loc 1 120 0
 1183 005c FA68     		ldr	r2, [r7, #12]
 1184 005e B968     		ldr	r1, [r7, #8]
 1185 0060 7868     		ldr	r0, [r7, #4]
 1186 0062 FFF7FEFF 		bl	node_set_next
 121:lvgl\lv_misc/lv_ll.c ****         node_set_prev(ll_p, n_new, n_prev);
 1187              		.loc 1 121 0
 1188 0066 BA68     		ldr	r2, [r7, #8]
 1189 0068 F968     		ldr	r1, [r7, #12]
 1190 006a 7868     		ldr	r0, [r7, #4]
 1191 006c FFF7FEFF 		bl	node_set_prev
 122:lvgl\lv_misc/lv_ll.c ****         node_set_prev(ll_p, n_act, n_new);
 1192              		.loc 1 122 0
 1193 0070 FA68     		ldr	r2, [r7, #12]
 1194 0072 3968     		ldr	r1, [r7]
 1195 0074 7868     		ldr	r0, [r7, #4]
 1196 0076 FFF7FEFF 		bl	node_set_prev
 123:lvgl\lv_misc/lv_ll.c ****         node_set_next(ll_p, n_new, n_act);
 1197              		.loc 1 123 0
 1198 007a 3A68     		ldr	r2, [r7]
 1199 007c F968     		ldr	r1, [r7, #12]
 1200 007e 7868     		ldr	r0, [r7, #4]
 1201 0080 FFF7FEFF 		bl	node_set_next
 1202              	.L12:
 124:lvgl\lv_misc/lv_ll.c ****     }
 125:lvgl\lv_misc/lv_ll.c **** 
ARM GAS  C:\Users\Sava\AppData\Local\Temp\cc1c2WDS.s 			page 78


 126:lvgl\lv_misc/lv_ll.c ****     return n_new;
 1203              		.loc 1 126 0
 1204 0084 FB68     		ldr	r3, [r7, #12]
 1205              	.L10:
 127:lvgl\lv_misc/lv_ll.c **** }
 1206              		.loc 1 127 0
 1207 0086 1846     		mov	r0, r3
 1208 0088 1037     		adds	r7, r7, #16
 1209              		.cfi_def_cfa_offset 8
 1210 008a BD46     		mov	sp, r7
 1211              		.cfi_def_cfa_register 13
 1212              		@ sp needed
 1213 008c 80BD     		pop	{r7, pc}
 1214              		.cfi_endproc
 1215              	.LFE2:
 1216              		.size	lv_ll_ins_prev, .-lv_ll_ins_prev
 1217 008e 00BF     		.section	.text.lv_ll_ins_tail,"ax",%progbits
 1218              		.align	2
 1219              		.global	lv_ll_ins_tail
 1220              		.thumb
 1221              		.thumb_func
 1222              		.type	lv_ll_ins_tail, %function
 1223              	lv_ll_ins_tail:
 1224              	.LFB3:
 128:lvgl\lv_misc/lv_ll.c **** 
 129:lvgl\lv_misc/lv_ll.c **** /**
 130:lvgl\lv_misc/lv_ll.c ****  * Add a new tail to a linked list
 131:lvgl\lv_misc/lv_ll.c ****  * @param ll_p pointer to linked list
 132:lvgl\lv_misc/lv_ll.c ****  * @return pointer to the new tail
 133:lvgl\lv_misc/lv_ll.c ****  */
 134:lvgl\lv_misc/lv_ll.c **** void * lv_ll_ins_tail(lv_ll_t * ll_p)
 135:lvgl\lv_misc/lv_ll.c **** {
 1225              		.loc 1 135 0
 1226              		.cfi_startproc
 1227              		@ args = 0, pretend = 0, frame = 16
 1228              		@ frame_needed = 1, uses_anonymous_args = 0
 1229 0000 80B5     		push	{r7, lr}
 1230              		.cfi_def_cfa_offset 8
 1231              		.cfi_offset 7, -8
 1232              		.cfi_offset 14, -4
 1233 0002 84B0     		sub	sp, sp, #16
 1234              		.cfi_def_cfa_offset 24
 1235 0004 00AF     		add	r7, sp, #0
 1236              		.cfi_def_cfa_register 7
 1237 0006 7860     		str	r0, [r7, #4]
 136:lvgl\lv_misc/lv_ll.c ****     lv_ll_node_t * n_new;
 137:lvgl\lv_misc/lv_ll.c **** 
 138:lvgl\lv_misc/lv_ll.c ****     n_new = lv_mem_alloc(ll_p->n_size + LL_NODE_META_SIZE);
 1238              		.loc 1 138 0
 1239 0008 7B68     		ldr	r3, [r7, #4]
 1240 000a 1B68     		ldr	r3, [r3]
 1241 000c 0833     		adds	r3, r3, #8
 1242 000e 1846     		mov	r0, r3
 1243 0010 FFF7FEFF 		bl	lv_mem_alloc
 1244 0014 F860     		str	r0, [r7, #12]
 139:lvgl\lv_misc/lv_ll.c ****     if(n_new == NULL) return NULL;
 1245              		.loc 1 139 0
ARM GAS  C:\Users\Sava\AppData\Local\Temp\cc1c2WDS.s 			page 79


 1246 0016 FB68     		ldr	r3, [r7, #12]
 1247 0018 002B     		cmp	r3, #0
 1248 001a 01D1     		bne	.L15
 1249              		.loc 1 139 0 is_stmt 0 discriminator 1
 1250 001c 0023     		movs	r3, #0
 1251 001e 24E0     		b	.L16
 1252              	.L15:
 140:lvgl\lv_misc/lv_ll.c **** 
 141:lvgl\lv_misc/lv_ll.c ****     if(n_new != NULL) {
 1253              		.loc 1 141 0 is_stmt 1
 1254 0020 FB68     		ldr	r3, [r7, #12]
 1255 0022 002B     		cmp	r3, #0
 1256 0024 20D0     		beq	.L17
 142:lvgl\lv_misc/lv_ll.c ****         node_set_next(ll_p, n_new, NULL); /*No next after the new tail*/
 1257              		.loc 1 142 0
 1258 0026 0022     		movs	r2, #0
 1259 0028 F968     		ldr	r1, [r7, #12]
 1260 002a 7868     		ldr	r0, [r7, #4]
 1261 002c FFF7FEFF 		bl	node_set_next
 143:lvgl\lv_misc/lv_ll.c ****         node_set_prev(ll_p, n_new, ll_p->tail); /*The prev. before new is tho old tail*/
 1262              		.loc 1 143 0
 1263 0030 7B68     		ldr	r3, [r7, #4]
 1264 0032 9B68     		ldr	r3, [r3, #8]
 1265 0034 1A46     		mov	r2, r3
 1266 0036 F968     		ldr	r1, [r7, #12]
 1267 0038 7868     		ldr	r0, [r7, #4]
 1268 003a FFF7FEFF 		bl	node_set_prev
 144:lvgl\lv_misc/lv_ll.c ****         if(ll_p->tail != NULL) {    /*If there is old tail then the new comes after it*/
 1269              		.loc 1 144 0
 1270 003e 7B68     		ldr	r3, [r7, #4]
 1271 0040 9B68     		ldr	r3, [r3, #8]
 1272 0042 002B     		cmp	r3, #0
 1273 0044 06D0     		beq	.L18
 145:lvgl\lv_misc/lv_ll.c ****             node_set_next(ll_p, ll_p->tail, n_new);
 1274              		.loc 1 145 0
 1275 0046 7B68     		ldr	r3, [r7, #4]
 1276 0048 9B68     		ldr	r3, [r3, #8]
 1277 004a FA68     		ldr	r2, [r7, #12]
 1278 004c 1946     		mov	r1, r3
 1279 004e 7868     		ldr	r0, [r7, #4]
 1280 0050 FFF7FEFF 		bl	node_set_next
 1281              	.L18:
 146:lvgl\lv_misc/lv_ll.c ****         }
 147:lvgl\lv_misc/lv_ll.c **** 
 148:lvgl\lv_misc/lv_ll.c ****         ll_p->tail = n_new;      /*Set the new tail in the dsc.*/
 1282              		.loc 1 148 0
 1283 0054 7B68     		ldr	r3, [r7, #4]
 1284 0056 FA68     		ldr	r2, [r7, #12]
 1285 0058 9A60     		str	r2, [r3, #8]
 149:lvgl\lv_misc/lv_ll.c ****         if(ll_p->head == NULL) { /*If there is no head (1. node) set the head too*/
 1286              		.loc 1 149 0
 1287 005a 7B68     		ldr	r3, [r7, #4]
 1288 005c 5B68     		ldr	r3, [r3, #4]
 1289 005e 002B     		cmp	r3, #0
 1290 0060 02D1     		bne	.L17
 150:lvgl\lv_misc/lv_ll.c ****             ll_p->head = n_new;
 1291              		.loc 1 150 0
ARM GAS  C:\Users\Sava\AppData\Local\Temp\cc1c2WDS.s 			page 80


 1292 0062 7B68     		ldr	r3, [r7, #4]
 1293 0064 FA68     		ldr	r2, [r7, #12]
 1294 0066 5A60     		str	r2, [r3, #4]
 1295              	.L17:
 151:lvgl\lv_misc/lv_ll.c ****         }
 152:lvgl\lv_misc/lv_ll.c ****     }
 153:lvgl\lv_misc/lv_ll.c **** 
 154:lvgl\lv_misc/lv_ll.c ****     return n_new;
 1296              		.loc 1 154 0
 1297 0068 FB68     		ldr	r3, [r7, #12]
 1298              	.L16:
 155:lvgl\lv_misc/lv_ll.c **** }
 1299              		.loc 1 155 0
 1300 006a 1846     		mov	r0, r3
 1301 006c 1037     		adds	r7, r7, #16
 1302              		.cfi_def_cfa_offset 8
 1303 006e BD46     		mov	sp, r7
 1304              		.cfi_def_cfa_register 13
 1305              		@ sp needed
 1306 0070 80BD     		pop	{r7, pc}
 1307              		.cfi_endproc
 1308              	.LFE3:
 1309              		.size	lv_ll_ins_tail, .-lv_ll_ins_tail
 1310 0072 00BF     		.section	.text.lv_ll_rem,"ax",%progbits
 1311              		.align	2
 1312              		.global	lv_ll_rem
 1313              		.thumb
 1314              		.thumb_func
 1315              		.type	lv_ll_rem, %function
 1316              	lv_ll_rem:
 1317              	.LFB4:
 156:lvgl\lv_misc/lv_ll.c **** 
 157:lvgl\lv_misc/lv_ll.c **** 
 158:lvgl\lv_misc/lv_ll.c **** /**
 159:lvgl\lv_misc/lv_ll.c ****  * Remove the node 'node_p' from 'll_p' linked list.
 160:lvgl\lv_misc/lv_ll.c ****  * It does not free the the memory of node.
 161:lvgl\lv_misc/lv_ll.c ****  * @param ll_p pointer to the linked list of 'node_p'
 162:lvgl\lv_misc/lv_ll.c ****  * @param node_p pointer to node in 'll_p' linked list
 163:lvgl\lv_misc/lv_ll.c ****  */
 164:lvgl\lv_misc/lv_ll.c **** void lv_ll_rem(lv_ll_t  * ll_p, void * node_p)
 165:lvgl\lv_misc/lv_ll.c **** {
 1318              		.loc 1 165 0
 1319              		.cfi_startproc
 1320              		@ args = 0, pretend = 0, frame = 16
 1321              		@ frame_needed = 1, uses_anonymous_args = 0
 1322 0000 80B5     		push	{r7, lr}
 1323              		.cfi_def_cfa_offset 8
 1324              		.cfi_offset 7, -8
 1325              		.cfi_offset 14, -4
 1326 0002 84B0     		sub	sp, sp, #16
 1327              		.cfi_def_cfa_offset 24
 1328 0004 00AF     		add	r7, sp, #0
 1329              		.cfi_def_cfa_register 7
 1330 0006 7860     		str	r0, [r7, #4]
 1331 0008 3960     		str	r1, [r7]
 166:lvgl\lv_misc/lv_ll.c ****     if(lv_ll_get_head(ll_p) == node_p) {
 1332              		.loc 1 166 0
ARM GAS  C:\Users\Sava\AppData\Local\Temp\cc1c2WDS.s 			page 81


 1333 000a 7868     		ldr	r0, [r7, #4]
 1334 000c FFF7FEFF 		bl	lv_ll_get_head
 1335 0010 0246     		mov	r2, r0
 1336 0012 3B68     		ldr	r3, [r7]
 1337 0014 9A42     		cmp	r2, r3
 1338 0016 16D1     		bne	.L20
 167:lvgl\lv_misc/lv_ll.c ****         /*The new head will be the node after 'n_act'*/
 168:lvgl\lv_misc/lv_ll.c ****         ll_p->head = lv_ll_get_next(ll_p, node_p);
 1339              		.loc 1 168 0
 1340 0018 3968     		ldr	r1, [r7]
 1341 001a 7868     		ldr	r0, [r7, #4]
 1342 001c FFF7FEFF 		bl	lv_ll_get_next
 1343 0020 0246     		mov	r2, r0
 1344 0022 7B68     		ldr	r3, [r7, #4]
 1345 0024 5A60     		str	r2, [r3, #4]
 169:lvgl\lv_misc/lv_ll.c ****         if(ll_p->head == NULL) {
 1346              		.loc 1 169 0
 1347 0026 7B68     		ldr	r3, [r7, #4]
 1348 0028 5B68     		ldr	r3, [r3, #4]
 1349 002a 002B     		cmp	r3, #0
 1350 002c 03D1     		bne	.L21
 170:lvgl\lv_misc/lv_ll.c ****             ll_p->tail = NULL;
 1351              		.loc 1 170 0
 1352 002e 7B68     		ldr	r3, [r7, #4]
 1353 0030 0022     		movs	r2, #0
 1354 0032 9A60     		str	r2, [r3, #8]
 171:lvgl\lv_misc/lv_ll.c ****         } else {
 172:lvgl\lv_misc/lv_ll.c ****             node_set_prev(ll_p, ll_p->head, NULL);
 173:lvgl\lv_misc/lv_ll.c ****         }
 174:lvgl\lv_misc/lv_ll.c ****     } else if(lv_ll_get_tail(ll_p) == node_p) {
 175:lvgl\lv_misc/lv_ll.c ****         /*The new tail will be the  node before 'n_act'*/
 176:lvgl\lv_misc/lv_ll.c ****         ll_p->tail = lv_ll_get_prev(ll_p, node_p);
 177:lvgl\lv_misc/lv_ll.c ****         if(ll_p->tail == NULL) {
 178:lvgl\lv_misc/lv_ll.c ****             ll_p->head = NULL;
 179:lvgl\lv_misc/lv_ll.c ****         } else {
 180:lvgl\lv_misc/lv_ll.c ****             node_set_next(ll_p, ll_p->tail, NULL);
 181:lvgl\lv_misc/lv_ll.c ****         }
 182:lvgl\lv_misc/lv_ll.c ****     } else {
 183:lvgl\lv_misc/lv_ll.c ****         lv_ll_node_t * n_prev = lv_ll_get_prev(ll_p, node_p);
 184:lvgl\lv_misc/lv_ll.c ****         lv_ll_node_t * n_next = lv_ll_get_next(ll_p, node_p);
 185:lvgl\lv_misc/lv_ll.c **** 
 186:lvgl\lv_misc/lv_ll.c ****         node_set_next(ll_p, n_prev, n_next);
 187:lvgl\lv_misc/lv_ll.c ****         node_set_prev(ll_p, n_next, n_prev);
 188:lvgl\lv_misc/lv_ll.c ****     }
 189:lvgl\lv_misc/lv_ll.c **** }
 1355              		.loc 1 189 0
 1356 0034 39E0     		b	.L27
 1357              	.L21:
 172:lvgl\lv_misc/lv_ll.c ****         }
 1358              		.loc 1 172 0
 1359 0036 7B68     		ldr	r3, [r7, #4]
 1360 0038 5B68     		ldr	r3, [r3, #4]
 1361 003a 0022     		movs	r2, #0
 1362 003c 1946     		mov	r1, r3
 1363 003e 7868     		ldr	r0, [r7, #4]
 1364 0040 FFF7FEFF 		bl	node_set_prev
 1365              		.loc 1 189 0
ARM GAS  C:\Users\Sava\AppData\Local\Temp\cc1c2WDS.s 			page 82


 1366 0044 31E0     		b	.L27
 1367              	.L20:
 174:lvgl\lv_misc/lv_ll.c ****         /*The new tail will be the  node before 'n_act'*/
 1368              		.loc 1 174 0
 1369 0046 7868     		ldr	r0, [r7, #4]
 1370 0048 FFF7FEFF 		bl	lv_ll_get_tail
 1371 004c 0246     		mov	r2, r0
 1372 004e 3B68     		ldr	r3, [r7]
 1373 0050 9A42     		cmp	r2, r3
 1374 0052 16D1     		bne	.L24
 176:lvgl\lv_misc/lv_ll.c ****         if(ll_p->tail == NULL) {
 1375              		.loc 1 176 0
 1376 0054 3968     		ldr	r1, [r7]
 1377 0056 7868     		ldr	r0, [r7, #4]
 1378 0058 FFF7FEFF 		bl	lv_ll_get_prev
 1379 005c 0246     		mov	r2, r0
 1380 005e 7B68     		ldr	r3, [r7, #4]
 1381 0060 9A60     		str	r2, [r3, #8]
 177:lvgl\lv_misc/lv_ll.c ****             ll_p->head = NULL;
 1382              		.loc 1 177 0
 1383 0062 7B68     		ldr	r3, [r7, #4]
 1384 0064 9B68     		ldr	r3, [r3, #8]
 1385 0066 002B     		cmp	r3, #0
 1386 0068 03D1     		bne	.L25
 178:lvgl\lv_misc/lv_ll.c ****         } else {
 1387              		.loc 1 178 0
 1388 006a 7B68     		ldr	r3, [r7, #4]
 1389 006c 0022     		movs	r2, #0
 1390 006e 5A60     		str	r2, [r3, #4]
 1391              		.loc 1 189 0
 1392 0070 1BE0     		b	.L27
 1393              	.L25:
 180:lvgl\lv_misc/lv_ll.c ****         }
 1394              		.loc 1 180 0
 1395 0072 7B68     		ldr	r3, [r7, #4]
 1396 0074 9B68     		ldr	r3, [r3, #8]
 1397 0076 0022     		movs	r2, #0
 1398 0078 1946     		mov	r1, r3
 1399 007a 7868     		ldr	r0, [r7, #4]
 1400 007c FFF7FEFF 		bl	node_set_next
 1401              		.loc 1 189 0
 1402 0080 13E0     		b	.L27
 1403              	.L24:
 1404              	.LBB2:
 183:lvgl\lv_misc/lv_ll.c ****         lv_ll_node_t * n_next = lv_ll_get_next(ll_p, node_p);
 1405              		.loc 1 183 0
 1406 0082 3968     		ldr	r1, [r7]
 1407 0084 7868     		ldr	r0, [r7, #4]
 1408 0086 FFF7FEFF 		bl	lv_ll_get_prev
 1409 008a F860     		str	r0, [r7, #12]
 184:lvgl\lv_misc/lv_ll.c **** 
 1410              		.loc 1 184 0
 1411 008c 3968     		ldr	r1, [r7]
 1412 008e 7868     		ldr	r0, [r7, #4]
 1413 0090 FFF7FEFF 		bl	lv_ll_get_next
 1414 0094 B860     		str	r0, [r7, #8]
 186:lvgl\lv_misc/lv_ll.c ****         node_set_prev(ll_p, n_next, n_prev);
ARM GAS  C:\Users\Sava\AppData\Local\Temp\cc1c2WDS.s 			page 83


 1415              		.loc 1 186 0
 1416 0096 BA68     		ldr	r2, [r7, #8]
 1417 0098 F968     		ldr	r1, [r7, #12]
 1418 009a 7868     		ldr	r0, [r7, #4]
 1419 009c FFF7FEFF 		bl	node_set_next
 187:lvgl\lv_misc/lv_ll.c ****     }
 1420              		.loc 1 187 0
 1421 00a0 FA68     		ldr	r2, [r7, #12]
 1422 00a2 B968     		ldr	r1, [r7, #8]
 1423 00a4 7868     		ldr	r0, [r7, #4]
 1424 00a6 FFF7FEFF 		bl	node_set_prev
 1425              	.L27:
 1426              	.LBE2:
 1427              		.loc 1 189 0
 1428 00aa 00BF     		nop
 1429 00ac 1037     		adds	r7, r7, #16
 1430              		.cfi_def_cfa_offset 8
 1431 00ae BD46     		mov	sp, r7
 1432              		.cfi_def_cfa_register 13
 1433              		@ sp needed
 1434 00b0 80BD     		pop	{r7, pc}
 1435              		.cfi_endproc
 1436              	.LFE4:
 1437              		.size	lv_ll_rem, .-lv_ll_rem
 1438 00b2 00BF     		.section	.text.lv_ll_clear,"ax",%progbits
 1439              		.align	2
 1440              		.global	lv_ll_clear
 1441              		.thumb
 1442              		.thumb_func
 1443              		.type	lv_ll_clear, %function
 1444              	lv_ll_clear:
 1445              	.LFB5:
 190:lvgl\lv_misc/lv_ll.c **** 
 191:lvgl\lv_misc/lv_ll.c **** /**
 192:lvgl\lv_misc/lv_ll.c ****  * Remove and free all elements from a linked list. The list remain valid but become empty.
 193:lvgl\lv_misc/lv_ll.c ****  * @param ll_p pointer to linked list
 194:lvgl\lv_misc/lv_ll.c ****  */
 195:lvgl\lv_misc/lv_ll.c **** void lv_ll_clear(lv_ll_t * ll_p)
 196:lvgl\lv_misc/lv_ll.c **** {
 1446              		.loc 1 196 0
 1447              		.cfi_startproc
 1448              		@ args = 0, pretend = 0, frame = 16
 1449              		@ frame_needed = 1, uses_anonymous_args = 0
 1450 0000 80B5     		push	{r7, lr}
 1451              		.cfi_def_cfa_offset 8
 1452              		.cfi_offset 7, -8
 1453              		.cfi_offset 14, -4
 1454 0002 84B0     		sub	sp, sp, #16
 1455              		.cfi_def_cfa_offset 24
 1456 0004 00AF     		add	r7, sp, #0
 1457              		.cfi_def_cfa_register 7
 1458 0006 7860     		str	r0, [r7, #4]
 197:lvgl\lv_misc/lv_ll.c ****     void * i;
 198:lvgl\lv_misc/lv_ll.c ****     void * i_next;
 199:lvgl\lv_misc/lv_ll.c **** 
 200:lvgl\lv_misc/lv_ll.c ****     i = lv_ll_get_head(ll_p);
 1459              		.loc 1 200 0
ARM GAS  C:\Users\Sava\AppData\Local\Temp\cc1c2WDS.s 			page 84


 1460 0008 7868     		ldr	r0, [r7, #4]
 1461 000a FFF7FEFF 		bl	lv_ll_get_head
 1462 000e F860     		str	r0, [r7, #12]
 201:lvgl\lv_misc/lv_ll.c ****     i_next = NULL;
 1463              		.loc 1 201 0
 1464 0010 0023     		movs	r3, #0
 1465 0012 BB60     		str	r3, [r7, #8]
 202:lvgl\lv_misc/lv_ll.c **** 
 203:lvgl\lv_misc/lv_ll.c ****     while(i != NULL) {
 1466              		.loc 1 203 0
 1467 0014 0DE0     		b	.L29
 1468              	.L30:
 204:lvgl\lv_misc/lv_ll.c ****         i_next = lv_ll_get_next(ll_p, i);
 1469              		.loc 1 204 0
 1470 0016 F968     		ldr	r1, [r7, #12]
 1471 0018 7868     		ldr	r0, [r7, #4]
 1472 001a FFF7FEFF 		bl	lv_ll_get_next
 1473 001e B860     		str	r0, [r7, #8]
 205:lvgl\lv_misc/lv_ll.c **** 
 206:lvgl\lv_misc/lv_ll.c ****         lv_ll_rem(ll_p, i);
 1474              		.loc 1 206 0
 1475 0020 F968     		ldr	r1, [r7, #12]
 1476 0022 7868     		ldr	r0, [r7, #4]
 1477 0024 FFF7FEFF 		bl	lv_ll_rem
 207:lvgl\lv_misc/lv_ll.c ****         lv_mem_free(i);
 1478              		.loc 1 207 0
 1479 0028 F868     		ldr	r0, [r7, #12]
 1480 002a FFF7FEFF 		bl	lv_mem_free
 208:lvgl\lv_misc/lv_ll.c **** 
 209:lvgl\lv_misc/lv_ll.c ****         i = i_next;
 1481              		.loc 1 209 0
 1482 002e BB68     		ldr	r3, [r7, #8]
 1483 0030 FB60     		str	r3, [r7, #12]
 1484              	.L29:
 203:lvgl\lv_misc/lv_ll.c ****         i_next = lv_ll_get_next(ll_p, i);
 1485              		.loc 1 203 0
 1486 0032 FB68     		ldr	r3, [r7, #12]
 1487 0034 002B     		cmp	r3, #0
 1488 0036 EED1     		bne	.L30
 210:lvgl\lv_misc/lv_ll.c ****     }
 211:lvgl\lv_misc/lv_ll.c **** }
 1489              		.loc 1 211 0
 1490 0038 00BF     		nop
 1491 003a 1037     		adds	r7, r7, #16
 1492              		.cfi_def_cfa_offset 8
 1493 003c BD46     		mov	sp, r7
 1494              		.cfi_def_cfa_register 13
 1495              		@ sp needed
 1496 003e 80BD     		pop	{r7, pc}
 1497              		.cfi_endproc
 1498              	.LFE5:
 1499              		.size	lv_ll_clear, .-lv_ll_clear
 1500              		.section	.text.lv_ll_chg_list,"ax",%progbits
 1501              		.align	2
 1502              		.global	lv_ll_chg_list
 1503              		.thumb
 1504              		.thumb_func
ARM GAS  C:\Users\Sava\AppData\Local\Temp\cc1c2WDS.s 			page 85


 1505              		.type	lv_ll_chg_list, %function
 1506              	lv_ll_chg_list:
 1507              	.LFB6:
 212:lvgl\lv_misc/lv_ll.c **** 
 213:lvgl\lv_misc/lv_ll.c **** /**
 214:lvgl\lv_misc/lv_ll.c ****  * Move a node to a new linked list
 215:lvgl\lv_misc/lv_ll.c ****  * @param ll_ori_p pointer to the original (old) linked list
 216:lvgl\lv_misc/lv_ll.c ****  * @param ll_new_p pointer to the new linked list
 217:lvgl\lv_misc/lv_ll.c ****  * @param node pointer to a node
 218:lvgl\lv_misc/lv_ll.c ****  */
 219:lvgl\lv_misc/lv_ll.c **** void lv_ll_chg_list(lv_ll_t * ll_ori_p, lv_ll_t * ll_new_p, void * node)
 220:lvgl\lv_misc/lv_ll.c **** {
 1508              		.loc 1 220 0
 1509              		.cfi_startproc
 1510              		@ args = 0, pretend = 0, frame = 16
 1511              		@ frame_needed = 1, uses_anonymous_args = 0
 1512 0000 80B5     		push	{r7, lr}
 1513              		.cfi_def_cfa_offset 8
 1514              		.cfi_offset 7, -8
 1515              		.cfi_offset 14, -4
 1516 0002 84B0     		sub	sp, sp, #16
 1517              		.cfi_def_cfa_offset 24
 1518 0004 00AF     		add	r7, sp, #0
 1519              		.cfi_def_cfa_register 7
 1520 0006 F860     		str	r0, [r7, #12]
 1521 0008 B960     		str	r1, [r7, #8]
 1522 000a 7A60     		str	r2, [r7, #4]
 221:lvgl\lv_misc/lv_ll.c ****     lv_ll_rem(ll_ori_p, node);
 1523              		.loc 1 221 0
 1524 000c 7968     		ldr	r1, [r7, #4]
 1525 000e F868     		ldr	r0, [r7, #12]
 1526 0010 FFF7FEFF 		bl	lv_ll_rem
 222:lvgl\lv_misc/lv_ll.c **** 
 223:lvgl\lv_misc/lv_ll.c ****     /*Set node as head*/
 224:lvgl\lv_misc/lv_ll.c ****     node_set_prev(ll_new_p, node, NULL);
 1527              		.loc 1 224 0
 1528 0014 0022     		movs	r2, #0
 1529 0016 7968     		ldr	r1, [r7, #4]
 1530 0018 B868     		ldr	r0, [r7, #8]
 1531 001a FFF7FEFF 		bl	node_set_prev
 225:lvgl\lv_misc/lv_ll.c ****     node_set_next(ll_new_p, node, ll_new_p->head);
 1532              		.loc 1 225 0
 1533 001e BB68     		ldr	r3, [r7, #8]
 1534 0020 5B68     		ldr	r3, [r3, #4]
 1535 0022 1A46     		mov	r2, r3
 1536 0024 7968     		ldr	r1, [r7, #4]
 1537 0026 B868     		ldr	r0, [r7, #8]
 1538 0028 FFF7FEFF 		bl	node_set_next
 226:lvgl\lv_misc/lv_ll.c **** 
 227:lvgl\lv_misc/lv_ll.c ****     if(ll_new_p->head != NULL) { /*If there is old head then before it goes the new*/
 1539              		.loc 1 227 0
 1540 002c BB68     		ldr	r3, [r7, #8]
 1541 002e 5B68     		ldr	r3, [r3, #4]
 1542 0030 002B     		cmp	r3, #0
 1543 0032 06D0     		beq	.L32
 228:lvgl\lv_misc/lv_ll.c ****         node_set_prev(ll_new_p, ll_new_p->head, node);
 1544              		.loc 1 228 0
ARM GAS  C:\Users\Sava\AppData\Local\Temp\cc1c2WDS.s 			page 86


 1545 0034 BB68     		ldr	r3, [r7, #8]
 1546 0036 5B68     		ldr	r3, [r3, #4]
 1547 0038 7A68     		ldr	r2, [r7, #4]
 1548 003a 1946     		mov	r1, r3
 1549 003c B868     		ldr	r0, [r7, #8]
 1550 003e FFF7FEFF 		bl	node_set_prev
 1551              	.L32:
 229:lvgl\lv_misc/lv_ll.c ****     }
 230:lvgl\lv_misc/lv_ll.c **** 
 231:lvgl\lv_misc/lv_ll.c ****     ll_new_p->head = node;        /*Set the new head in the dsc.*/
 1552              		.loc 1 231 0
 1553 0042 BB68     		ldr	r3, [r7, #8]
 1554 0044 7A68     		ldr	r2, [r7, #4]
 1555 0046 5A60     		str	r2, [r3, #4]
 232:lvgl\lv_misc/lv_ll.c ****     if(ll_new_p->tail == NULL) {     /*If there is no tail (first node) set the tail too*/
 1556              		.loc 1 232 0
 1557 0048 BB68     		ldr	r3, [r7, #8]
 1558 004a 9B68     		ldr	r3, [r3, #8]
 1559 004c 002B     		cmp	r3, #0
 1560 004e 02D1     		bne	.L34
 233:lvgl\lv_misc/lv_ll.c ****         ll_new_p->tail = node;
 1561              		.loc 1 233 0
 1562 0050 BB68     		ldr	r3, [r7, #8]
 1563 0052 7A68     		ldr	r2, [r7, #4]
 1564 0054 9A60     		str	r2, [r3, #8]
 1565              	.L34:
 234:lvgl\lv_misc/lv_ll.c ****     }
 235:lvgl\lv_misc/lv_ll.c **** }
 1566              		.loc 1 235 0
 1567 0056 00BF     		nop
 1568 0058 1037     		adds	r7, r7, #16
 1569              		.cfi_def_cfa_offset 8
 1570 005a BD46     		mov	sp, r7
 1571              		.cfi_def_cfa_register 13
 1572              		@ sp needed
 1573 005c 80BD     		pop	{r7, pc}
 1574              		.cfi_endproc
 1575              	.LFE6:
 1576              		.size	lv_ll_chg_list, .-lv_ll_chg_list
 1577 005e 00BF     		.section	.text.lv_ll_get_head,"ax",%progbits
 1578              		.align	2
 1579              		.global	lv_ll_get_head
 1580              		.thumb
 1581              		.thumb_func
 1582              		.type	lv_ll_get_head, %function
 1583              	lv_ll_get_head:
 1584              	.LFB7:
 236:lvgl\lv_misc/lv_ll.c **** 
 237:lvgl\lv_misc/lv_ll.c **** /**
 238:lvgl\lv_misc/lv_ll.c ****  * Return with head node of the linked list
 239:lvgl\lv_misc/lv_ll.c ****  * @param ll_p pointer to linked list
 240:lvgl\lv_misc/lv_ll.c ****  * @return pointer to the head of 'll_p'
 241:lvgl\lv_misc/lv_ll.c ****  */
 242:lvgl\lv_misc/lv_ll.c **** void * lv_ll_get_head(const lv_ll_t * ll_p)
 243:lvgl\lv_misc/lv_ll.c **** {
 1585              		.loc 1 243 0
 1586              		.cfi_startproc
ARM GAS  C:\Users\Sava\AppData\Local\Temp\cc1c2WDS.s 			page 87


 1587              		@ args = 0, pretend = 0, frame = 16
 1588              		@ frame_needed = 1, uses_anonymous_args = 0
 1589              		@ link register save eliminated.
 1590 0000 80B4     		push	{r7}
 1591              		.cfi_def_cfa_offset 4
 1592              		.cfi_offset 7, -4
 1593 0002 85B0     		sub	sp, sp, #20
 1594              		.cfi_def_cfa_offset 24
 1595 0004 00AF     		add	r7, sp, #0
 1596              		.cfi_def_cfa_register 7
 1597 0006 7860     		str	r0, [r7, #4]
 244:lvgl\lv_misc/lv_ll.c ****     void * head = NULL;
 1598              		.loc 1 244 0
 1599 0008 0023     		movs	r3, #0
 1600 000a FB60     		str	r3, [r7, #12]
 245:lvgl\lv_misc/lv_ll.c **** 
 246:lvgl\lv_misc/lv_ll.c ****     if(ll_p != NULL)    {
 1601              		.loc 1 246 0
 1602 000c 7B68     		ldr	r3, [r7, #4]
 1603 000e 002B     		cmp	r3, #0
 1604 0010 02D0     		beq	.L36
 247:lvgl\lv_misc/lv_ll.c ****         head = ll_p->head;
 1605              		.loc 1 247 0
 1606 0012 7B68     		ldr	r3, [r7, #4]
 1607 0014 5B68     		ldr	r3, [r3, #4]
 1608 0016 FB60     		str	r3, [r7, #12]
 1609              	.L36:
 248:lvgl\lv_misc/lv_ll.c ****     }
 249:lvgl\lv_misc/lv_ll.c **** 
 250:lvgl\lv_misc/lv_ll.c ****     return head;
 1610              		.loc 1 250 0
 1611 0018 FB68     		ldr	r3, [r7, #12]
 251:lvgl\lv_misc/lv_ll.c **** }
 1612              		.loc 1 251 0
 1613 001a 1846     		mov	r0, r3
 1614 001c 1437     		adds	r7, r7, #20
 1615              		.cfi_def_cfa_offset 4
 1616 001e BD46     		mov	sp, r7
 1617              		.cfi_def_cfa_register 13
 1618              		@ sp needed
 1619 0020 80BC     		pop	{r7}
 1620              		.cfi_restore 7
 1621              		.cfi_def_cfa_offset 0
 1622 0022 7047     		bx	lr
 1623              		.cfi_endproc
 1624              	.LFE7:
 1625              		.size	lv_ll_get_head, .-lv_ll_get_head
 1626              		.section	.text.lv_ll_get_tail,"ax",%progbits
 1627              		.align	2
 1628              		.global	lv_ll_get_tail
 1629              		.thumb
 1630              		.thumb_func
 1631              		.type	lv_ll_get_tail, %function
 1632              	lv_ll_get_tail:
 1633              	.LFB8:
 252:lvgl\lv_misc/lv_ll.c **** 
 253:lvgl\lv_misc/lv_ll.c **** /**
ARM GAS  C:\Users\Sava\AppData\Local\Temp\cc1c2WDS.s 			page 88


 254:lvgl\lv_misc/lv_ll.c ****  * Return with tail node of the linked list
 255:lvgl\lv_misc/lv_ll.c ****  * @param ll_p pointer to linked list
 256:lvgl\lv_misc/lv_ll.c ****  * @return pointer to the head of 'll_p'
 257:lvgl\lv_misc/lv_ll.c ****  */
 258:lvgl\lv_misc/lv_ll.c **** void * lv_ll_get_tail(const lv_ll_t * ll_p)
 259:lvgl\lv_misc/lv_ll.c **** {
 1634              		.loc 1 259 0
 1635              		.cfi_startproc
 1636              		@ args = 0, pretend = 0, frame = 16
 1637              		@ frame_needed = 1, uses_anonymous_args = 0
 1638              		@ link register save eliminated.
 1639 0000 80B4     		push	{r7}
 1640              		.cfi_def_cfa_offset 4
 1641              		.cfi_offset 7, -4
 1642 0002 85B0     		sub	sp, sp, #20
 1643              		.cfi_def_cfa_offset 24
 1644 0004 00AF     		add	r7, sp, #0
 1645              		.cfi_def_cfa_register 7
 1646 0006 7860     		str	r0, [r7, #4]
 260:lvgl\lv_misc/lv_ll.c ****     void * tail = NULL;
 1647              		.loc 1 260 0
 1648 0008 0023     		movs	r3, #0
 1649 000a FB60     		str	r3, [r7, #12]
 261:lvgl\lv_misc/lv_ll.c **** 
 262:lvgl\lv_misc/lv_ll.c ****     if(ll_p != NULL)    {
 1650              		.loc 1 262 0
 1651 000c 7B68     		ldr	r3, [r7, #4]
 1652 000e 002B     		cmp	r3, #0
 1653 0010 02D0     		beq	.L39
 263:lvgl\lv_misc/lv_ll.c ****         tail = ll_p->tail;
 1654              		.loc 1 263 0
 1655 0012 7B68     		ldr	r3, [r7, #4]
 1656 0014 9B68     		ldr	r3, [r3, #8]
 1657 0016 FB60     		str	r3, [r7, #12]
 1658              	.L39:
 264:lvgl\lv_misc/lv_ll.c ****     }
 265:lvgl\lv_misc/lv_ll.c **** 
 266:lvgl\lv_misc/lv_ll.c ****     return tail;
 1659              		.loc 1 266 0
 1660 0018 FB68     		ldr	r3, [r7, #12]
 267:lvgl\lv_misc/lv_ll.c **** }
 1661              		.loc 1 267 0
 1662 001a 1846     		mov	r0, r3
 1663 001c 1437     		adds	r7, r7, #20
 1664              		.cfi_def_cfa_offset 4
 1665 001e BD46     		mov	sp, r7
 1666              		.cfi_def_cfa_register 13
 1667              		@ sp needed
 1668 0020 80BC     		pop	{r7}
 1669              		.cfi_restore 7
 1670              		.cfi_def_cfa_offset 0
 1671 0022 7047     		bx	lr
 1672              		.cfi_endproc
 1673              	.LFE8:
 1674              		.size	lv_ll_get_tail, .-lv_ll_get_tail
 1675              		.section	.text.lv_ll_get_next,"ax",%progbits
 1676              		.align	2
ARM GAS  C:\Users\Sava\AppData\Local\Temp\cc1c2WDS.s 			page 89


 1677              		.global	lv_ll_get_next
 1678              		.thumb
 1679              		.thumb_func
 1680              		.type	lv_ll_get_next, %function
 1681              	lv_ll_get_next:
 1682              	.LFB9:
 268:lvgl\lv_misc/lv_ll.c **** 
 269:lvgl\lv_misc/lv_ll.c **** /**
 270:lvgl\lv_misc/lv_ll.c ****  * Return with the pointer of the next node after 'n_act'
 271:lvgl\lv_misc/lv_ll.c ****  * @param ll_p pointer to linked list
 272:lvgl\lv_misc/lv_ll.c ****  * @param n_act pointer a node
 273:lvgl\lv_misc/lv_ll.c ****  * @return pointer to the next node
 274:lvgl\lv_misc/lv_ll.c ****  */
 275:lvgl\lv_misc/lv_ll.c **** void * lv_ll_get_next(const lv_ll_t * ll_p, const  void * n_act)
 276:lvgl\lv_misc/lv_ll.c **** {
 1683              		.loc 1 276 0
 1684              		.cfi_startproc
 1685              		@ args = 0, pretend = 0, frame = 16
 1686              		@ frame_needed = 1, uses_anonymous_args = 0
 1687 0000 80B5     		push	{r7, lr}
 1688              		.cfi_def_cfa_offset 8
 1689              		.cfi_offset 7, -8
 1690              		.cfi_offset 14, -4
 1691 0002 84B0     		sub	sp, sp, #16
 1692              		.cfi_def_cfa_offset 24
 1693 0004 00AF     		add	r7, sp, #0
 1694              		.cfi_def_cfa_register 7
 1695 0006 7860     		str	r0, [r7, #4]
 1696 0008 3960     		str	r1, [r7]
 277:lvgl\lv_misc/lv_ll.c ****     void * next = NULL;
 1697              		.loc 1 277 0
 1698 000a 0023     		movs	r3, #0
 1699 000c BB60     		str	r3, [r7, #8]
 278:lvgl\lv_misc/lv_ll.c **** 
 279:lvgl\lv_misc/lv_ll.c ****     if(ll_p != NULL)    {
 1700              		.loc 1 279 0
 1701 000e 7B68     		ldr	r3, [r7, #4]
 1702 0010 002B     		cmp	r3, #0
 1703 0012 0CD0     		beq	.L42
 1704              	.LBB3:
 280:lvgl\lv_misc/lv_ll.c ****         const lv_ll_node_t * n_act_d = n_act;
 1705              		.loc 1 280 0
 1706 0014 3B68     		ldr	r3, [r7]
 1707 0016 FB60     		str	r3, [r7, #12]
 281:lvgl\lv_misc/lv_ll.c ****         memcpy(&next, n_act_d + LL_NEXT_P_OFFSET(ll_p), sizeof(void *));
 1708              		.loc 1 281 0
 1709 0018 7B68     		ldr	r3, [r7, #4]
 1710 001a 1B68     		ldr	r3, [r3]
 1711 001c 0433     		adds	r3, r3, #4
 1712 001e FA68     		ldr	r2, [r7, #12]
 1713 0020 D118     		adds	r1, r2, r3
 1714 0022 07F10803 		add	r3, r7, #8
 1715 0026 0422     		movs	r2, #4
 1716 0028 1846     		mov	r0, r3
 1717 002a FFF7FEFF 		bl	memcpy
 1718              	.L42:
 1719              	.LBE3:
ARM GAS  C:\Users\Sava\AppData\Local\Temp\cc1c2WDS.s 			page 90


 282:lvgl\lv_misc/lv_ll.c ****     }
 283:lvgl\lv_misc/lv_ll.c **** 
 284:lvgl\lv_misc/lv_ll.c ****     return next;
 1720              		.loc 1 284 0
 1721 002e BB68     		ldr	r3, [r7, #8]
 285:lvgl\lv_misc/lv_ll.c **** }
 1722              		.loc 1 285 0
 1723 0030 1846     		mov	r0, r3
 1724 0032 1037     		adds	r7, r7, #16
 1725              		.cfi_def_cfa_offset 8
 1726 0034 BD46     		mov	sp, r7
 1727              		.cfi_def_cfa_register 13
 1728              		@ sp needed
 1729 0036 80BD     		pop	{r7, pc}
 1730              		.cfi_endproc
 1731              	.LFE9:
 1732              		.size	lv_ll_get_next, .-lv_ll_get_next
 1733              		.section	.text.lv_ll_get_prev,"ax",%progbits
 1734              		.align	2
 1735              		.global	lv_ll_get_prev
 1736              		.thumb
 1737              		.thumb_func
 1738              		.type	lv_ll_get_prev, %function
 1739              	lv_ll_get_prev:
 1740              	.LFB10:
 286:lvgl\lv_misc/lv_ll.c **** 
 287:lvgl\lv_misc/lv_ll.c **** /**
 288:lvgl\lv_misc/lv_ll.c ****  * Return with the pointer of the previous node after 'n_act'
 289:lvgl\lv_misc/lv_ll.c ****  * @param ll_p pointer to linked list
 290:lvgl\lv_misc/lv_ll.c ****  * @param n_act pointer a node
 291:lvgl\lv_misc/lv_ll.c ****  * @return pointer to the previous node
 292:lvgl\lv_misc/lv_ll.c ****  */
 293:lvgl\lv_misc/lv_ll.c **** void * lv_ll_get_prev(const lv_ll_t * ll_p, const  void * n_act)
 294:lvgl\lv_misc/lv_ll.c **** {
 1741              		.loc 1 294 0
 1742              		.cfi_startproc
 1743              		@ args = 0, pretend = 0, frame = 16
 1744              		@ frame_needed = 1, uses_anonymous_args = 0
 1745 0000 80B5     		push	{r7, lr}
 1746              		.cfi_def_cfa_offset 8
 1747              		.cfi_offset 7, -8
 1748              		.cfi_offset 14, -4
 1749 0002 84B0     		sub	sp, sp, #16
 1750              		.cfi_def_cfa_offset 24
 1751 0004 00AF     		add	r7, sp, #0
 1752              		.cfi_def_cfa_register 7
 1753 0006 7860     		str	r0, [r7, #4]
 1754 0008 3960     		str	r1, [r7]
 295:lvgl\lv_misc/lv_ll.c ****     void * prev = NULL;
 1755              		.loc 1 295 0
 1756 000a 0023     		movs	r3, #0
 1757 000c BB60     		str	r3, [r7, #8]
 296:lvgl\lv_misc/lv_ll.c **** 
 297:lvgl\lv_misc/lv_ll.c ****     if(ll_p != NULL) {
 1758              		.loc 1 297 0
 1759 000e 7B68     		ldr	r3, [r7, #4]
 1760 0010 002B     		cmp	r3, #0
ARM GAS  C:\Users\Sava\AppData\Local\Temp\cc1c2WDS.s 			page 91


 1761 0012 0BD0     		beq	.L45
 1762              	.LBB4:
 298:lvgl\lv_misc/lv_ll.c ****         const lv_ll_node_t * n_act_d = n_act;
 1763              		.loc 1 298 0
 1764 0014 3B68     		ldr	r3, [r7]
 1765 0016 FB60     		str	r3, [r7, #12]
 299:lvgl\lv_misc/lv_ll.c ****         memcpy(&prev, n_act_d + LL_PREV_P_OFFSET(ll_p), sizeof(void *));
 1766              		.loc 1 299 0
 1767 0018 7B68     		ldr	r3, [r7, #4]
 1768 001a 1B68     		ldr	r3, [r3]
 1769 001c FA68     		ldr	r2, [r7, #12]
 1770 001e D118     		adds	r1, r2, r3
 1771 0020 07F10803 		add	r3, r7, #8
 1772 0024 0422     		movs	r2, #4
 1773 0026 1846     		mov	r0, r3
 1774 0028 FFF7FEFF 		bl	memcpy
 1775              	.L45:
 1776              	.LBE4:
 300:lvgl\lv_misc/lv_ll.c ****     }
 301:lvgl\lv_misc/lv_ll.c **** 
 302:lvgl\lv_misc/lv_ll.c ****     return prev;
 1777              		.loc 1 302 0
 1778 002c BB68     		ldr	r3, [r7, #8]
 303:lvgl\lv_misc/lv_ll.c **** }
 1779              		.loc 1 303 0
 1780 002e 1846     		mov	r0, r3
 1781 0030 1037     		adds	r7, r7, #16
 1782              		.cfi_def_cfa_offset 8
 1783 0032 BD46     		mov	sp, r7
 1784              		.cfi_def_cfa_register 13
 1785              		@ sp needed
 1786 0034 80BD     		pop	{r7, pc}
 1787              		.cfi_endproc
 1788              	.LFE10:
 1789              		.size	lv_ll_get_prev, .-lv_ll_get_prev
 1790 0036 00BF     		.section	.text.lv_ll_swap,"ax",%progbits
 1791              		.align	2
 1792              		.global	lv_ll_swap
 1793              		.thumb
 1794              		.thumb_func
 1795              		.type	lv_ll_swap, %function
 1796              	lv_ll_swap:
 1797              	.LFB11:
 304:lvgl\lv_misc/lv_ll.c **** 
 305:lvgl\lv_misc/lv_ll.c **** void lv_ll_swap(lv_ll_t * ll_p, void * n1_p, void * n2_p)
 306:lvgl\lv_misc/lv_ll.c **** {
 1798              		.loc 1 306 0
 1799              		.cfi_startproc
 1800              		@ args = 0, pretend = 0, frame = 16
 1801              		@ frame_needed = 1, uses_anonymous_args = 0
 1802              		@ link register save eliminated.
 1803 0000 80B4     		push	{r7}
 1804              		.cfi_def_cfa_offset 4
 1805              		.cfi_offset 7, -4
 1806 0002 85B0     		sub	sp, sp, #20
 1807              		.cfi_def_cfa_offset 24
 1808 0004 00AF     		add	r7, sp, #0
ARM GAS  C:\Users\Sava\AppData\Local\Temp\cc1c2WDS.s 			page 92


 1809              		.cfi_def_cfa_register 7
 1810 0006 F860     		str	r0, [r7, #12]
 1811 0008 B960     		str	r1, [r7, #8]
 1812 000a 7A60     		str	r2, [r7, #4]
 307:lvgl\lv_misc/lv_ll.c ****     (void)(ll_p);
 308:lvgl\lv_misc/lv_ll.c ****     (void)(n1_p);
 309:lvgl\lv_misc/lv_ll.c ****     (void)(n2_p);
 310:lvgl\lv_misc/lv_ll.c ****     /*TODO*/
 311:lvgl\lv_misc/lv_ll.c **** }
 1813              		.loc 1 311 0
 1814 000c 00BF     		nop
 1815 000e 1437     		adds	r7, r7, #20
 1816              		.cfi_def_cfa_offset 4
 1817 0010 BD46     		mov	sp, r7
 1818              		.cfi_def_cfa_register 13
 1819              		@ sp needed
 1820 0012 80BC     		pop	{r7}
 1821              		.cfi_restore 7
 1822              		.cfi_def_cfa_offset 0
 1823 0014 7047     		bx	lr
 1824              		.cfi_endproc
 1825              	.LFE11:
 1826              		.size	lv_ll_swap, .-lv_ll_swap
 1827 0016 00BF     		.section	.text.lv_ll_move_before,"ax",%progbits
 1828              		.align	2
 1829              		.global	lv_ll_move_before
 1830              		.thumb
 1831              		.thumb_func
 1832              		.type	lv_ll_move_before, %function
 1833              	lv_ll_move_before:
 1834              	.LFB12:
 312:lvgl\lv_misc/lv_ll.c **** 
 313:lvgl\lv_misc/lv_ll.c **** /**
 314:lvgl\lv_misc/lv_ll.c ****  * Move a nodw before an other node in the same linked list
 315:lvgl\lv_misc/lv_ll.c ****  * @param ll_p pointer to a linked list
 316:lvgl\lv_misc/lv_ll.c ****  * @param n_act pointer to node to move
 317:lvgl\lv_misc/lv_ll.c ****  * @param n_after pointer to a node which should be after `n_act`
 318:lvgl\lv_misc/lv_ll.c ****  */
 319:lvgl\lv_misc/lv_ll.c **** void lv_ll_move_before(lv_ll_t * ll_p, void * n_act, void * n_after)
 320:lvgl\lv_misc/lv_ll.c **** {
 1835              		.loc 1 320 0
 1836              		.cfi_startproc
 1837              		@ args = 0, pretend = 0, frame = 24
 1838              		@ frame_needed = 1, uses_anonymous_args = 0
 1839 0000 80B5     		push	{r7, lr}
 1840              		.cfi_def_cfa_offset 8
 1841              		.cfi_offset 7, -8
 1842              		.cfi_offset 14, -4
 1843 0002 86B0     		sub	sp, sp, #24
 1844              		.cfi_def_cfa_offset 32
 1845 0004 00AF     		add	r7, sp, #0
 1846              		.cfi_def_cfa_register 7
 1847 0006 F860     		str	r0, [r7, #12]
 1848 0008 B960     		str	r1, [r7, #8]
 1849 000a 7A60     		str	r2, [r7, #4]
 321:lvgl\lv_misc/lv_ll.c ****     if(n_act == n_after) return;    /*Can't move before itself*/
 1850              		.loc 1 321 0
ARM GAS  C:\Users\Sava\AppData\Local\Temp\cc1c2WDS.s 			page 93


 1851 000c BA68     		ldr	r2, [r7, #8]
 1852 000e 7B68     		ldr	r3, [r7, #4]
 1853 0010 9A42     		cmp	r2, r3
 1854 0012 2FD0     		beq	.L54
 322:lvgl\lv_misc/lv_ll.c **** 
 323:lvgl\lv_misc/lv_ll.c **** 
 324:lvgl\lv_misc/lv_ll.c ****     void * n_before;
 325:lvgl\lv_misc/lv_ll.c ****     if(n_after != NULL) n_before = lv_ll_get_prev(ll_p, n_after);
 1855              		.loc 1 325 0
 1856 0014 7B68     		ldr	r3, [r7, #4]
 1857 0016 002B     		cmp	r3, #0
 1858 0018 05D0     		beq	.L51
 1859              		.loc 1 325 0 is_stmt 0 discriminator 1
 1860 001a 7968     		ldr	r1, [r7, #4]
 1861 001c F868     		ldr	r0, [r7, #12]
 1862 001e FFF7FEFF 		bl	lv_ll_get_prev
 1863 0022 7861     		str	r0, [r7, #20]
 1864 0024 03E0     		b	.L52
 1865              	.L51:
 326:lvgl\lv_misc/lv_ll.c ****     else n_before = lv_ll_get_tail(ll_p);        /*if `n_after` is NULL `n_act` should be the new t
 1866              		.loc 1 326 0 is_stmt 1
 1867 0026 F868     		ldr	r0, [r7, #12]
 1868 0028 FFF7FEFF 		bl	lv_ll_get_tail
 1869 002c 7861     		str	r0, [r7, #20]
 1870              	.L52:
 327:lvgl\lv_misc/lv_ll.c **** 
 328:lvgl\lv_misc/lv_ll.c ****     if(n_act == n_before) return;   /*Already before `n_after`*/
 1871              		.loc 1 328 0
 1872 002e BA68     		ldr	r2, [r7, #8]
 1873 0030 7B69     		ldr	r3, [r7, #20]
 1874 0032 9A42     		cmp	r2, r3
 1875 0034 20D0     		beq	.L55
 329:lvgl\lv_misc/lv_ll.c **** 
 330:lvgl\lv_misc/lv_ll.c ****     /*It's much easier to remove from the list and add again*/
 331:lvgl\lv_misc/lv_ll.c ****     lv_ll_rem(ll_p, n_act);
 1876              		.loc 1 331 0
 1877 0036 B968     		ldr	r1, [r7, #8]
 1878 0038 F868     		ldr	r0, [r7, #12]
 1879 003a FFF7FEFF 		bl	lv_ll_rem
 332:lvgl\lv_misc/lv_ll.c **** 
 333:lvgl\lv_misc/lv_ll.c ****     /*Add again by setting the prev. and next nodes*/
 334:lvgl\lv_misc/lv_ll.c ****     node_set_next(ll_p, n_before, n_act);
 1880              		.loc 1 334 0
 1881 003e BA68     		ldr	r2, [r7, #8]
 1882 0040 7969     		ldr	r1, [r7, #20]
 1883 0042 F868     		ldr	r0, [r7, #12]
 1884 0044 FFF7FEFF 		bl	node_set_next
 335:lvgl\lv_misc/lv_ll.c ****     node_set_prev(ll_p, n_act, n_before);
 1885              		.loc 1 335 0
 1886 0048 7A69     		ldr	r2, [r7, #20]
 1887 004a B968     		ldr	r1, [r7, #8]
 1888 004c F868     		ldr	r0, [r7, #12]
 1889 004e FFF7FEFF 		bl	node_set_prev
 336:lvgl\lv_misc/lv_ll.c ****     node_set_prev(ll_p, n_after, n_act);
 1890              		.loc 1 336 0
 1891 0052 BA68     		ldr	r2, [r7, #8]
 1892 0054 7968     		ldr	r1, [r7, #4]
ARM GAS  C:\Users\Sava\AppData\Local\Temp\cc1c2WDS.s 			page 94


 1893 0056 F868     		ldr	r0, [r7, #12]
 1894 0058 FFF7FEFF 		bl	node_set_prev
 337:lvgl\lv_misc/lv_ll.c ****     node_set_next(ll_p, n_act, n_after);
 1895              		.loc 1 337 0
 1896 005c 7A68     		ldr	r2, [r7, #4]
 1897 005e B968     		ldr	r1, [r7, #8]
 1898 0060 F868     		ldr	r0, [r7, #12]
 1899 0062 FFF7FEFF 		bl	node_set_next
 338:lvgl\lv_misc/lv_ll.c **** 
 339:lvgl\lv_misc/lv_ll.c ****     /*If `n_act` was moved before NULL then it become the new tail*/
 340:lvgl\lv_misc/lv_ll.c ****     if(n_after == NULL) ll_p->tail = n_act;
 1900              		.loc 1 340 0
 1901 0066 7B68     		ldr	r3, [r7, #4]
 1902 0068 002B     		cmp	r3, #0
 1903 006a 06D1     		bne	.L48
 1904              		.loc 1 340 0 is_stmt 0 discriminator 1
 1905 006c FB68     		ldr	r3, [r7, #12]
 1906 006e BA68     		ldr	r2, [r7, #8]
 1907 0070 9A60     		str	r2, [r3, #8]
 1908 0072 02E0     		b	.L48
 1909              	.L54:
 321:lvgl\lv_misc/lv_ll.c **** 
 1910              		.loc 1 321 0 is_stmt 1
 1911 0074 00BF     		nop
 1912 0076 00E0     		b	.L48
 1913              	.L55:
 328:lvgl\lv_misc/lv_ll.c **** 
 1914              		.loc 1 328 0
 1915 0078 00BF     		nop
 1916              	.L48:
 341:lvgl\lv_misc/lv_ll.c **** }
 1917              		.loc 1 341 0
 1918 007a 1837     		adds	r7, r7, #24
 1919              		.cfi_def_cfa_offset 8
 1920 007c BD46     		mov	sp, r7
 1921              		.cfi_def_cfa_register 13
 1922              		@ sp needed
 1923 007e 80BD     		pop	{r7, pc}
 1924              		.cfi_endproc
 1925              	.LFE12:
 1926              		.size	lv_ll_move_before, .-lv_ll_move_before
 1927              		.section	.text.node_set_prev,"ax",%progbits
 1928              		.align	2
 1929              		.thumb
 1930              		.thumb_func
 1931              		.type	node_set_prev, %function
 1932              	node_set_prev:
 1933              	.LFB13:
 342:lvgl\lv_misc/lv_ll.c **** 
 343:lvgl\lv_misc/lv_ll.c **** /**********************
 344:lvgl\lv_misc/lv_ll.c ****  *   STATIC FUNCTIONS
 345:lvgl\lv_misc/lv_ll.c ****  **********************/
 346:lvgl\lv_misc/lv_ll.c **** 
 347:lvgl\lv_misc/lv_ll.c **** /**
 348:lvgl\lv_misc/lv_ll.c ****  * Set the 'pervious node pointer' of a node
 349:lvgl\lv_misc/lv_ll.c ****  * @param ll_p pointer to linked list
 350:lvgl\lv_misc/lv_ll.c ****  * @param act pointer to a node which prev. node pointer should be set
ARM GAS  C:\Users\Sava\AppData\Local\Temp\cc1c2WDS.s 			page 95


 351:lvgl\lv_misc/lv_ll.c ****  * @param prev pointer to a node which should be the previous node before 'act'
 352:lvgl\lv_misc/lv_ll.c ****  */
 353:lvgl\lv_misc/lv_ll.c **** static void node_set_prev(lv_ll_t * ll_p, lv_ll_node_t * act, lv_ll_node_t * prev)
 354:lvgl\lv_misc/lv_ll.c **** {
 1934              		.loc 1 354 0
 1935              		.cfi_startproc
 1936              		@ args = 0, pretend = 0, frame = 24
 1937              		@ frame_needed = 1, uses_anonymous_args = 0
 1938 0000 80B5     		push	{r7, lr}
 1939              		.cfi_def_cfa_offset 8
 1940              		.cfi_offset 7, -8
 1941              		.cfi_offset 14, -4
 1942 0002 86B0     		sub	sp, sp, #24
 1943              		.cfi_def_cfa_offset 32
 1944 0004 00AF     		add	r7, sp, #0
 1945              		.cfi_def_cfa_register 7
 1946 0006 F860     		str	r0, [r7, #12]
 1947 0008 B960     		str	r1, [r7, #8]
 1948 000a 7A60     		str	r2, [r7, #4]
 355:lvgl\lv_misc/lv_ll.c ****     if(act == NULL) return;     /*Can't set the prev node of `NULL`*/
 1949              		.loc 1 355 0
 1950 000c BB68     		ldr	r3, [r7, #8]
 1951 000e 002B     		cmp	r3, #0
 1952 0010 18D0     		beq	.L60
 356:lvgl\lv_misc/lv_ll.c **** 
 357:lvgl\lv_misc/lv_ll.c ****     uint32_t node_p_size = sizeof(lv_ll_node_t *);
 1953              		.loc 1 357 0
 1954 0012 0423     		movs	r3, #4
 1955 0014 7B61     		str	r3, [r7, #20]
 358:lvgl\lv_misc/lv_ll.c ****     if(prev) memcpy(act + LL_PREV_P_OFFSET(ll_p), &prev, node_p_size);
 1956              		.loc 1 358 0
 1957 0016 7B68     		ldr	r3, [r7, #4]
 1958 0018 002B     		cmp	r3, #0
 1959 001a 09D0     		beq	.L59
 1960              		.loc 1 358 0 is_stmt 0 discriminator 1
 1961 001c FB68     		ldr	r3, [r7, #12]
 1962 001e 1B68     		ldr	r3, [r3]
 1963 0020 BA68     		ldr	r2, [r7, #8]
 1964 0022 1344     		add	r3, r3, r2
 1965 0024 391D     		adds	r1, r7, #4
 1966 0026 7A69     		ldr	r2, [r7, #20]
 1967 0028 1846     		mov	r0, r3
 1968 002a FFF7FEFF 		bl	memcpy
 1969 002e 0AE0     		b	.L56
 1970              	.L59:
 359:lvgl\lv_misc/lv_ll.c ****     else memset(act + LL_PREV_P_OFFSET(ll_p), 0, node_p_size);
 1971              		.loc 1 359 0 is_stmt 1
 1972 0030 FB68     		ldr	r3, [r7, #12]
 1973 0032 1B68     		ldr	r3, [r3]
 1974 0034 BA68     		ldr	r2, [r7, #8]
 1975 0036 1344     		add	r3, r3, r2
 1976 0038 7A69     		ldr	r2, [r7, #20]
 1977 003a 0021     		movs	r1, #0
 1978 003c 1846     		mov	r0, r3
 1979 003e FFF7FEFF 		bl	memset
 1980 0042 00E0     		b	.L56
 1981              	.L60:
ARM GAS  C:\Users\Sava\AppData\Local\Temp\cc1c2WDS.s 			page 96


 355:lvgl\lv_misc/lv_ll.c **** 
 1982              		.loc 1 355 0
 1983 0044 00BF     		nop
 1984              	.L56:
 360:lvgl\lv_misc/lv_ll.c **** }
 1985              		.loc 1 360 0
 1986 0046 1837     		adds	r7, r7, #24
 1987              		.cfi_def_cfa_offset 8
 1988 0048 BD46     		mov	sp, r7
 1989              		.cfi_def_cfa_register 13
 1990              		@ sp needed
 1991 004a 80BD     		pop	{r7, pc}
 1992              		.cfi_endproc
 1993              	.LFE13:
 1994              		.size	node_set_prev, .-node_set_prev
 1995              		.section	.text.node_set_next,"ax",%progbits
 1996              		.align	2
 1997              		.thumb
 1998              		.thumb_func
 1999              		.type	node_set_next, %function
 2000              	node_set_next:
 2001              	.LFB14:
 361:lvgl\lv_misc/lv_ll.c **** 
 362:lvgl\lv_misc/lv_ll.c **** /**
 363:lvgl\lv_misc/lv_ll.c ****  * Set the 'next node pointer' of a node
 364:lvgl\lv_misc/lv_ll.c ****  * @param ll_p pointer to linked list
 365:lvgl\lv_misc/lv_ll.c ****  * @param act pointer to a node which next node pointer should be set
 366:lvgl\lv_misc/lv_ll.c ****  * @param next pointer to a node which should be the next node before 'act'
 367:lvgl\lv_misc/lv_ll.c ****  */
 368:lvgl\lv_misc/lv_ll.c **** static void node_set_next(lv_ll_t * ll_p, lv_ll_node_t * act, lv_ll_node_t * next)
 369:lvgl\lv_misc/lv_ll.c **** {
 2002              		.loc 1 369 0
 2003              		.cfi_startproc
 2004              		@ args = 0, pretend = 0, frame = 24
 2005              		@ frame_needed = 1, uses_anonymous_args = 0
 2006 0000 80B5     		push	{r7, lr}
 2007              		.cfi_def_cfa_offset 8
 2008              		.cfi_offset 7, -8
 2009              		.cfi_offset 14, -4
 2010 0002 86B0     		sub	sp, sp, #24
 2011              		.cfi_def_cfa_offset 32
 2012 0004 00AF     		add	r7, sp, #0
 2013              		.cfi_def_cfa_register 7
 2014 0006 F860     		str	r0, [r7, #12]
 2015 0008 B960     		str	r1, [r7, #8]
 2016 000a 7A60     		str	r2, [r7, #4]
 370:lvgl\lv_misc/lv_ll.c ****     if(act == NULL) return;     /*Can't set the next node of `NULL`*/
 2017              		.loc 1 370 0
 2018 000c BB68     		ldr	r3, [r7, #8]
 2019 000e 002B     		cmp	r3, #0
 2020 0010 1AD0     		beq	.L65
 371:lvgl\lv_misc/lv_ll.c **** 
 372:lvgl\lv_misc/lv_ll.c ****     uint32_t node_p_size = sizeof(lv_ll_node_t *);
 2021              		.loc 1 372 0
 2022 0012 0423     		movs	r3, #4
 2023 0014 7B61     		str	r3, [r7, #20]
 373:lvgl\lv_misc/lv_ll.c ****     if(next) memcpy(act + LL_NEXT_P_OFFSET(ll_p), &next, node_p_size);
ARM GAS  C:\Users\Sava\AppData\Local\Temp\cc1c2WDS.s 			page 97


 2024              		.loc 1 373 0
 2025 0016 7B68     		ldr	r3, [r7, #4]
 2026 0018 002B     		cmp	r3, #0
 2027 001a 0AD0     		beq	.L64
 2028              		.loc 1 373 0 is_stmt 0 discriminator 1
 2029 001c FB68     		ldr	r3, [r7, #12]
 2030 001e 1B68     		ldr	r3, [r3]
 2031 0020 0433     		adds	r3, r3, #4
 2032 0022 BA68     		ldr	r2, [r7, #8]
 2033 0024 1344     		add	r3, r3, r2
 2034 0026 391D     		adds	r1, r7, #4
 2035 0028 7A69     		ldr	r2, [r7, #20]
 2036 002a 1846     		mov	r0, r3
 2037 002c FFF7FEFF 		bl	memcpy
 2038 0030 0BE0     		b	.L61
 2039              	.L64:
 374:lvgl\lv_misc/lv_ll.c ****     else memset(act + LL_NEXT_P_OFFSET(ll_p), 0, node_p_size);
 2040              		.loc 1 374 0 is_stmt 1
 2041 0032 FB68     		ldr	r3, [r7, #12]
 2042 0034 1B68     		ldr	r3, [r3]
 2043 0036 0433     		adds	r3, r3, #4
 2044 0038 BA68     		ldr	r2, [r7, #8]
 2045 003a 1344     		add	r3, r3, r2
 2046 003c 7A69     		ldr	r2, [r7, #20]
 2047 003e 0021     		movs	r1, #0
 2048 0040 1846     		mov	r0, r3
 2049 0042 FFF7FEFF 		bl	memset
 2050 0046 00E0     		b	.L61
 2051              	.L65:
 370:lvgl\lv_misc/lv_ll.c **** 
 2052              		.loc 1 370 0
 2053 0048 00BF     		nop
 2054              	.L61:
 375:lvgl\lv_misc/lv_ll.c **** }
 2055              		.loc 1 375 0
 2056 004a 1837     		adds	r7, r7, #24
 2057              		.cfi_def_cfa_offset 8
 2058 004c BD46     		mov	sp, r7
 2059              		.cfi_def_cfa_register 13
 2060              		@ sp needed
 2061 004e 80BD     		pop	{r7, pc}
 2062              		.cfi_endproc
 2063              	.LFE14:
 2064              		.size	node_set_next, .-node_set_next
 2065              		.text
 2066              	.Letext0:
 2067              		.file 2 "c:\\program files (x86)\\cypress\\psoc creator\\4.2\\psoc creator\\import\\gnu\\arm\\5.4.
 2068              		.file 3 "c:\\program files (x86)\\cypress\\psoc creator\\4.2\\psoc creator\\import\\gnu\\arm\\5.4.
 2069              		.file 4 "lvgl\\lv_misc\\lv_ll.h"
 2070              		.section	.debug_info,"",%progbits
 2071              	.Ldebug_info0:
 2072 0000 47050000 		.4byte	0x547
 2073 0004 0400     		.2byte	0x4
 2074 0006 00000000 		.4byte	.Ldebug_abbrev0
 2075 000a 04       		.byte	0x4
 2076 000b 01       		.uleb128 0x1
 2077 000c 9B010000 		.4byte	.LASF53
ARM GAS  C:\Users\Sava\AppData\Local\Temp\cc1c2WDS.s 			page 98


 2078 0010 0C       		.byte	0xc
 2079 0011 35000000 		.4byte	.LASF54
 2080 0015 80000000 		.4byte	.LASF55
 2081 0019 00000000 		.4byte	.Ldebug_ranges0+0
 2082 001d 00000000 		.4byte	0
 2083 0021 00000000 		.4byte	.Ldebug_line0
 2084 0025 02       		.uleb128 0x2
 2085 0026 01       		.byte	0x1
 2086 0027 06       		.byte	0x6
 2087 0028 1C030000 		.4byte	.LASF0
 2088 002c 03       		.uleb128 0x3
 2089 002d 13000000 		.4byte	.LASF5
 2090 0031 02       		.byte	0x2
 2091 0032 1D       		.byte	0x1d
 2092 0033 37000000 		.4byte	0x37
 2093 0037 02       		.uleb128 0x2
 2094 0038 01       		.byte	0x1
 2095 0039 08       		.byte	0x8
 2096 003a F5000000 		.4byte	.LASF1
 2097 003e 02       		.uleb128 0x2
 2098 003f 02       		.byte	0x2
 2099 0040 05       		.byte	0x5
 2100 0041 C8020000 		.4byte	.LASF2
 2101 0045 02       		.uleb128 0x2
 2102 0046 02       		.byte	0x2
 2103 0047 07       		.byte	0x7
 2104 0048 23010000 		.4byte	.LASF3
 2105 004c 02       		.uleb128 0x2
 2106 004d 04       		.byte	0x4
 2107 004e 05       		.byte	0x5
 2108 004f 07030000 		.4byte	.LASF4
 2109 0053 03       		.uleb128 0x3
 2110 0054 70010000 		.4byte	.LASF6
 2111 0058 02       		.byte	0x2
 2112 0059 41       		.byte	0x41
 2113 005a 5E000000 		.4byte	0x5e
 2114 005e 02       		.uleb128 0x2
 2115 005f 04       		.byte	0x4
 2116 0060 07       		.byte	0x7
 2117 0061 11010000 		.4byte	.LASF7
 2118 0065 02       		.uleb128 0x2
 2119 0066 08       		.byte	0x8
 2120 0067 05       		.byte	0x5
 2121 0068 00000000 		.4byte	.LASF8
 2122 006c 02       		.uleb128 0x2
 2123 006d 08       		.byte	0x8
 2124 006e 07       		.byte	0x7
 2125 006f 4F020000 		.4byte	.LASF9
 2126 0073 04       		.uleb128 0x4
 2127 0074 04       		.byte	0x4
 2128 0075 05       		.byte	0x5
 2129 0076 696E7400 		.ascii	"int\000"
 2130 007a 02       		.uleb128 0x2
 2131 007b 04       		.byte	0x4
 2132 007c 07       		.byte	0x7
 2133 007d 42020000 		.4byte	.LASF10
 2134 0081 03       		.uleb128 0x3
ARM GAS  C:\Users\Sava\AppData\Local\Temp\cc1c2WDS.s 			page 99


 2135 0082 66020000 		.4byte	.LASF11
 2136 0086 03       		.byte	0x3
 2137 0087 18       		.byte	0x18
 2138 0088 2C000000 		.4byte	0x2c
 2139 008c 03       		.uleb128 0x3
 2140 008d FE020000 		.4byte	.LASF12
 2141 0091 03       		.byte	0x3
 2142 0092 30       		.byte	0x30
 2143 0093 53000000 		.4byte	0x53
 2144 0097 02       		.uleb128 0x2
 2145 0098 08       		.byte	0x8
 2146 0099 04       		.byte	0x4
 2147 009a 10030000 		.4byte	.LASF13
 2148 009e 02       		.uleb128 0x2
 2149 009f 04       		.byte	0x4
 2150 00a0 07       		.byte	0x7
 2151 00a1 95020000 		.4byte	.LASF14
 2152 00a5 05       		.uleb128 0x5
 2153 00a6 04       		.byte	0x4
 2154 00a7 02       		.uleb128 0x2
 2155 00a8 01       		.byte	0x1
 2156 00a9 08       		.byte	0x8
 2157 00aa C3020000 		.4byte	.LASF15
 2158 00ae 03       		.uleb128 0x3
 2159 00af 45010000 		.4byte	.LASF16
 2160 00b3 04       		.byte	0x4
 2161 00b4 1E       		.byte	0x1e
 2162 00b5 81000000 		.4byte	0x81
 2163 00b9 06       		.uleb128 0x6
 2164 00ba 0C       		.byte	0xc
 2165 00bb 04       		.byte	0x4
 2166 00bc 21       		.byte	0x21
 2167 00bd E6000000 		.4byte	0xe6
 2168 00c1 07       		.uleb128 0x7
 2169 00c2 2E000000 		.4byte	.LASF17
 2170 00c6 04       		.byte	0x4
 2171 00c7 23       		.byte	0x23
 2172 00c8 8C000000 		.4byte	0x8c
 2173 00cc 00       		.byte	0
 2174 00cd 07       		.uleb128 0x7
 2175 00ce 03010000 		.4byte	.LASF18
 2176 00d2 04       		.byte	0x4
 2177 00d3 24       		.byte	0x24
 2178 00d4 E6000000 		.4byte	0xe6
 2179 00d8 04       		.byte	0x4
 2180 00d9 07       		.uleb128 0x7
 2181 00da DC020000 		.4byte	.LASF19
 2182 00de 04       		.byte	0x4
 2183 00df 25       		.byte	0x25
 2184 00e0 E6000000 		.4byte	0xe6
 2185 00e4 08       		.byte	0x8
 2186 00e5 00       		.byte	0
 2187 00e6 08       		.uleb128 0x8
 2188 00e7 04       		.byte	0x4
 2189 00e8 AE000000 		.4byte	0xae
 2190 00ec 03       		.uleb128 0x3
 2191 00ed 87010000 		.4byte	.LASF20
ARM GAS  C:\Users\Sava\AppData\Local\Temp\cc1c2WDS.s 			page 100


 2192 00f1 04       		.byte	0x4
 2193 00f2 26       		.byte	0x26
 2194 00f3 B9000000 		.4byte	0xb9
 2195 00f7 09       		.uleb128 0x9
 2196 00f8 B8020000 		.4byte	.LASF29
 2197 00fc 01       		.byte	0x1
 2198 00fd 32       		.byte	0x32
 2199 00fe 00000000 		.4byte	.LFB0
 2200 0102 3E000000 		.4byte	.LFE0-.LFB0
 2201 0106 01       		.uleb128 0x1
 2202 0107 9C       		.byte	0x9c
 2203 0108 29010000 		.4byte	0x129
 2204 010c 0A       		.uleb128 0xa
 2205 010d D7020000 		.4byte	.LASF21
 2206 0111 01       		.byte	0x1
 2207 0112 32       		.byte	0x32
 2208 0113 29010000 		.4byte	0x129
 2209 0117 02       		.uleb128 0x2
 2210 0118 91       		.byte	0x91
 2211 0119 74       		.sleb128 -12
 2212 011a 0A       		.uleb128 0xa
 2213 011b 76000000 		.4byte	.LASF22
 2214 011f 01       		.byte	0x1
 2215 0120 32       		.byte	0x32
 2216 0121 8C000000 		.4byte	0x8c
 2217 0125 02       		.uleb128 0x2
 2218 0126 91       		.byte	0x91
 2219 0127 70       		.sleb128 -16
 2220 0128 00       		.byte	0
 2221 0129 08       		.uleb128 0x8
 2222 012a 04       		.byte	0x4
 2223 012b EC000000 		.4byte	0xec
 2224 012f 0B       		.uleb128 0xb
 2225 0130 47030000 		.4byte	.LASF23
 2226 0134 01       		.byte	0x1
 2227 0135 4C       		.byte	0x4c
 2228 0136 A5000000 		.4byte	0xa5
 2229 013a 00000000 		.4byte	.LFB1
 2230 013e 68000000 		.4byte	.LFE1-.LFB1
 2231 0142 01       		.uleb128 0x1
 2232 0143 9C       		.byte	0x9c
 2233 0144 65010000 		.4byte	0x165
 2234 0148 0A       		.uleb128 0xa
 2235 0149 D7020000 		.4byte	.LASF21
 2236 014d 01       		.byte	0x1
 2237 014e 4C       		.byte	0x4c
 2238 014f 29010000 		.4byte	0x129
 2239 0153 02       		.uleb128 0x2
 2240 0154 91       		.byte	0x91
 2241 0155 6C       		.sleb128 -20
 2242 0156 0C       		.uleb128 0xc
 2243 0157 70000000 		.4byte	.LASF26
 2244 015b 01       		.byte	0x1
 2245 015c 4E       		.byte	0x4e
 2246 015d E6000000 		.4byte	0xe6
 2247 0161 02       		.uleb128 0x2
 2248 0162 91       		.byte	0x91
ARM GAS  C:\Users\Sava\AppData\Local\Temp\cc1c2WDS.s 			page 101


 2249 0163 74       		.sleb128 -12
 2250 0164 00       		.byte	0
 2251 0165 0B       		.uleb128 0xb
 2252 0166 61010000 		.4byte	.LASF24
 2253 016a 01       		.byte	0x1
 2254 016b 69       		.byte	0x69
 2255 016c A5000000 		.4byte	0xa5
 2256 0170 00000000 		.4byte	.LFB2
 2257 0174 8E000000 		.4byte	.LFE2-.LFB2
 2258 0178 01       		.uleb128 0x1
 2259 0179 9C       		.byte	0x9c
 2260 017a B7010000 		.4byte	0x1b7
 2261 017e 0A       		.uleb128 0xa
 2262 017f D7020000 		.4byte	.LASF21
 2263 0183 01       		.byte	0x1
 2264 0184 69       		.byte	0x69
 2265 0185 29010000 		.4byte	0x129
 2266 0189 02       		.uleb128 0x2
 2267 018a 91       		.byte	0x91
 2268 018b 6C       		.sleb128 -20
 2269 018c 0A       		.uleb128 0xa
 2270 018d 7D020000 		.4byte	.LASF25
 2271 0191 01       		.byte	0x1
 2272 0192 69       		.byte	0x69
 2273 0193 A5000000 		.4byte	0xa5
 2274 0197 02       		.uleb128 0x2
 2275 0198 91       		.byte	0x91
 2276 0199 68       		.sleb128 -24
 2277 019a 0C       		.uleb128 0xc
 2278 019b 70000000 		.4byte	.LASF26
 2279 019f 01       		.byte	0x1
 2280 01a0 6B       		.byte	0x6b
 2281 01a1 E6000000 		.4byte	0xe6
 2282 01a5 02       		.uleb128 0x2
 2283 01a6 91       		.byte	0x91
 2284 01a7 74       		.sleb128 -12
 2285 01a8 0C       		.uleb128 0xc
 2286 01a9 6E020000 		.4byte	.LASF27
 2287 01ad 01       		.byte	0x1
 2288 01ae 6C       		.byte	0x6c
 2289 01af E6000000 		.4byte	0xe6
 2290 01b3 02       		.uleb128 0x2
 2291 01b4 91       		.byte	0x91
 2292 01b5 70       		.sleb128 -16
 2293 01b6 00       		.byte	0
 2294 01b7 0B       		.uleb128 0xb
 2295 01b8 52010000 		.4byte	.LASF28
 2296 01bc 01       		.byte	0x1
 2297 01bd 86       		.byte	0x86
 2298 01be A5000000 		.4byte	0xa5
 2299 01c2 00000000 		.4byte	.LFB3
 2300 01c6 72000000 		.4byte	.LFE3-.LFB3
 2301 01ca 01       		.uleb128 0x1
 2302 01cb 9C       		.byte	0x9c
 2303 01cc ED010000 		.4byte	0x1ed
 2304 01d0 0A       		.uleb128 0xa
 2305 01d1 D7020000 		.4byte	.LASF21
ARM GAS  C:\Users\Sava\AppData\Local\Temp\cc1c2WDS.s 			page 102


 2306 01d5 01       		.byte	0x1
 2307 01d6 86       		.byte	0x86
 2308 01d7 29010000 		.4byte	0x129
 2309 01db 02       		.uleb128 0x2
 2310 01dc 91       		.byte	0x91
 2311 01dd 6C       		.sleb128 -20
 2312 01de 0C       		.uleb128 0xc
 2313 01df 70000000 		.4byte	.LASF26
 2314 01e3 01       		.byte	0x1
 2315 01e4 88       		.byte	0x88
 2316 01e5 E6000000 		.4byte	0xe6
 2317 01e9 02       		.uleb128 0x2
 2318 01ea 91       		.byte	0x91
 2319 01eb 74       		.sleb128 -12
 2320 01ec 00       		.byte	0
 2321 01ed 0D       		.uleb128 0xd
 2322 01ee 1D000000 		.4byte	.LASF30
 2323 01f2 01       		.byte	0x1
 2324 01f3 A4       		.byte	0xa4
 2325 01f4 00000000 		.4byte	.LFB4
 2326 01f8 B2000000 		.4byte	.LFE4-.LFB4
 2327 01fc 01       		.uleb128 0x1
 2328 01fd 9C       		.byte	0x9c
 2329 01fe 45020000 		.4byte	0x245
 2330 0202 0A       		.uleb128 0xa
 2331 0203 D7020000 		.4byte	.LASF21
 2332 0207 01       		.byte	0x1
 2333 0208 A4       		.byte	0xa4
 2334 0209 29010000 		.4byte	0x129
 2335 020d 02       		.uleb128 0x2
 2336 020e 91       		.byte	0x91
 2337 020f 6C       		.sleb128 -20
 2338 0210 0A       		.uleb128 0xa
 2339 0211 4A000000 		.4byte	.LASF31
 2340 0215 01       		.byte	0x1
 2341 0216 A4       		.byte	0xa4
 2342 0217 A5000000 		.4byte	0xa5
 2343 021b 02       		.uleb128 0x2
 2344 021c 91       		.byte	0x91
 2345 021d 68       		.sleb128 -24
 2346 021e 0E       		.uleb128 0xe
 2347 021f 82000000 		.4byte	.LBB2
 2348 0223 28000000 		.4byte	.LBE2-.LBB2
 2349 0227 0C       		.uleb128 0xc
 2350 0228 6E020000 		.4byte	.LASF27
 2351 022c 01       		.byte	0x1
 2352 022d B7       		.byte	0xb7
 2353 022e E6000000 		.4byte	0xe6
 2354 0232 02       		.uleb128 0x2
 2355 0233 91       		.byte	0x91
 2356 0234 74       		.sleb128 -12
 2357 0235 0C       		.uleb128 0xc
 2358 0236 40030000 		.4byte	.LASF32
 2359 023a 01       		.byte	0x1
 2360 023b B8       		.byte	0xb8
 2361 023c E6000000 		.4byte	0xe6
 2362 0240 02       		.uleb128 0x2
ARM GAS  C:\Users\Sava\AppData\Local\Temp\cc1c2WDS.s 			page 103


 2363 0241 91       		.byte	0x91
 2364 0242 70       		.sleb128 -16
 2365 0243 00       		.byte	0
 2366 0244 00       		.byte	0
 2367 0245 0D       		.uleb128 0xd
 2368 0246 7B010000 		.4byte	.LASF33
 2369 024a 01       		.byte	0x1
 2370 024b C3       		.byte	0xc3
 2371 024c 00000000 		.4byte	.LFB5
 2372 0250 40000000 		.4byte	.LFE5-.LFB5
 2373 0254 01       		.uleb128 0x1
 2374 0255 9C       		.byte	0x9c
 2375 0256 83020000 		.4byte	0x283
 2376 025a 0A       		.uleb128 0xa
 2377 025b D7020000 		.4byte	.LASF21
 2378 025f 01       		.byte	0x1
 2379 0260 C3       		.byte	0xc3
 2380 0261 29010000 		.4byte	0x129
 2381 0265 02       		.uleb128 0x2
 2382 0266 91       		.byte	0x91
 2383 0267 6C       		.sleb128 -20
 2384 0268 0F       		.uleb128 0xf
 2385 0269 6900     		.ascii	"i\000"
 2386 026b 01       		.byte	0x1
 2387 026c C5       		.byte	0xc5
 2388 026d A5000000 		.4byte	0xa5
 2389 0271 02       		.uleb128 0x2
 2390 0272 91       		.byte	0x91
 2391 0273 74       		.sleb128 -12
 2392 0274 0C       		.uleb128 0xc
 2393 0275 27000000 		.4byte	.LASF34
 2394 0279 01       		.byte	0x1
 2395 027a C6       		.byte	0xc6
 2396 027b A5000000 		.4byte	0xa5
 2397 027f 02       		.uleb128 0x2
 2398 0280 91       		.byte	0x91
 2399 0281 70       		.sleb128 -16
 2400 0282 00       		.byte	0
 2401 0283 0D       		.uleb128 0xd
 2402 0284 9E020000 		.4byte	.LASF35
 2403 0288 01       		.byte	0x1
 2404 0289 DB       		.byte	0xdb
 2405 028a 00000000 		.4byte	.LFB6
 2406 028e 5E000000 		.4byte	.LFE6-.LFB6
 2407 0292 01       		.uleb128 0x1
 2408 0293 9C       		.byte	0x9c
 2409 0294 C3020000 		.4byte	0x2c3
 2410 0298 0A       		.uleb128 0xa
 2411 0299 08010000 		.4byte	.LASF36
 2412 029d 01       		.byte	0x1
 2413 029e DB       		.byte	0xdb
 2414 029f 29010000 		.4byte	0x129
 2415 02a3 02       		.uleb128 0x2
 2416 02a4 91       		.byte	0x91
 2417 02a5 74       		.sleb128 -12
 2418 02a6 0A       		.uleb128 0xa
 2419 02a7 5E000000 		.4byte	.LASF37
ARM GAS  C:\Users\Sava\AppData\Local\Temp\cc1c2WDS.s 			page 104


 2420 02ab 01       		.byte	0x1
 2421 02ac DB       		.byte	0xdb
 2422 02ad 29010000 		.4byte	0x129
 2423 02b1 02       		.uleb128 0x2
 2424 02b2 91       		.byte	0x91
 2425 02b3 70       		.sleb128 -16
 2426 02b4 0A       		.uleb128 0xa
 2427 02b5 0E000000 		.4byte	.LASF38
 2428 02b9 01       		.byte	0x1
 2429 02ba DB       		.byte	0xdb
 2430 02bb A5000000 		.4byte	0xa5
 2431 02bf 02       		.uleb128 0x2
 2432 02c0 91       		.byte	0x91
 2433 02c1 6C       		.sleb128 -20
 2434 02c2 00       		.byte	0
 2435 02c3 10       		.uleb128 0x10
 2436 02c4 E1020000 		.4byte	.LASF39
 2437 02c8 01       		.byte	0x1
 2438 02c9 F2       		.byte	0xf2
 2439 02ca A5000000 		.4byte	0xa5
 2440 02ce 00000000 		.4byte	.LFB7
 2441 02d2 24000000 		.4byte	.LFE7-.LFB7
 2442 02d6 01       		.uleb128 0x1
 2443 02d7 9C       		.byte	0x9c
 2444 02d8 F9020000 		.4byte	0x2f9
 2445 02dc 0A       		.uleb128 0xa
 2446 02dd D7020000 		.4byte	.LASF21
 2447 02e1 01       		.byte	0x1
 2448 02e2 F2       		.byte	0xf2
 2449 02e3 F9020000 		.4byte	0x2f9
 2450 02e7 02       		.uleb128 0x2
 2451 02e8 91       		.byte	0x91
 2452 02e9 6C       		.sleb128 -20
 2453 02ea 0C       		.uleb128 0xc
 2454 02eb 03010000 		.4byte	.LASF18
 2455 02ef 01       		.byte	0x1
 2456 02f0 F4       		.byte	0xf4
 2457 02f1 A5000000 		.4byte	0xa5
 2458 02f5 02       		.uleb128 0x2
 2459 02f6 91       		.byte	0x91
 2460 02f7 74       		.sleb128 -12
 2461 02f8 00       		.byte	0
 2462 02f9 08       		.uleb128 0x8
 2463 02fa 04       		.byte	0x4
 2464 02fb FF020000 		.4byte	0x2ff
 2465 02ff 11       		.uleb128 0x11
 2466 0300 EC000000 		.4byte	0xec
 2467 0304 12       		.uleb128 0x12
 2468 0305 D7000000 		.4byte	.LASF40
 2469 0309 01       		.byte	0x1
 2470 030a 0201     		.2byte	0x102
 2471 030c A5000000 		.4byte	0xa5
 2472 0310 00000000 		.4byte	.LFB8
 2473 0314 24000000 		.4byte	.LFE8-.LFB8
 2474 0318 01       		.uleb128 0x1
 2475 0319 9C       		.byte	0x9c
 2476 031a 3D030000 		.4byte	0x33d
ARM GAS  C:\Users\Sava\AppData\Local\Temp\cc1c2WDS.s 			page 105


 2477 031e 13       		.uleb128 0x13
 2478 031f D7020000 		.4byte	.LASF21
 2479 0323 01       		.byte	0x1
 2480 0324 0201     		.2byte	0x102
 2481 0326 F9020000 		.4byte	0x2f9
 2482 032a 02       		.uleb128 0x2
 2483 032b 91       		.byte	0x91
 2484 032c 6C       		.sleb128 -20
 2485 032d 14       		.uleb128 0x14
 2486 032e DC020000 		.4byte	.LASF19
 2487 0332 01       		.byte	0x1
 2488 0333 0401     		.2byte	0x104
 2489 0335 A5000000 		.4byte	0xa5
 2490 0339 02       		.uleb128 0x2
 2491 033a 91       		.byte	0x91
 2492 033b 74       		.sleb128 -12
 2493 033c 00       		.byte	0
 2494 033d 15       		.uleb128 0x15
 2495 033e 36010000 		.4byte	.LASF41
 2496 0342 01       		.byte	0x1
 2497 0343 1301     		.2byte	0x113
 2498 0345 A5000000 		.4byte	0xa5
 2499 0349 00000000 		.4byte	.LFB9
 2500 034d 38000000 		.4byte	.LFE9-.LFB9
 2501 0351 01       		.uleb128 0x1
 2502 0352 9C       		.byte	0x9c
 2503 0353 9E030000 		.4byte	0x39e
 2504 0357 13       		.uleb128 0x13
 2505 0358 D7020000 		.4byte	.LASF21
 2506 035c 01       		.byte	0x1
 2507 035d 1301     		.2byte	0x113
 2508 035f F9020000 		.4byte	0x2f9
 2509 0363 02       		.uleb128 0x2
 2510 0364 91       		.byte	0x91
 2511 0365 6C       		.sleb128 -20
 2512 0366 13       		.uleb128 0x13
 2513 0367 7D020000 		.4byte	.LASF25
 2514 036b 01       		.byte	0x1
 2515 036c 1301     		.2byte	0x113
 2516 036e 9E030000 		.4byte	0x39e
 2517 0372 02       		.uleb128 0x2
 2518 0373 91       		.byte	0x91
 2519 0374 68       		.sleb128 -24
 2520 0375 14       		.uleb128 0x14
 2521 0376 28030000 		.4byte	.LASF42
 2522 037a 01       		.byte	0x1
 2523 037b 1501     		.2byte	0x115
 2524 037d A5000000 		.4byte	0xa5
 2525 0381 02       		.uleb128 0x2
 2526 0382 91       		.byte	0x91
 2527 0383 70       		.sleb128 -16
 2528 0384 0E       		.uleb128 0xe
 2529 0385 14000000 		.4byte	.LBB3
 2530 0389 1A000000 		.4byte	.LBE3-.LBB3
 2531 038d 14       		.uleb128 0x14
 2532 038e 75020000 		.4byte	.LASF43
 2533 0392 01       		.byte	0x1
ARM GAS  C:\Users\Sava\AppData\Local\Temp\cc1c2WDS.s 			page 106


 2534 0393 1801     		.2byte	0x118
 2535 0395 A5030000 		.4byte	0x3a5
 2536 0399 02       		.uleb128 0x2
 2537 039a 91       		.byte	0x91
 2538 039b 74       		.sleb128 -12
 2539 039c 00       		.byte	0
 2540 039d 00       		.byte	0
 2541 039e 08       		.uleb128 0x8
 2542 039f 04       		.byte	0x4
 2543 03a0 A4030000 		.4byte	0x3a4
 2544 03a4 16       		.uleb128 0x16
 2545 03a5 08       		.uleb128 0x8
 2546 03a6 04       		.byte	0x4
 2547 03a7 AB030000 		.4byte	0x3ab
 2548 03ab 11       		.uleb128 0x11
 2549 03ac AE000000 		.4byte	0xae
 2550 03b0 15       		.uleb128 0x15
 2551 03b1 E6000000 		.4byte	.LASF44
 2552 03b5 01       		.byte	0x1
 2553 03b6 2501     		.2byte	0x125
 2554 03b8 A5000000 		.4byte	0xa5
 2555 03bc 00000000 		.4byte	.LFB10
 2556 03c0 36000000 		.4byte	.LFE10-.LFB10
 2557 03c4 01       		.uleb128 0x1
 2558 03c5 9C       		.byte	0x9c
 2559 03c6 11040000 		.4byte	0x411
 2560 03ca 13       		.uleb128 0x13
 2561 03cb D7020000 		.4byte	.LASF21
 2562 03cf 01       		.byte	0x1
 2563 03d0 2501     		.2byte	0x125
 2564 03d2 F9020000 		.4byte	0x2f9
 2565 03d6 02       		.uleb128 0x2
 2566 03d7 91       		.byte	0x91
 2567 03d8 6C       		.sleb128 -20
 2568 03d9 13       		.uleb128 0x13
 2569 03da 7D020000 		.4byte	.LASF25
 2570 03de 01       		.byte	0x1
 2571 03df 2501     		.2byte	0x125
 2572 03e1 9E030000 		.4byte	0x39e
 2573 03e5 02       		.uleb128 0x2
 2574 03e6 91       		.byte	0x91
 2575 03e7 68       		.sleb128 -24
 2576 03e8 14       		.uleb128 0x14
 2577 03e9 3B030000 		.4byte	.LASF45
 2578 03ed 01       		.byte	0x1
 2579 03ee 2701     		.2byte	0x127
 2580 03f0 A5000000 		.4byte	0xa5
 2581 03f4 02       		.uleb128 0x2
 2582 03f5 91       		.byte	0x91
 2583 03f6 70       		.sleb128 -16
 2584 03f7 0E       		.uleb128 0xe
 2585 03f8 14000000 		.4byte	.LBB4
 2586 03fc 18000000 		.4byte	.LBE4-.LBB4
 2587 0400 14       		.uleb128 0x14
 2588 0401 75020000 		.4byte	.LASF43
 2589 0405 01       		.byte	0x1
 2590 0406 2A01     		.2byte	0x12a
ARM GAS  C:\Users\Sava\AppData\Local\Temp\cc1c2WDS.s 			page 107


 2591 0408 A5030000 		.4byte	0x3a5
 2592 040c 02       		.uleb128 0x2
 2593 040d 91       		.byte	0x91
 2594 040e 74       		.sleb128 -12
 2595 040f 00       		.byte	0
 2596 0410 00       		.byte	0
 2597 0411 17       		.uleb128 0x17
 2598 0412 AD020000 		.4byte	.LASF46
 2599 0416 01       		.byte	0x1
 2600 0417 3101     		.2byte	0x131
 2601 0419 00000000 		.4byte	.LFB11
 2602 041d 16000000 		.4byte	.LFE11-.LFB11
 2603 0421 01       		.uleb128 0x1
 2604 0422 9C       		.byte	0x9c
 2605 0423 55040000 		.4byte	0x455
 2606 0427 13       		.uleb128 0x13
 2607 0428 D7020000 		.4byte	.LASF21
 2608 042c 01       		.byte	0x1
 2609 042d 3101     		.2byte	0x131
 2610 042f 29010000 		.4byte	0x129
 2611 0433 02       		.uleb128 0x2
 2612 0434 91       		.byte	0x91
 2613 0435 74       		.sleb128 -12
 2614 0436 13       		.uleb128 0x13
 2615 0437 D2020000 		.4byte	.LASF47
 2616 043b 01       		.byte	0x1
 2617 043c 3101     		.2byte	0x131
 2618 043e A5000000 		.4byte	0xa5
 2619 0442 02       		.uleb128 0x2
 2620 0443 91       		.byte	0x91
 2621 0444 70       		.sleb128 -16
 2622 0445 13       		.uleb128 0x13
 2623 0446 51000000 		.4byte	.LASF48
 2624 044a 01       		.byte	0x1
 2625 044b 3101     		.2byte	0x131
 2626 044d A5000000 		.4byte	0xa5
 2627 0451 02       		.uleb128 0x2
 2628 0452 91       		.byte	0x91
 2629 0453 6C       		.sleb128 -20
 2630 0454 00       		.byte	0
 2631 0455 18       		.uleb128 0x18
 2632 0456 83020000 		.4byte	.LASF49
 2633 045a 01       		.byte	0x1
 2634 045b 3F01     		.2byte	0x13f
 2635 045d 00000000 		.4byte	.LFB12
 2636 0461 80000000 		.4byte	.LFE12-.LFB12
 2637 0465 01       		.uleb128 0x1
 2638 0466 9C       		.byte	0x9c
 2639 0467 A8040000 		.4byte	0x4a8
 2640 046b 13       		.uleb128 0x13
 2641 046c D7020000 		.4byte	.LASF21
 2642 0470 01       		.byte	0x1
 2643 0471 3F01     		.2byte	0x13f
 2644 0473 29010000 		.4byte	0x129
 2645 0477 02       		.uleb128 0x2
 2646 0478 91       		.byte	0x91
 2647 0479 6C       		.sleb128 -20
ARM GAS  C:\Users\Sava\AppData\Local\Temp\cc1c2WDS.s 			page 108


 2648 047a 13       		.uleb128 0x13
 2649 047b 7D020000 		.4byte	.LASF25
 2650 047f 01       		.byte	0x1
 2651 0480 3F01     		.2byte	0x13f
 2652 0482 A5000000 		.4byte	0xa5
 2653 0486 02       		.uleb128 0x2
 2654 0487 91       		.byte	0x91
 2655 0488 68       		.sleb128 -24
 2656 0489 13       		.uleb128 0x13
 2657 048a 56000000 		.4byte	.LASF50
 2658 048e 01       		.byte	0x1
 2659 048f 3F01     		.2byte	0x13f
 2660 0491 A5000000 		.4byte	0xa5
 2661 0495 02       		.uleb128 0x2
 2662 0496 91       		.byte	0x91
 2663 0497 64       		.sleb128 -28
 2664 0498 14       		.uleb128 0x14
 2665 0499 67000000 		.4byte	.LASF51
 2666 049d 01       		.byte	0x1
 2667 049e 4401     		.2byte	0x144
 2668 04a0 A5000000 		.4byte	0xa5
 2669 04a4 02       		.uleb128 0x2
 2670 04a5 91       		.byte	0x91
 2671 04a6 74       		.sleb128 -12
 2672 04a7 00       		.byte	0
 2673 04a8 19       		.uleb128 0x19
 2674 04a9 F0020000 		.4byte	.LASF56
 2675 04ad 01       		.byte	0x1
 2676 04ae 6101     		.2byte	0x161
 2677 04b0 00000000 		.4byte	.LFB13
 2678 04b4 4C000000 		.4byte	.LFE13-.LFB13
 2679 04b8 01       		.uleb128 0x1
 2680 04b9 9C       		.byte	0x9c
 2681 04ba FB040000 		.4byte	0x4fb
 2682 04be 13       		.uleb128 0x13
 2683 04bf D7020000 		.4byte	.LASF21
 2684 04c3 01       		.byte	0x1
 2685 04c4 6101     		.2byte	0x161
 2686 04c6 29010000 		.4byte	0x129
 2687 04ca 02       		.uleb128 0x2
 2688 04cb 91       		.byte	0x91
 2689 04cc 6C       		.sleb128 -20
 2690 04cd 1A       		.uleb128 0x1a
 2691 04ce 61637400 		.ascii	"act\000"
 2692 04d2 01       		.byte	0x1
 2693 04d3 6101     		.2byte	0x161
 2694 04d5 E6000000 		.4byte	0xe6
 2695 04d9 02       		.uleb128 0x2
 2696 04da 91       		.byte	0x91
 2697 04db 68       		.sleb128 -24
 2698 04dc 13       		.uleb128 0x13
 2699 04dd 3B030000 		.4byte	.LASF45
 2700 04e1 01       		.byte	0x1
 2701 04e2 6101     		.2byte	0x161
 2702 04e4 E6000000 		.4byte	0xe6
 2703 04e8 02       		.uleb128 0x2
 2704 04e9 91       		.byte	0x91
ARM GAS  C:\Users\Sava\AppData\Local\Temp\cc1c2WDS.s 			page 109


 2705 04ea 64       		.sleb128 -28
 2706 04eb 14       		.uleb128 0x14
 2707 04ec 8F010000 		.4byte	.LASF52
 2708 04f0 01       		.byte	0x1
 2709 04f1 6501     		.2byte	0x165
 2710 04f3 8C000000 		.4byte	0x8c
 2711 04f7 02       		.uleb128 0x2
 2712 04f8 91       		.byte	0x91
 2713 04f9 74       		.sleb128 -12
 2714 04fa 00       		.byte	0
 2715 04fb 1B       		.uleb128 0x1b
 2716 04fc 2D030000 		.4byte	.LASF57
 2717 0500 01       		.byte	0x1
 2718 0501 7001     		.2byte	0x170
 2719 0503 00000000 		.4byte	.LFB14
 2720 0507 50000000 		.4byte	.LFE14-.LFB14
 2721 050b 01       		.uleb128 0x1
 2722 050c 9C       		.byte	0x9c
 2723 050d 13       		.uleb128 0x13
 2724 050e D7020000 		.4byte	.LASF21
 2725 0512 01       		.byte	0x1
 2726 0513 7001     		.2byte	0x170
 2727 0515 29010000 		.4byte	0x129
 2728 0519 02       		.uleb128 0x2
 2729 051a 91       		.byte	0x91
 2730 051b 6C       		.sleb128 -20
 2731 051c 1A       		.uleb128 0x1a
 2732 051d 61637400 		.ascii	"act\000"
 2733 0521 01       		.byte	0x1
 2734 0522 7001     		.2byte	0x170
 2735 0524 E6000000 		.4byte	0xe6
 2736 0528 02       		.uleb128 0x2
 2737 0529 91       		.byte	0x91
 2738 052a 68       		.sleb128 -24
 2739 052b 13       		.uleb128 0x13
 2740 052c 28030000 		.4byte	.LASF42
 2741 0530 01       		.byte	0x1
 2742 0531 7001     		.2byte	0x170
 2743 0533 E6000000 		.4byte	0xe6
 2744 0537 02       		.uleb128 0x2
 2745 0538 91       		.byte	0x91
 2746 0539 64       		.sleb128 -28
 2747 053a 14       		.uleb128 0x14
 2748 053b 8F010000 		.4byte	.LASF52
 2749 053f 01       		.byte	0x1
 2750 0540 7401     		.2byte	0x174
 2751 0542 8C000000 		.4byte	0x8c
 2752 0546 02       		.uleb128 0x2
 2753 0547 91       		.byte	0x91
 2754 0548 74       		.sleb128 -12
 2755 0549 00       		.byte	0
 2756 054a 00       		.byte	0
 2757              		.section	.debug_abbrev,"",%progbits
 2758              	.Ldebug_abbrev0:
 2759 0000 01       		.uleb128 0x1
 2760 0001 11       		.uleb128 0x11
 2761 0002 01       		.byte	0x1
ARM GAS  C:\Users\Sava\AppData\Local\Temp\cc1c2WDS.s 			page 110


 2762 0003 25       		.uleb128 0x25
 2763 0004 0E       		.uleb128 0xe
 2764 0005 13       		.uleb128 0x13
 2765 0006 0B       		.uleb128 0xb
 2766 0007 03       		.uleb128 0x3
 2767 0008 0E       		.uleb128 0xe
 2768 0009 1B       		.uleb128 0x1b
 2769 000a 0E       		.uleb128 0xe
 2770 000b 55       		.uleb128 0x55
 2771 000c 17       		.uleb128 0x17
 2772 000d 11       		.uleb128 0x11
 2773 000e 01       		.uleb128 0x1
 2774 000f 10       		.uleb128 0x10
 2775 0010 17       		.uleb128 0x17
 2776 0011 00       		.byte	0
 2777 0012 00       		.byte	0
 2778 0013 02       		.uleb128 0x2
 2779 0014 24       		.uleb128 0x24
 2780 0015 00       		.byte	0
 2781 0016 0B       		.uleb128 0xb
 2782 0017 0B       		.uleb128 0xb
 2783 0018 3E       		.uleb128 0x3e
 2784 0019 0B       		.uleb128 0xb
 2785 001a 03       		.uleb128 0x3
 2786 001b 0E       		.uleb128 0xe
 2787 001c 00       		.byte	0
 2788 001d 00       		.byte	0
 2789 001e 03       		.uleb128 0x3
 2790 001f 16       		.uleb128 0x16
 2791 0020 00       		.byte	0
 2792 0021 03       		.uleb128 0x3
 2793 0022 0E       		.uleb128 0xe
 2794 0023 3A       		.uleb128 0x3a
 2795 0024 0B       		.uleb128 0xb
 2796 0025 3B       		.uleb128 0x3b
 2797 0026 0B       		.uleb128 0xb
 2798 0027 49       		.uleb128 0x49
 2799 0028 13       		.uleb128 0x13
 2800 0029 00       		.byte	0
 2801 002a 00       		.byte	0
 2802 002b 04       		.uleb128 0x4
 2803 002c 24       		.uleb128 0x24
 2804 002d 00       		.byte	0
 2805 002e 0B       		.uleb128 0xb
 2806 002f 0B       		.uleb128 0xb
 2807 0030 3E       		.uleb128 0x3e
 2808 0031 0B       		.uleb128 0xb
 2809 0032 03       		.uleb128 0x3
 2810 0033 08       		.uleb128 0x8
 2811 0034 00       		.byte	0
 2812 0035 00       		.byte	0
 2813 0036 05       		.uleb128 0x5
 2814 0037 0F       		.uleb128 0xf
 2815 0038 00       		.byte	0
 2816 0039 0B       		.uleb128 0xb
 2817 003a 0B       		.uleb128 0xb
 2818 003b 00       		.byte	0
ARM GAS  C:\Users\Sava\AppData\Local\Temp\cc1c2WDS.s 			page 111


 2819 003c 00       		.byte	0
 2820 003d 06       		.uleb128 0x6
 2821 003e 13       		.uleb128 0x13
 2822 003f 01       		.byte	0x1
 2823 0040 0B       		.uleb128 0xb
 2824 0041 0B       		.uleb128 0xb
 2825 0042 3A       		.uleb128 0x3a
 2826 0043 0B       		.uleb128 0xb
 2827 0044 3B       		.uleb128 0x3b
 2828 0045 0B       		.uleb128 0xb
 2829 0046 01       		.uleb128 0x1
 2830 0047 13       		.uleb128 0x13
 2831 0048 00       		.byte	0
 2832 0049 00       		.byte	0
 2833 004a 07       		.uleb128 0x7
 2834 004b 0D       		.uleb128 0xd
 2835 004c 00       		.byte	0
 2836 004d 03       		.uleb128 0x3
 2837 004e 0E       		.uleb128 0xe
 2838 004f 3A       		.uleb128 0x3a
 2839 0050 0B       		.uleb128 0xb
 2840 0051 3B       		.uleb128 0x3b
 2841 0052 0B       		.uleb128 0xb
 2842 0053 49       		.uleb128 0x49
 2843 0054 13       		.uleb128 0x13
 2844 0055 38       		.uleb128 0x38
 2845 0056 0B       		.uleb128 0xb
 2846 0057 00       		.byte	0
 2847 0058 00       		.byte	0
 2848 0059 08       		.uleb128 0x8
 2849 005a 0F       		.uleb128 0xf
 2850 005b 00       		.byte	0
 2851 005c 0B       		.uleb128 0xb
 2852 005d 0B       		.uleb128 0xb
 2853 005e 49       		.uleb128 0x49
 2854 005f 13       		.uleb128 0x13
 2855 0060 00       		.byte	0
 2856 0061 00       		.byte	0
 2857 0062 09       		.uleb128 0x9
 2858 0063 2E       		.uleb128 0x2e
 2859 0064 01       		.byte	0x1
 2860 0065 3F       		.uleb128 0x3f
 2861 0066 19       		.uleb128 0x19
 2862 0067 03       		.uleb128 0x3
 2863 0068 0E       		.uleb128 0xe
 2864 0069 3A       		.uleb128 0x3a
 2865 006a 0B       		.uleb128 0xb
 2866 006b 3B       		.uleb128 0x3b
 2867 006c 0B       		.uleb128 0xb
 2868 006d 27       		.uleb128 0x27
 2869 006e 19       		.uleb128 0x19
 2870 006f 11       		.uleb128 0x11
 2871 0070 01       		.uleb128 0x1
 2872 0071 12       		.uleb128 0x12
 2873 0072 06       		.uleb128 0x6
 2874 0073 40       		.uleb128 0x40
 2875 0074 18       		.uleb128 0x18
ARM GAS  C:\Users\Sava\AppData\Local\Temp\cc1c2WDS.s 			page 112


 2876 0075 9742     		.uleb128 0x2117
 2877 0077 19       		.uleb128 0x19
 2878 0078 01       		.uleb128 0x1
 2879 0079 13       		.uleb128 0x13
 2880 007a 00       		.byte	0
 2881 007b 00       		.byte	0
 2882 007c 0A       		.uleb128 0xa
 2883 007d 05       		.uleb128 0x5
 2884 007e 00       		.byte	0
 2885 007f 03       		.uleb128 0x3
 2886 0080 0E       		.uleb128 0xe
 2887 0081 3A       		.uleb128 0x3a
 2888 0082 0B       		.uleb128 0xb
 2889 0083 3B       		.uleb128 0x3b
 2890 0084 0B       		.uleb128 0xb
 2891 0085 49       		.uleb128 0x49
 2892 0086 13       		.uleb128 0x13
 2893 0087 02       		.uleb128 0x2
 2894 0088 18       		.uleb128 0x18
 2895 0089 00       		.byte	0
 2896 008a 00       		.byte	0
 2897 008b 0B       		.uleb128 0xb
 2898 008c 2E       		.uleb128 0x2e
 2899 008d 01       		.byte	0x1
 2900 008e 3F       		.uleb128 0x3f
 2901 008f 19       		.uleb128 0x19
 2902 0090 03       		.uleb128 0x3
 2903 0091 0E       		.uleb128 0xe
 2904 0092 3A       		.uleb128 0x3a
 2905 0093 0B       		.uleb128 0xb
 2906 0094 3B       		.uleb128 0x3b
 2907 0095 0B       		.uleb128 0xb
 2908 0096 27       		.uleb128 0x27
 2909 0097 19       		.uleb128 0x19
 2910 0098 49       		.uleb128 0x49
 2911 0099 13       		.uleb128 0x13
 2912 009a 11       		.uleb128 0x11
 2913 009b 01       		.uleb128 0x1
 2914 009c 12       		.uleb128 0x12
 2915 009d 06       		.uleb128 0x6
 2916 009e 40       		.uleb128 0x40
 2917 009f 18       		.uleb128 0x18
 2918 00a0 9642     		.uleb128 0x2116
 2919 00a2 19       		.uleb128 0x19
 2920 00a3 01       		.uleb128 0x1
 2921 00a4 13       		.uleb128 0x13
 2922 00a5 00       		.byte	0
 2923 00a6 00       		.byte	0
 2924 00a7 0C       		.uleb128 0xc
 2925 00a8 34       		.uleb128 0x34
 2926 00a9 00       		.byte	0
 2927 00aa 03       		.uleb128 0x3
 2928 00ab 0E       		.uleb128 0xe
 2929 00ac 3A       		.uleb128 0x3a
 2930 00ad 0B       		.uleb128 0xb
 2931 00ae 3B       		.uleb128 0x3b
 2932 00af 0B       		.uleb128 0xb
ARM GAS  C:\Users\Sava\AppData\Local\Temp\cc1c2WDS.s 			page 113


 2933 00b0 49       		.uleb128 0x49
 2934 00b1 13       		.uleb128 0x13
 2935 00b2 02       		.uleb128 0x2
 2936 00b3 18       		.uleb128 0x18
 2937 00b4 00       		.byte	0
 2938 00b5 00       		.byte	0
 2939 00b6 0D       		.uleb128 0xd
 2940 00b7 2E       		.uleb128 0x2e
 2941 00b8 01       		.byte	0x1
 2942 00b9 3F       		.uleb128 0x3f
 2943 00ba 19       		.uleb128 0x19
 2944 00bb 03       		.uleb128 0x3
 2945 00bc 0E       		.uleb128 0xe
 2946 00bd 3A       		.uleb128 0x3a
 2947 00be 0B       		.uleb128 0xb
 2948 00bf 3B       		.uleb128 0x3b
 2949 00c0 0B       		.uleb128 0xb
 2950 00c1 27       		.uleb128 0x27
 2951 00c2 19       		.uleb128 0x19
 2952 00c3 11       		.uleb128 0x11
 2953 00c4 01       		.uleb128 0x1
 2954 00c5 12       		.uleb128 0x12
 2955 00c6 06       		.uleb128 0x6
 2956 00c7 40       		.uleb128 0x40
 2957 00c8 18       		.uleb128 0x18
 2958 00c9 9642     		.uleb128 0x2116
 2959 00cb 19       		.uleb128 0x19
 2960 00cc 01       		.uleb128 0x1
 2961 00cd 13       		.uleb128 0x13
 2962 00ce 00       		.byte	0
 2963 00cf 00       		.byte	0
 2964 00d0 0E       		.uleb128 0xe
 2965 00d1 0B       		.uleb128 0xb
 2966 00d2 01       		.byte	0x1
 2967 00d3 11       		.uleb128 0x11
 2968 00d4 01       		.uleb128 0x1
 2969 00d5 12       		.uleb128 0x12
 2970 00d6 06       		.uleb128 0x6
 2971 00d7 00       		.byte	0
 2972 00d8 00       		.byte	0
 2973 00d9 0F       		.uleb128 0xf
 2974 00da 34       		.uleb128 0x34
 2975 00db 00       		.byte	0
 2976 00dc 03       		.uleb128 0x3
 2977 00dd 08       		.uleb128 0x8
 2978 00de 3A       		.uleb128 0x3a
 2979 00df 0B       		.uleb128 0xb
 2980 00e0 3B       		.uleb128 0x3b
 2981 00e1 0B       		.uleb128 0xb
 2982 00e2 49       		.uleb128 0x49
 2983 00e3 13       		.uleb128 0x13
 2984 00e4 02       		.uleb128 0x2
 2985 00e5 18       		.uleb128 0x18
 2986 00e6 00       		.byte	0
 2987 00e7 00       		.byte	0
 2988 00e8 10       		.uleb128 0x10
 2989 00e9 2E       		.uleb128 0x2e
ARM GAS  C:\Users\Sava\AppData\Local\Temp\cc1c2WDS.s 			page 114


 2990 00ea 01       		.byte	0x1
 2991 00eb 3F       		.uleb128 0x3f
 2992 00ec 19       		.uleb128 0x19
 2993 00ed 03       		.uleb128 0x3
 2994 00ee 0E       		.uleb128 0xe
 2995 00ef 3A       		.uleb128 0x3a
 2996 00f0 0B       		.uleb128 0xb
 2997 00f1 3B       		.uleb128 0x3b
 2998 00f2 0B       		.uleb128 0xb
 2999 00f3 27       		.uleb128 0x27
 3000 00f4 19       		.uleb128 0x19
 3001 00f5 49       		.uleb128 0x49
 3002 00f6 13       		.uleb128 0x13
 3003 00f7 11       		.uleb128 0x11
 3004 00f8 01       		.uleb128 0x1
 3005 00f9 12       		.uleb128 0x12
 3006 00fa 06       		.uleb128 0x6
 3007 00fb 40       		.uleb128 0x40
 3008 00fc 18       		.uleb128 0x18
 3009 00fd 9742     		.uleb128 0x2117
 3010 00ff 19       		.uleb128 0x19
 3011 0100 01       		.uleb128 0x1
 3012 0101 13       		.uleb128 0x13
 3013 0102 00       		.byte	0
 3014 0103 00       		.byte	0
 3015 0104 11       		.uleb128 0x11
 3016 0105 26       		.uleb128 0x26
 3017 0106 00       		.byte	0
 3018 0107 49       		.uleb128 0x49
 3019 0108 13       		.uleb128 0x13
 3020 0109 00       		.byte	0
 3021 010a 00       		.byte	0
 3022 010b 12       		.uleb128 0x12
 3023 010c 2E       		.uleb128 0x2e
 3024 010d 01       		.byte	0x1
 3025 010e 3F       		.uleb128 0x3f
 3026 010f 19       		.uleb128 0x19
 3027 0110 03       		.uleb128 0x3
 3028 0111 0E       		.uleb128 0xe
 3029 0112 3A       		.uleb128 0x3a
 3030 0113 0B       		.uleb128 0xb
 3031 0114 3B       		.uleb128 0x3b
 3032 0115 05       		.uleb128 0x5
 3033 0116 27       		.uleb128 0x27
 3034 0117 19       		.uleb128 0x19
 3035 0118 49       		.uleb128 0x49
 3036 0119 13       		.uleb128 0x13
 3037 011a 11       		.uleb128 0x11
 3038 011b 01       		.uleb128 0x1
 3039 011c 12       		.uleb128 0x12
 3040 011d 06       		.uleb128 0x6
 3041 011e 40       		.uleb128 0x40
 3042 011f 18       		.uleb128 0x18
 3043 0120 9742     		.uleb128 0x2117
 3044 0122 19       		.uleb128 0x19
 3045 0123 01       		.uleb128 0x1
 3046 0124 13       		.uleb128 0x13
ARM GAS  C:\Users\Sava\AppData\Local\Temp\cc1c2WDS.s 			page 115


 3047 0125 00       		.byte	0
 3048 0126 00       		.byte	0
 3049 0127 13       		.uleb128 0x13
 3050 0128 05       		.uleb128 0x5
 3051 0129 00       		.byte	0
 3052 012a 03       		.uleb128 0x3
 3053 012b 0E       		.uleb128 0xe
 3054 012c 3A       		.uleb128 0x3a
 3055 012d 0B       		.uleb128 0xb
 3056 012e 3B       		.uleb128 0x3b
 3057 012f 05       		.uleb128 0x5
 3058 0130 49       		.uleb128 0x49
 3059 0131 13       		.uleb128 0x13
 3060 0132 02       		.uleb128 0x2
 3061 0133 18       		.uleb128 0x18
 3062 0134 00       		.byte	0
 3063 0135 00       		.byte	0
 3064 0136 14       		.uleb128 0x14
 3065 0137 34       		.uleb128 0x34
 3066 0138 00       		.byte	0
 3067 0139 03       		.uleb128 0x3
 3068 013a 0E       		.uleb128 0xe
 3069 013b 3A       		.uleb128 0x3a
 3070 013c 0B       		.uleb128 0xb
 3071 013d 3B       		.uleb128 0x3b
 3072 013e 05       		.uleb128 0x5
 3073 013f 49       		.uleb128 0x49
 3074 0140 13       		.uleb128 0x13
 3075 0141 02       		.uleb128 0x2
 3076 0142 18       		.uleb128 0x18
 3077 0143 00       		.byte	0
 3078 0144 00       		.byte	0
 3079 0145 15       		.uleb128 0x15
 3080 0146 2E       		.uleb128 0x2e
 3081 0147 01       		.byte	0x1
 3082 0148 3F       		.uleb128 0x3f
 3083 0149 19       		.uleb128 0x19
 3084 014a 03       		.uleb128 0x3
 3085 014b 0E       		.uleb128 0xe
 3086 014c 3A       		.uleb128 0x3a
 3087 014d 0B       		.uleb128 0xb
 3088 014e 3B       		.uleb128 0x3b
 3089 014f 05       		.uleb128 0x5
 3090 0150 27       		.uleb128 0x27
 3091 0151 19       		.uleb128 0x19
 3092 0152 49       		.uleb128 0x49
 3093 0153 13       		.uleb128 0x13
 3094 0154 11       		.uleb128 0x11
 3095 0155 01       		.uleb128 0x1
 3096 0156 12       		.uleb128 0x12
 3097 0157 06       		.uleb128 0x6
 3098 0158 40       		.uleb128 0x40
 3099 0159 18       		.uleb128 0x18
 3100 015a 9642     		.uleb128 0x2116
 3101 015c 19       		.uleb128 0x19
 3102 015d 01       		.uleb128 0x1
 3103 015e 13       		.uleb128 0x13
ARM GAS  C:\Users\Sava\AppData\Local\Temp\cc1c2WDS.s 			page 116


 3104 015f 00       		.byte	0
 3105 0160 00       		.byte	0
 3106 0161 16       		.uleb128 0x16
 3107 0162 26       		.uleb128 0x26
 3108 0163 00       		.byte	0
 3109 0164 00       		.byte	0
 3110 0165 00       		.byte	0
 3111 0166 17       		.uleb128 0x17
 3112 0167 2E       		.uleb128 0x2e
 3113 0168 01       		.byte	0x1
 3114 0169 3F       		.uleb128 0x3f
 3115 016a 19       		.uleb128 0x19
 3116 016b 03       		.uleb128 0x3
 3117 016c 0E       		.uleb128 0xe
 3118 016d 3A       		.uleb128 0x3a
 3119 016e 0B       		.uleb128 0xb
 3120 016f 3B       		.uleb128 0x3b
 3121 0170 05       		.uleb128 0x5
 3122 0171 27       		.uleb128 0x27
 3123 0172 19       		.uleb128 0x19
 3124 0173 11       		.uleb128 0x11
 3125 0174 01       		.uleb128 0x1
 3126 0175 12       		.uleb128 0x12
 3127 0176 06       		.uleb128 0x6
 3128 0177 40       		.uleb128 0x40
 3129 0178 18       		.uleb128 0x18
 3130 0179 9742     		.uleb128 0x2117
 3131 017b 19       		.uleb128 0x19
 3132 017c 01       		.uleb128 0x1
 3133 017d 13       		.uleb128 0x13
 3134 017e 00       		.byte	0
 3135 017f 00       		.byte	0
 3136 0180 18       		.uleb128 0x18
 3137 0181 2E       		.uleb128 0x2e
 3138 0182 01       		.byte	0x1
 3139 0183 3F       		.uleb128 0x3f
 3140 0184 19       		.uleb128 0x19
 3141 0185 03       		.uleb128 0x3
 3142 0186 0E       		.uleb128 0xe
 3143 0187 3A       		.uleb128 0x3a
 3144 0188 0B       		.uleb128 0xb
 3145 0189 3B       		.uleb128 0x3b
 3146 018a 05       		.uleb128 0x5
 3147 018b 27       		.uleb128 0x27
 3148 018c 19       		.uleb128 0x19
 3149 018d 11       		.uleb128 0x11
 3150 018e 01       		.uleb128 0x1
 3151 018f 12       		.uleb128 0x12
 3152 0190 06       		.uleb128 0x6
 3153 0191 40       		.uleb128 0x40
 3154 0192 18       		.uleb128 0x18
 3155 0193 9642     		.uleb128 0x2116
 3156 0195 19       		.uleb128 0x19
 3157 0196 01       		.uleb128 0x1
 3158 0197 13       		.uleb128 0x13
 3159 0198 00       		.byte	0
 3160 0199 00       		.byte	0
ARM GAS  C:\Users\Sava\AppData\Local\Temp\cc1c2WDS.s 			page 117


 3161 019a 19       		.uleb128 0x19
 3162 019b 2E       		.uleb128 0x2e
 3163 019c 01       		.byte	0x1
 3164 019d 03       		.uleb128 0x3
 3165 019e 0E       		.uleb128 0xe
 3166 019f 3A       		.uleb128 0x3a
 3167 01a0 0B       		.uleb128 0xb
 3168 01a1 3B       		.uleb128 0x3b
 3169 01a2 05       		.uleb128 0x5
 3170 01a3 27       		.uleb128 0x27
 3171 01a4 19       		.uleb128 0x19
 3172 01a5 11       		.uleb128 0x11
 3173 01a6 01       		.uleb128 0x1
 3174 01a7 12       		.uleb128 0x12
 3175 01a8 06       		.uleb128 0x6
 3176 01a9 40       		.uleb128 0x40
 3177 01aa 18       		.uleb128 0x18
 3178 01ab 9642     		.uleb128 0x2116
 3179 01ad 19       		.uleb128 0x19
 3180 01ae 01       		.uleb128 0x1
 3181 01af 13       		.uleb128 0x13
 3182 01b0 00       		.byte	0
 3183 01b1 00       		.byte	0
 3184 01b2 1A       		.uleb128 0x1a
 3185 01b3 05       		.uleb128 0x5
 3186 01b4 00       		.byte	0
 3187 01b5 03       		.uleb128 0x3
 3188 01b6 08       		.uleb128 0x8
 3189 01b7 3A       		.uleb128 0x3a
 3190 01b8 0B       		.uleb128 0xb
 3191 01b9 3B       		.uleb128 0x3b
 3192 01ba 05       		.uleb128 0x5
 3193 01bb 49       		.uleb128 0x49
 3194 01bc 13       		.uleb128 0x13
 3195 01bd 02       		.uleb128 0x2
 3196 01be 18       		.uleb128 0x18
 3197 01bf 00       		.byte	0
 3198 01c0 00       		.byte	0
 3199 01c1 1B       		.uleb128 0x1b
 3200 01c2 2E       		.uleb128 0x2e
 3201 01c3 01       		.byte	0x1
 3202 01c4 03       		.uleb128 0x3
 3203 01c5 0E       		.uleb128 0xe
 3204 01c6 3A       		.uleb128 0x3a
 3205 01c7 0B       		.uleb128 0xb
 3206 01c8 3B       		.uleb128 0x3b
 3207 01c9 05       		.uleb128 0x5
 3208 01ca 27       		.uleb128 0x27
 3209 01cb 19       		.uleb128 0x19
 3210 01cc 11       		.uleb128 0x11
 3211 01cd 01       		.uleb128 0x1
 3212 01ce 12       		.uleb128 0x12
 3213 01cf 06       		.uleb128 0x6
 3214 01d0 40       		.uleb128 0x40
 3215 01d1 18       		.uleb128 0x18
 3216 01d2 9642     		.uleb128 0x2116
 3217 01d4 19       		.uleb128 0x19
ARM GAS  C:\Users\Sava\AppData\Local\Temp\cc1c2WDS.s 			page 118


 3218 01d5 00       		.byte	0
 3219 01d6 00       		.byte	0
 3220 01d7 00       		.byte	0
 3221              		.section	.debug_aranges,"",%progbits
 3222 0000 8C000000 		.4byte	0x8c
 3223 0004 0200     		.2byte	0x2
 3224 0006 00000000 		.4byte	.Ldebug_info0
 3225 000a 04       		.byte	0x4
 3226 000b 00       		.byte	0
 3227 000c 0000     		.2byte	0
 3228 000e 0000     		.2byte	0
 3229 0010 00000000 		.4byte	.LFB0
 3230 0014 3E000000 		.4byte	.LFE0-.LFB0
 3231 0018 00000000 		.4byte	.LFB1
 3232 001c 68000000 		.4byte	.LFE1-.LFB1
 3233 0020 00000000 		.4byte	.LFB2
 3234 0024 8E000000 		.4byte	.LFE2-.LFB2
 3235 0028 00000000 		.4byte	.LFB3
 3236 002c 72000000 		.4byte	.LFE3-.LFB3
 3237 0030 00000000 		.4byte	.LFB4
 3238 0034 B2000000 		.4byte	.LFE4-.LFB4
 3239 0038 00000000 		.4byte	.LFB5
 3240 003c 40000000 		.4byte	.LFE5-.LFB5
 3241 0040 00000000 		.4byte	.LFB6
 3242 0044 5E000000 		.4byte	.LFE6-.LFB6
 3243 0048 00000000 		.4byte	.LFB7
 3244 004c 24000000 		.4byte	.LFE7-.LFB7
 3245 0050 00000000 		.4byte	.LFB8
 3246 0054 24000000 		.4byte	.LFE8-.LFB8
 3247 0058 00000000 		.4byte	.LFB9
 3248 005c 38000000 		.4byte	.LFE9-.LFB9
 3249 0060 00000000 		.4byte	.LFB10
 3250 0064 36000000 		.4byte	.LFE10-.LFB10
 3251 0068 00000000 		.4byte	.LFB11
 3252 006c 16000000 		.4byte	.LFE11-.LFB11
 3253 0070 00000000 		.4byte	.LFB12
 3254 0074 80000000 		.4byte	.LFE12-.LFB12
 3255 0078 00000000 		.4byte	.LFB13
 3256 007c 4C000000 		.4byte	.LFE13-.LFB13
 3257 0080 00000000 		.4byte	.LFB14
 3258 0084 50000000 		.4byte	.LFE14-.LFB14
 3259 0088 00000000 		.4byte	0
 3260 008c 00000000 		.4byte	0
 3261              		.section	.debug_ranges,"",%progbits
 3262              	.Ldebug_ranges0:
 3263 0000 00000000 		.4byte	.LFB0
 3264 0004 3E000000 		.4byte	.LFE0
 3265 0008 00000000 		.4byte	.LFB1
 3266 000c 68000000 		.4byte	.LFE1
 3267 0010 00000000 		.4byte	.LFB2
 3268 0014 8E000000 		.4byte	.LFE2
 3269 0018 00000000 		.4byte	.LFB3
 3270 001c 72000000 		.4byte	.LFE3
 3271 0020 00000000 		.4byte	.LFB4
 3272 0024 B2000000 		.4byte	.LFE4
 3273 0028 00000000 		.4byte	.LFB5
 3274 002c 40000000 		.4byte	.LFE5
ARM GAS  C:\Users\Sava\AppData\Local\Temp\cc1c2WDS.s 			page 119


 3275 0030 00000000 		.4byte	.LFB6
 3276 0034 5E000000 		.4byte	.LFE6
 3277 0038 00000000 		.4byte	.LFB7
 3278 003c 24000000 		.4byte	.LFE7
 3279 0040 00000000 		.4byte	.LFB8
 3280 0044 24000000 		.4byte	.LFE8
 3281 0048 00000000 		.4byte	.LFB9
 3282 004c 38000000 		.4byte	.LFE9
 3283 0050 00000000 		.4byte	.LFB10
 3284 0054 36000000 		.4byte	.LFE10
 3285 0058 00000000 		.4byte	.LFB11
 3286 005c 16000000 		.4byte	.LFE11
 3287 0060 00000000 		.4byte	.LFB12
 3288 0064 80000000 		.4byte	.LFE12
 3289 0068 00000000 		.4byte	.LFB13
 3290 006c 4C000000 		.4byte	.LFE13
 3291 0070 00000000 		.4byte	.LFB14
 3292 0074 50000000 		.4byte	.LFE14
 3293 0078 00000000 		.4byte	0
 3294 007c 00000000 		.4byte	0
 3295              		.section	.debug_line,"",%progbits
 3296              	.Ldebug_line0:
 3297 0000 FD020000 		.section	.debug_str,"MS",%progbits,1
 3297      02003301 
 3297      00000201 
 3297      FB0E0D00 
 3297      01010101 
 3298              	.LASF8:
 3299 0000 6C6F6E67 		.ascii	"long long int\000"
 3299      206C6F6E 
 3299      6720696E 
 3299      7400
 3300              	.LASF38:
 3301 000e 6E6F6465 		.ascii	"node\000"
 3301      00
 3302              	.LASF5:
 3303 0013 5F5F7569 		.ascii	"__uint8_t\000"
 3303      6E74385F 
 3303      7400
 3304              	.LASF30:
 3305 001d 6C765F6C 		.ascii	"lv_ll_rem\000"
 3305      6C5F7265 
 3305      6D00
 3306              	.LASF34:
 3307 0027 695F6E65 		.ascii	"i_next\000"
 3307      787400
 3308              	.LASF17:
 3309 002e 6E5F7369 		.ascii	"n_size\000"
 3309      7A6500
 3310              	.LASF54:
 3311 0035 6C76676C 		.ascii	"lvgl\\lv_misc\\lv_ll.c\000"
 3311      5C6C765F 
 3311      6D697363 
 3311      5C6C765F 
 3311      6C6C2E63 
 3312              	.LASF31:
 3313 004a 6E6F6465 		.ascii	"node_p\000"
ARM GAS  C:\Users\Sava\AppData\Local\Temp\cc1c2WDS.s 			page 120


 3313      5F7000
 3314              	.LASF48:
 3315 0051 6E325F70 		.ascii	"n2_p\000"
 3315      00
 3316              	.LASF50:
 3317 0056 6E5F6166 		.ascii	"n_after\000"
 3317      74657200 
 3318              	.LASF37:
 3319 005e 6C6C5F6E 		.ascii	"ll_new_p\000"
 3319      65775F70 
 3319      00
 3320              	.LASF51:
 3321 0067 6E5F6265 		.ascii	"n_before\000"
 3321      666F7265 
 3321      00
 3322              	.LASF26:
 3323 0070 6E5F6E65 		.ascii	"n_new\000"
 3323      7700
 3324              	.LASF22:
 3325 0076 6E6F6465 		.ascii	"node_size\000"
 3325      5F73697A 
 3325      6500
 3326              	.LASF55:
 3327 0080 433A5C55 		.ascii	"C:\\Users\\Sava\\Documents\\PSoC Creator\\GUI_and_d"
 3327      73657273 
 3327      5C536176 
 3327      615C446F 
 3327      63756D65 
 3328 00ae 6973706C 		.ascii	"isplay\\LittlevGL(5v3)_demo_ILI9341.cydsn\000"
 3328      61795C4C 
 3328      6974746C 
 3328      6576474C 
 3328      28357633 
 3329              	.LASF40:
 3330 00d7 6C765F6C 		.ascii	"lv_ll_get_tail\000"
 3330      6C5F6765 
 3330      745F7461 
 3330      696C00
 3331              	.LASF44:
 3332 00e6 6C765F6C 		.ascii	"lv_ll_get_prev\000"
 3332      6C5F6765 
 3332      745F7072 
 3332      657600
 3333              	.LASF1:
 3334 00f5 756E7369 		.ascii	"unsigned char\000"
 3334      676E6564 
 3334      20636861 
 3334      7200
 3335              	.LASF18:
 3336 0103 68656164 		.ascii	"head\000"
 3336      00
 3337              	.LASF36:
 3338 0108 6C6C5F6F 		.ascii	"ll_ori_p\000"
 3338      72695F70 
 3338      00
 3339              	.LASF7:
 3340 0111 6C6F6E67 		.ascii	"long unsigned int\000"
ARM GAS  C:\Users\Sava\AppData\Local\Temp\cc1c2WDS.s 			page 121


 3340      20756E73 
 3340      69676E65 
 3340      6420696E 
 3340      7400
 3341              	.LASF3:
 3342 0123 73686F72 		.ascii	"short unsigned int\000"
 3342      7420756E 
 3342      7369676E 
 3342      65642069 
 3342      6E7400
 3343              	.LASF41:
 3344 0136 6C765F6C 		.ascii	"lv_ll_get_next\000"
 3344      6C5F6765 
 3344      745F6E65 
 3344      787400
 3345              	.LASF16:
 3346 0145 6C765F6C 		.ascii	"lv_ll_node_t\000"
 3346      6C5F6E6F 
 3346      64655F74 
 3346      00
 3347              	.LASF28:
 3348 0152 6C765F6C 		.ascii	"lv_ll_ins_tail\000"
 3348      6C5F696E 
 3348      735F7461 
 3348      696C00
 3349              	.LASF24:
 3350 0161 6C765F6C 		.ascii	"lv_ll_ins_prev\000"
 3350      6C5F696E 
 3350      735F7072 
 3350      657600
 3351              	.LASF6:
 3352 0170 5F5F7569 		.ascii	"__uint32_t\000"
 3352      6E743332 
 3352      5F7400
 3353              	.LASF33:
 3354 017b 6C765F6C 		.ascii	"lv_ll_clear\000"
 3354      6C5F636C 
 3354      65617200 
 3355              	.LASF20:
 3356 0187 6C765F6C 		.ascii	"lv_ll_t\000"
 3356      6C5F7400 
 3357              	.LASF52:
 3358 018f 6E6F6465 		.ascii	"node_p_size\000"
 3358      5F705F73 
 3358      697A6500 
 3359              	.LASF53:
 3360 019b 474E5520 		.ascii	"GNU C11 5.4.1 20160609 (release) [ARM/embedded-5-br"
 3360      43313120 
 3360      352E342E 
 3360      31203230 
 3360      31363036 
 3361 01ce 616E6368 		.ascii	"anch revision 237715] -mcpu=cortex-m3 -mthumb -g -O"
 3361      20726576 
 3361      6973696F 
 3361      6E203233 
 3361      37373135 
 3362 0201 30202D66 		.ascii	"0 -ffunction-sections -ffat-lto-objects -finline-fu"
ARM GAS  C:\Users\Sava\AppData\Local\Temp\cc1c2WDS.s 			page 122


 3362      66756E63 
 3362      74696F6E 
 3362      2D736563 
 3362      74696F6E 
 3363 0234 6E637469 		.ascii	"nctions -flto\000"
 3363      6F6E7320 
 3363      2D666C74 
 3363      6F00
 3364              	.LASF10:
 3365 0242 756E7369 		.ascii	"unsigned int\000"
 3365      676E6564 
 3365      20696E74 
 3365      00
 3366              	.LASF9:
 3367 024f 6C6F6E67 		.ascii	"long long unsigned int\000"
 3367      206C6F6E 
 3367      6720756E 
 3367      7369676E 
 3367      65642069 
 3368              	.LASF11:
 3369 0266 75696E74 		.ascii	"uint8_t\000"
 3369      385F7400 
 3370              	.LASF27:
 3371 026e 6E5F7072 		.ascii	"n_prev\000"
 3371      657600
 3372              	.LASF43:
 3373 0275 6E5F6163 		.ascii	"n_act_d\000"
 3373      745F6400 
 3374              	.LASF25:
 3375 027d 6E5F6163 		.ascii	"n_act\000"
 3375      7400
 3376              	.LASF49:
 3377 0283 6C765F6C 		.ascii	"lv_ll_move_before\000"
 3377      6C5F6D6F 
 3377      76655F62 
 3377      65666F72 
 3377      6500
 3378              	.LASF14:
 3379 0295 73697A65 		.ascii	"sizetype\000"
 3379      74797065 
 3379      00
 3380              	.LASF35:
 3381 029e 6C765F6C 		.ascii	"lv_ll_chg_list\000"
 3381      6C5F6368 
 3381      675F6C69 
 3381      737400
 3382              	.LASF46:
 3383 02ad 6C765F6C 		.ascii	"lv_ll_swap\000"
 3383      6C5F7377 
 3383      617000
 3384              	.LASF29:
 3385 02b8 6C765F6C 		.ascii	"lv_ll_init\000"
 3385      6C5F696E 
 3385      697400
 3386              	.LASF15:
 3387 02c3 63686172 		.ascii	"char\000"
 3387      00
ARM GAS  C:\Users\Sava\AppData\Local\Temp\cc1c2WDS.s 			page 123


 3388              	.LASF2:
 3389 02c8 73686F72 		.ascii	"short int\000"
 3389      7420696E 
 3389      7400
 3390              	.LASF47:
 3391 02d2 6E315F70 		.ascii	"n1_p\000"
 3391      00
 3392              	.LASF21:
 3393 02d7 6C6C5F70 		.ascii	"ll_p\000"
 3393      00
 3394              	.LASF19:
 3395 02dc 7461696C 		.ascii	"tail\000"
 3395      00
 3396              	.LASF39:
 3397 02e1 6C765F6C 		.ascii	"lv_ll_get_head\000"
 3397      6C5F6765 
 3397      745F6865 
 3397      616400
 3398              	.LASF56:
 3399 02f0 6E6F6465 		.ascii	"node_set_prev\000"
 3399      5F736574 
 3399      5F707265 
 3399      7600
 3400              	.LASF12:
 3401 02fe 75696E74 		.ascii	"uint32_t\000"
 3401      33325F74 
 3401      00
 3402              	.LASF4:
 3403 0307 6C6F6E67 		.ascii	"long int\000"
 3403      20696E74 
 3403      00
 3404              	.LASF13:
 3405 0310 6C6F6E67 		.ascii	"long double\000"
 3405      20646F75 
 3405      626C6500 
 3406              	.LASF0:
 3407 031c 7369676E 		.ascii	"signed char\000"
 3407      65642063 
 3407      68617200 
 3408              	.LASF42:
 3409 0328 6E657874 		.ascii	"next\000"
 3409      00
 3410              	.LASF57:
 3411 032d 6E6F6465 		.ascii	"node_set_next\000"
 3411      5F736574 
 3411      5F6E6578 
 3411      7400
 3412              	.LASF45:
 3413 033b 70726576 		.ascii	"prev\000"
 3413      00
 3414              	.LASF32:
 3415 0340 6E5F6E65 		.ascii	"n_next\000"
 3415      787400
 3416              	.LASF23:
 3417 0347 6C765F6C 		.ascii	"lv_ll_ins_head\000"
 3417      6C5F696E 
 3417      735F6865 
ARM GAS  C:\Users\Sava\AppData\Local\Temp\cc1c2WDS.s 			page 124


 3417      616400
 3418              		.comm	__gnu_lto_v1,1,1
 3419              		.ident	"GCC: (GNU Tools for ARM Embedded Processors) 5.4.1 20160609 (release) [ARM/embedded-5-bran
