ARM GAS  C:\Users\Sava\AppData\Local\Temp\ccoQvwtf.s 			page 1


   1              		.syntax unified
   2              		.cpu cortex-m3
   3              		.fpu softvfp
   4              		.eabi_attribute 20, 1
   5              		.eabi_attribute 21, 1
   6              		.eabi_attribute 23, 3
   7              		.eabi_attribute 24, 1
   8              		.eabi_attribute 25, 1
   9              		.eabi_attribute 26, 1
  10              		.eabi_attribute 30, 6
  11              		.eabi_attribute 34, 1
  12              		.eabi_attribute 18, 4
  13              		.thumb
  14              		.syntax unified
  15              		.file	"lv_mem.c"
  16              		.text
  17              	.Ltext0:
  18              		.section	.gnu.lto_.inline.d4bdb29,"",%progbits
  19 0000 789C6D8E 		.ascii	"x\234m\216\257\016\3020\020\207\177\355\272\377e\202"
  19      AF0EC230 
  19      10877FED 
  19      BAFF6582 
  20 0010 10481004 		.ascii	"\020H\020\0041\005S(\036\202\324!y\024\022,\256\017"
  20      31055328 
  20      1E82D421 
  20      7914122C 
  20      AE0F
  21 0022 80409260 		.ascii	"\200@\222`x\013\354\034\216\014\205\235Fq\245[Y\010"
  21      780BEC1C 
  21      8E0C859D 
  21      4671A55B 
  21      5908
  22 0034 3F73D72F 		.ascii	"?s\327/\337]O\200\301dm\313'\011\020\006\000O\252\015"
  22      DF5D4F80 
  22      C1646DCB 
  22      27091006 
  22      004FAA0D 
  23 0048 04B8411E 		.ascii	"\004\270A\036\342\210H\266\333\266\304\207L\211\014"
  23      E28848B6 
  23      DBB6C487 
  23      4C890C
  24 0057 EA336B51 		.ascii	"\3523kQ\200\361\234P^\237\270\233\223\014L+O\302\224"
  24      80F19C50 
  24      5E9FB89B 
  24      930C4C2B 
  24      4FC294
  25 006a 10F99520 		.ascii	"\020\371\225 /.\317\216\301\255\321\210\334\371\210"
  25      2F2ECF8E 
  25      C1ADD188 
  25      DCF988
  26 0079 B0B81B7D 		.ascii	"\260\270\033}U\276\202\377\013E\217\210V@\214\321\220"
  26      55BE82FF 
  26      0B458F88 
  26      56408CD1 
  26      90
  27 008a CC597573 		.ascii	"\314Yus\213\023d\006\365\217\007\366\035&\240\225V)"
  27      8B136406 
ARM GAS  C:\Users\Sava\AppData\Local\Temp\ccoQvwtf.s 			page 2


  27      F58F07F6 
  27      1D26A095 
  27      5629
  28 009c 264B6AA7 		.ascii	"&Kj\247\345\336\351~\006j)\242\307\254\324|%Q<~\217"
  28      E5DEE97E 
  28      066A29A2 
  28      C7ACD47C 
  28      25513C7E 
  29 00b1 76324FBB 		.ascii	"v2O\273w\330)\264\007\362\316\033oY\323(\301"
  29      77D829B4 
  29      07F2CE1B 
  29      6F59D328 
  29      C1
  30              		.text
  31              		.section	.gnu.lto_lv_mem_init.d4bdb29,"",%progbits
  32 0000 789C9592 		.ascii	"x\234\225\222MHTQ\030\206\317{\316\314\275\246c\270"
  32      4D485451 
  32      1886CF7B 
  32      CECCBDA6 
  32      63B8
  33 0012 51080C66 		.ascii	"Q\010\014f\343\302EM\320\266}\373\334\012.\244\"\270"
  33      E3C2454D 
  33      D0B67DFB 
  33      DC0A2EA4 
  33      22B8
  34 0024 AE22A14D 		.ascii	"\256\"\241Ms\272\316utW\213&+EAD\373\031\307\351\317"
  34      73BACE75 
  34      74578B26 
  34      2B454144 
  34      FB19C7E9 
  35 0039 A6B2AE52 		.ascii	"\246\262\256R\004\321\017\021\326\302\205\241\346b0"
  35      04D10F11 
  35      D6C285A1 
  35      E66230
  36 0048 98818948 		.ascii	"\230\201\211H\232\231\276\357\314ED\006\251\003\227"
  36      9A99BEEF 
  36      CC454406 
  36      A90397
  37 0057 C3F9CEF9 		.ascii	"\303\371\316\371\236\367\271\367\334\220\200\340\321"
  37      9EF7B9F7 
  37      DC9080E0 
  37      D1
  38 0064 A284384C 		.ascii	"\242\2048Ls+/\224\200\024\364\200\367 \342\022q\374"
  38      732B2F94 
  38      8014F480 
  38      F720E212 
  38      71FC
  39 0076 946589A5 		.ascii	"\224e\211\245\344fNvNk\032\337^\347\217\351\031\037"
  39      E4664E76 
  39      4E6B1ADF 
  39      5EE78FE9 
  39      191F
  40 0088 1E3556A5 		.ascii	"\0365V\245a\010L\243S\320\261O\211\271QU\222\236\002"
  40      61084CA3 
  40      53D0B14F 
  40      89B95155 
  40      929E02
ARM GAS  C:\Users\Sava\AppData\Local\Temp\ccoQvwtf.s 			page 3


  41 009b 42B42CBE 		.ascii	"B\264,\276\277\271~\220\227\022QZ\2463_.\251C\340\203"
  41      BFB97E90 
  41      9712515A 
  41      A6335F2E 
  41      A943E083 
  42 00af DFB7DCF9 		.ascii	"\337\267\334\371\206\216I\255]\355\227\007\333nh?\021"
  42      868E49AD 
  42      5DED9707 
  42      DB6E683F 
  42      11
  43 00c0 F594C21D 		.ascii	"\365\224\302\035(b\3426\3321\203v\303\246\323k\331\312"
  43      2862E236 
  43      DA318376 
  43      C3A6D36B 
  43      D9CA
  44 00d2 B5662BC1 		.ascii	"\265f+\301\351\321ar\274\213\216Z4\356\301\"U\031\024"
  44      E9D16172 
  44      BC8B8E5A 
  44      34EEC122 
  44      551914
  45 00e5 33A77C5D 		.ascii	"3\247|]\255\016h\377\253\265\230\262\255\340\244(\030"
  45      AD0E68FF 
  45      ABB598B2 
  45      ADE0A428 
  45      18
  46 00f6 CBA2A449 		.ascii	"\313\242\244Im\302\335N~\270u\202;\211\234\362\226>"
  46      6DC2DD4E 
  46      7EB87582 
  46      3B899CF2 
  46      963E
  47 0108 DA6C1832 		.ascii	"\332l\0302Z\271\334\326\212\035/\353!\255[\2506\254"
  47      5AB9DCD6 
  47      8A1D2FEB 
  47      21AD5BA8 
  47      36AC
  48 011a 60F2F3EF 		.ascii	"`\362\363\357\226_5\216c\354\2626\3650f\351\273\244"
  48      965F358E 
  48      63ECB236 
  48      F53066E9 
  48      BBA4
  49 012c D90F198C 		.ascii	"\331\017\031\214c7\307\252\303\261H\257\036\307F\226"
  49      6337C7AA 
  49      C3B148AF 
  49      1EC74696 
  50 013c 3873CCA1 		.ascii	"8s\314\241\315\211\355\337\313\221Z\217\276\310\240"
  50      CD89EDDF 
  50      CB915A8F 
  50      BEC8A0
  51 014b FB84A684 		.ascii	"\373\204\246\204\007\210\013\262NeW\027\303l=\240\324"
  51      07880BB2 
  51      4E655717 
  51      C36C3DA0 
  51      D4
  52 015c 7F983EDC 		.ascii	"\177\230>\3341}\3048\002\225\012\253\305\360\336\327"
  52      317DC438 
  52      02950AAB 
  52      C5F0DED7 
ARM GAS  C:\Users\Sava\AppData\Local\Temp\ccoQvwtf.s 			page 4


  53 016c 5746FBD7 		.ascii	"WF\373\327\233\267C\221\240[\037\027\236j\2400<\016"
  53      9BB74391 
  53      A05B1F17 
  53      9E6AA030 
  53      3C0E
  54 017e 04A736DC 		.ascii	"\004\2476\334Y;v\304S\0070O\254\212\014n\347\363\025"
  54      593B76C4 
  54      5307304F 
  54      AC8A0C6E 
  54      E7F315
  55 0191 3D82589A 		.ascii	"=\202X\232{t\227\247\032\361\004\261\212Dms\352\307"
  55      7B7497A7 
  55      1AF104B1 
  55      8A446D73 
  55      EAC7
  56 01a3 4AC9E2A6 		.ascii	"J\311\342\246&\344\270ln\355)b\273\303\233 \360\214"
  56      26E4B86C 
  56      6EED2962 
  56      BBC39B20 
  56      F08C
  57 01b5 428CDCC6 		.ascii	"B\214\334\306U;\220\373g\233\347\373\332,\324\263\211"
  57      553B90FB 
  57      679BE7FB 
  57      DA2CD4B3 
  57      89
  58 01c6 E00597F9 		.ascii	"\340\005\227\371^\360\322\330\024\026\222\203\222m\""
  58      5EF0D2D8 
  58      14169283 
  58      926D22
  59 01d5 F853057C 		.ascii	"\370S\005|\212\311\303\365\257\237d\033\363#\026\230"
  59      8AC9C3F5 
  59      AF9F641B 
  59      F3231698 
  60 01e5 42316D4E 		.ascii	"B1mN\377Y\247\333\351\357\351;w\276\327\314\247\373"
  60      FF59A7DB 
  60      E9EFE93B 
  60      77BED7CC 
  60      A7FB
  61 01f7 8EF68AD0 		.ascii	"\216\366\212\320\231\013\216\363\027z\312\025\203"
  61      990B8EF3 
  61      177ACA15 
  61      83
  62              		.text
  63              		.section	.gnu.lto_lv_mem_get_size.d4bdb29,"",%progbits
  64 0000 789C6552 		.ascii	"x\234eR]KTQ\024=\353\234\3731\226\246OJ \346\313 >\324"
  64      5D4B5451 
  64      143DEB9C 
  64      FB3196A6 
  64      4F4A20E6 
  65 0018 FC805E7B 		.ascii	"\374\200^{\3505\237\202\202\020\223\010\364!\012{\234"
  65      E8359F82 
  65      82109308 
  65      F4210A7B 
  65      9C
  66 0029 E3CCDCD2 		.ascii	"\343\314\334\322P(\250\314T4B\324\314\257\314tTj\214"
  66      5028A8CC 
  66      543442D4 
ARM GAS  C:\Users\Sava\AppData\Local\Temp\ccoQvwtf.s 			page 5


  66      CCAFCC74 
  66      546A8C
  67 003c C0883EA8 		.ascii	"\300\210>\250\030\204$\260\032\012D\241\261\3212\034"
  67      188424B0 
  67      1A0A44A1 
  67      B1D1321C 
  68 004c A7BDEFBD 		.ascii	"\247\275\357\275\210\325\205{>\366Yk\235\265\317\336"
  68      88D5857B 
  68      3EF6596B 
  68      9DB5CFDE 
  69 005c 8680E0EF 		.ascii	"\206\200\340\357\242\022\342\000\315Gx\023\020\220\202"
  69      A212E200 
  69      CD477813 
  69      109082
  70 006b 7E49412D 		.ascii	"~IA-\015\032\014\005\233\"\20649bq\304t#\226;\332`\025"
  70      0D1A0C05 
  70      9B228634 
  70      396271C4 
  70      7423963B 
  71 0082 88B05486 		.ascii	"\210\260T\206i\331\010c]f%\336\306F;UF:\212\230\264"
  71      69D90863 
  71      5D6625DE 
  71      C6463B55 
  71      463A8A98 
  72 0097 4DBFBAFD 		.ascii	"M\277\272\375e\037o\201r\332v\350w\315ve\237\326\021"
  72      651F6F81 
  72      72DA76E8 
  72      77CD7665 
  72      9FD611
  73 00aa BDE4FCA8 		.ascii	"\275\344\374\250\272\026u\216:J\212\234\024\350G)\372"
  73      BA16758E 
  73      3A4A8A9C 
  73      14E84729 
  73      FA
  74 00bb 50CA9A03 		.ascii	"P\312\232\003\250$\354\340\306\374,\324~\010Zg\347\276"
  74      A824ECE0 
  74      C6FC2CD4 
  74      7E085A67 
  74      E7BE
  75 00cd 2565452F 		.ascii	"%eE/\363tw\255\316s\224\302=\250\335<\012\011\014\242"
  75      F37477AD 
  75      CE7394C2 
  75      3DA8DD3C 
  75      0A090CA2 
  76 00e1 82E1AD99 		.ascii	"\202\341\255\231\376\347\266*s\251\327\033[&\362\203"
  76      FEE7B62A 
  76      73A9D71B 
  76      5B26F283 
  77 00f1 77999A18 		.ascii	"w\231\232\030o+n\327\211X\271\243\014\334\377\233\316"
  77      6F2B6ED7 
  77      8958B9A3 
  77      0CDCFF9B 
  77      CE
  78 0102 1FA13F8F 		.ascii	"\037\241?\217m\337(\260b\232\276r\014!\310\326\310\321"
  78      6DDF28B0 
  78      629ABE72 
  78      0C21C8D6 
ARM GAS  C:\Users\Sava\AppData\Local\Temp\ccoQvwtf.s 			page 6


  78      C8D1
  79 0114 30252D84 		.ascii	"0%-\204\"@Kk6S\310rWt\242k\241\254\275\337\225\3737"
  79      22404B6B 
  79      3653C872 
  79      5774A26B 
  79      A1ACBDDF 
  80 012b 05A28C20 		.ascii	"\005\242\214 H\360\266;\023\277\366\372\267O.\024\373"
  80      48F0B63B 
  80      13BFF6FA 
  80      B74F2E14 
  80      FB
  81 013c 70F37FF8 		.ascii	"p\363\177\370(\202|\337HUB\347rQ\235\350(\231\233*\311"
  81      28827CDF 
  81      485542E7 
  81      72519DE8 
  81      28999B2A 
  82 0151 03A52525 		.ascii	"\003\245%%8/\305K\203\007S0\322\246\245\031\340\275"
  82      382FC54B 
  82      83075330 
  82      D2A6A519 
  82      E0BD
  83 0163 10DFD9A4 		.ascii	"\020\337\331\244HK\232\324'\304>Dg\206m\366\034U\\\222"
  83      484B9AD4 
  83      27C43E44 
  83      67866DF6 
  83      1C555C92 
  84 0177 9195F866 		.ascii	"\221\225\370f\001\327@A`\314\2770\315\205V_\021\311"
  84      01D74041 
  84      60CCBF30 
  84      CD85565F 
  84      11C9
  85 0189 2C957950 		.ascii	",\225yP\316\356\246\363\364\215\315PI\320\007.4\315"
  85      CEEEA6F3 
  85      F48DCD50 
  85      49D0072E 
  85      34CD
  86 019b CDE0A93E 		.ascii	"\315\340\251>\331\255\272\003\265\334g\216\307W\026"
  86      D9ADBA03 
  86      B5DC678E 
  86      C75716
  87 01aa ED705637 		.ascii	"\355pV7i]D\261f\345\275\347\362\313\344\263=\335\350"
  87      695D44B1 
  87      66E5BDE7 
  87      F2CBE4B3 
  87      3DDDE8
  88 01bd 6AD46E5C 		.ascii	"j\324n\\\342!5\3128\013\323a\317\357\315d\276\307\321"
  88      E22135CA 
  88      380BD361 
  88      CFEFCD64 
  88      BEC7D1
  89 01d0 C7586802 		.ascii	"\307Xh\002\335\364\314x\204\260\357\321\364=\366\004"
  89      DDF4CC78 
  89      84B0EFD1 
  89      F43DF604 
  90 01e0 BD8B8D1D 		.ascii	"\275\213\215\035S\226{\022\355\274\364\372\343q\357"
  90      53967B12 
  90      EDBCF4FA 
ARM GAS  C:\Users\Sava\AppData\Local\Temp\ccoQvwtf.s 			page 7


  90      E371EF
  91 01ef CCF47C3D 		.ascii	"\314\364|=\336p\032\274\376\333\312\345r\205\230$\002"
  91      DE701ABC 
  91      FEDBCAE5 
  91      72859824 
  91      02
  92 0200 494CA757 		.ascii	"IL\247W\223\246\007\264w\2737\\\367?\347_4\345\3736"
  92      93A607B4 
  92      77BB375C 
  92      F73FE75F 
  92      34E5FB36 
  93 0214 F5617A54 		.ascii	"\365azT\233\3640\345\373\354ME\206\355\320AG\005\020"
  93      9BF430E5 
  93      FBEC4D45 
  93      86EDD041 
  93      470510
  94 0227 2787DBD2 		.ascii	"'\207\333\322o\226\367W\365-\204\206\230\243O8*\017"
  94      6F96F757 
  94      F52D8486 
  94      98A34F38 
  94      2A0F
  95 0239 D3086D4B 		.ascii	"\323\010mKx\207\275\253\213\031\213I&f8\354\366\321"
  95      7887BDAB 
  95      8B198B49 
  95      266638EC 
  95      F6D1
  96 024b 2C426C66 		.ascii	",Blf\355r\012\236\227\000\331q\363\241Q\245\320X$4U"
  96      ED720A9E 
  96      9700D971 
  96      F3A151A5 
  96      D0582434 
  97 0260 69199122 		.ascii	"i\031\221\"\021U\254\264\006Pi\324J|\235f\303\334\212"
  97      1155ACB4 
  97      065069D4 
  97      4A7C9D66 
  97      C3DC8A
  98 0273 0F486259 		.ascii	"\017HbY\2633\347\250\352\004 \331\342\272\2063u'\353"
  98      B333E7A8 
  98      EA0420D9 
  98      E2BA8633 
  98      7527EB
  99 0286 1A4ED59F 		.ascii	"\032N\325\237=_\343\316\265\365\207j\204q\272\372B5"
  99      3D5FE3CE 
  99      B5F5876A 
  99      8471BAFA 
  99      4235
 100 0298 6AFF00AE 		.ascii	"j\377\000\256\304$\333"
 100      C424DB
 101              		.text
 102              		.section	.gnu.lto_ent_get_next.d4bdb29,"",%progbits
 103 0000 789C9554 		.ascii	"x\234\225TKHTQ\030>\377=\3671\243\216\272)H\204\334"
 103      4B485451 
 103      183EFF3D 
 103      F731A38E 
 103      BA294884 
 104 0015 4CE2A2AC 		.ascii	"L\342\242\254EQ\273\026-Z\267\250M\020b\022\221\032"
 104      4551BB16 
ARM GAS  C:\Users\Sava\AppData\Local\Temp\ccoQvwtf.s 			page 8


 104      2D5AB7A8 
 104      4D106212 
 104      911A
 105 0027 9459D0C2 		.ascii	"\224Y\320\302\243\343\370\210\202\212\324\264,{H\232"
 105      A3E3F888 
 105      828AD4B4 
 105      2C7B489A 
 106 0037 998D8FCC 		.ascii	"\231\215\217\314gc\351Xa\250\331\203\034\210,\023\222"
 106      6763E958 
 106      61A8D983 
 106      1C882C13 
 106      92
 107 0048 0247EC41 		.ascii	"\002G\354A0\332\377\237s1\033s\321\2019\347\236\377"
 107      30DAFF9F 
 107      73311B73 
 107      D18139E7 
 107      9EFF
 108 005a 7EFFF7FD 		.ascii	"~\377\367\375\257\271:\003Fk\304`l3\236;\350\342`\240"
 108      AFB93A03 
 108      466BC460 
 108      6C339E3B 
 108      E8E260A0 
 109 006e 31FC699C 		.ascii	"1\374i\2341\241\351\270\351\034L\264\350\232A\026\223"
 109      31A1E9B8 
 109      E91C4CB4 
 109      E89A4116 
 109      93
 110 007f 2C86B498 		.ascii	",\206\264\230`\341n\001\261\000\313\323\270n\230\026"
 110      60E16E01 
 110      B100CBD3 
 110      B86E9816 
 111 008f E4C1372D 		.ascii	"\344\3017-\254\301h\341\275\313|N\363r\364\304k\350"
 111      ACC168E1 
 111      BDCB7C4E 
 111      F372F4C4 
 111      6BE8
 112 00a1 79D5C758 		.ascii	"y\325\307X\272\002$\341\365\222xQj\245\334\022\242@"
 112      BA0224E1 
 112      F5927851 
 112      6AA5DC12 
 112      A240
 113 00b3 BCAFBD7E 		.ascii	"\274\257\275~\362\274\307\273\323\3135\266\2401\250"
 113      F2BCC7BB 
 113      D3CB35B6 
 113      A031A8
 114 00c2 8344B805 		.ascii	"\203D\270\005\211\304Y\017)\210\365\316\226\235\322"
 114      89C4590F 
 114      2988F5CE 
 114      969DD2
 115 00d1 F91A60F8 		.ascii	"\371\032`\370\334<\325\024p&\327\222\237x\223!\234\350"
 115      DC3CD514 
 115      7026D792 
 115      9F789321 
 115      9CE8
 116 00e3 04B7812F 		.ascii	"\004\267\201/\365#\036h\200d\202\017\377\254\233\322"
 116      F5231E68 
 116      8064820F 
ARM GAS  C:\Users\Sava\AppData\Local\Temp\ccoQvwtf.s 			page 9


 116      FFAC9BD2 
 117 00f3 F95AE95A 		.ascii	"\371Z\351Z\375\256y\332r\337 W\177E\325\352J\341/L\""
 117      FDAE79DA 
 117      72DF2057 
 117      7F45D5EA 
 117      4AE12F4C 
 118 0108 F73B7FBB 		.ascii	"\367;\177\273\323B\364\007\337|\231\313,\024\270\222"
 118      D342F407 
 118      DF7C99CB 
 118      2C14B892 
 119 0118 A011DC14 		.ascii	"\240\021\334\024\032Ft\027\223\306\032!\240\342Z\333"
 119      1A467417 
 119      93C61A21 
 119      A0E25ADB 
 120 0128 CF689BAE 		.ascii	"\317h\233\256e|Ke\235\244\343,\222\013\232\300\215\360"
 120      657C4B65 
 120      9DA4E32C 
 120      920B9AC0 
 120      8DF0
 121 013a 4ADFFB90 		.ascii	"J\337\373\220\241\340\342\325d\015\210\322\355X\232"
 121      A1E0E2D5 
 121      640D88D2 
 121      ED589A
 122 0149 E5E87B12 		.ascii	"\345\350{\022\275\224\274\275*\326&\327\227\303}\022"
 122      BD94BCBD 
 122      2AD626D7 
 122      97C37D12 
 123 0159 3E30313A 		.ascii	">01:\351\342\353d\232\301\211\216\217N[\250\342\223"
 123      E9E2EB64 
 123      9AC1898E 
 123      8F4E5BA8 
 123      E293
 124 016b 2DA443F3 		.ascii	"-\244C\363\362,\241%RK4\217\010XA\251U\202O\237\011"
 124      F22CA125 
 124      524B348F 
 124      085841A9 
 124      55824F9F 
 125 0180 CFC511F8 		.ascii	"\317\305\021\370\224\360\367,\006\026\3318\204\267\201"
 125      94F0F72C 
 125      0616D938 
 125      84B781
 126 018f 9BCA862E 		.ascii	"\233\312\206.\015\337\007\273\201o\222\301\215^\271"
 126      0DDF07BB 
 126      816F92C1 
 126      8D5EB9
 127 019e 703ACECE 		.ascii	"p:\316\316\3137\276\312\356\201\016\367\377\021];\270"
 127      CB37BECA 
 127      EE810EF7 
 127      FF115D3B 
 127      B8
 128 01af 9B76F9C5 		.ascii	"\233v\371\305\302\202G\370\313\022\372z\023\342\200"
 128      C28247F8 
 128      CB12FA7A 
 128      13E280
 129 01be 11A52677 		.ascii	"\021\245&w\234#\354\261!\237M\011\266\260\363\334\201"
 129      9C23ECB1 
 129      219F4D09 
ARM GAS  C:\Users\Sava\AppData\Local\Temp\ccoQvwtf.s 			page 10


 129      B6B0F3DC 
 129      81
 130 01cf 1B734A6B 		.ascii	"\033sJk\024>\352\321\264\305\320\346\222\306X9\036l"
 130      143EEAD1 
 130      B4C5D0E6 
 130      92C65839 
 130      1E6C
 131 01e1 869AC942 		.ascii	"\206\232\311B\032\036|\012\012\346f\006\002\006\365"
 131      1A1E7C0A 
 131      0AE66606 
 131      0206F5
 132 01f0 D6C36974 		.ascii	"\326\303it\313\275\217\206-\232U\015\025\037`<\023P"
 132      CBBD8F86 
 132      2D9A550D 
 132      151F603C 
 132      1350
 133 0202 38EE696F 		.ascii	"8\356io\265\024\204K\233\"\340\212\240\3347Xd\023\030"
 133      B514844B 
 133      9B22E08A 
 133      A0DC3758 
 133      641318
 134 0215 4B090C99 		.ascii	"K\011\014\231uG\307\227\240\225\027\026%B\304\243\255"
 134      7547C797 
 134      A0951716 
 134      2542C4A3 
 134      AD
 135 0226 94AB119B 		.ascii	"\224\253\021\233\036z\325\037u\025\252\363\205\264\353"
 135      1E7AD51F 
 135      7515AAF3 
 135      85B4EB
 136 0235 D089FF9D 		.ascii	"\320\211\377\235\016\242\206.\270\012\222_W\374\277"
 136      0EA2862E 
 136      B80A925F 
 136      57FCBF
 137 0244 8A039F77 		.ascii	"\212\003\237wGN%\346,\007\022\361\335\244l\"\340\307"
 137      474E25E6 
 137      2C0712F1 
 137      DDA46C22 
 137      E0C7
 138 0256 E0B39218 		.ascii	"\340\263\222\030\233S\234\003\314\366O\300\370\272v"
 138      9B539C03 
 138      CCF64FC0 
 138      F8BA76
 139 0265 B2E0AE95 		.ascii	"\262\340\256\225\272\336\313-\350A\211y\315\236\366"
 139      BADECB2D 
 139      E8418979 
 139      CD9EF6
 140 0274 E0CDBE9B 		.ascii	"\340\315\276\233\321\030!\255c\024J/\244\"\355C\310"
 140      D11821AD 
 140      63144A2F 
 140      A422ED43 
 140      C8
 141 0285 63A8DE19 		.ascii	"c\250\336\031\032z\355R\032V\244F\327\312\032\016\360"
 141      1A7AED52 
 141      1A56A446 
 141      D7CA1A0E 
 141      F0
ARM GAS  C:\Users\Sava\AppData\Local\Temp\ccoQvwtf.s 			page 11


 142 0296 4B0D501A 		.ascii	"K\015P\032cg\305EHm\224\032A\360r'\364A\352<\265@z}"
 142      6367C545 
 142      486D941A 
 142      41F07227 
 142      F441EA3C 
 143 02ae 0DCE99E4 		.ascii	"\015\316\231\344\305\341\021\231\251F\360\030\243@\375"
 143      C5E11199 
 143      A946F018 
 143      A340FD
 144 02bd D9E2979A 		.ascii	"\331\342\227\232\222w`\004h\361\\.\352\267-N\017\251"
 144      92776004 
 144      68F15C2E 
 144      EAB72D4E 
 144      0FA9
 145 02cf 3B982CD2 		.ascii	";\230,\322\273\317[\2255*2\314=*J\347\277*\321\277R"
 145      BBCF5B95 
 145      352A32CC 
 145      3D2A4AE7 
 145      BF2AD1BF 
 146 02e4 25B65125 		.ascii	"%\266Q%\006d%\002\252\022\345\023n%\020\375\037m\035"
 146      06642502 
 146      AA12E513 
 146      6E2510FD 
 146      1F6D1D
 147 02f7 5C6CEB13 		.ascii	"\\l\353\023j+\205o*\226\030E\024\256\031\017\033\352"
 147      6A2B856F 
 147      2A961845 
 147      14AE190F 
 147      1BEA
 148 0309 53298406 		.ascii	"S)\204\006O\325\304\275\365d\333\311 \320\0367\303\236"
 148      4FD5C4BD 
 148      F564DBC9 
 148      20D01E37 
 148      C39E
 149 031b D79A0150 		.ascii	"\327\232\001P\357\\\366,\206\350\273\254&q8\300\325"
 149      EF5CF62C 
 149      86E8BBAC 
 149      267138C0 
 149      D5
 150 032c 24C67A38 		.ascii	"$\306z8\226~\026\000\207\222\177\031\275\206\247S\277"
 150      967E1600 
 150      87927F19 
 150      BD86A753 
 150      BF
 151 033d 308687CB 		.ascii	"0\206\207\313\350\036\253\217A'\374~\363I\310\217g\002"
 151      E81EAB8F 
 151      4127FC7E 
 151      F349C88F 
 151      6702
 152 034f A1D35040 		.ascii	"\241\323P@\377i\333\231\004g\250wX\231\325\231\271\007"
 152      FF69DB99 
 152      0467A877 
 152      5899D599 
 152      B907
 153 0361 32F766E6 		.ascii	"2\367f\346\356\313:x4]\236\031Y\033\322\231\221\226"
 153      EECB3A78 
 153      345D9E19 
ARM GAS  C:\Users\Sava\AppData\Local\Temp\ccoQvwtf.s 			page 12


 153      591BD299 
 153      9196
 154 0373 9EB32FC3 		.ascii	"\236\263/\303\314\3168\201G\324\361\303G\016\311\027"
 154      CCCE3881 
 154      47D4F1C3 
 154      470EC917 
 155 0383 1BF5FD69 		.ascii	"\033\365\375i9i\277\001>\027\351\356"
 155      3969BF01 
 155      3E17E9EE 
 156              		.text
 157              		.section	.gnu.lto_lv_mem_free.d4bdb29,"",%progbits
 158 0000 789C9555 		.ascii	"x\234\225U\337O\034U\024\276\337\334\331\231\335\235"
 158      DF4F1C55 
 158      14BEDFDC 
 158      D999DD9D 
 159 0010 D965DB58 		.ascii	"\331e\333X\022\015Q\036\304\246\017\2724>\233\370/h"
 159      120D511E 
 159      C4A60FBA 
 159      343E9BF8 
 159      2F68
 160 0022 62E28349 		.ascii	"b\342\203I\323\264\304\230\320\306\304\206\230\370\300"
 160      D3B4C498 
 160      D0C6C486 
 160      98F8C0
 161 0031 8565FB23 		.ascii	"\205e\373#UR\243\005i \305TR\264\002\005K+\024\313\202"
 161      5552A305 
 161      6920C554 
 161      52B40205 
 161      4B2B14CB 
 162 0046 505ADA5A 		.ascii	"PZ\332Z\260\342/Ll-RC\320\260u\205\326\000\3539w\006"
 162      B0E22F4C 
 162      6C2D5243 
 162      D0B07585 
 162      D600EB39 
 163 005c B285A5B1 		.ascii	"\262\205\245\261\223\354\235\275\347~\347\334\363\235"
 163      93EC9DBD 
 163      E77EE7DC 
 163      F39D
 164 006a FBDD33A6 		.ascii	"\373\3353\246\200\340\347\236-\3043\364~\207'\021\001"
 164      80E0E79E 
 164      2DC433F4 
 164      7E872711 
 164      01
 165 007b 43D0CF90 		.ascii	"C\320\317\220B(\303\244\301\224p\311b\032\001\266Xl"
 165      4228C3A4 
 165      C19470C9 
 165      621A01B6 
 165      586C
 166 008d 09688B05 		.ascii	"\011h\213\005\207F\333\010\262=\304\366 \302d\011\351"
 166      8746DB08 
 166      B23DC4F6 
 166      20C26409 
 166      E9
 167 009e D5B05E75 		.ascii	"\325\260^u\014\233W]^u\301\373AT\032\322\014Xv0\024"
 167      0C9B575D 
 167      5E75C1FB 
 167      41541AD2 
ARM GAS  C:\Users\Sava\AppData\Local\Temp\ccoQvwtf.s 			page 13


 167      0C587630 
 168 00b3 765C541A 		.ascii	"v\\T\032\216\360\236\177\214%\003\203\007\246{\214m"
 168      8EF09E7F 
 168      8C250383 
 168      07A67B8C 
 168      6D
 169 00c4 27153D37 		.ascii	"'\025=7\207\317nW\255)$)\223\254\341ap\022\333\0105"
 169      87CF6E57 
 169      AD292429 
 169      93ACE161 
 169      7012DB08 
 170 00d9 5E73BA51 		.ascii	"^s\272Qf\214\244\004L\232\246\257\035\273\035\345\251"
 170      668CA404 
 170      4C9AA6AF 
 170      1DBB1DE5 
 170      A9
 171 00ea 81629A9E 		.ascii	"\201b\232\236\232\037\351\203|\034\202\376/\015\334"
 171      9A1FE983 
 171      7C1C82FE 
 171      2F0DDC
 172 00f9 9930B6B6 		.ascii	"\2310\266\266(U\255Tv\267\012%\245\304g\220\024\017"
 172      2855AD54 
 172      76B70A25 
 172      A5C46790 
 172      140F
 173 010b 9FA208AD 		.ascii	"\237\242\010\255(\022d\0228\205\255\014\377df\274\336"
 173      28126412 
 173      3885AD0C 
 173      FF6466BC 
 173      DE
 174 011c 924F6AD7 		.ascii	"\222Oj\327;\227\007R\341\222\023\354\232Z:\\\330\240"
 174      3B970752 
 174      E19213EC 
 174      9A5A3A5C 
 174      D8A0
 175 012e 5235C549 		.ascii	"R5\305Ii\342\363\007\335\371!\364{\231\326K\266,\321"
 175      69E2F307 
 175      DDF921F4 
 175      7B99D64B 
 175      B62CD1
 176 0141 9E1F56BD 		.ascii	"\236\037V\275\333\355\372\236\277\\q\325\221\252 ;\266"
 176      DBEDFA9E 
 176      BF5C71D5 
 176      91AA203B 
 176      B6
 177 0152 E775FCAD 		.ascii	"\347u\374\255s\371h\304\252a\306\305\350@\011\332P\342"
 177      73F968C4 
 177      AA61C6C5 
 177      E84009DA 
 177      50E2
 178 0164 F1C5692A 		.ascii	"\361\305i*\261\020\016\201\272\226\007\332\002~\304"
 178      B1100E81 
 178      BA9607DA 
 178      027EC4
 179 0173 0F6A9FAE 		.ascii	"\017j\237\256oMUQ.\001\306\341\371\"\224z\321\320\211"
 179      6F4D5551 
 179      2E01C6E1 
ARM GAS  C:\Users\Sava\AppData\Local\Temp\ccoQvwtf.s 			page 14


 179      F922947A 
 179      D1D089
 180 0186 9207C1AA 		.ascii	"\222\007\301\252}L!/\264KC\353?\356\276\347\370q\217"
 180      7D4C212F 
 180      B44B43EB 
 180      3FEEBEE7 
 180      F8718F
 181 0199 D63ED5D0 		.ascii	"\326>\325\320\2529Zbm\236\370B\303\033:o\246W\"wQd\006"
 181      AA395A62 
 181      6D9EF842 
 181      C31B3A6F 
 181      A6572277 
 182 01b0 DBEBC167 		.ascii	"\333\353\301g\326\306V\375\2777C\035z1o\350\356u\241"
 182      D6C656FD 
 182      BF37431D 
 182      7A316FE8 
 182      EE75A1
 183 01c3 97A67C74 		.ascii	"\227\246|t\236\330g\037%\221s\217\002\376r]\326+\340"
 183      9ED8671F 
 183      2591738F 
 183      02FE725D 
 183      D62BE0
 184 01d6 3C49F7D0 		.ascii	"<I\367\320A\371\207\325\361rJe\263\011\225:\347\014"
 184      41F987D5 
 184      F1724A65 
 184      B309953A 
 184      E70C
 185 01e8 8C450B21 		.ascii	"\214E\013!\330h\202%e\011\006\205\264%LB\0138<\2704"
 185      D8688225 
 185      65090685 
 185      B4254C42 
 185      0B383CB8 
 186 01fd 58111AEC 		.ascii	"X\021\032\354(\377+\340\1771\0366\361\260\231m[\264"
 186      28FF2BE0 
 186      7F311E36 
 186      F1B0996D 
 186      5BB4
 187 020f 8B10735A 		.ascii	"\213\020sZ\367i\203^\362\026j~N\374]g\263,\022\222u"
 187      F769835E 
 187      F2166A7E 
 187      4EFC5D67 
 187      B32C1292 
 188 0224 5F971CBC 		.ascii	"_\227\034\274n\263\356\203Zv==\263\223v\345\222:\250"
 188      6EB3EE83 
 188      5A763D3D 
 188      B39376E5 
 188      923AA8
 189 0237 548C6C87 		.ascii	"T\214l\207\244'\260\231\253\023C\341\343h\252R\332\036"
 189      A427B099 
 189      AB1343E1 
 189      E368AA52 
 189      DA1E
 190 0249 C27954A2 		.ascii	"\302yT\242\227\211\320b\363\277\367'\\\317G\275\304"
 190      9789D062 
 190      F3BFF727 
 190      5CCF47BD 
 190      C4
ARM GAS  C:\Users\Sava\AppData\Local\Temp\ccoQvwtf.s 			page 15


 191 025a 81FA709C 		.ascii	"\201\372p\2344\207\257P\251\211\316q\037\220in\004^"
 191      3487AF50 
 191      A989CE71 
 191      1F90696E 
 191      045E
 192 026c 020BB909 		.ascii	"\002\013\271\011t\314\366\334\217p\002\222X_\360k3\307"
 192      74CCF6DC 
 192      8F700292 
 192      585FF06B 
 192      33C7
 193 027e 8D825CA8 		.ascii	"\215\202\\\250S\310i$\032\367\317\267\277\352\271\370"
 193      53C86924 
 193      1AF7CFB7 
 193      BFEAB9F8 
 194 028e 5E17E693 		.ascii	"^\027\346\223\025\336\345]\314f\263\005\350'\307iTg"
 194      15DEE55D 
 194      CC66B305 
 194      E827C769 
 194      5467
 195 02a0 C6160CC6 		.ascii	"\306\026\014\306\345\02235\261\205\221\321\203\256\317"
 195      E5123335 
 195      B18591D1 
 195      83AECF
 196 02af 40459232 		.ascii	"@E\2222L\241\220\362\031\264LU\267\333\361g\223\322"
 196      4CA190F2 
 196      19B44C55 
 196      B7DBF167 
 196      93D2
 197 02c1 C100E5BE 		.ascii	"\301\000\345\276l\370\367\352\306\021\365\021\342m\354"
 197      6CF8F7EA 
 197      C611F511 
 197      E26DEC
 198 02d0 A25E484A 		.ascii	"\242^HJ\027\203\210/\033\360\026[\376\234\314X\354\024"
 198      1783882F 
 198      1BF0165B 
 198      FE9CCC58 
 198      EC14
 199 02e2 C1D76CD6 		.ascii	"\301\327l\326\327m\010\361\334\275#\304i\2306\371\003"
 199      D76D08F1 
 199      DCBD23C4 
 199      699836F9 
 199      03
 200 02f3 35A9ECE1 		.ascii	"5\251\354\341\250G!\264\256\316\321,\007\305E*\030\245"
 200      A84721B4 
 200      AECED12C 
 200      07C5452A 
 200      18A5
 201 0305 959405FA 		.ascii	"\225\224\005\372\300lM\276\272/=\224\010y\236a\362<"
 201      C06C4DBE 
 201      BA2F3D94 
 201      08799E61 
 201      F23C
 202 0317 763E331A 		.ascii	"v>3\032\360\250\007\327\362zEhbX%\366WS\352\242U\332"
 202      F0A807D7 
 202      F27A4568 
 202      625825F6 
 202      5753EAA2 
ARM GAS  C:\Users\Sava\AppData\Local\Temp\ccoQvwtf.s 			page 16


 203 032d AE09BC4F 		.ascii	"\256\011\274O]0\200K\304\017#$\303\355\204\300e\224"
 203      5D30804B 
 203      C40F2324 
 203      C3ED84C0 
 203      6594
 204 033f 52D9128B 		.ascii	"R\331\022\213\226\027\337\361\266834\262?\310[\004\000"
 204      9617DFF1 
 204      B6383334 
 204      B23FC85B 
 204      0400
 205 0351 8C52287D 		.ascii	"\214R(}j{}L\356\231\005\210\337\025\377\314\322\334"
 205      6A7B7D4C 
 205      EE990588 
 205      DF15FFCC 
 205      D2DC
 206 0363 C439E1DE 		.ascii	"\3049\341\336\316\341\333\376\001\2739\031\"o\321uq"
 206      CEE1DBFE 
 206      01BB3919 
 206      226FD175 
 206      71
 207 0374 635CF9AB 		.ascii	"c\\\371\253\033T>\306\205\277\266\256\360+k\026\276"
 207      1B543EC6 
 207      85BFB6AE 
 207      F02B6B16 
 207      BE
 208 0385 E135162A 		.ascii	"\3415\026*\256#\316*\270\353\357\036\241\004x\336{+"
 208      AE23CE2A 
 208      B8EBEF1E 
 208      A10478DE 
 208      7B2B
 209 0397 EE19A26B 		.ascii	"\356\031\242k\013F:]S\261\034)\214m$\205~pJ\343\371"
 209      0B463A5D 
 209      53B11C29 
 209      8C6D2485 
 209      7E704AE3 
 210 03ac B460E1DB 		.ascii	"\264`\341\333\325ln\370\331\034\310Ho\373\002\312\200"
 210      D56C6EF8 
 210      D91CC848 
 210      6FFB02CA 
 210      80
 211 03bd CB5DE797 		.ascii	"\313]\347\227;\246S,\3105m\"k\356\307\311\206\211\357"
 211      3BA6532C 
 211      C8356D22 
 211      6BEEC7C9 
 211      8689EF
 212 03d0 3C6DAFB0 		.ascii	"<m\257\260\332L(\236\327\301W\372\377-\360\304\303\012"
 212      DA4C289E 
 212      D7C157FA 
 212      FF2DF0C4 
 212      C30A
 213 03e2 FCFD430A 		.ascii	"\374\375C\012\374\303*\245\037\021\247\004\364\005\015"
 213      FCC32AA5 
 213      1F11A704 
 213      F4050D
 214 03f1 E90B4ADF 		.ascii	"\351\013J\337j\311\342n\252}\314\313n\313F\342\376I"
 214      6AC9E26E 
 214      AA7DCCCB 
ARM GAS  C:\Users\Sava\AppData\Local\Temp\ccoQvwtf.s 			page 17


 214      6ECB46E2 
 214      FE49
 215 0403 8B1B2BE2 		.ascii	"\213\033+\342v\274f0\2318\321\370\204\347\351\237\201"
 215      76BC6630 
 215      9938D1F8 
 215      84E7E99F 
 215      81
 216 0414 107701BA 		.ascii	"\020w\001\272$\326\342\257oR\270\360l\272\031\204\247"
 216      24D6E2AF 
 216      6F52B8F0 
 216      6CBA1984 
 216      A7
 217 0425 AFBF9C42 		.ascii	"\257\277\234BUL(\352\0233\250\216\011\277QPl\342TX^"
 217      554C28EA 
 217      1333A88E 
 217      09BF5150 
 217      6CE25458 
 218 043a F17AF96B 		.ascii	"\361z\371k\345\025;\366\274\361\326.\375.\333\363\334"
 218      E5153BF6 
 218      BCF1D62E 
 218      FD2EDBF3 
 218      DC
 219 044b 2E61EEDE 		.ascii	".a\356\336\271o\247U\266co\331\333\373P\366\037\313"
 219      B96FA755 
 219      B6636FD9 
 219      DBFB50F6 
 219      1FCB
 220 045d 4E8F78   		.ascii	"N\217x"
 221              		.text
 222              		.section	.gnu.lto_lv_mem_defrag.d4bdb29,"",%progbits
 223 0000 789C9556 		.ascii	"x\234\225V\335O\\E\024\2373s\367\356\3677\335\226ti"
 223      DD4F5C45 
 223      149F3373 
 223      F7EEF737 
 223      DD967469 
 224 0014 78A1A60F 		.ascii	"x\241\246\017\025\324W\037\374\033|\326\364\241Y\215"
 224      15D4571F 
 224      FC1B7CD6 
 224      F4A1598D 
 225 0024 09D5444D 		.ascii	"\011\325DM\343\223\014\354\256\255$M\032\032A\252\004"
 225      E3930CEC 
 225      AEAD244D 
 225      1A1A41AA 
 225      04
 226 0035 89B66095 		.ascii	"\211\266`\225\217\245E]h\355\005iii+\245<\230@[[\255"
 226      8FA5455D 
 226      68ED0569 
 226      69692BA5 
 226      3C98405B 
 227 004b 68C8AADD 		.ascii	"h\310\252\335\006?\032[\360\234\231\273\270,\273Dn\302"
 227      063F1A5B 
 227      F09C99BB 
 227      B82CBB44 
 227      6EC2
 228 005d B933677E 		.ascii	"\2713g~\347\314o~\367\234Y\014\006\214\236\327\\\214"
 228      E7CC6F7E 
 228      F79C590C 
ARM GAS  C:\Users\Sava\AppData\Local\Temp\ccoQvwtf.s 			page 18


 228      068C9ED7 
 228      5C8C
 229 006f EDC6F725 		.ascii	"\355\306\367%\232T1\340\014\377@\240\025\340Dkp\007"
 229      9A5431E0 
 229      0CFF40A0 
 229      15E0446B 
 229      7007
 230 0081 63929B68 		.ascii	"c\222\233h\014\207\362\230\200!\340\344\006\371]\344"
 230      0C87F298 
 230      8021E0E4 
 230      06F95DE4 
 231 0091 7771378D 		.ascii	"wq7\215=4vC\024W=\020D\353\345>\362\373\311\357\203"
 231      3D347643 
 231      14573D10 
 231      44EBE53E 
 231      F2FBC9EF 
 232 00a6 007AFC10 		.ascii	"\000z\374\020B\033P\253A\356\245\325\020\255\206x\230"
 232      421B50AB 
 232      41EEA5D5 
 232      10AD8678 
 232      98
 233 00b7 C6111A87 		.ascii	"\306\021\032\207U\206\210\342\020\005b\011\254\211\013"
 233      558688E2 
 233      10056209 
 233      AC890B
 234 00c6 C3613A5D 		.ascii	"\303a:]n\217\327\347\017\004C\341H\024\232\014\301\364"
 234      6E8FD7E7 
 234      0F0443E1 
 234      48149A0C 
 234      C1F4
 235 00d8 E3B4DF41 		.ascii	"\343\264\337A\373\375\007\177\314a\342\320b\226\357"
 235      FBFD077F 
 235      CC61E2D0 
 235      6296EF
 236 00e7 E995F8DC 		.ascii	"\351\225\370\334\271p\352i\331gA\032\003V\271\306@/"
 236      B970EA69 
 236      D967411A 
 236      0356B9C6 
 236      402F
 237 00f9 EC61089B 		.ascii	"\354a\010\233M\015}(\226yZ\000\0308\315_;\376c\200\246"
 237      4D0D7D28 
 237      96795A00 
 237      1838CD5F 
 237      3BFE6380 
 238 010e 1C6A71FA 		.ascii	"\034jq\372\311\322l\207)\252\201\220?_\036\267<u\037"
 238      C9D26C87 
 238      29AA8190 
 238      3F5F1EB7 
 238      3C751F
 239 0121 4BD922AD 		.ascii	"K\331\"\255[m\261Ni\245j\323B\300)\020\230\024>\205"
 239      5B6DB14E 
 239      69A56AD3 
 239      42C02910 
 239      98143E85 
 240 0135 38F4415C 		.ascii	"8\364A\\%G\364\221\231\326\021\237\250U\221K\223GZ\013"
 240      2547F491 
 240      99D6119F 
ARM GAS  C:\Users\Sava\AppData\Local\Temp\ccoQvwtf.s 			page 19


 240      A855914B 
 240      93475A0B 
 241 0149 91F3377C 		.ascii	"\221\3637|\362h\263\213\002?/\033\370Cf\345=\277\231"
 241      F268B38B 
 241      023F2F1B 
 241      F84366E5 
 241      3DBF99
 242 015c 22DEB5D0 		.ascii	"\"\336\265\320\017u\360\031\324i\3260\200\3323\346G"
 242      0F75F019 
 242      D469D630 
 242      80DA33E6 
 242      47
 243 016d D0F0CA78 		.ascii	"\320\360\312x\277\303\316\370\260mwG\237\325\214\\\014"
 243      BFC3CEF8 
 243      B06D7747 
 243      9FD58C5C 
 243      0C
 244 017e C2C13371 		.ascii	"\302\3013qh\320\331`\020\352\326\203\345\300u\011e\241"
 244      68D0D960 
 244      10EAD683 
 244      E5C07509 
 244      65A1
 245 0190 43A5506B 		.ascii	"C\245Pkh\316\333:$]e\260\231\377\237vXA;zF\376\366\332"
 245      68CEDB3A 
 245      245D65B0 
 245      99FF9F76 
 245      58413B7A 
 246 01a8 694FCF3D 		.ascii	"iO\317=\321\331\247\244s\260\322\343\303i\005\357\314"
 246      D1D9A7A4 
 246      73B0D2E3 
 246      C36905EF 
 246      CC
 247 01b9 DCC91732 		.ascii	"\334\311\0272\017cf\002\233\033\301gJs\313\374O\037"
 247      0F636602 
 247      9B1BC167 
 247      4A73CBFC 
 247      4F1F
 248 01cb 817CF7B9 		.ascii	"\201|\367\271\262\251G6\244\356.\240\313\344\376b+D"
 248      B2A94736 
 248      A4EE2EA0 
 248      CBE4FE62 
 248      2B44
 249 01dd BEDC0AF8 		.ascii	"\276\334\012\370\253\015\254\013\3402\244\263\370\375"
 249      AB0DAC0B 
 249      E032A4B3 
 249      F8FD
 250 01eb ED1A187C 		.ascii	"\355\032\030|\336\222\253\253Ii}\027\031\277\035\335"
 250      DE92ABAB 
 250      49697D17 
 250      19BF1DDD 
 251 01fb 058C16B8 		.ascii	"\005\214\026\270\262\202\021\300\243\306^\206_\301G"
 251      B28211C0 
 251      A3C65E86 
 251      5FC147
 252 020a 26A0E621 		.ascii	"&\240\346!\265\026&G\204L\024\215\243\012\215\271\215"
 252      B5162647 
 252      844C148D 
ARM GAS  C:\Users\Sava\AppData\Local\Temp\ccoQvwtf.s 			page 20


 252      A30A8DB9 
 252      8D
 253 021b 46311A6D 		.ascii	"F1\032m'\263\203L5\371\342*\244F\2053v_5L\236\343K\374"
 253      27B3834C 
 253      35F9E22A 
 253      A4468533 
 253      765F354C 
 254 0233 0229EBFB 		.ascii	"\002)\353\373\266\000\025bRx\360\030\331ln\301\331\364"
 254      B6001562 
 254      5278F018 
 254      D96C6EC1 
 254      D9F4
 255 0245 581E9632 		.ascii	"X\036\2262\224\026\316U\216\365\011\243\320D\205\334"
 255      9416CE55 
 255      8EF509A3 
 255      D04485DC 
 256 0255 9E9E9871 		.ascii	"\236\236\230qR+\011\344:\006\361\264p\251D\330\204\202"
 256      522B09E4 
 256      3A06F1B4 
 256      70A944D8 
 256      8482
 257 0267 3D00C00C 		.ascii	"=\000\300\014\234%EM\344jW\017\240\037\357\023\261\010"
 257      9C25454D 
 257      E46A570F 
 257      A01FEF13 
 257      B108
 258 0279 2D6733B7 		.ascii	"-g3\267'\335z\007/f9>\266<\355\320\375\351\302\351_"
 258      27DD7A07 
 258      2F66393E 
 258      B63CEDD0 
 258      FDE9C2E9 
 259 028e 53D3877D 		.ascii	"S\323\207}\335\320\325L\375\361\"\262u'\261U\307H/\\"
 259      DDD0D54C 
 259      FDF122B2 
 259      7527B155 
 259      C7482F5C 
 260 02a2 FDADCBBA 		.ascii	"\375\255\313\272h6\014\320\232\354\304v7\340\034t\003"
 260      68360CD0 
 260      9AECC476 
 260      37E01C74 
 260      03
 261 02b3 9C45499F 		.ascii	"\234EI\237B\004|\015\015l\021\222\217L\235\337\247\267"
 261      42047C0D 
 261      0D6C1192 
 261      8F4C9DDF 
 261      A7B7
 262 02c5 383339F5 		.ascii	"839\365\216\213\2660\000\340<\246\272\013\251\205\344"
 262      8E8BB630 
 262      00E03CA6 
 262      BA0BA985 
 262      E4
 263 02d6 DB360601 		.ascii	"\3336\006\001\203\271\354C\277\0060\260\354o\223\247"
 263      83B9EC43 
 263      BF0630B0 
 263      EC6F93A7 
 264 02e6 8B5129F2 		.ascii	"\213Q)\362O[\\c\003\225\024\031GE\220\247V\340>]\246"
 264      4F5B5C63 
ARM GAS  C:\Users\Sava\AppData\Local\Temp\ccoQvwtf.s 			page 21


 264      03951419 
 264      474590A7 
 264      56E03E5D 
 265 02fb 22CFF1D6 		.ascii	"\"\317\361\326\022j\247\337O\354\322\361\366A\030\252"
 265      126AA7DF 
 265      4FECD2F1 
 265      F64118AA 
 266 030b C393022F 		.ascii	"\303\223\002/`L\351\270\331q\227\324qi\364|r\360\344"
 266      604CE9B8 
 266      D97197D4 
 266      7169F47C 
 266      72F0E4
 267 031e CE123466 		.ascii	"\316\0224ft\253\214\036\233P\327\261*\015\011U\"4QL"
 267      74AB8C1E 
 267      9B50D7B1 
 267      2A0D0955 
 267      2234514C 
 268 0332 284F17B1 		.ascii	"(O\027\261\226>W\220>\\Ak\261\211\326\337\254\323zr"
 268      963E5790 
 268      3E5C416B 
 268      B189D6DF 
 268      ACD37A72 
 269 0346 BDD611CC 		.ascii	"\275\326\021\314Y\020w\276 n\244HM\237\3460\232\317"
 269      591077BE 
 269      206EA448 
 269      4D9FE630 
 269      9ACF
 270 0358 2DDB1CA2 		.ascii	"-\333\034\242E\034\240\344K\237\270\3272\340\254\357"
 270      451CA0E4 
 270      4B9FB8D7 
 270      32E0ACEF 
 271 0368 A7CDF154 		.ascii	"\247\315\361T\036\270\200{\257p\373\012\235;*\337\207"
 271      1EB8807B 
 271      AF70FB0A 
 271      9D3B2ADF 
 271      87
 272 0379 B5452F5C 		.ascii	"\265E/\\\204\372\025:\266\012\374ua\331\\[s\300\024"
 272      84FA153A 
 272      B60AFC75 
 272      61D95C5B 
 272      73C014
 273 038c ADA9DBF5 		.ascii	"\255\251\333\365\022\324#\341\226\007N\275{\025\022"
 273      12D423E1 
 273      96074EBD 
 273      7B1512
 274 039b A0F968CF 		.ascii	"\240\371h\317\263\332\261\255T\222Y(\325D\263\332K\204"
 274      B3DAB1AD 
 274      54925928 
 274      D544B3DA 
 274      4B84
 275 03ad 2E572024 		.ascii	".W $\363@\224\2467P\332Kl\256\254\261\271j\2639\364"
 275      F34094A6 
 275      3750DA4B 
 275      6CAEACB1 
 275      B96AB339 
 276 03c2 C8D0DBC7 		.ascii	"\310\320\333\307\220\001\011\332n\013\272]Q\214\025"
 276      900109DA 
ARM GAS  C:\Users\Sava\AppData\Local\Temp\ccoQvwtf.s 			page 22


 276      6E0BBA5D 
 276      518C15
 277 03d1 BB76A0B7 		.ascii	"\273v\240\267\370'\315\004\003\256!\265\242SU#\212\346"
 277      F827CD04 
 277      03AE21B5 
 277      A2535523 
 277      8AE6
 278 03e3 ED40F32D 		.ascii	"\355@\363-\010\374\355f\002\317l\"\360\365\265#\315"
 278      08FCED66 
 278      02CF6C22 
 278      F0F5B523 
 278      CD
 279 03f4 423D1250 		.ascii	"B=\022P\365\352W\365\032\260\353\365\334\261\230f\027"
 279      F5EA57F5 
 279      1AB0EBF5 
 279      DCB19866 
 279      17
 280 0405 AF54AF37 		.ascii	"\257T\2577T\275\212B\275\006\013\255s\376\244\335:\342"
 280      54BD8A42 
 280      BD060BAD 
 280      73FEA4DD 
 280      3AE2
 281 0417 BFD61158 		.ascii	"\277\326\021X\367\236\\g\017vO<\220\373 C\335\023*t"
 281      F79E5C67 
 281      0F764F3C 
 281      90FB2043 
 281      DD132A74 
 282 042b 4F6FEFCE 		.ascii	"Oo\357\316\222\000d\023Vl\"\272\000\3333\177\246\034"
 282      92006413 
 282      566C22BA 
 282      00DB337F 
 282      A61C
 283 043d 1A538330 		.ascii	"\032S\2030\265\037\376C\"\356As\210I\234/AK\210\331"
 283      B51FFE43 
 283      22EE4173 
 283      88499C2F 
 283      414B88D9 
 284 0451 91C80D8F 		.ascii	"\221\310\015\217\026k<\370r\343\013\215\007\367\035"
 284      166B3CF8 
 284      72E30B8D 
 284      07F71D
 285 0460 78E58DFD 		.ascii	"x\345\215\375\352\2358\360\344~f&\366\275\232x\353M"
 285      EA9D38F0 
 285      E47E6626 
 285      F6BD9A78 
 285      EB4D
 286 0472 7CBDF47A 		.ascii	"|\275\364z\"\361/`\346\235 "
 286      22F12F60 
 286      E69D20
 287              		.text
 288              		.section	.gnu.lto_lv_mem_monitor.d4bdb29,"",%progbits
 289 0000 789C9D57 		.ascii	"x\234\235W\353O\024W\024\277gf\337\313\"B\344Q\327\200"
 289      EB4F1457 
 289      14BF6766 
 289      DFCB2242 
 289      E451D780 
 290 0014 8F554164 		.ascii	"\217UAd\265M\373\245\037\352\337\320\246\375\324\306"
ARM GAS  C:\Users\Sava\AppData\Local\Temp\ccoQvwtf.s 			page 23


 290      B54DFBA5 
 290      1FEADFD0 
 290      A6FDD4C6 
 291 0024 0F8D314D 		.ascii	"\017\2151M\30461\265\337\312\300>\260M\233\230\250\213"
 291      C43631B5 
 291      DFCAC03E 
 291      B04D9B98 
 291      A88B
 292 0036 1A8D3586 		.ascii	"\032\2155\206\210V\221U\267\026\260uDEK\301G\305\305"
 292      88569155 
 292      B716B075 
 292      44454BC1 
 292      47C5C5
 293 0049 0A2A2A58 		.ascii	"\012**XkQY\273\370h\005z\316\275\263l\335\331YW'\331"
 293      6B5159BB 
 293      F868057A 
 293      CEBDB36C 
 293      DDD95957 
 294 005f 3377EEFC 		.ascii	"3w\356\374\356\357\374\3169\3671kb\300\350\252\310c"
 294      EEEFFCCE 
 294      39F7316B 
 294      62C0E8AA 
 294      C863
 295 0071 AC0CEF2B 		.ascii	"\254\014\357+\351\301\311@b\370\003;ZY21\246HV4&\223"
 295      E9C1C940 
 295      62F8033B 
 295      5A593231 
 295      A6485634 
 296 0087 64A6B685 		.ascii	"d\246\266\205\332f\300\033X\300\206\326\312\255\215"
 296      DA66C01B 
 296      58C086D6 
 296      CAAD8D
 297 0096 E3ED924C 		.ascii	"\343\355\222L\030\007a\034@\354\300j$\331d\266Xmv\007"
 297      1807611C 
 297      40ECC06A 
 297      24D964B6 
 297      586D7607 
 298 00aa D4487626 		.ascii	"\324Hv&\2561i\\\202\216\372\333\255R\371n\005\257\301"
 298      AE31695C 
 298      828EFADB 
 298      AD52F96E 
 298      05AFC1
 299 00bd 53C75E57 		.ascii	"S\307^W\232T\010\340\370II``7\224#\352\202\277e\233"
 299      9A5408E0 
 299      F8494960 
 299      60379423 
 299      EA82BF65 
 300 00d2 1C970232 		.ascii	"\034\227\0022\200\011\037c=[o\345\322\243\004e\370x"
 300      80091F63 
 300      3D5B6FE5 
 300      D2A30465 
 300      F878
 301 00e4 ED5468A3 		.ascii	"\355Th\243S.\001\206m_\303\203q\333\202FE\251S\224\360"
 301      532E0186 
 301      6D5FC383 
 301      71DB8246 
 301      45A95394 
ARM GAS  C:\Users\Sava\AppData\Local\Temp\ccoQvwtf.s 			page 24


 302 00f9 0AC51E90 		.ascii	"\012\305\036\220e\330\0132\362\301\036pC\023\270\031"
 302      65D80B32 
 302      F2C11E70 
 302      4313B819 
 303 0109 7631F81E 		.ascii	"v1\370\036\026\020\374\333x\323\031\253\\\312\207n\254"
 303      1610FCDB 
 303      78D319AB 
 303      5CCA876E 
 303      AC
 304 011a FD2692E3 		.ascii	"\375&\222\343\331EC\325\206P\341\026E\365\227\005d\023"
 304      D94543D5 
 304      8650E116 
 304      45F59705 
 304      6413
 305 012c EC7B7E38 		.ascii	"\354{~8]\210\276\031\236\330\344\262\370Ix\031\354\007"
 305      5D88BE19 
 305      9ED8E4B2 
 305      F8497819 
 305      EC07
 306 013e 8F900CCD 		.ascii	"\217\220\014\315\230\021\306f!\340\340\304\361\375f"
 306      9811C666 
 306      21E0E0C4 
 306      F1FD66
 307 014d 8DEE5074 		.ascii	"\215\356PtVC\223Z\213tf\302\301\033nX\"\230\340\000"
 307      5643935A 
 307      8B7466C2 
 307      C11B6E58 
 307      2298E000 
 308 0161 789E072B 		.ascii	"x\236\007+\315\347\025H\013m\341\320-\341\301X\2027"
 308      CDE71548 
 308      0B6DE1D0 
 308      2DE1C158 
 308      8237
 309 0173 129AB1A5 		.ascii	"\022\232\261\245\211\313\264\260T\215\020N\205+O\207"
 309      89CBB4B0 
 309      548D104E 
 309      852B4F87 
 310 0183 BE03E5AB 		.ascii	"\276\003\345\253ei\321\007u\344GB\245\306\344\2078\274"
 310      6569D107 
 310      75E44742 
 310      A5C6E487 
 310      38BC
 311 0195 6167E489 		.ascii	"ag\344\211S#\217\014k\344V=\372\260N\312x\006)\021\035"
 311      53238F0C 
 311      6BE4563D 
 311      FAB04ECA 
 311      78062911 
 312 01aa FA20A6C4 		.ascii	"\372 \246\304@\310\017\251B\324\326\250[\323\235F\311"
 312      40C80FA9 
 312      42D4D6A8 
 312      5BD39D46 
 312      C9
 313 01bb 111DF786 		.ascii	"\021\035\367\206ac%?\352\320\341\014\350V\235\224\366"
 313      6163253F 
 313      EAD0E10C 
 313      E8569D94 
 313      F6
ARM GAS  C:\Users\Sava\AppData\Local\Temp\ccoQvwtf.s 			page 25


 314 01cc E85BC652 		.ascii	"\350[\306R\332t\344\221\014\344\355\272\372\\\310T\374"
 314      DA74E491 
 314      0CE4EDBA 
 314      FA5CC854 
 314      FC
 315 01dd A32F55FC 		.ascii	"\243/U\374\237t\344WC\213\215\311\177\326\2217dP~L_"
 315      9F74E457 
 315      438B8DC9 
 315      7FD69137 
 315      64507E4C 
 316 01f2 FC0C6855 		.ascii	"\374\014hU\207\276\236\001}\\\267z\372\007\020\355["
 316      87BE9E01 
 316      7D5CB77A 
 316      FA0710ED 
 316      5B
 317 0203 9666F974 		.ascii	"\226f\371td\277\322N\350\362q=Zd\234\217\223:\315c\031"
 317      64BFD24E 
 317      E8F2713D 
 317      5A649C8F 
 317      933ACD63 
 318 0218 349FD24F 		.ascii	"4\237\322O\252\316\234\257\327\327\332\322\242;\365"
 318      AACE9CAF 
 318      D7D7DAD2 
 318      A23BF5
 319 0227 133603FA 		.ascii	"\0236\003\372\364K\344\343L*V\215\205<F\333\324//A\334"
 319      F44BE4E3 
 319      4C2A568D 
 319      853C46DB 
 319      D42F2F41 
 320 023c 051EDA11 		.ascii	"\005\036\332\021\017\274\253*\223\223>E\235,8\036/\\"
 320      0FBCAB2A 
 320      93933E45 
 320      9D2C381E 
 320      2F5C
 321 024e 0A8C3A2D 		.ascii	"\012\214:-@[\257\215\267\035\334:qC6\347\220q\241\261"
 321      405BAF8D 
 321      B71DDC3A 
 321      714336E7 
 321      9071A1B1 
 322 0262 E492C923 		.ascii	"\344\222\311#3\035\2155\237Z\005df\320c!\265\212\310"
 322      331D8D35 
 322      9F5A0564 
 322      66D06321 
 322      B58AC8
 323 0275 14D36309 		.ascii	"\024\323c\011\265f\222\241m\335R\312\011gSs\016\231"
 323      B56692A1 
 323      6DDD52CA 
 323      09675373 
 323      0E99
 324 0287 B964E691 		.ascii	"\271d\346\221\361\020\377|2\013\351\261\234L\005\231"
 324      F110FF7C 
 324      320BE9B1 
 324      9C4C0599 
 325 0297 45642AE9 		.ascii	"Ed*\351E\025\031/\031\306F\371\361\023\223\360&\337"
 325      4515192F 
 325      19C646F9 
 325      F11393F0 
ARM GAS  C:\Users\Sava\AppData\Local\Temp\ccoQvwtf.s 			page 26


 325      26DF
 326 02a9 81A0BA21 		.ascii	"\201\240\272!*\321\316N\373~k\353H\277\265f\\Y\247("
 326      2AD1CE4E 
 326      FB7E6BEB 
 326      48BFB566 
 326      5C59A728 
 327 02bd 7901D936 		.ascii	"y\001\3316)\341v\017\277B\015\363\311\026\250p#\342"
 327      29E1760F 
 327      BF420DF3 
 327      C916A870 
 327      23E2
 328 02cf BE7F78D0 		.ascii	"\276\177x\320I\247\223\035\212\241\033\334\001\331\301"
 328      49A7931D 
 328      8AA11BDC 
 328      01D9C1
 329 02de 6E435DBC 		.ascii	"nC]\274\245\363s\"\361\3116\004\205\002\035\347\254"
 329      A5F37322 
 329      F1C93604 
 329      85021DE7 
 329      AC
 330 02ef 0432615E 		.ascii	"\0042a^z\260|w\300\257n+\024\000\207\316\217s\222\264"
 330      7AB07C77 
 330      C0AF6E2B 
 330      140087CE 
 330      8F7392B4 
 331 0303 C059EE07 		.ascii	"\300Y\356\007K\237\303\345\341A)#\363\321Xw\304*F:q"
 331      4B9FC3E5 
 331      E1412923 
 331      F3D15877 
 331      C42A463A 
 332 0318 E4D6F678 		.ascii	"\344\326\366x\227Y\034\226\344\351\361\351\256u9;`{"
 332      97591C96 
 332      E4E9F1E9 
 332      AE75393B 
 332      607B
 333 032a 2D1D556F 		.ascii	"-\035Uoc|.\037\276!\227\024\316\375\355j\247eI3\275"
 333      637C2E1F 
 333      BE219714 
 333      CEFDED6A 
 333      A7654933 
 334 033f 53BEC0D8 		.ascii	"S\276\300\330\341<\354\0008\207sj)\002\340\002,A\355"
 334      E13CEC00 
 334      3887736A 
 334      2902E002 
 334      2C41ED
 335 0352 BE671641 		.ascii	"\276g\026A\237#<\034>y:h#\017f\000\370\015\231n\200"
 335      9F233C1C 
 335      3E793A68 
 335      230F6600 
 335      F80D996E 
 336 0367 FF8A6FB5 		.ascii	"\377\212o\265\206A\300\201\221\326\247.\001`pQ\233\234"
 336      8641C081 
 336      91D6A72E 
 336      01607051 
 336      9B9C
 337 0379 31FA9020 		.ascii	"1\372\220 \275m\341\236F\263\000\273\376\237\012\231"
 337      BD6DE19E 
ARM GAS  C:\Users\Sava\AppData\Local\Temp\ccoQvwtf.s 			page 27


 337      46B300BB 
 337      FE9F0A99 
 338 0389 1FC309BD 		.ascii	"\037\303\011\275\370\035\220K9\355\325\2246\016\325"
 338      F81D904B 
 338      39EDD594 
 338      360ED5
 339 0398 355BBD8B 		.ascii	"5[\275\213\003\3624\270\204\032'x\211 \012^\022\030"
 339      03F234B8 
 339      841A2778 
 339      89200A5E 
 339      1218
 340 03aa 0A0EC982 		.ascii	"\012\016\311\2021W\220F\352\273\303\016\"\235\206\022"
 340      31579046 
 340      EABBC30E 
 340      229D8612 
 341 03ba FB9002FD 		.ascii	"\373\220\002\375\206\200 \251)y\237\031;\272\234t\364"
 341      868020A9 
 341      29799F19 
 341      3BBA9C74 
 341      F4
 342 03cb 3B78919C 		.ascii	";x\221\234h\332b=\303Z\272\363^\250w?\271\310#\256+"
 342      68DA623D 
 342      C35ABAF3 
 342      5EA8773F 
 342      B9C823AE 
 343 03e0 9C8B7F0F 		.ascii	"\234\213\177\017\365s\321um;\027\013\232\351\251\232"
 343      F573D175 
 343      6D3B170B 
 343      9AE9A99A 
 344 03f0 36416A9D 		.ascii	"6Aj\235\246D\345\301\000'\222\304g\310\305\365\312f"
 344      A644E5C1 
 344      002792C4 
 344      67C8C5F5 
 344      CA66
 345 0402 105E9408 		.ascii	"\020^\224\010J\230\016W\301;A3\203\217\272\327\037\267"
 345      4A980E57 
 345      C13B4133 
 345      838FBAD7 
 345      1FB7
 346 0414 D0282B5C 		.ascii	"\320(+\\\243n\023y\277.\274?\254\217k)\313G\005<\211"
 346      A36E1379 
 346      BF2EBC3F 
 346      AC8F6B29 
 346      CB47053C 
 347 0429 5A950B30 		.ascii	"Z\225\01300\354M\233\262\027E9\230\214\362\006e\254"
 347      30EC4D9B 
 347      B2174539 
 347      988CF206 
 347      65AC
 348 043b 80071A3E 		.ascii	"\200\007\032>\273I\313\330\214\324P\337\313\020\351"
 348      BB49CBD8 
 348      8CD450DF 
 348      CB10E9
 349 044a 4DA348D7 		.ascii	"M\243H\327P\240\267\322\007:4\025\350p\"\320n\223p^"
 349      50A0B7D2 
 349      073A3415 
 349      E87022D0 
ARM GAS  C:\Users\Sava\AppData\Local\Temp\ccoQvwtf.s 			page 28


 349      6E93705E 
 350 045e 88FE45E2 		.ascii	"\210\376E\342+EGQv\363\3556\327a&\316?\220\023g\373"
 350      2B454751 
 350      76F3ED36 
 350      D76126CE 
 350      3F901367 
 351 0473 65DF9753 		.ascii	"e\337\227S\224E\332\3546k\263;v\366\222K\274,N\015\266"
 351      9445DAEC 
 351      366BB33B 
 351      76F6924B 
 351      BC2C4E0D 
 352 0488 3D535DEF 		.ascii	"=S]\357\030E\333\317\353\372g\372p\357N\205\373W\"\334"
 352      1845DBCF 
 352      EBFA67FA 
 352      70EF4E85 
 352      FB5722DC 
 353 049c 5E6D7195 		.ascii	"^mq\225\240\002\343y\377Q\206y?\222\014\370\036U\261"
 353      A002E379 
 353      FF518679 
 353      3F920CF8 
 353      1E55B1
 354 04af 840788DF 		.ascii	"\204\007\210\337\3732\335\255\211e\334\233X\3063\263"
 354      FB32DDAD 
 354      8965DC9B 
 354      58C633B3 
 355 04bf CBE37D4E 		.ascii	"\313\343}Nk!\332\007\251\353\326\215,\257\276PG\223"
 355      6B21DA07 
 355      A9EBD68D 
 355      2CAFBE50 
 355      4793
 356 04d1 CC3112EC 		.ascii	"\3141\022\354\346\202m|\373\366\253}Q\255 \245F\033"
 356      E6826D7C 
 356      FBF6AB7D 
 356      51AD20A5 
 356      461B
 357 04e3 EB43BEB1 		.ascii	"\353C\276\261Bbc\305\277(2V\271\337wk\337kb\244V1\306"
 357      426263C5 
 357      BF283256 
 357      B9DF776B 
 357      DF6B62A4 
 358 04fa 1E02E006 		.ascii	"\036\002\340\006-\215\204g!\235\355h\244\032\341\016"
 358      2D8D8467 
 358      219DED68 
 358      A41AE10E 
 359 050a 9190F868 		.ascii	"\221\220\370ht\314\234N\371\233\031\224\377\315\225"
 359      74CC9C4E 
 359      F99B1994 
 359      FFCD95
 360 0519 5B49791C 		.ascii	"[Iy\034\274\370\356\321\236\261v\227\330\271\024E\202"
 360      BCF8EED1 
 360      9EB17697 
 360      D8B91445 
 360      82
 361 052a 319192B6 		.ascii	"1\221\222\266p_\243SH\231\235]\262\037%W\342c\221\354"
 361      705FA353 
 361      48999D5D 
 361      B21F2557 
ARM GAS  C:\Users\Sava\AppData\Local\Temp\ccoQvwtf.s 			page 29


 361      E26391EC 
 362 053e ADC1016D 		.ascii	"\255\301\001m!\314\021,]\273\036u\360\223\302\002C\014"
 362      21CC112C 
 362      5DBB1E75 
 362      F093C202 
 362      430C
 363 0550 9E689E76 		.ascii	"\236h\236v\276#@s\263\363\3634\031\300?\302OK0q^\314"
 363      BE234073 
 363      B3F3F334 
 363      19C03FC2 
 363      4F4B3071 
 364 0566 E3AEE68A 		.ascii	"\343\256\346\212i9\"\211N\017\366\023l\263\006\232\217"
 364      69392289 
 364      4E0FF613 
 364      6CB3069A 
 364      8F
 365 0577 7C6D7B4F 		.ascii	"|m{O\3340\221\222|R\362/\340l\360\030\317\004\343|\346"
 365      DC309192 
 365      7C52F22F 
 365      E06CF018 
 365      CF04E37C 
 366 058c C3332EC7 		.ascii	"\3033.\307Fr\306i&\314\027[v\337\260]x[\230]T\023\311"
 366      4672C669 
 366      26CC175B 
 366      76DFB05D 
 366      785B985D 
 367 05a3 153099C8 		.ascii	"\0250\231\310^\257\266\207\225#K2[\335 z+\262#V\244"
 367      5EAFB687 
 367      95234B32 
 367      5BDD207A 
 367      2BB22356 
 368 05b8 A9B2D44A 		.ascii	"\251\262\324JZ\272\272\213\005\305\"\316]\361|\272*"
 368      5ABABA8B 
 368      05C522CE 
 368      5DF17CBA 
 368      2A
 369 05c9 B1FFD552 		.ascii	"\261\377\325RQ\307]\321\337m\360I\230\212J1\221\006"
 369      51C75DD1 
 369      DF6DF049 
 369      988A4A31 
 369      9106
 370 05db 1AB55454 		.ascii	"\032\265TTe\2438\037\374I\232\200P\2749\230\020\347"
 370      65A3381F 
 370      FC499A80 
 370      50BC3998 
 370      10E7
 371 05ed 15B5AA7A 		.ascii	"\025\265\252z5\201\301$s=\011\364\262\273P\247\216}"
 371      3581C124 
 371      733D09F4 
 371      B2BB50A7 
 371      8E7D
 372 05ff C0BFB5E8 		.ascii	"\300\277\265\350\032\245D\341\372,\\\265v\345\252\017"
 372      1AA544E1 
 372      FA2C5CB5 
 372      76E5AA0F 
 373 060f 57AD5D5E 		.ascii	"W\255]^\375\311\232\217\371}Eu\325\307\314\\\375\351"
 373      FDC99A8F 
ARM GAS  C:\Users\Sava\AppData\Local\Temp\ccoQvwtf.s 			page 30


 373      F97D4575 
 373      D5C7CC5C 
 373      FDE9
 374 0621 EAE59FC1 		.ascii	"\352\345\237\301\212\377\000\342\355\027\344"
 374      8AFF00E2 
 374      ED17E4
 375              		.text
 376              		.section	.gnu.lto_ent_trunc.d4bdb29,"",%progbits
 377 0000 789C9555 		.ascii	"x\234\225U\353O\\E\024\237s\347>\026\366AKxII\303\027"
 377      EB4F5C45 
 377      149F73E7 
 377      3E16F641 
 377      4B784949 
 378 0016 42FA4137 		.ascii	"B\372A7\261\337\214&\376\013\332\304\304\244\221\220"
 378      B1DF8C26 
 378      FE0BDAC4 
 378      C4A49190 
 379 0026 BA9A46AA 		.ascii	"\272\232F\252F\032\014&\206\013\313\202~hlm\204\242"
 379      461A0C26 
 379      860BCB82 
 379      7E686C6D 
 379      84A2
 380 0038 507C9480 		.ascii	"P|\224\200Z\012\364Ei\241](\266\265\320\007Vje\025h"
 380      5A0AF445 
 380      69A15D28 
 380      B6B5D007 
 380      566A6515 
 381 004d 0B4D34D6 		.ascii	"\013M4\326\272tmi\005\326sf\356n\350\356\336M\330dg"
 381      BA746D69 
 381      05D67366 
 381      EE6EE8EE 
 381      DE4DD864 
 382 0062 76CEFCCE 		.ascii	"v\316\374\3169\277\337\2319\263*\003F\237\315\231\214"
 382      39BFDF99 
 382      39B32A03 
 382      469FCD99 
 382      8C
 383 0073 3D8BF34B 		.ascii	"=\213\363K\264\310`\2400\374*\2341SQqP9\340\004\252"
 383      B4C860A0 
 383      30FC2A9C 
 383      31535171 
 383      5039E004 
 384 0088 A2914527 		.ascii	"\242\221E'\213\0068\201\256\030dq\220\305\000\234\300"
 384      8B063881 
 384      AE186471 
 384      90C5009C 
 384      C0
 385 0099 01141158 		.ascii	"\001\024\021X\215\302UM7\034P\003\377*\313\012\2144"
 385      8DC2554D 
 385      371C5003 
 385      FF2ACB0A 
 385      8C34
 386 00ab DE195036 		.ascii	"\336\031P6u\232\370\231\235\357\177\253\326\014\024"
 386      759AF899 
 386      9DEF7FAB 
 386      D60C14
 387 00ba 04307E54 		.ascii	"\0040~T\021\371\031t\302&DM\324\367\266\362\210\022"
ARM GAS  C:\Users\Sava\AppData\Local\Temp\ccoQvwtf.s 			page 31


 387      11F91974 
 387      C226444D 
 387      D4F7B6F2 
 387      8812
 388 00cc E0002A2E 		.ascii	"\340\000*.\303\227>\277\355\241\245\002\305\270\334"
 388      C3973EBF 
 388      EDA1A502 
 388      C5B8DC
 389 00db 15E9BA60 		.ascii	"\025\351\272`\360\247\200\341\357O\314\307m\274\264"
 389      F0A780E1 
 389      EF4FCCC7 
 389      6DBCB4
 390 00ea C334EB4C 		.ascii	"\3034\353L\263\315gf\0048\207\357\200c<\370\026\212"
 390      B3CD6766 
 390      043887EF 
 390      80633CF8 
 390      168A
 391 00fc A00B8A18 		.ascii	"\240\013\212\030\232\030|\017\245\210\376\272vr\314"
 391      9A187C0F 
 391      A588FEBA 
 391      7672CC
 392 010b CD3708CF 		.ascii	"\3157\010\317\306\356\241?<\226\347\244\360T\341`\242"
 392      C6EEA13F 
 392      3C96E7A4 
 392      F054E160 
 392      A2
 393 011c A7CAA01B 		.ascii	"\247\312\240\033J\011~\253o\3453\267^O\304\213%]8\004"
 393      4A097EAB 
 393      6FE533B7 
 393      5E4FC48B 
 393      255D3804 
 394 0130 3A8ACCC2 		.ascii	":\212\314\302\315\226\276\331\260V\362\015\305\012\336"
 394      CD96BED9 
 394      B056F20D 
 394      C50ADE
 395 013f 0F795ABA 		.ascii	"\017yZ\272\202\365\305\001\256\261\325\301\204\274\036"
 395      82F5C501 
 395      AEB1D5C1 
 395      84BC1E
 396 014e 284178F3 		.ascii	"(Ax\363W\307\026\235\026|\317t\216\005\327\223\341\275"
 396      57C7169D 
 396      167CCF74 
 396      8E05D793 
 396      E1BD
 397 0160 02BE2ABA 		.ascii	"\002\276*\272y\177\356K0?~1e\360\276$\364\336y{\364"
 397      797FEE4B 
 397      303F7E31 
 397      65F0BE24 
 397      F4DE797B 
 398 0175 E1242A7B 		.ascii	"\341$*{\247\213\354\251\034I\202\177\221\216\371\321"
 398      A78BECA9 
 398      1C49827F 
 398      918EF9D1 
 399 0185 35313F96 		.ascii	"51?\226\024\374\310\264\327>\370\361\244\3403i\204\366"
 399      14FCC8B4 
 399      D73EF8F1 
 399      A4E03369 
ARM GAS  C:\Users\Sava\AppData\Local\Temp\ccoQvwtf.s 			page 32


 399      84F6
 400 0197 27A10F5F 		.ascii	"'\241\017_5\301\346\200N$\201\227\323\204\036H\344m"
 400      35C1E680 
 400      4E248197 
 400      D3841E48 
 400      E46D
 401 01a9 B6C4D029 		.ascii	"\266\304\320)h\237LRyj\177\276\275\312S\002\376\337"
 401      689F4C52 
 401      796A7FBE 
 401      BDCA5302 
 401      FEDF
 402 01bb 9E5DBBDD 		.ascii	"\236]\273\335\274X\\\331\033#\307\373U\313\265m:\267"
 402      BC585CD9 
 402      1B23C7FB 
 402      55CBB56D 
 402      3AB7
 403 01cd C514AE06 		.ascii	"\305\024\256\006\014>ym\205\367\220\360\276{\342\350"
 403      0C3E796D 
 403      85F790F0 
 403      BE7BE2E8 
 404 01dd 9887970A 		.ascii	"\230\207\227\012\357\226\340\247\007c\227\264}\177\221"
 404      EF96E0A7 
 404      076397B4 
 404      7D7F91
 405 01ec E5CDE174 		.ascii	"\345\315\341t\012\3573P\322\363r\320\214F\375fpb\303"
 405      0AEF3350 
 405      D2F372D0 
 405      8C46FD66 
 405      7062C3
 406 01ff F0E0C622 		.ascii	"\360\340\306\"\020\235\240\210Q\005\0325\354\017M\027"
 406      109DA088 
 406      51051A35 
 406      EC0F4D17 
 407 020f 06438C19 		.ascii	"\006C\214\031@m\226\211f\335I{.\032\334\264\364\210"
 407      406D9689 
 407      66DD497B 
 407      2E1ADCB4 
 407      F488
 408 0221 FD2CFAB9 		.ascii	"\375,\372\271\216\214\353\005\277l\221'\207\254\271"
 408      8E8CEB05 
 408      BF6C9127 
 408      87ACB9
 409 0230 64CDA321 		.ascii	"d\315\243!\237\206\002\262\025\322\300\330?\342i\010"
 409      9F8602B2 
 409      15D2C0D8 
 409      3FE26908 
 410 0240 2B38F13B 		.ascii	"+8\361;\340_j\270|\3579j=?\327\374\234^\207\221\205"
 410      E05F6AB8 
 410      7CEF396A 
 410      3D3FD7FC 
 410      9C5E8791 
 411 0255 DE4E17BD 		.ascii	"\336N\027\275\016\032p\010\242\202\233P\037\362o\264"
 411      0E1A7008 
 411      A2829B50 
 411      1FF26FB4 
 412 0265 3008E8F9 		.ascii	"0\010\350\371k\340\221[\002\030\014[\022\303\364\254"
 412      6BE0915B 
ARM GAS  C:\Users\Sava\AppData\Local\Temp\ccoQvwtf.s 			page 33


 412      02180C5B 
 412      12C3F4AC 
 413 0275 C980D7EF 		.ascii	"\311\200\327\357=/\301\272\014x\372A\240J\302\227\242"
 413      3D2FC1BA 
 413      0C78FA41 
 413      A04AC297 
 413      A2
 414 0286 D168168C 		.ascii	"\321h\026\214\240\013\002\233\032\246\336\2218\003\241"
 414      A00B029B 
 414      1AA6DE91 
 414      3803A1
 415 0295 AB5F290D 		.ascii	"\253_)\015T8+\342\206\351\235\304\250u'\373F\2335\211"
 415      54382BE2 
 415      86E99DC4 
 415      A87527FB 
 415      469B3589 
 416 02a9 CE446853 		.ascii	"\316DhS`\344\212AP.\216\342\341\371\213\037\271\332"
 416      60E48A41 
 416      502E8EE2 
 416      E1F98B1F 
 416      B9DA
 417 02bb A1AD969E 		.ascii	"\241\255\226\236\223\315\250\323\341\347\0310J!p\267"
 417      93CDA8D3 
 417      E1E71930 
 417      4A2170B7 
 418 02cb 63AEEE90 		.ascii	"c\256\356\220\341}:\200\246\037\240\035VD\001\320~m"
 418      E17D3A80 
 418      A61FA01D 
 418      564401D0 
 418      7E6D
 419 02dd B7B90FBC 		.ascii	"\267\271\017\274\335\344cn\011\360L8\007\336\025\005"
 419      DDE4636E 
 419      09F04C38 
 419      07DE1505 
 420 02ed E466C7DD 		.ascii	"\344f\307\335PD''\035\316\223Y\274P\027\300\213\314"
 420      50442727 
 420      1DCE9359 
 420      BC5017C0 
 420      8BCC
 421 02ff EB161AC7 		.ascii	"\353\026\032\307\271\344\342D:R\313\270*-.?>\262ge\325"
 421      B9E4E244 
 421      3A52CBB8 
 421      2A2D2E3F 
 421      3EB26765 
 422 0314 A6625543 		.ascii	"\246bUC\230\213\222.\000`I\024\034\014>8S\215\3624K"
 422      988B922E 
 422      00604914 
 422      1C0C3E38 
 422      538DF234 
 423 0329 5E78B4D9 		.ascii	"^x\264\331\220Xw\242\236-i\364\374h\247\247\222\364"
 423      905877A2 
 423      9E2D69F4 
 423      FC68A7A7 
 423      92F4
 424 033b 5C4CAD67 		.ascii	"\\L\255g,\256g<\246'\0022\271\007\363\213\262\3531^"
 424      2CAE673C 
 424      A6270232 
ARM GAS  C:\Users\Sava\AppData\Local\Temp\ccoQvwtf.s 			page 34


 424      B907F38B 
 424      B2EB315E 
 425 034f E76265CF 		.ascii	"\347be\317ZK\235/\245\255\363\345\324\274\256\304y]"
 425      5A4B9D2F 
 425      A5ADF3E5 
 425      D4BCAEC4 
 425      795D
 426 0361 4DACF33A 		.ascii	"M\254\363:\314\377\304=D\203\"+\252`\301U\254\250Gk"
 426      CCFFC43D 
 426      4483222B 
 426      AA60C155 
 426      ACA8476B 
 427 0375 0D53450D 		.ascii	"\015SE\015\311\374q\343\203\305W\022\376g\250I\250E"
 427      C9FC71E3 
 427      83C55712 
 427      FE67A849 
 427      A845
 428 0387 C45F0DA6 		.ascii	"\304_\015\246\231\240H\353\023u}h\253\313\011?\011]"
 428      99A048EB 
 428      13757D68 
 428      ABCB093F 
 428      095D
 429 0399 5C520F1D 		.ascii	"\\R\017\035\030>\340\254Y\026\272\252\351\335\270\206"
 429      183EE0AC 
 429      5916BAAA 
 429      E9DDB886 
 430 03a9 B419FC0C 		.ascii	"\264\031\374\0145t%Z\033V\026\337\225)\2621\013\361"
 430      3574255A 
 430      1B5616DF 
 430      9529B231 
 430      0BF1
 431 03bb 455A91DE 		.ascii	"EZ\221\336\361\316\014\262&f}Uf\315NU\315I\273jVS5\257"
 431      F1CE0CB2 
 431      26667D55 
 431      66CD4E55 
 431      CD49BB6A 
 432 03d3 A7AAA60B 		.ascii	"\247\252\246\013~!\263J\325\274\001\336\325-\343\302"
 432      7E21B34A 
 432      D5BC01DE 
 432      D52DE3C2 
 433 03e3 AEFD55B4 		.ascii	"\256\375U\264 \036\357\370C\247\344\230\223H\250\035"
 433      201EEFF8 
 433      43A7E498 
 433      9348A81D 
 434 03f3 D29CEF94 		.ascii	"\322\234\357\224\035\2433@\224B\251\017\370\267\370"
 434      1DA33340 
 434      9442A90F 
 434      F8B7F8
 435 0402 01FF1E3B 		.ascii	"\001\377\036;\340%]\246\317E\006T\265}\326:O\230\024"
 435      E0255DA6 
 435      CF450654 
 435      B57DD63A 
 435      4F9814
 436 0415 D95B1143 		.ascii	"\331[\021C\032\363\321n\275\036\350:\247Jk\001n\220"
 436      1AF3D16E 
 436      BD1EE83A 
 436      A74A6B01 
ARM GAS  C:\Users\Sava\AppData\Local\Temp\ccoQvwtf.s 			page 35


 436      6E90
 437 0427 A509D65A 		.ascii	"\245\011\326Z\327\351\264u\235I-b6.\342&x1\273h\027"
 437      D7E9B475 
 437      9D492D62 
 437      362EE226 
 437      7831BB68 
 438 043c 87BC740B 		.ascii	"\207\274t\013\215\177?\332*/h\241u\340M\242\263\022"
 438      8D7F3FDA 
 438      2A2F68A1 
 438      75E04DA2 
 438      B312
 439 044e 59B9ED4B 		.ascii	"Y\271\355K{\313\216\324\013D\352vjRsqR\363D\252\220"
 439      7BCB8ED4 
 439      0B44EA76 
 439      6A527371 
 439      52F344AA 
 440 0463 FD0975C1 		.ascii	"\375\011u\301\241\327\344=g\364\350\243\017\356\347"
 440      A1D7E43D 
 440      67F4E8A3 
 440      0FEEE7
 441 0472 5554BD59 		.ascii	"UT\275Y\261\265\242\252l\307\366\312mb\366\355xf\033"
 441      B1B5A2AA 
 441      6CC7F6CA 
 441      6D62F6ED 
 441      78661B
 442 0485 039F5AB9 		.ascii	"\003\237Z\271\375\003\237\356+{\275|g\271\263\374\215"
 442      FD039FEE 
 442      2B7BBD7C 
 442      67B9B3FC 
 442      8D
 443 0496 9DBEF7CA 		.ascii	"\235\276\367\312\336\366\275_\346\373\037\203aHZ"
 443      DEF6BD5F 
 443      E6FB1F83 
 443      61485A
 444              		.text
 445              		.section	.gnu.lto_ent_alloc.d4bdb29,"",%progbits
 446 0000 789C7D54 		.ascii	"x\234}T]L\\E\030\235s\347\376\354.\354\226'\215\226"
 446      5D4C5C45 
 446      189D73E7 
 446      FEEC2EEC 
 446      96278D96 
 447 0014 185E36A4 		.ascii	"\030^6\244\211\262\230>k|\364\271<\030\223&\215!\304"
 447      89B2983E 
 447      6B7CF4B9 
 447      3C189326 
 447      8D21C4
 448 0027 902CF181 		.ascii	"\220,\361\201\244\211\032\303\300\356\025j\322\026\036"
 448      A4891AC3 
 448      C0EE156A 
 448      D2161E
 449 0036 8482126C 		.ascii	"\204\202\022l\013\026\177XX\004\221\026\364R\021\010"
 449      0B167F58 
 449      58049116 
 449      F4521108 
 450 0046 A5B1C418 		.ascii	"\245\261\304\030\003\204\246\266\010\225\240aq\351\017"
 450      0384A6B6 
 450      0895A061 
ARM GAS  C:\Users\Sava\AppData\Local\Temp\ccoQvwtf.s 			page 36


 450      71E90F
 451 0055 5AD6EFBB 		.ascii	"Z\326\357\273\367\322\264\333\237\233\354\314\235\231"
 451      F7D2B4DB 
 451      9F9BECCC 
 451      9D99
 452 0063 73BE39E7 		.ascii	"s\2769\347\314\334\325\005\004?\025\206\020Q\352_\341"
 452      CCDCD505 
 452      043F1586 
 452      1051EA5F 
 452      E1
 453 0074 8125A009 		.ascii	"\201%\240\011\372iR\010\245\321\212\322\245\246\337"
 453      FA695208 
 453      A5D18AD2 
 453      A5A6DF
 454 0083 7FD7411D 		.ascii	"\177\327A\035\014\230\324\232`>D\235&u\303D\035\266"
 454      0C98D49A 
 454      603E449D 
 454      2675C344 
 454      1DB6
 455 0095 B57B1AE6 		.ascii	"\265{\032\346\223\003\237\312\254fK\001\235\206\231"
 455      93039FCA 
 455      AC664B01 
 455      9D8699
 456 00a4 CB1D3722 		.ascii	"\313\0357\"<\004Jxu}-Yp\340\234R\015\352\232\235z\277"
 456      3C044A78 
 456      757D2D59 
 456      70E09C52 
 456      0DEA9A9D 
 457 00ba 2561BF6E 		.ascii	"%a\277nKM\3444\201^\024\343\034\212\271\344\0278@\330"
 457      4B4DE434 
 457      815E14E3 
 457      1C8AB9E4 
 457      173840D8 
 458 00ce E3D9DE19 		.ascii	"\343\331\336\031K>\007A\357'\325N\247,\355a\236JW\251"
 458      4B3E0741 
 458      EF27D54E 
 458      A72CED61 
 458      9E4A57A9 
 459 00e2 A02D25BE 		.ascii	"\240-%\276\204|\220GS\002_\241\224\320g\352\177\275"
 459      847C9047 
 459      53025FA1 
 459      94D067EA 
 459      7FBD
 460 00f4 1496FB5D 		.ascii	"\024\226\373]fc\337\370\237\021\237\271\3402u|\235\317"
 460      6663DFF8 
 460      9F119FB9 
 460      E032757C 
 460      9DCF
 461 0106 D405FA50 		.ascii	"\324\005\372P\312\360\345\021{\336\222%.u1\323|FF\317"
 461      CAF0E511 
 461      7BDE9225 
 461      2E7531D3 
 461      7C4646CF 
 462 011a 32D5D9EE 		.ascii	"2\325\331\356\210\264+'YBj\221z\230\316\017\241\257"
 462      88B42B27 
 462      59426A91 
 462      7A98CE0F 
ARM GAS  C:\Users\Sava\AppData\Local\Temp\ccoQvwtf.s 			page 37


 462      A1AF
 463 012c A7773F0E 		.ascii	"\247w?\016\233IEO\011\372\021eS\344e\200r\022\302$\300"
 463      9B49454F 
 463      09FA1165 
 463      53E46580 
 463      7212C224 
 464 0141 E0EE449F 		.ascii	"\340\356D\237\341\227\373w\361\331\266^\247\236\312"
 464      E197FB77 
 464      F1D9B65E 
 464      A79ECA
 465 0150 19AEF983 		.ascii	"\031\256\371\203\305(\367*!\215\350\303`\225\272\242"
 465      C528F72A 
 465      218DE8C3 
 465      6095BAA2 
 466 0160 F058E8A0 		.ascii	"\360X\350\240\013m;=|\247\300\207\246\377\370\014\352"
 466      0B6D3B3D 
 466      7CA7C087 
 466      A6FFF80C 
 466      EA
 467 0171 D86BB634 		.ascii	"\330k\2664E\276D|\343\242\333\323\3272{\205\347\367"
 467      45BE447C 
 467      E3A2DBD3 
 467      D7327B85 
 467      E7F7
 468 0183 D0D6A3E8 		.ascii	"\320\326\243\350!\027}e\374\304X\210\321\037)\247\353"
 468      21177D65 
 468      FCC45888 
 468      D11F29A7 
 468      EB
 469 0194 93487BAF 		.ascii	"\223H{\257\027\301\243\360aD\331t\377!G\345r\011\345"
 469      17C1A3F0 
 469      6144D974 
 469      FF2147E5 
 469      7209E5
 470 01a7 FCF3FCC4 		.ascii	"\374\363\374\304\300\376}\020<)\335\326\000\237\216"
 470      C0FE7D10 
 470      3C29DDD6 
 470      009F8E
 471 01b6 49691B16 		.ascii	"Ii\033\0267\001j\314 5V\010\234~\330EE\004\227\027\233"
 471      37016ACC 
 471      20355608 
 471      9C7ED845 
 471      45049717 
 472 01cb 9C9DC868 		.ascii	"\234\235\310h\324\311U4d\007\226\247$G\231\240s/+\026"
 472      D4C95534 
 472      640796A7 
 472      244799A0 
 472      732F2B16 
 473 01df 343596B9 		.ascii	"45\226\271z\313\360\2468\334\216\013\331Y\303\273v\001"
 473      7ACBF0A6 
 473      38DC8E0B 
 473      D959C3BB 
 473      7601
 474 01f1 1AB6DA17 		.ascii	"\032\266\332\027\177\266x(\335\223\274==\333T\330\205"
 474      7FB67828 
 474      DD93BC3D 
 474      3DDB54D8 
ARM GAS  C:\Users\Sava\AppData\Local\Temp\ccoQvwtf.s 			page 38


 474      85
 475 0202 CE7A3E9D 		.ascii	"\316z>\235\203\264E !\015\214\260xZ\375\273\323\231"
 475      83B44520 
 475      210D8CB0 
 475      785AFDBB 
 475      D399
 476 0214 32CB53BC 		.ascii	"2\313S\274\246\216\2202|\207.\340[\262\3672\0010\212"
 476      A68E9032 
 476      7C872EE0 
 476      5BB2F732 
 476      01308A
 477 0227 72DA30F1 		.ascii	"r\3320\361\237\351\355fy\033\016MN\177\030\340\035\310"
 477      9FE9ED66 
 477      791B0E4D 
 477      4E7F18E0 
 477      1DC8
 478 0239 17CE53A5 		.ascii	"\027\316S\245\337\221\\L\274\340c\010\320\2771z7\354"
 478      DF915C4C 
 478      BCE06308 
 478      D0BF317A 
 478      37EC
 479 024b 01042EF8 		.ascii	"\001\004.\3709e\370\273bG\347O\277\350A\003\371\362"
 479      3965F8BB 
 479      6247E74F 
 479      BFE84103 
 479      F9F2
 480 025d 5A90AFAF 		.ascii	"Z\220\257\257g\245!e\305^\262e\020c\244lW\363o\334/"
 480      67A52165 
 480      C55EB265 
 480      1063A46C 
 480      57F36FDC 
 481 0272 CDEA1462 		.ascii	"\315\352\024b}\256\3564l\031\3028b\273\032\274\325\236"
 481      7DAEEE34 
 481      6C19C238 
 481      62BB1ABC 
 481      D59E
 482 0284 BF96B226 		.ascii	"\277\226\262&\263L|\317\323\356m\374\0011\016o\253q"
 482      B34C7CCF 
 482      D3EE6DFC 
 482      01310E6F 
 482      AB71
 483 0296 D2771324 		.ascii	"\322w\023$\005,}!\261\205\3733!_+}\367\362&l'\267X\310"
 483      052C7D21 
 483      B185FB33 
 483      215F2B7D 
 483      F7F2266C 
 484 02ae 6B5C7574 		.ascii	"k\\uttc\311\252\273\247\232\224*\262eA\216w\203\203"
 484      7463C9AA 
 484      BBA79A94 
 484      2AB26541 
 484      8E778383 
 485 02c2 3A418289 		.ascii	":A\202\211h\313B\256\237\335\\\371<\310\224|so>\305"
 485      68CB42AE 
 485      9FDD5CF9 
 485      3CC8947C 
 485      736F3EC5 
 486 02d6 DBC493BC 		.ascii	"\333\304\223\274\275\313\326.>\316Z\030?\362\264dk\223"
ARM GAS  C:\Users\Sava\AppData\Local\Temp\ccoQvwtf.s 			page 39


 486      BDCBD62E 
 486      3ECE5A18 
 486      3FF2B464 
 486      6B93
 487 02e8 88D1D270 		.ascii	"\210\321\322p\343\\:\304\251\207\351X~\202{Uv\032W7"
 487      E35C3AC4 
 487      A987E958 
 487      7E827B55 
 487      761A5737 
 488 02fc 5EF5CC85 		.ascii	"^\365\314\205\363\005\275\361DA\021L\271\202to\317\245"
 488      F305BDF1 
 488      4441114C 
 488      B982746F 
 488      CFA5
 489 030e EE89EE02 		.ascii	"\356\211\356\0022\316O\205-\367a\232\242\024\230!\353"
 489      32CE4F85 
 489      2DF7619A 
 489      A2149821 
 489      EB
 490 031f 1C95E11D 		.ascii	"\034\225\341\035kkfm\357\242F\022t\367\004\245JwV\353"
 490      6B6B666D 
 490      EFA24612 
 490      74F704A5 
 490      4A7756EB 
 491 0333 FE8D3B49 		.ascii	"\376\215;I)\205\365\271\205\017\210@\377\240r\005\365"
 491      2985F5B9 
 491      850F8840 
 491      FFA07205 
 491      F5
 492 0344 454291FA 		.ascii	"EB\221\372u4\360\347\345\0239\202M\366Ja<\023?\372v"
 492      7534F0E7 
 492      E5133982 
 492      4DF64A61 
 492      3C133FFA 
 493 0359 FC70FCE8 		.ascii	"\374p\374\350\221\232\352\332J\267\257\252)\253\024"
 493      919AEADA 
 493      4AB7AFAA 
 493      29AB14
 494 0368 A8D26BAB 		.ascii	"\250\322k\253\337\2532\336\212\307\337\251\374\037\247"
 494      DFAB32DE 
 494      8AC7DFA9 
 494      FC1FA7
 495 0377 84B975   		.ascii	"\204\271u"
 496              		.text
 497              		.section	.gnu.lto_lv_mem_alloc.d4bdb29,"",%progbits
 498 0000 789C6D54 		.ascii	"x\234mT]l\024U\024\276\347\336\231\235\335\231\235\331"
 498      5D6C1455 
 498      14BEE7DE 
 498      999DDD99 
 498      9DD9
 499 0012 ADA55492 		.ascii	"\255\245T\222\006\267\017\265\341\005\337\215\011&\276"
 499      06B70FB5 
 499      E105DF8D 
 499      0926BE
 500 0021 F8687C36 		.ascii	"\370h|6iHi\014\311b\211`\243\276\354tg\207UR\011\230"
 500      6948690C 
 500      C9628960 
ARM GAS  C:\Users\Sava\AppData\Local\Temp\ccoQvwtf.s 			page 40


 500      A3BEEC74 
 500      67875552 
 501 0037 D2B40A2E 		.ascii	"\322\264\012.`L\213\026\273\025\261\326n\351v\251H\360"
 501      604C8B16 
 501      BB15B1D6 
 501      6EE976A9 
 501      48F0
 502 0049 B7983E48 		.ascii	"\267\230>HK\002\250\250\015\032\266\255$\374\224\361"
 502      4B02A8A8 
 502      0D1AB6AD 
 502      24FC94F1 
 503 0059 9C7BA7A4 		.ascii	"\234{\247\244\272\336d\357\275s\316\367}\347\334s\317"
 503      BADE64EF 
 503      BD73CEF7 
 503      7DE7DC73 
 503      CF
 504 006a 5D8D01A3 		.ascii	"]\215\001\2431\2403\266\015\327\303\364\221`\300\031"
 504      31A033B6 
 504      0DD7C3F4 
 504      9160C019 
 505 007a FEB860CC 		.ascii	"\376\270`\314\345\032N\232\000\007-\032\327\311\022"
 505      E51A4E9A 
 505      00072D1A 
 505      D7C912
 506 0089 218B0EB8 		.ascii	"!\213\016\270@\004\014\234\015\036%{\214\354Q\300\005"
 506      40040C9C 
 506      0D1E257B 
 506      8CEC51C0 
 506      05
 507 009a 62DC248B 		.ascii	"b\334$\213E\026\223\033\017\367\026\217\323\336\246"
 507      4516931B 
 507      0FF7168F 
 507      D3DEA6
 508 00a9 7D1C7001 		.ascii	"}\034p\001[*;@y\000\313p\241\351\021#\0323\255\270\355"
 508      5B2A3B40 
 508      7900CB70 
 508      A1E91123 
 508      1A33ADB8 
 509 00be 4086A872 		.ascii	"@\206\250r\374\315W9\314\346\212G\304\012\367\005\246"
 509      FCCD5739 
 509      CCE68A47 
 509      C40AF705 
 509      A6
 510 00cf 829FD56F 		.ascii	"\202\237\325o\337\371\331\241O\200\024y\027\177\313"
 510      DFF9D9A1 
 510      4F801479 
 510      177FCB
 511 00de 595B065D 		.ascii	"Y[\006]7\353^\375\362\366\323\207<\377Y_p\026p\006C"
 511      37EB5EFD 
 511      F2F6D387 
 511      3CFF595F 
 511      70167006 
 512 00f3 D00483D0 		.ascii	"\320\004\203\320D!N\302\026\304\236\350\236\373\332"
 512      44214EC2 
 512      16C49EE8 
 512      9EFBDA
 513 0102 169B80E1 		.ascii	"\026\233\200\341>\177j\362\017\247\365\003\342\271\253"
ARM GAS  C:\Users\Sava\AppData\Local\Temp\ccoQvwtf.s 			page 41


 513      3E7F6AF2 
 513      0FA7F503 
 513      E2B9AB
 514 0111 3BDC982F 		.ascii	";\334\230/\004|\010b=\017M\014>\202V\202\277\2652t\301"
 514      047C0862 
 514      3D0F4D0C 
 514      3E825682 
 514      BFB53274 
 515 0126 109B25B5 		.ascii	"\020\233%\265\267\273\347L\274\345}\242\226\017\355"
 515      B7BBE74C 
 515      BCE57DA2 
 515      960FED
 516 0135 DF38E096 		.ascii	"\3378\340\226s)_h0\374o:\015D_\031\363g\015\221\222"
 516      73295F68 
 516      30FC6F3A 
 516      0D445F19 
 516      F3670D91 
 517 014a CCCBD583 		.ascii	"\314\313\325\203'D\310\274\227wB&\207\217\377\227y}"
 517      2744C8BC 
 517      97774226 
 517      878FFF97 
 517      797D
 518 015c F4C1613B 		.ascii	"\364\301a;\222sq\244`\004Z\340\024\264\320\301\360<"
 518      927371A4 
 518      60045AE0 
 518      14B4D0C1 
 518      F03C
 519 016e 45BC03C6 		.ascii	"E\274\003\306\250\034?L\036(\231$\271\337-O\3447\014"
 519      A81C3F4C 
 519      1E289924 
 519      B9DF2D4F 
 519      E4370C
 520 0181 0C2949F6 		.ascii	"\014)I\366_=\030\205\026\204\017\214^\255\352a\006\325"
 520      5F3D1885 
 520      16840F8C 
 520      5EADEA61 
 520      06D5
 521 0193 AF9C10AE 		.ascii	"\257\234\020\256\327\302?\301xa\314\221\347\313n\020"
 521      D7C23FC1 
 521      7861CC91 
 521      E7CB6E10 
 522 01a3 786E79CC 		.ascii	"xny\314\230\356\267\036\005Y\024\304\243[\310Yc\004"
 522      98EEB71E 
 522      055914C4 
 522      A35BC859 
 522      6304
 523 01b5 D3B160DC 		.ascii	"\323\261`\334\004rZ\264\265q\322\035\011N\3109)\301"
 523      04725AB4 
 523      B571D21D 
 523      094EC839 
 523      29C1
 524 01c7 75125C2F 		.ascii	"u\022\\/\347\006ii$4c\267\350d\254\312q\021\327 w\331"
 524      E7066969 
 524      243463B7 
 524      E864ACCA 
 524      7111D720 
 525 01dd 5B3E60D0 		.ascii	"[>`\320A=ab\342#7\307\357\330t\355:\306?\035fY\245f"
ARM GAS  C:\Users\Sava\AppData\Local\Temp\ccoQvwtf.s 			page 42


 525      413D6162 
 525      E22337C7 
 525      EFD874ED 
 525      3AC63F1D 
 526 01f5 1537207B 		.ascii	"\0257 {7\377\327\321\347\024\330Bp\237_\371\336 pD\226"
 526      37FFD7D1 
 526      E714D842 
 526      709F5FF9 
 526      DE207044 
 527 020a 7D7CFCE6 		.ascii	"}|\374\346\274\221Yu\337p\335$\332\336\024\252\276\213"
 527      BC915975 
 527      DF70DD24 
 527      DADE14AA 
 527      BE8B
 528 021c DFCCCD98 		.ascii	"\337\314\315\230\0058\332\355J\273\2003\220\201OI\032"
 528      0538DAED 
 528      4ABB8033 
 528      90814F49 
 528      1A
 529 022d 9DC7EEDE 		.ascii	"\235\307\356\336\231\213#'J\"\237A\001\313\015c\220"
 529      998B2327 
 529      4A229F41 
 529      01CB0D63 
 529      90
 530 023e 91413519 		.ascii	"\221A5\031\324\273\277\357|\341I\025\324VIV\226\212"
 530      D4BBBFEF 
 530      7CE14915 
 530      D4564956 
 530      968A
 531 0250 837195A4 		.ascii	"\203q\225\244\200\317Q\011\3171\357m\0161\353\322\326"
 531      80CF5109 
 531      CF31EF6D 
 531      0E31EBD2 
 531      D6
 532 0261 D714BE2B 		.ascii	"\327\024\276+<\245\274\216R8{\333\357R\002\367\203 "
 532      3CA5BC8E 
 532      52387BDB 
 532      EF5202F7 
 532      8320
 533 0273 48C03852 		.ascii	"H\3008R\020\330\267\357\322c\012\227@\350\372G\241\203"
 533      10D8B7EF 
 533      D2630A97 
 533      40E8FA47 
 533      A183
 534 0285 065F48DD 		.ascii	"\006_H\335*=Q*\306\312\255\007\323B\241\223\260\225"
 534      2A3D512A 
 534      C6CAAD07 
 534      D342A193 
 534      B095
 535 0297 F8D995E2 		.ascii	"\370\331\225\342LEW\246\272\365\365\321\260\230\023"
 535      4C4557A6 
 535      BAF5F5D1 
 535      B09813
 536 02a6 C45E02C0 		.ascii	"\304^\002\300\0044\234\022\372\360\324\253(\206oP\374"
 536      04349C12 
 536      FAF0D4AB 
 536      28866F50 
ARM GAS  C:\Users\Sava\AppData\Local\Temp\ccoQvwtf.s 			page 43


 536      FC
 537 02b7 0EB9F2BB 		.ascii	"\016\271\362\273\027mE\254\257\251\244\021p*K\011\313"
 537      176D45AC 
 537      AFA9A411 
 537      702A4B09 
 537      CB
 538 02c8 E209CD17 		.ascii	"\342\011\315\027Qu\336k\033B\202\222&q\216\251D\026"
 538      5175DE6B 
 538      1B428292 
 538      26718EA9 
 538      4416
 539 02da A6767B42 		.ascii	"\246v{B\230\260\004\032\246\021\351\231-b\270zsa6\215"
 539      98B0041A 
 539      A611E999 
 539      2D62B87A 
 539      7361368D 
 540 02ee E1A2329C 		.ascii	"\341\2422\234_>}\261A\261\033j\302\305\002\352\015\230"
 540      5F3E7DB1 
 540      41B11B6A 
 540      C2C502EA 
 540      0D98
 541 0300 94E1EA3D 		.ascii	"\224\341\352=\001\2760\345\271c\252c\346\275\345^\275"
 541      01BE30E5 
 541      B963AA63 
 541      E6BDE55E 
 541      BD
 542 0311 26B4F004 		.ascii	"&\264\360\00470PC\364\310\217\303\200h\363a\177\365"
 542      37305043 
 542      F4C88FC3 
 542      8068F361 
 542      7FF5
 543 0323 3EA1D082 		.ascii	">\241\320\202\252\244.\306Zs\016\366\0315\316\270\314"
 543      AAA42EC6 
 543      5A730EF6 
 543      1935CEB8 
 543      CC
 544 0334 31EFB691 		.ascii	"1\357\266\221\247\266\261\254\200\332\021\316b~\350"
 544      A7B6B1AC 
 544      80DA11CE 
 544      627EE8
 545 0343 2B157A4E 		.ascii	"+\025zN\232T\3438p\230\202&4\035\277\376\347\266f^p"
 545      9A54E338 
 545      70988226 
 545      341DBFFE 
 545      E7B6665E 
 546 0358 FBF1C9D9 		.ascii	"\373\361\311\331\204\271P:\370\266\205\374~\354\300"
 546      84B9503A 
 546      F8B685FC 
 546      7EECC0
 547 0367 7B781C07 		.ascii	"{x\034\007\312\320,\305a\0322\364\272\347/\215$H$\001"
 547      CAD02CC5 
 547      611A32F4 
 547      BAE72F8D 
 547      24482401 
 548 037b C7012A52 		.ascii	"\307\001*Re\371J6+\232\037W2I\2229\377\336\215\321D"
 548      65F94A36 
 548      2B9A1F57 
ARM GAS  C:\Users\Sava\AppData\Local\Temp\ccoQvwtf.s 			page 44


 548      32499239 
 548      FFDE8DD1 
 549 0390 28D3E68B 		.ascii	"(\323\346\213:8\267\2462\003\031_<\"\223\267Us\364U"
 549      3A38B7A6 
 549      3203195F 
 549      3C2293B7 
 549      5573F455 
 550 03a4 7FAD84CD 		.ascii	"\177\255\204\315\321\210\207\223.\374/\026\277@w\222"
 550      D1888793 
 550      2EFC2F16 
 550      BF407792 
 551 03b4 B902D822 		.ascii	"\271\002\330\"d\223X_]\026O\307\367$\026&\216a\375\032"
 551      6493585F 
 551      5D164FC7 
 551      F7241626 
 551      8E61FD1A 
 552 03c8 EDD24FBB 		.ascii	"\355\322O\273\361\221\342\215\343-lLw\275\230~!\335"
 552      F191E28D 
 552      E32D6C4C 
 552      77BD987E 
 552      21DD
 553 03da D5B66BE7 		.ascii	"\325\266k\347\236v\271v\354\332\332\316\264=;_\357\200"
 553      9E76B976 
 553      ECDADACE 
 553      B43D3B5F 
 553      EF80
 554 03ec 0E7D7B3A 		.ascii	"\016}{:\335\331\276\351\231\316W\322;^j\335\233\222"
 554      DDD9BEE9 
 554      99CE57D2 
 554      3B5E6ADD 
 554      9B92
 555 03fe 9FDBF776 		.ascii	"\237\333\367v\244\020\325\371\362k\354\037\022\246\325"
 555      A410D5F9 
 555      F26BEC1F 
 555      12A6D5
 556 040d 6C       		.ascii	"l"
 557              		.text
 558              		.section	.gnu.lto_lv_mem_realloc.d4bdb29,"",%progbits
 559 0000 789C7555 		.ascii	"x\234uU]L\034U\024\276g\356\356\314\354\337\354\026"
 559      5D4C1C55 
 559      14BE67EE 
 559      EECCECDF 
 559      EC16
 560 0012 A14A8B09 		.ascii	"\241J\213\011< \341\301\202\361\305\330\007c|\361\321"
 560      3C20E1C1 
 560      82F1C5D8 
 560      07637CF1 
 560      D1
 561 0023 9FF86642 		.ascii	"\237\370fBH!\246\311\266\240E\032}a\330eh5UZ\255\265"
 561      4821A6C9 
 561      B6A0451A 
 561      7D61D865 
 561      6835555A 
 562 0039 6D4AB78D 		.ascii	"mJ\267\215m\000m\371i\241\225\277\262\264\010X\333."
 562      6D006DF9 
 562      69A195BF 
 562      B2B40858 
ARM GAS  C:\Users\Sava\AppData\Local\Temp\ccoQvwtf.s 			page 45


 562      DB2E
 563 004b D5A446D0 		.ascii	"\325\244F\320\244?HIm\251+\250\241\005\306s\356\235"
 563      A43F4849 
 563      6DA92BA8 
 563      A105C673 
 563      EE9D
 564 005d 85167092 		.ascii	"\205\026p\222\235\271s\356\371\276s\316w\316\235u1`"
 564      9DB973EE 
 564      F9BE73CE 
 564      77CE9D75 
 564      3160
 565 006f 74FDAA31 		.ascii	"t\375\2521\366&>\033\350e\015\003\205\341O\341\214\231"
 565      F6263E1B 
 565      E8650D03 
 565      85E14FE1 
 565      8C99
 566 0081 8A1B6F2E 		.ascii	"\212\033o.\256\270\026\327.\300\007\270\025\225,\032"
 566      AEB816D7 
 566      2EC007B8 
 566      15952C1A 
 567 0091 595408A1 		.ascii	"YT\010\241ESt\262x\310\242\013\213G\361\222%@\026\257"
 567      455374B2 
 567      78C8A20B 
 567      8B47F192 
 567      254016AF 
 568 00a5 E25B5CFB 		.ascii	"\342[\\\373\024\377\342\332\017\370\200\200b\220%H\026"
 568      14FFE2DA 
 568      0FF88080 
 568      62902548 
 568      16
 569 00b6 03F00141 		.ascii	"\003\360\001A\301\020\002\312\017X\225\302]nU\323=^"
 569      C11002CA 
 569      0F5895C2 
 569      5D6E55D3 
 569      3D5E
 570 00c8 9F3F6004 		.ascii	"\237?`\004CP\005\177+\363\012\\\255i=\304g\024\2133"
 570      4350057F 
 570      2BF30A5C 
 570      AD693DC4 
 570      67148B33 
 571 00dc 70E16BF2 		.ascii	"p\341k\362\362\301[\006\275\002d\323\356\235\3335\276"
 571      F2C15B06 
 571      BD0264D3 
 571      EE9DDB35 
 571      BE
 572 00ed FC06D38C 		.ascii	"\374\006\323\214\230\327\255\373/\357\211Z\257Z\\a\266"
 572      98D7ADFB 
 572      2FEF895A 
 572      AF5A5C61 
 572      B6
 573 00fe C2A011B2 		.ascii	"\302\240\021\262\240\001\262\210\274\011\362\321\367"
 573      A001B288 
 573      BC09F2D1 
 573      F7
 574 010b 41DDD87E 		.ascii	"A\335\330~7\317\004\206\353\372{g\346x\336q\302\231"
 574      37CF0486 
 574      EBFA7B67 
ARM GAS  C:\Users\Sava\AppData\Local\Temp\ccoQvwtf.s 			page 46


 574      E678DE71 
 574      C299
 575 011d F325A607 		.ascii	"\363%\246\007A\3605\360Gq\304\003\337@\036z7\335h\270"
 575      41F035F0 
 575      4771C403 
 575      DF401E7A 
 575      37DD68B8 
 576 0131 A6F36C81 		.ascii	"\246\363l\201\234\235\372\343p\300A\366\225\022\222"
 576      9C9DFAE3 
 576      70C041F6 
 576      951292
 577 0140 C389E548 		.ascii	"\303\211\345HL\366$\344\221\373\375X\307\031\037\317"
 577      4CF624E4 
 577      91FBFD58 
 577      C7191FCF 
 578 0150 17D0CB77 		.ascii	"\027\320\313w\247\216\352\271_\0214\376s\235q\300\214"
 578      A78EEAB9 
 578      5F1134FE 
 578      739D71C0 
 578      8C
 579 0161 D76453E0 		.ascii	"\327dS\340\346\307\341t\241wK\274\351\222\301\013\004"
 579      E6C7E174 
 579      A1774BBC 
 579      E992C10B 
 579      04
 580 0172 F2C8470D 		.ascii	"\362\310G\015\327\374\016\262\276.\350 9\264\256\212"
 580      D7FC0EB2 
 580      BE2EE820 
 580      39B4AE8A 
 581 0182 BCD9B6F0 		.ascii	"\274\331\266\360E@\2551\361\312\2066\310\205\026\310"
 581      4540AD31 
 581      F1CA8636 
 581      C88516C8 
 582 0192 25495089 		.ascii	"%IP\211S\240\242\334::\235Z\350?\351v(?O<\375ec\274"
 582      53A0A2DC 
 582      3A3A9D5A 
 582      E83FE976 
 582      283F4F3C 
 583 01aa 1A295D42 		.ascii	"\032)]B\272\347\263\240P\262\301i\310}\334\331l\036"
 583      BAE7B3A0 
 583      50B2C169 
 583      C87DDCD9 
 583      6C1E
 584 01bc 316155D7 		.ascii	"1aU\327v\341:\322\373i\217\227\\?6\343\261\3043\007"
 584      76E13AD2 
 584      FB698F97 
 584      5C3F36E3 
 584      B1C43307 
 585 01d0 1A65916C 		.ascii	"\032e\221ly\236\320!\334\017\264]O\246\322\230N\030"
 585      799ED021 
 585      DC0FB45D 
 585      4FA6D298 
 585      4E18
 586 01e2 8EBB7BA5 		.ascii	"\216\273{\245\373\031\254\303\251\005a\237\3144\016"
 586      FB19ACC3 
 586      A905619F 
 586      CC340E
ARM GAS  C:\Users\Sava\AppData\Local\Temp\ccoQvwtf.s 			page 47


 587 01f1 6BFC0521 		.ascii	"k\374\005!\316\336\352]\035)q\366\324e9\342\250pv\245"
 587      CEDEEA5D 
 587      1D2971F6 
 587      D46539E2 
 587      A87076A5 
 588 0205 38F0AD40 		.ascii	"8\360\255@?\212\350J\370\315\335\325\372\377\001:!\267"
 588      3F8AE84A 
 588      F8CDDDD5 
 588      FAFF013A 
 588      21B7
 589 0217 E58DB869 		.ascii	"\345\215\270i\333Q3\376\320\350\337\233\266\016\304"
 589      DB5133FE 
 589      D0E8DF9B 
 589      B60EC4
 590 0226 5428341F 		.ascii	"T(4\037*\320R\023\264\0364\270\274t\363\011\207\000"
 590      2AD05213 
 590      B41E34B8 
 590      BC74F309 
 590      8700
 591 0238 A3740DA0 		.ascii	"\243t\015\240A\010\222sH\220\245\3212\235Q\031\031\270"
 591      41089273 
 591      4890A5D1 
 591      329D5119 
 591      19B8
 592 024a 74678A39 		.ascii	"tg\2129c\177RwXR\301\007\277\0015cQ\273^\243fE1\255"
 592      637F5277 
 592      5852C107 
 592      BF013563 
 592      51BB5EA3 
 593 0262 0D329524 		.ascii	"\0152\225$\035V>\001\321C\265\203=\345\313\333\214\031"
 593      1D563E01 
 593      D143B583 
 593      3DE5CBDB 
 593      8C19
 594 0274 88EE62CA 		.ascii	"\210\356b\312]\004\323\020\211>\347\376\261*\345\341"
 594      5D04D310 
 594      893EE7FE 
 594      B12AE5E1 
 595 0284 99B36D3B 		.ascii	"\231\263m;\010\335X\327\004Dz\222\343\2475\351\350A"
 595      08DD58D7 
 595      04447A92 
 595      E3A735E9 
 595      E841
 596 0296 AF83DD33 		.ascii	"\257\203\3353\027\335\322\215Fc\237u>\241\321\253*\364"
 596      17DDD28D 
 596      46639F75 
 596      3EA1D1AB 
 596      2AF4
 597 02a8 FD77E8E2 		.ascii	"\375w\350\342N\177\014\352\253)\322F\314\027\2715\350"
 597      4E7F0CEA 
 597      AB29D246 
 597      CC17B935 
 597      E8
 598 02b9 25857077 		.ascii	"%\205pw\252>>\250\0266\323\236\271\035\253\207s\020"
 598      AA3E3EA8 
 598      1636D39E 
 598      B91DAB87 
ARM GAS  C:\Users\Sava\AppData\Local\Temp\ccoQvwtf.s 			page 48


 598      7310
 599 02cb 03E8410D 		.ascii	"\003\350A\015\237C\007\350\203B\014\030\235Se4\257\014"
 599      9F4307E8 
 599      83420C18 
 599      9D536534 
 599      AF0C
 600 02dd D83E3054 		.ascii	"\330>0T\253S\004\027\000\304\221\011k\036\215nu|h\370"
 600      AB530417 
 600      00C49109 
 600      6B1E8D6E 
 600      757C68F8 
 601 02f1 EF76CE06 		.ascii	"\357v\316\006\244\003\203~H)\340\022\012DfZ\177\277"
 601      A403837E 
 601      4829E012 
 601      0A44665A 
 601      7FBF
 602 0303 E096CE3E 		.ascii	"\340\226\316>)O\222>\\|\022j\350xH\341\002H\323\331"
 602      294F923E 
 602      5C7C126A 
 602      E87848E1 
 602      0248D3D9 
 603 0317 79774CAB 		.ascii	"ywL\253\2327w\232f\310\342\272\255\340\360\303y\250"
 603      9A37779A 
 603      66C8E2BA 
 603      ADE0F0C3 
 603      79A8
 604 0329 62510E16 		.ascii	"bQ\016\026\367\310\260}\207\035\251\003QnP\234\277\000"
 604      F7C8B07D 
 604      871DA903 
 604      516E509C 
 604      BF00
 605 033b 503D856E 		.ascii	"P=\205n\034o>\327\211\331V\300\020\252\214~0y\373'\217"
 605      1C6F3ED7 
 605      89D956C0 
 605      10AA8C7E 
 605      3079FB27 
 606 0350 44049147 		.ascii	"D\004\221GD\327d\337\256D\247Sd\006\3629Y\353\251\276"
 606      44D764DF 
 606      AE44A753 
 606      6406F239 
 606      59EBA9BE 
 607 0364 4DF5AEE8 		.ascii	"M\365\256\350[\347R\337.\020,\204\214\242K\223`\305"
 607      5BE752DF 
 607      2E102C84 
 607      8CA24B93 
 607      60C5
 608 0376 7B137EB2 		.ascii	"{\023~\262\262\025\225xm\232\024\030\020\225 \304\260"
 608      B2159578 
 608      6D9A1418 
 608      109520C4 
 608      B0
 609 0387 B88FFAFA 		.ascii	"\270\217\372\372`\307B\357k\222(my\347\336\222\235\013"
 609      60C742EF 
 609      6B92286D 
 609      79E7DE92 
 609      9D0B
 610 0399 2D76EEF8 		.ascii	"-v\356\370x\244Y+x\326\342~\370\016{\266\2408\237\217"
ARM GAS  C:\Users\Sava\AppData\Local\Temp\ccoQvwtf.s 			page 49


 610      78A4592B 
 610      78D6E27E 
 610      F80E7BB6 
 610      A0389F8F 
 611 03ad B163FDC7 		.ascii	"\261c\375\307|\030\212\256\327-\036\200A(\300`C\030"
 611      7C188AAE 
 611      D72D1E80 
 611      4128C060 
 611      4318
 612 03bf 8CAAF138 		.ascii	"\214\252\3618B\377\222\010\310J\323W\244g\3304\2530"
 612      42FF9208 
 612      C84AD357 
 612      A467D834 
 612      AB30
 613 03d1 2CD2C3DC 		.ascii	",\322\303\334\202L\314tw\314\321&}i\246\275\251\201"
 613      824CCC74 
 613      77CCD126 
 613      7D69A6BD 
 613      A981
 614 03e3 EF02B907 		.ascii	"\357\002\271\007K{\276\324\336\255\330\372\245\236."
 614      4B7BBED4 
 614      DEADD8FA 
 614      A59E2E
 615 03f2 8E861B47 		.ascii	"\216\206\033G\343\373\305\321\360K\221Gk\257\364\355"
 615      E3FBC5D1 
 615      F04B9147 
 615      6BAFF4ED 
 616 0402 73A8329C 		.ascii	"s\2502\234\226NB\255\271Q\210\274\"\323\220M3\005\027"
 616      964E42AD 
 616      B95188BC 
 616      22D3904D 
 616      330517
 617 0415 45A6E951 		.ascii	"E\246\351Qjw\206\305\3270*p&\270:&\315\246a\203\037"
 617      6A7786C5 
 617      D7302A70 
 617      26B83A26 
 617      CDA66183 
 618 042a 5263F484 		.ascii	"Rc\364\204\210\037\220\311\216F\355U\2524\204f;\314"
 618      881F90C9 
 618      8E46ED55 
 618      AA348466 
 618      3BCC
 619 043c A2D519D3 		.ascii	"\242\325\031\323m\232-\270\204\214\270\327\023\333\325"
 619      6D9A2DB8 
 619      848CB8D7 
 619      13DBD5
 620 044b E4A50233 		.ascii	"\344\245\0023\000\3773 \013MGo\336{)G\211\231\373\361"
 620      00FF3320 
 620      0B4D476F 
 620      DE7B2947 
 620      8999FBF1 
 621 045f C3B6967C 		.ascii	"\303\266\226|\206{v\177F=\332\217=z\2109<\011W G\220"
 621      867B767F 
 621      463DDA8F 
 621      3D7A8839 
 621      3C095720 
 622 0475 4302AA48 		.ascii	"C\002\252H%k\274I\234\260\247\300\006\030\021,\323\277"
ARM GAS  C:\Users\Sava\AppData\Local\Temp\ccoQvwtf.s 			page 50


 622      256BBC49 
 622      9CB0A7C0 
 622      0618112C 
 622      D3BF
 623 0487 45223CE7 		.ascii	"E\"<\347EI\223I4\203\207'\332\202\016M\221\305\327\301"
 623      45499349 
 623      34838727 
 623      DA820E4D 
 623      91C5D7C1 
 624 049b D514CB8F 		.ascii	"\325\024\313\217Pe\361\365\"\371\240\034\373}\311\201"
 624      5065F1F5 
 624      22F9A01C 
 624      FB7DC981 
 625 04ab 012E2BCB 		.ascii	"\001.+\313\304\342\304\026\376\201\363q\250\0161\023"
 625      C4E2C416 
 625      FE81F371 
 625      A80E3113 
 626 04bb FB7D0722 		.ascii	"\373}\007\"!TD\021'H\301\303\241\316\315\266\3433M\237"
 626      21544411 
 626      2748C1C3 
 626      A1CECDB6 
 626      E3334D9F 
 627 04cf 7B780485 		.ascii	"{x\004\205\315\014\036\332\363.~\351\360\304\240\317"
 627      CD0C1EDA 
 627      F32E7EE9 
 627      F0C4A0CF 
 628 04df DA70E53B 		.ascii	"\332p\345;\341\267\303\225E[6o\333$\236\245[6lbjIqE"
 628      E1B7C395 
 628      455B366F 
 628      DB249EA5 
 628      5B366C62 
 629 04f7 7151B9BE 		.ascii	"qQ\271\276\265t{\321\266\315\037\226\272iQ\256\227\205"
 629      B5747BD1 
 629      B6CD1F96 
 629      BA6951AE 
 629      9785
 630 0509 4BC42B94 		.ascii	"K\304+\224f\276R\366~\270dk^Evq8\\\266\251\270\2424"
 630      66BE52F6 
 630      7EB8646B 
 630      5E457671 
 630      385CB6A9 
 631 0520 1B9165EF 		.ascii	"\033\221e\357}\300\376\003\231\242\231\216"
 631      7DC0FE03 
 631      99A2998E 
 632              		.text
 633              		.section	.gnu.lto_.symbol_nodes.d4bdb29,"",%progbits
 634 0000 789C5D8D 		.ascii	"x\234]\215Q\016\2020\020D\247-\205\002\005\022O\240"
 634      510E8230 
 634      1044A72D 
 634      85020512 
 634      4FA0
 635 0012 47F1640B 		.ascii	"G\361d\013\201h\242\211\361\006j\360\303x\015\376=\203"
 635      8168A289 
 635      F1066AF0 
 635      C3780DFE 
 635      3D83
 636 0024 043F3D83 		.ascii	"\004?=\203\261-\230X\276\346\355\314\354n\000\2063\003"
ARM GAS  C:\Users\Sava\AppData\Local\Temp\ccoQvwtf.s 			page 51


 636      B12D9858 
 636      BEE6EDCC 
 636      EC6E0086 
 636      3303
 637 0036 C03901C7 		.ascii	"\3009\001\307\007`\344^\255\000\0114\013@H\315\234r"
 637      0760E45E 
 637      AD000934 
 637      0B4048CD 
 637      9C72
 638 0048 45CC2F30 		.ascii	"E\314/0>\0061\361_p\253.\2450\307\002\022^\227\207\024"
 638      3E0631F1 
 638      5F70AB2E 
 638      A530C702 
 638      125E9787 
 639 005d F84644D2 		.ascii	"\370FD\3227R\012\347W\022\212\346\226 \345\257I\212"
 639      37520AE7 
 639      57128AE6 
 639      9620E5AF 
 639      498A
 640 006f 3D831594 		.ascii	"=\203\025\2248\003(\313\245\2313J\2759'\375?\213P\242"
 640      380328CB 
 640      A599334A 
 640      BD3927FD 
 640      3F8B50A2 
 641 0083 ED3F6BA7 		.ascii	"\355?k\247\273\367I\211\310\300\323\030F\273~\322\315"
 641      BBF74989 
 641      C8C0D318 
 641      46BB7ED2 
 641      CD
 642 0094 14747B0B 		.ascii	"\024t{\013*\303\3256\224\3040i{\260A\022\243v\325T\242"
 642      2AC3D536 
 642      94C43069 
 642      7BB04112 
 642      A376D554 
 643 00a9 DE3A48D0 		.ascii	"\336:H\320\215\220\343\345\316k1ut\214\326E:\3050B\201"
 643      8D90E3E5 
 643      CE6B3175 
 643      748CD645 
 643      3AC53042 
 644 00be C63DD021 		.ascii	"\306=\320!\332\021\314\226\005|\001\276\220j\254"
 644      DA11CC96 
 644      057C01BE 
 644      906AAC
 645              		.text
 646              		.section	.gnu.lto_.refs.d4bdb29,"",%progbits
 647 0000 789C0DC8 		.ascii	"x\234\015\310\301\015\300 \020\304@{o\023\011Q\006\375"
 647      C10DC020 
 647      10C4407B 
 647      6F130951 
 647      06FD
 648 0012 F708F39C 		.ascii	"\367\010\363\234\"\007\030\324D\214\223N>|\267\374S"
 648      220718D4 
 648      448C934E 
 648      3E7CB7FC 
 648      53
 649 0023 DD69B80B 		.ascii	"\335i\270\013 \000{"
 649      20007B
ARM GAS  C:\Users\Sava\AppData\Local\Temp\ccoQvwtf.s 			page 52


 650              		.text
 651              		.section	.gnu.lto_.decls.d4bdb29,"",%progbits
 652 0000 789CBD58 		.ascii	"x\234\275X[TTW\232\256}vQ\024E\001F\215q:L\017\235\320"
 652      5B545457 
 652      9AAE7D76 
 652      51144501 
 652      468D713A 
 653 0018 4BE62124 		.ascii	"K\346!$\032\247W\257y\230\311Z\3233\223~H\233\207\211"
 653      1AA757AF 
 653      7998C95A 
 653      D333937E 
 653      489B8789 
 654 002c 9907666A 		.ascii	"\231\007fj\225E\211t#8E\231\216\231\231\225\003\026"
 654      95458974 
 654      23384599 
 654      8E999995 
 654      0316
 655 003e 282A0A1A 		.ascii	"(*\012\032E@A\220\250\200\012\202\012x-Q\021\015\210"
 655      45404190 
 655      A8800A82 
 655      0A782D51 
 655      110D88
 656 0051 22CAFD26 		.ascii	"\"\312\375&\002\001\271)\210\334\231\177_N\235SeUzf"
 656      0201B929 
 656      88DC997F 
 656      5F4E9D53 
 656      65557A66 
 657 0065 AD595D8B 		.ascii	"\255Y]\213\3159{\357\177\377\337\267\377\333>\347\250"
 657      CD397BEF 
 657      7FFFDFB7 
 657      FFDB3EE7 
 657      A8
 658 0076 5548457E 		.ascii	"UHE~\017\337U\251\374\325*\325o\274T\252E\370\371\302"
 658      0FDF55A9 
 658      FCD52AD5 
 658      6FBC54AA 
 658      45F8F9C2 
 659 008a D87A95FC 		.ascii	"\330z\225\374\363\203v\006Z\005\264>h\203\320\206\240"
 659      F3837606 
 659      5A05B43E 
 659      6883D086 
 659      A0
 660 009b 6961B91F 		.ascii	"ia\271\037\264\245\320V@{\027\332G\320~\013\355_\240"
 660      B4A5D056 
 660      407B17DA 
 660      47D07E0B 
 660      ED5FA0
 661 00ae 6190F912 		.ascii	"a\220\371\022\256\006hF\244r\372\235\341z\011\316Rh"
 661      AE066846 
 661      A472FA9D 
 661      E17A09CE 
 661      5268
 662 00c0 CBA1F540 		.ascii	"\313\241\365@\333\000r\353\241\231\240\375;\264n\030"
 662      DB0072EB 
 662      A199A0FD 
 662      3BB46E18 
 663 00d0 AB83761B 		.ascii	"\253\203v\033Z%4;4\240\252j\203\366\003\264;\320\252"
ARM GAS  C:\Users\Sava\AppData\Local\Temp\ccoQvwtf.s 			page 53


 663      5A25343B 
 663      34A0AA6A 
 663      83F603B4 
 663      3BD0AA
 664 00e3 A021AE53 		.ascii	"\240!\256SP1\274/]\360\010w\235\002\353\"\264\3178&"
 664      5031BC2F 
 664      5DF00877 
 664      9D02EB22 
 664      B4CF3826 
 665 00f7 D119EE82 		.ascii	"\321\031\356\202\205\025\030\222\376\012\256\237\354"
 665      85151892 
 665      FE0AAE9F 
 665      EC
 666 0104 C5ECA2BF 		.ascii	"\305\354\242\277\317E\277\244\227\354e\003\327\335\252"
 666      CF45BFA4 
 666      97EC6503 
 666      D7DDAA
 667 0113 D04FF6D0 		.ascii	"\320O\366\320\356\006\243\217c\020\376\033]0\210\335"
 667      EE06A38F 
 667      6310FE1B 
 667      5D3088DD 
 668 0123 97B8D84C 		.ascii	"\227\270\330L\332C \307[\307\367B\366\347j\273\010\030"
 668      DA4320C7 
 668      5BC7F742 
 668      F6E76ABB 
 668      0818
 669 0135 EFF5603F 		.ascii	"\357\365`?\201\353\227\360\311\0367\271\340\023\237"
 669      81EB97F0 
 669      C91E37B9 
 669      E0139F
 670 0144 EB556FFA 		.ascii	"\353Uo\372L\211-a\374\224-\005\256\253\217\3579\322"
 670      4C892D61 
 670      FC942D05 
 670      AEAB8FEF 
 670      39D2
 671 0156 0587C4D5 		.ascii	"\005\207\304\3252\027\034/$c\255\342x\277G\014\363C"
 671      32171C2F 
 671      2463ADE2 
 671      78BF470C 
 671      F343
 672 0168 E48C8BF9 		.ascii	"\344\214\213\371\376%\374V\356\233\005h\323.\\f\011"
 672      FE25FC56 
 672      EE9B0568 
 672      D32E5C66 
 672      09
 673 0179 07909F87 		.ascii	"\007\220\237\207\353\214\212\021\302\234\003\211\345"
 673      EB8C8A11 
 673      C29C0389 
 673      E5
 674 0186 3ED59B3F 		.ascii	">\325\233?\022\363\356b\367\242\202\333z\227xj\345>"
 674      12F3EE62 
 674      F7A282DB 
 674      7A97786A 
 674      E53E
 675 0198 F072C16F 		.ascii	"\360r\301o\347>@\\\257\353\217\344\326\022\005\316\027"
 675      E73E405C 
 675      AFEB8FE4 
ARM GAS  C:\Users\Sava\AppData\Local\Temp\ccoQvwtf.s 			page 54


 675      D61205CE 
 675      17
 676 01a9 0A2CC9EE 		.ascii	"\012,\311\356\253\\\354\375\007X\243G\014\257\225sq"
 676      AB5CECFD 
 676      0758A347 
 676      0CAF9573 
 676      71
 677 01ba C5BDC3B1 		.ascii	"\305\275\303\261\005\216A\260\011|\224\013\207\025\334"
 677      058E41B0 
 677      097C940B 
 677      8715DC
 678 01c9 174AFC8B 		.ascii	"\027J\374\213\234\003\301\015W\330~3\\\337\202\026\015"
 678      9C03C10D 
 678      57D87E33 
 678      5CDF8216 
 678      0D
 679 01da ED1FA1C5 		.ascii	"\355\037\241\305B\263B\373\034\346\276\206\3536h\237"
 679      42B342FB 
 679      1CE6BE86 
 679      EB36689F 
 680 01ea 72FD6AAE 		.ascii	"r\375j\256\273\217\343\223\232!\305\3357.\034H]\011"
 680      BB8FE393 
 680      9A21C5DD 
 680      372E1C48 
 680      5D09
 681 01fc 74C3418A 		.ascii	"t\303A\212\205\036\276\377\377\004\271r\305\376\245"
 681      851EBEFF 
 681      FF04B972 
 681      C5FEA5
 682 020b BDFF17B4 		.ascii	"\275\377\027\264\267\241\3757\264\355\320l\320\006T"
 682      B7A1FD37 
 682      B4EDD06C 
 682      D00654
 683 021a 7F9A27E2 		.ascii	"\177\232'\3426\362\346\034*\270\217V\360\372F\362\345"
 683      36F2E61C 
 683      2AB88F56 
 683      F0FA46F2 
 683      E5
 684 022b B75C2EC1 		.ascii	"\267\\.\301\205\363\274\200\346f\357\337\360nE\315d"
 684      85F3BC80 
 684      E666EFDF 
 684      F06E45CD 
 684      64
 685 023c 06919F4A 		.ascii	"\006\221\237J\345\"\204XClX\220\206\330\034zS\230\252"
 685      E5228458 
 685      436C5890 
 685      86D81C7A 
 685      5398AA
 686 024f 90C75DC3 		.ascii	"\220\307]\303eQ\372\311\023\210\001\263EJy\011\032`"
 686      6551FAC9 
 686      138801B3 
 686      454A7909 
 686      1A60
 687 0261 D92D5239 		.ascii	"\331-R9XH\262\012}\234\275L\326\345\207\245M\017\274"
 687      5848B20A 
 687      7D9CBD4C 
 687      D6E587A5 
ARM GAS  C:\Users\Sava\AppData\Local\Temp\ccoQvwtf.s 			page 55


 687      4D0FBC
 688 0274 FC3E0883 		.ascii	"\374>\010\203J\270\355\234>\365O\241\247E\370\245\210"
 688      4AB8ED9C 
 688      3EF54FA1 
 688      A745F8A5 
 688      88
 689 0285 A2F073D9 		.ascii	"\242\360s\3310\017m\305G\360\204\200\226\352\220\032"
 689      300F6DC5 
 689      47F08480 
 689      96EA901A 
 690 0295 BA2F6A33 		.ascii	"\272/j3z\374\241\273\\\207\202\240;\17773CXy\210\256"
 690      7AFCA1BB 
 690      5C8782A0 
 690      3B7F3733 
 690      43587988 
 691 02aa DB2E06A9 		.ascii	"\333.\006\251\321\372\025\250\020\005\242\002\004\376"
 691      D1FA15A8 
 691      1005A202 
 691      04FE
 692 02b8 46A7D14A 		.ascii	"F\247\321J\370\277A\3154\265wU\244h\336;&\036;&vu\236"
 692      F8BF41CD 
 692      34B57755 
 692      A468DE3B 
 692      261E3B26 
 693 02cf F23BB45D 		.ascii	"\362;\264]\254\206eAD\012\235B\030\345\243P\262\027"
 693      AC866541 
 693      440A9D42 
 693      18E5A350 
 693      B217
 694 02e1 B8259793 		.ascii	"\270%\227\223\250\025\266p\006\275\007+\357WO\036\364"
 694      A815B670 
 694      06BD072B 
 694      EF574F1E 
 694      F4
 695 02f2 C3A194E8 		.ascii	"\303\241\224\350\331\323\263\305:5\331\370gz\242\232"
 695      D9D3B3C5 
 695      3A35D9F8 
 695      677AA29A 
 696 0302 28AECE2F 		.ascii	"(\256\316/$\024W\351\0201@\000\014\025\015UL\373\261"
 696      241457E9 
 696      10314000 
 696      0C150D55 
 696      4CFBB1
 697 0315 212251BF 		.ascii	"!\"Q\277\357e\2367\376;r/\024\246>\257\367A!\272\023"
 697      EF659E37 
 697      FE3B722F 
 697      14A63EAF 
 697      F74121BA 
 698 032a 84745769 		.ascii	"\204tWi\325oRw\300\216\321y\244C%2\213U\244\006\355"
 698      D56F5277 
 698      C08ED179 
 698      A4432532 
 698      8B55A406 
 699 033f 14C578B2 		.ascii	"\024\305x\262\257\245\237\252\034\273B\245(\204\250"
 699      AFA59FAA 
 699      1CBB42A5 
 699      2884A8
ARM GAS  C:\Users\Sava\AppData\Local\Temp\ccoQvwtf.s 			page 56


 700 034e 2572E81C 		.ascii	"%r\350\034\014\026\303 @\344\347\245\346jp\015\242\030"
 700      0C16C320 
 700      40E4E7A5 
 700      E66A700D 
 700      A218
 701 0360 0567EBAA 		.ascii	"\005g\353\252\274\221.\304\255\20227\012\030\231\326"
 701      BC912EC4 
 701      AD823237 
 701      0A1899D6 
 702 0370 BD6BC105 		.ascii	"\275k\301\005K\320E\340rA\346\002\324\230\005m\211\365"
 702      4BD045E0 
 702      7241E602 
 702      D498056D 
 702      89F5
 703 0382 D37E4A6B 		.ascii	"\323~Jk\023A\331\334\345\324\334E\210\333\273\261\361"
 703      1341D9DC 
 703      E5D4DC45 
 703      88DBBBB1 
 703      F1
 704 0393 EC8217D8 		.ascii	"\354\202\027\330\273\213\330\27384\243D\024\223`\245"
 704      BB8BD8BB 
 704      3834A344 
 704      149360A5 
 705 03a3 9AC8A1B3 		.ascii	"\232\310\241\263\262\372\263J\203WP\203\037\257N\314"
 705      B2FAB34A 
 705      83575083 
 705      1FAF4ECC 
 706 03b3 D2E11A16 		.ascii	"\322\341\032\026\032\025\343\342y?\334\314:\007\362"
 706      1A15E3E2 
 706      793FDCCC 
 706      3A07F2
 707 03c2 CE56F831 		.ascii	"\316V\3701\377\377\025t\213_\344\364c\334E\347p\372"
 707      FFFF1574 
 707      8B5FE4F4 
 707      63DC45E7 
 707      70FA
 708 03d4 FD81131A 		.ascii	"\375\201\023\032`C\376t\031\"l~lq\361\333\305Eod\207"
 708      6043FE74 
 708      19226C7E 
 708      6C71F1DB 
 708      C5456F64 
 709 03e9 1D64885A 		.ascii	"\035d\210Zz\3456\351\012P\330DEgT\350:\364\2571{\236"
 709      7AE536E9 
 709      0A50D844 
 709      456754E8 
 709      3AF4AF31 
 710 03ff AE4CBFE7 		.ascii	"\256L\277\347\213\373\231\346\354\351\324\\/\244c\252"
 710      8BFB99E6 
 710      ECE9D45C 
 710      2FA463AA 
 711 040f A982B1F8 		.ascii	"\251\202\261\370cA@\367\343@\364\021Y^I\227\337\204"
 711      634140F7 
 711      E340F411 
 711      595E4997 
 711      DF84
 712 0421 E95BB09C 		.ascii	"\351[\260\234@UR\310\235\304\234\344v^\360\352\037|"
 712      405552C8 
ARM GAS  C:\Users\Sava\AppData\Local\Temp\ccoQvwtf.s 			page 57


 712      9DC49CE4 
 712      765EF0EA 
 712      1F7C
 713 0433 D0A447CB 		.ascii	"\320\244G\313\202\203\203CR\271\011E\260\225\202\304"
 713      82838343 
 713      52B90945 
 713      B09582C4 
 714 0443 6DB48C18 		.ascii	"m\264\214\030\005\335\005\017\335A\301\250\012\005\323"
 714      05DD050F 
 714      DD41C1A8 
 714      0A05D3
 715 0452 34C82588 		.ascii	"4\310%\210\366\322|\224.\356\372\031\241\212\256\202"
 715      F6D27C94 
 715      2EEEFA19 
 715      A18AAE82 
 716 0462 F988F415 		.ascii	"\371\210\364\025\311\251\037\006RgT\303\2525\201\216"
 716      C9A91F06 
 716      526754C3 
 716      AA35818E 
 717 0472 25C5FFF6 		.ascii	"%\305\377\366\335Z\002\217np\3715\224\257Rz5\227\026"
 717      DD5A028F 
 717      6E70F935 
 717      94AF527A 
 717      359716
 718 0485 45FB85C7 		.ascii	"E\373\205\307z1^\203\326\351\030\223BY7p\243r4L\354"
 718      7A315E83 
 718      D6E91893 
 718      42593770 
 718      A372344C 
 719 049a 59680911 		.ascii	"Yh\011\021Pq\007\262DU\027\015\314V\372\240\340\340"
 719      507107B2 
 719      4455170D 
 719      CC56FAA0 
 719      E0E0
 720 04ac E5210CBB 		.ascii	"\345!\014\273l[\272h\267a\012t\031\340k\320rw*e\350"
 720      6C5BBA68 
 720      B7610A74 
 720      19E06BD0 
 720      72772A65 
 721 04c1 1423D3EA 		.ascii	"\024#\323\352Ap\277{\233\021ib\263Z\260\331\017\260"
 721      4170BF7B 
 721      9B116962 
 721      B35AB0D9 
 721      0FB0
 722 04d3 9F7BDC66 		.ascii	"\237{\334f\214\352Q\263\010\276\000\031g\262(\311^\275"
 722      8CEA51B3 
 722      08BE0019 
 722      67B228C9 
 722      5EBD
 723 04e5 C7170F51 		.ascii	"\307\027\017Q\357\012\273^\356\351V\243\345!n\021\320"
 723      EF0ABB5E 
 723      EEE956A3 
 723      E5216E11 
 723      D0
 724 04f6 0350FCD3 		.ascii	"\003P\374\323 \025~\220\277u r_\016j\002I\2212.O\334"
 724      20157E90 
 724      BF752072 
ARM GAS  C:\Users\Sava\AppData\Local\Temp\ccoQvwtf.s 			page 58


 724      5F0E6A02 
 724      4991322E 
 725 050c F362F54B 		.ascii	"\363b\365K\013\335\262\221\3022\036\277v2}\364\340\301"
 725      0BDDB291 
 725      C2321EBF 
 725      76327DF4 
 725      E0C1
 726 051e 1A01CFB1 		.ascii	"\032\001\317\261\340.Jx\226\257\205\311@($HQE\002Y\025"
 726      E02E4A78 
 726      96AF85C9 
 726      40282448 
 726      51450259 
 727 0533 396F1F3F 		.ascii	"9o\037?\243\306;0%\375\260\264\371\266\262\214\374\274"
 727      A3C63B30 
 727      25FDB0B4 
 727      F9B6B28C 
 727      FCBC
 728 0545 9C845A13 		.ascii	"\234\204Z\023\030\373\211\314\"\320QE\306rE\315J)^Q"
 728      18FB89CC 
 728      22D05145 
 728      C67245CD 
 728      4A295E51 
 729 0559 23EC2390 		.ascii	"#\354#\220\227\200\307\260\321\006^C\262O\335\362\303"
 729      9780C7B0 
 729      D1065E43 
 729      B24FDDF2 
 729      C3
 730 056a A90C60F8 		.ascii	"\251\014`\370\273\347;\261\003\240uo`!\001h\005\200"
 730      BBE73BB1 
 730      03A0756F 
 730      60210168 
 730      0580
 731 057c 6619A009 		.ascii	"f\031\240\011y@hq\213\240~\376\244#O\003A\262,\204\372"
 731      79406871 
 731      8BA07EFE 
 731      A4234F03 
 731      41B22C84 
 732 0591 BDAB73EE 		.ascii	"\275\253s\356\367\373\241\016\177D\315G\242\244\303"
 732      F7FBA10E 
 732      7F44CD47 
 732      A2A4C3
 733 05a0 7DE0B190 		.ascii	"}\340\261\220z\2705M\264\307aJ\342\021\027\376X\212"
 733      7AB8354D 
 733      B4C7614A 
 733      E21117FE 
 733      588A
 734 05b2 6815F519 		.ascii	"h\025\365\031\310\262\344\26237\326\203\256\2074P:x"
 734      C8B2E4B2 
 734      3337D683 
 734      AE873450 
 734      3A78
 735 05c4 727502B3 		.ascii	"ru\002\2636\360a\273\223\017\257\322@\351p\215jT\275"
 735      36F061BB 
 735      930FAFD2 
 735      40E9708D 
 735      6A54BD
 736 05d7 7825598B 		.ascii	"x%Y\213\323\231In\326^\273\200\321\262\020\267\010\350"
ARM GAS  C:\Users\Sava\AppData\Local\Temp\ccoQvwtf.s 			page 59


 736      D399496E 
 736      D65EBB80 
 736      D1B210B7 
 736      08E8
 737 05e9 2928FE69 		.ascii	")(\376i\220G$P\272A\244K\266 \201\244HW\313\316g\353"
 737      90472450 
 737      BA41A44B 
 737      B62081A4 
 737      4857CBCE 
 738 05ff F4BB1C15 		.ascii	"\364\273\034\025\233\012\312q\336\203\364\234\322\241"
 738      9B0ACA71 
 738      DE83F49C 
 738      D2A1
 739 060d BBF1755A 		.ascii	"\273\361uZz\002\301\030?\202\232\276\337\236\200\224"
 739      7A02C118 
 739      3F829ABE 
 739      DF9E8094 
 740 061d 95994CC9 		.ascii	"\225\231L\311\213{ie~&U\346\216\251\374d=Tf;\374\035"
 740      8B7B6965 
 740      7E2655E6 
 740      8EA9FC64 
 740      3D54663B 
 741 0633 687987E4 		.ascii	"hy\207\344\251H\316 \020C\227dj\227\224\205\271\217"
 741      A948CE20 
 741      10439764 
 741      6A979485 
 741      B98F
 742 0645 16E6C1E1 		.ascii	"\026\346\301\341\354\367\361\011\354\351$lJh\310\362"
 742      ECF7F109 
 742      ECE9246C 
 742      4A68C8F2 
 743 0655 7C1C0F50 		.ascii	"|\034\017P\026?J,.\234\\(\362c\347\203\375\302n\354"
 743      163F4A2C 
 743      2E9C5C28 
 743      F263E783 
 743      FDC26EEC 
 744 0669 600162A8 		.ascii	"`\001b\250_f\321\257d1HY\364\3348\320\255\303%\214\206"
 744      5F66D1AF 
 744      64314859 
 744      F4DC38D0 
 744      ADC3258C 
 745 067e ADBEA192 		.ascii	"\255\276\241\222\037\353\366\206z(#q\242\370\011=\324"
 745      1FEBF686 
 745      7A282371 
 745      A2F8093D 
 745      D4
 746 068f 9FCB4A9E 		.ascii	"\237\313J\236+\225\014Q%\005\203\347.\011\330\316\224"
 746      2B950C51 
 746      250583E7 
 746      2E09D8CE 
 746      94
 747 06a0 648EB70F 		.ascii	"d\216\267\017\370\260\264\014!\347\365X\315Q_\226\264"
 747      F8B0B40C 
 747      21E7F558 
 747      CD515F96 
 747      B4
 748 06b1 4BA0FBF2 		.ascii	"K\240\373\362\376\315\203:\\\307Dw6,\034\320\341&\326"
ARM GAS  C:\Users\Sava\AppData\Local\Temp\ccoQvwtf.s 			page 60


 748      FECD833A 
 748      5CC74477 
 748      362C1CD0 
 748      E126D6
 749 06c4 C9E83E7F 		.ascii	"\311\350>\177(\000w\263NJEJ\213\037\036g\235\271\335"
 749      280077B3 
 749      4E4A454A 
 749      8B1F1E67 
 749      9DB9DD
 750 06d7 8D231A3C 		.ascii	"\215#\032<\317:\373n\334N\366\302\211j\332\031\261\365"
 750      CF3AFB6E 
 750      DC4EF6C2 
 750      896ADA19 
 750      B1F5
 751 06e9 7671E52B 		.ascii	"vq\345+\311\021v\3056\314\237h\354$\351\017\216g\317"
 751      C91176C5 
 751      36CC9F68 
 751      EC24E90F 
 751      8E67CF
 752 06fc 41125259 		.ascii	"A\022RY\237\336\305\013%\002\344K0\034\033!\301\301"
 752      9FDEC50B 
 752      2502E44B 
 752      301C1B21 
 752      C1C1
 753 070e 340DBA5E 		.ascii	"4\015\272^=\375\274\357x\"\251\227\244\266\216\303."
 753      3DFDBCEF 
 753      7822A997 
 753      A4B68EC3 
 753      2E
 754 071f E79459C3 		.ascii	"\347\224Y\303\302]\2216\255\212\264\031\343\322<mF\221"
 754      C25D9136 
 754      AD8AB419 
 754      E3D23C6D 
 754      4691
 755 0731 9C374CB8 		.ascii	"\2347L\270QQ\266_\272W\255L3\221%\301k\220\230\244\223"
 755      5151B65F 
 755      BA57AD4C 
 755      339125C1 
 755      6B9098A4 
 756 0746 733C0316 		.ascii	"s<\003\026!\003\346!\003\026\240MC\233\205\026'\004"
 756      2103E621 
 756      0316A04D 
 756      439B8516 
 756      2704
 757 0758 A319B88A 		.ascii	"\243\031\270\212\202\362\\{`\026\2234\024\357\225+\236"
 757      82F25C7B 
 757      60169334 
 757      14EF952B 
 757      9E
 758 0769 6B01A877 		.ascii	"k\001\250w\210N\270\025e\314\224\031=\347\234\321LM"
 758      884EB815 
 758      65CC9419 
 758      3DE79CD1 
 758      4C4D
 759 077b BBC22053 		.ascii	"\273\302 S\356\0142\2420H\263\302 /\\QGe[\203\353\366"
 759      EE0C32A2 
 759      3048B3C2 
ARM GAS  C:\Users\Sava\AppData\Local\Temp\ccoQvwtf.s 			page 61


 759      202F5C51 
 759      47655B83 
 760 0791 EF684B0E 		.ascii	"\357hK\016\300\347\250\353\204\236\376\364\017\034\265"
 760      C0E7A8EB 
 760      849EFEF4 
 760      0F1CB5
 761 07a0 C2C54CC8 		.ascii	"\302\305L\310&\204\374\237,\305\266\324I\352\307va\031"
 761      2684FC9F 
 761      2CC5B6D4 
 761      49EAC776 
 761      6119
 762 07b2 8A171C91 		.ascii	"\212\027\034\221='\325\217\232K=\242\240\254\037DPN"
 762      3D27D58F 
 762      9A4B3DA2 
 762      A0AC1F44 
 762      504E
 763 07c4 BE0441AA 		.ascii	"\276\004A\252\037\223Yu\217\275i\336"
 763      1F935975 
 763      8FBD69DE 
 764 07d0 C2184FDC 		.ascii	"\302\030O\334[\2732\357y{L\334\035\002I\334D\201'\356"
 764      5BBB32EF 
 764      797B4CDC 
 764      1D0249DC 
 764      448127EE 
 765 07e4 93D18C19 		.ascii	"\223\321\214\031$=HO\255r<H\203\030\032\226snX\231s"
 765      243D484F 
 765      AD723C48 
 765      83181A96 
 765      736E5899 
 766 07f9 3B059273 		.ascii	";\005\222sSb\313\230/\256dy\320}\363\240\350Oy\020\323"
 766      5362CB98 
 766      2FAE6479 
 766      D07DF3A0 
 766      E84F7910 
 767 080e 321E57F7 		.ascii	"2\036W\367?\275\031\340\250m\273\0046x\2640[\347\221"
 767      3FBD19E0 
 767      A86DBB04 
 767      3678B430 
 767      5BE791
 768 0821 DC1E4A6E 		.ascii	"\334\036Jn\267Dn \353n\257\232\327\266\353\255\376\216"
 768      B7446E20 
 768      EB6EAF9A 
 768      D7B6EBAD 
 768      FE8E
 769 0833 AA026228 		.ascii	"\252\002b(I6\033\334\312\344\222)\271\374\313\257?\300"
 769      49361BDC 
 769      CAE49229 
 769      B9FCCBAF 
 769      3FC0
 770 0845 35FF5B6E 		.ascii	"5\377[n\373<p\373BYwS)\267\024\211\333LFJ\026\346\334"
 770      FB3C70FB 
 770      42597753 
 770      29B71489 
 770      DB4C464A 
 771 085c 5EB40438 		.ascii	"^\264\0048\270\201\030\332+s\333\253\344\266\237r\273"
 771      B88118DA 
 771      2B73DBAB 
ARM GAS  C:\Users\Sava\AppData\Local\Temp\ccoQvwtf.s 			page 62


 771      E4B69F72 
 771      BB
 772 086d FDBAB54A 		.ascii	"\375\272\265J\203\237x&\367\240\273<S\357\221\307A\312"
 772      839F7826 
 772      F7A0BB3C 
 772      53EF91C7 
 772      41CA
 773 087f E33B89C7 		.ascii	"\343;\211\307l\325h\257F\252\274;\364\016\036 \206\016"
 773      6CD568AF 
 773      46AABC3B 
 773      F40E1E20 
 773      860E
 774 0891 C83C0E28 		.ascii	"\310<\016(y\034\242<z\317\333s\275p\217g\036\355\265"
 774      791CA23C 
 774      7ACFDB73 
 774      BD708F67 
 774      1EEDB5
 775 08a4 A7673574 		.ascii	"\247g5t\014\010\034f6\022\333\253\267c\217\3342(\267"
 775      0C081C66 
 775      3612DBAB 
 775      B7638FDC 
 775      3228B7
 776 08b7 7489DB78 		.ascii	"t\211\333xI\366Q=/\347S\367\245r\016B(Mf\226\246d\226"
 776      49F6513D 
 776      2FE753F7 
 776      A5720E42 
 776      284D6696 
 777 08ce 49991595 		.ascii	"I\231\025\225]\201\022\373\2221\253-\032\330\255\301"
 777      5D8112FB 
 777      9231AB2D 
 777      1AD8ADC1 
 778 08de D3AC539C 		.ascii	"\323\254S\234\331w\217\304;:JW\221\2218\373I?\274\300"
 778      D9778FC4 
 778      3B3A4A57 
 778      919138FB 
 778      493FBCC0 
 779 08f2 A673BFCF 		.ascii	"\246s\277\317\252\367!\323\3310\215\262\004\247W\272"
 779      AAF721D3 
 779      D9308DB2 
 779      04A757BA 
 780 0902 756FBED2 		.ascii	"uo\276\322\255c\017cy\323\243ez\234\350Es\375\307K\027"
 780      AD630F63 
 780      79D3A365 
 780      7A9CE845 
 780      73FDC74B 
 781 0917 B3E467A5 		.ascii	"\263\344g\245\313\203\237\\\356 \011\361\275\240C\307"
 781      CB839F5C 
 781      EE2009F1 
 781      BDA043C7 
 782 0927 65D6EB3C 		.ascii	"e\326\353<\276\323\345A9X\307\237\226r\205@\224#\320"
 782      BED3E541 
 782      3958C79F 
 782      96728540 
 782      9423D0
 783 093a E7B1EAA7 		.ascii	"\347\261\352\247\343\337P[\022E\314\276\025\327\012"
 783      E3DF505B 
 783      1245CCBE 
ARM GAS  C:\Users\Sava\AppData\Local\Temp\ccoQvwtf.s 			page 63


 783      15D70A
 784 0949 3A99CD3F 		.ascii	":\231\315?\327\241\023\214\354\310\216\341g:\311\346"
 784      D7A1138C 
 784      ECC88EE1 
 784      673AC9E6 
 785 0959 27D9D893 		.ascii	"'\331\330\223\355{&\375\177\221\254\311\026\265\354"
 785      ED7B26FD 
 785      7F91ACC9 
 785      16B5EC
 786 0968 E9227DA0 		.ascii	"\351\"}\240TMe\362\205_\2602\3604\371\2007\336\247\241"
 786      544D65F2 
 786      855FB032 
 786      F034F980 
 786      37DEA7A1 
 787 097c BB79913D 		.ascii	"\273y\221=~\202\270\015\025\002\335\002\342\013\030"
 787      7E82B80D 
 787      1502DD02 
 787      E20B18
 788 098b 9C684BBF 		.ascii	"\234hK\277\342\205\323\230DaZ\336\003j\3053\304L\247"
 788      E285D398 
 788      44615ADE 
 788      036AC533 
 788      C44CA7
 789 099e 19CAD8F8 		.ascii	"\031\312\330\370\220\350!\372\321Y\020AE\324\271\247"
 789      90E821FA 
 789      D1591041 
 789      45D4B9A7 
 790 09ae 24E75E1C 		.ascii	"$\347^\034\315l\010 \201\227\"v-\276\374t\274D\264%"
 790      CD6C0820 
 790      81972276 
 790      2DBEFC74 
 790      BC44B425 
 791 09c2 892B3B04 		.ascii	"\211+;\004\"\207\216H\226B\307\0045\351\321\312\207"
 791      22878E48 
 791      9642C704 
 791      35E9D1CA 
 791      87
 792 09d3 8AA97B67 		.ascii	"\212\251{g_\227\212\0018\325\233ry<uuF\217\217\320\216"
 792      5F978A01 
 792      38D59B72 
 792      793C7575 
 792      468F8FD0 
 793 09e8 BA34BE33 		.ascii	"\2724\2763\307\037\205\360\327\276\023\322'\004\010"
 793      C71F85F0 
 793      D7BE13D2 
 793      270408
 794 09f7 4A305A09 		.ascii	"J0Z\011\327\002?\366B\370-\031\246/h\344\352\346\301"
 794      D7023FF6 
 794      42F82D19 
 794      A62F68E4 
 794      EAE6C1
 795 0a0a B5145C41 		.ascii	"\265\024\\A\246T\350\0028\342<sD\313\235\032\233F\307"
 795      A654E802 
 795      38E23C73 
 795      44CB9D1A 
 795      9B46C7
 796 0a1d A553FE94 		.ascii	"\245S\376\224\364\265\301\274\303je%.\023\234^\223\035"
ARM GAS  C:\Users\Sava\AppData\Local\Temp\ccoQvwtf.s 			page 64


 796      F4B5C1BC 
 796      C36A6525 
 796      2E139C5E 
 796      931D
 797 0a2f 95D83698 		.ascii	"\225\3306\230\232\310*q\271\243\022\017\036M\335\341"
 797      9AC82A71 
 797      B9A3120F 
 797      1E4DDDE1 
 798 0a3f 2B39B882 		.ascii	"+9\270\202\231\271kw\333\234\326!w\211\015\026\034\357"
 798      99B96B77 
 798      DB9CD621 
 798      77890D16 
 798      1CEF
 799 0a51 CA228F2C 		.ascii	"\312\"\217,\357@\210\222\376\365G]Gt\254/~K\236#\356"
 799      EF408892 
 799      FEF5475D 
 799      4774AC2F 
 799      7E4B9E23 
 800 0a66 1F69D0E2 		.ascii	"\037i\320\342\034j$\341VFe\274\227\342m\341/\213\310"
 800      1C6A24E1 
 800      564665BC 
 800      97E26DE1 
 800      2F8BC8
 801 0a79 C3BC1D78 		.ascii	"\303\274\035x]\223\343\363\035\036\237\242\213I\256"
 801      5D93E3F3 
 801      1D1E9FA2 
 801      8B49AE
 802 0a88 C326DFE1 		.ascii	"\303&\337\341\321y\025\266y\205m\363Q\333\214]\213\013"
 802      D17915B6 
 802      79856DF3 
 802      51DB8C5D 
 802      8B0B
 803 0a9a 18C0C9BB 		.ascii	"\030\300\311\2733\345\032\366\305\301u\371M7\313\245"
 803      33E51AF6 
 803      C5C175F9 
 803      4D37CBA5 
 804 0aaa 978A1505 		.ascii	"\227\212\025\005\364\005\031x\334\220y\330\005\376\275"
 804      F4051978 
 804      DC9079D8 
 804      05FEBD
 805 0ab9 61A6376E 		.ascii	"a\2467n\320\037\237c\010\251\315\365\271\330=B\225G"
 805      D01F9F63 
 805      08A9CDF5 
 805      B9D83D42 
 805      9547
 806 0acb 84D4857F 		.ascii	"\204\324\205\177\265%\220\322v\033 n\311\020\225\022"
 806      B52590D2 
 806      761B206E 
 806      C9109512 
 807 0adb 44EDBD09 		.ascii	"D\355\275\011\233\236\232\226H\\f\246=YSb\307\036\017"
 807      9B9E9A96 
 807      485C66A6 
 807      3D595362 
 807      C71E0F
 808 0aee 9C6A1AD3 		.ascii	"\234j\032\323w\244\230\216K\236\354\020HL\303\001=\333"
 808      77A4988E 
 808      4B9EEC10 
ARM GAS  C:\Users\Sava\AppData\Local\Temp\ccoQvwtf.s 			page 65


 808      484CC301 
 808      3DDB
 809 0b00 ACB7A720 		.ascii	"\254\267\247 \"\201\316\311`\347\244P\276KC9\263\340"
 809      2281CEC9 
 809      60E7A450 
 809      BE4B4339 
 809      B3E0
 810 0b12 72A90637 		.ascii	"r\251\0067z{(N\316\365\350\007\306H~\326^\277\202J\225"
 810      7A7B284E 
 810      CEF5E807 
 810      C6487ED6 
 810      5EBF824A 
 811 0b27 CE9ECCC7 		.ascii	"\316\236\314\307\216\332P\313\244\016W6\276%=\220\337"
 811      8EDA50CB 
 811      A40E5736 
 811      BE253D90 
 811      DF
 812 0b38 6743E9BD 		.ascii	"gC\351\275OEA\252\015ul\314m\262;\347\367C&y\367Qe\202"
 812      4F4541AA 
 812      0D756CCC 
 812      6DB23BE7 
 812      F7432679 
 813 0b50 DA437ED7 		.ascii	"\332C~\327\223\374~Dm\361@\262\305X~G\216\332\221\337"
 813      93FC7E44 
 813      6DF140B2 
 813      C5587E47 
 813      8EDA91DF 
 814 0b64 5FC71F4F 		.ascii	"_\307\037O\264C\375\306Mo\023At\317\221\3405\220\340"
 814      B443FDC6 
 814      4D6F1341 
 814      74CF91E0 
 814      3590E0
 815 0b77 F724AB34 		.ascii	"\367$\2534P\253\024\2145\344\370\340\016f\225\305\214"
 815      50AB148C 
 815      35E4F8E0 
 815      0E6695C5 
 815      8C
 816 0b88 1787BD95 		.ascii	"\027\207\275\225\031\324\352\364\241\351\211\234A\347"
 816      19D4EAF4 
 816      A1E9899C 
 816      41E7
 817 0b96 53E3037E 		.ascii	"S\343\003~y\\\024s\3117=}A\211(\372\220i\364\230a)\026"
 817      795C1473 
 817      C9373D7D 
 817      418928FA 
 817      9069F498 
 818 0bad 3D2678A8 		.ascii	"=&x\250Q\370%\341\231v ^\203\373\031\330\374\261\226"
 818      51F825E1 
 818      9976205E 
 818      83FB19D8 
 818      FCB196
 819 0bc0 79FE860E 		.ascii	"y\376\206\016\221B\236R\256&\035U\263'r\210Nz\362g."
 819      91429E52 
 819      AE261D55 
 819      B3277288 
 819      4E7AF267 
 820 0bd5 FAE26926 		.ascii	"\372\342i&\236\236r\366\224\232\211/\376=9\005\237\225"
ARM GAS  C:\Users\Sava\AppData\Local\Temp\ccoQvwtf.s 			page 66


 820      9E9E72F6 
 820      949A892F 
 820      FE3D3905 
 820      9F95
 821 0be7 EFF5D6ED 		.ascii	"\357\365\326\355\3446\002\256K\225T\333iq\3700\020\265"
 821      E43602AE 
 821      4B9554DB 
 821      6971F830 
 821      10B5
 822 0bf9 B1A4D991 		.ascii	"\261\244\331\221\177\247A\2634\205W\251O\330'\264\026"
 822      7FA741B3 
 822      348557A9 
 822      4FD827B4 
 822      16
 823 0c0a 88D96681 		.ascii	"\210\331f\201\276\244\012K\245ED\372Yg\\9\331\036}`"
 823      BEA40A4B 
 823      A54544FA 
 823      59675C39 
 823      D91E7D60 
 824 0c1e A80A8E83 		.ascii	"\250\012\216\203\203:\210\310\240V\330\336\031\364\236"
 824      833A88C8 
 824      A056D8DE 
 824      19F49E
 825 0c2d 626513DD 		.ascii	"be\023\335^'\335\336\350\374P\225\037N\324R\276c\333"
 825      5E27DDDE 
 825      E8FC5095 
 825      1F4ED452 
 825      BE63DB
 826 0c40 0B5FF911 		.ascii	"\013_\371\021\035\271\242=\263j9\034\366\014\264\353"
 826      1DB9A23D 
 826      B36A391C 
 826      F60CB4EB 
 827 0c50 0D0B7551 		.ascii	"\015\013uQ\025\335T\305du\335\031\037\245\007\210Qe"
 827      15DD54C5 
 827      6475DD19 
 827      1FA50788 
 827      5165
 828 0c62 D1A7CC03 		.ascii	"\321\247\314\003\344J\276\246\034\3138\240W\012\023"
 828      E44ABEA6 
 828      1CCB38A0 
 828      570A13
 829 0c71 8A8A5757 		.ascii	"\212\212WW.\334C\205o\347%\3659UG\347\217\210\317\270"
 829      2EDC4385 
 829      6FE725F5 
 829      395547E7 
 829      8F88CFB8 
 830 0c85 F0332A7C 		.ascii	"\3603*|}n\304\256}?\207}f\371R\334\251%\361O>\022\262"
 830      7D6EC4AE 
 830      7D3F877D 
 830      66F952DC 
 830      A925F14F 
 831 0c9c D0E915DE 		.ascii	"\320\351\025\336'\241{<9\226\313\\\373Y\274@E\372$\221"
 831      27A17B3C 
 831      3996CB5C 
 831      FB59BC40 
 831      45FA2491 
 832 0cb0 3E2AD2BE 		.ascii	">*\322\276o\357,R\202\222W]\031\264\237\203\366S\320"
ARM GAS  C:\Users\Sava\AppData\Local\Temp\ccoQvwtf.s 			page 67


 832      6FEF2C52 
 832      8292575D 
 832      19B49F83 
 832      F653D0
 833 0cc3 6B59BBF7 		.ascii	"kY\273\367K\240\017\374\271\302AI\341\217Ta\\\312\251"
 833      4BA00FFC 
 833      B9C24149 
 833      E18F5461 
 833      5CCAA9
 834 0cd6 59C4653A 		.ascii	"Y\304e:\226q\231!If\200\312\\i{\264\210\225\240\344"
 834      96719921 
 834      496680CA 
 834      5C697BB4 
 834      8895A0E4 
 835 0cea 94934107 		.ascii	"\224\223A\0079\350 \005\375\26165\307O)\274\307I\370"
 835      39E82005 
 835      FDB13635 
 835      C74F29BC 
 835      C749F8
 836 0cfd 39177E4E 		.ascii	"9\027~N\205\233\342o&j8z\361\273\034\035\236\024\031"
 836      859BE26F 
 836      266A387A 
 836      F1BB1C1D 
 836      9E1419
 837 0d10 FA10457F 		.ascii	"\372\020E\177Ca\252\223\302a\256p\230*,\250\313j\364"
 837      4361AA93 
 837      C261AE70 
 837      982A2CA8 
 837      CB6AF4
 838 0d23 520A573B 		.ascii	"R\012W;\011\217p\341\021*\334sr!M\3032\340m\350\356"
 838      098F70E1 
 838      112ADC73 
 838      72214DC3 
 838      32E06DE8 
 839 0d38 2DE9DBA3 		.ascii	"-\351\333\243\367\230\000cR\002\214\262\004x5\275k\304"
 839      F7980063 
 839      52028CB2 
 839      047835BD 
 839      6BC4
 840 0d4a 872D5E01 		.ascii	"\207-^\001\335\206\2344\3722\014\271VL\336~3\223\222"
 840      DD869C34 
 840      FA320CB9 
 840      564CDE7E 
 840      339392
 841 0d5d 76F9C8F9 		.ascii	"v\371\310\371\201\350)\376\022\242\374\005\215\362q"
 841      81E829FE 
 841      12A2FC05 
 841      8DF271
 842 0d6c 9A1F5427 		.ascii	"\232\037T'\355\220\267\356\321\211\004\247x\032w\012"
 842      ED90B7EE 
 842      D18904A7 
 842      781A770A 
 843 0d7c BE094E7D 		.ascii	"\276\011N}\202R\037z\330X\210=r}%q\235d\337\303&\322"
 843      82521F7A 
 843      D858883D 
 843      727D2571 
 843      9D64DFC3 
ARM GAS  C:\Users\Sava\AppData\Local\Temp\ccoQvwtf.s 			page 68


 844 0d92 6A9A0318 		.ascii	"j\232\003\030\327\277 \345\325V\337'0\256\325\204\353"
 844      D7BF20E5 
 844      D556DF27 
 844      30AED584 
 844      EB
 845 0da3 8589F15A 		.ascii	"\205\211\361Z\275+\327\327\300u\222r\235\242\\_1\256"
 845      BD2BD7D7 
 845      C0759272 
 845      9DA25C5F 
 845      31AE
 846 0db5 5394EBE0 		.ascii	"S\224\353\340\334\213E'3O9q\235\346\\\247)\327\341;"
 846      DC8B4527 
 846      334F3971 
 846      9DE65CA7 
 846      29D7E13B 
 847 0dc9 7BEAFCB8 		.ascii	"{\352\374\270\223\017\373r'\037\222\234<\303B\177\261"
 847      930FFB72 
 847      271F929C 
 847      3CC3427F 
 847      B1
 848 0dda 76D857A9 		.ascii	"v\330W\251\260\334)\256g\271\302Y\2520wgNY\200R\370"
 848      B0DC29AE 
 848      67B9C259 
 848      AA307767 
 848      4E598052 
 849 0def A09393E7 		.ascii	"\240\223\223\347\270\360\034\025\266\265T\236s*\301"
 849      B8F01C15 
 849      B6B5549E 
 849      732AC1
 850 0dfe 8F9C84E7 		.ascii	"\217\234\204\347\271\360<\025v\363\240\272\277v\342"
 850      B9F03C15 
 850      76F3A0BA 
 850      BF76E2
 851 0e0d 88565A6F 		.ascii	"\210VZo\203\365\277S\236\241\237I\005\274\371L*\377"
 851      83F5BF53 
 851      9EA19F49 
 851      05BCF94C 
 851      2AFF
 852 0e1f 98B50805 		.ascii	"\230\265\010\005fAp\277\326\351\374\2053\210\035\254"
 852      664170BF 
 852      D6E9FC85 
 852      33881DAC 
 853 0e2f 20593E69 		.ascii	" Y>i;\215\350\3628\254G\"fOFUm\227~\362\324\202\267"
 853      3B8DE8F2 
 853      38AC4722 
 853      664F4655 
 853      6D977EF2 
 854 0e46 1158118F 		.ascii	"\021X\021\217\311\251E:\260\346\304^1\303\351\353\333"
 854      C9A9453A 
 854      B0E6C45E 
 854      31C3E9EB 
 854      DB
 855 0e57 8093216D 		.ascii	"\200\223!m\230m\027\256\344ylj\341\216\216{\346\273"
 855      986D17AE 
 855      E4796C6A 
 855      E18E8E7B 
 855      E6BB
ARM GAS  C:\Users\Sava\AppData\Local\Temp\ccoQvwtf.s 			page 69


 856 0e69 A5DC3399 		.ascii	"\245\3343\231\222g\022\360\373*\337\250\257\014\233"
 856      926712F0 
 856      FB2ADFA8 
 856      AF0C9B
 857 0e78 CD9B0D91 		.ascii	"\315\233\015\221\321\221V\355?\377\356\213\240\177X"
 857      D19156ED 
 857      3FFFEE8B 
 857      A07F58
 858 0e87 BD5AB522 		.ascii	"\275Z\265\"\352\253\210\25002\023\031k\012c\022\241"
 858      EAAB88A8 
 858      30321319 
 858      6B0A6312 
 858      A1
 859 0e98 26550097 		.ascii	"&U\000\227\2150[\015\261\221\337\230u\006\303\326\310"
 859      8D305B0D 
 859      B191DF98 
 859      7506C3D6 
 859      C8
 860 0ea9 68EBC76B 		.ascii	"h\353\307k\014\3268d\372\333\260-\226\230\010\213qs"
 860      0CD63864 
 860      FADBB02D 
 860      9698088B 
 860      7173
 861 0ebb D0C6C828 		.ascii	"\320\306\310(slP\310\327\277\376\325_\207\231\266m\261"
 861      736C50C8 
 861      D7BFFED5 
 861      5F8799B6 
 861      6DB1
 862 0ecd 986363C3 		.ascii	"\230cc\303\266\304\306\230\202L\026\263\321\032c\011"
 862      B6C4C698 
 862      824C16B3 
 862      D11A6309 
 863 0edd 5B1BBAC6 		.ascii	"[\033\272\306y r\363\226\030\2135,\"zk\230\321\2629"
 863      792072F3 
 863      96188B35 
 863      2C227A6B 
 863      98D1B239 
 864 0ef1 EC6F42D7 		.ascii	"\354oB\327\206\256&w\037D\307D\233?0\0337D\206EF\233"
 864      86AE2677 
 864      1F44C744 
 864      9B3F301B 
 864      37448645 
 865 0f07 A2B6869B 		.ascii	"\242\266\206\233\3036\033M\233\"\243\315a\206p\363F"
 865      C3361B4D 
 865      9B22A3CD 
 865      618670F3 
 865      46
 866 0f18 E3D628AB 		.ascii	"\343\326(\253\301\272m\21396t\223J+q\371\352\317E%v"
 866      C1BA6D8B 
 866      39367493 
 866      4A2B71F9 
 866      EACF4525 
 867 0f2d 5B6C9821 		.ascii	"[l\230!\326\032\016\270\200\2577G[\251i\242\315_[5\233"
 867      D61A0EB8 
 867      80AF3747 
 867      5BA969A2 
 867      CD5F5B35 
ARM GAS  C:\Users\Sava\AppData\Local\Temp\ccoQvwtf.s 			page 70


 868 0f42 CCC670B3 		.ascii	"\314\306p\263E\023N\015\245\336\032k\016\227\254\307"
 868      45134E0D 
 868      A5DE1A6B 
 868      0E97ACC7 
 869 0f52 660C56DD 		.ascii	"f\014V\335\306HK\254\325\020n\264\032}\230!\177m\260"
 869      C6484BAC 
 869      D5106EB4 
 869      1A7D9821 
 869      7F6DB0
 870 0f65 7AF3AB9E 		.ascii	"z\363\253\236\013\023\235V\311G\033-f\263\037\277\207"
 870      0B139D56 
 870      C9471B2D 
 870      66B31FBF 
 870      87
 871 0f76 DD5B8C11 		.ascii	"\335[\214\021\376\274\2679\006\334\027c\321\022\034"
 871      FEBCB739 
 871      06DC1763 
 871      D1121C
 872 0f85 C3169395 		.ascii	"\303\026\223\225\335\230\242\255o\2215\206\015\221\021"
 872      DD98A2AD 
 872      6F913586 
 872      0D9111
 873 0f94 11E658E6 		.ascii	"\021\346X\3464\037:B\356\264\364\016"
 873      341F3A42 
 873      EEB4F40E 
 874 0fa0 8474D618 		.ascii	"\204t\326\030\2531J\0323F\020\015nC`\223j\2113\240\301"
 874      AB314A1A 
 874      3346100D 
 874      6E436093 
 874      6A8933A0 
 875 0fb5 EA43195A 		.ascii	"\352C\031Z\266F\233\350\2351**\306$\221\247\035\211"
 875      B6469BE8 
 875      9D312A2A 
 875      C62491A7 
 875      1D89
 876 0fc7 22989774 		.ascii	"\"\230\227t5p\037k\266\252\243\314\306\215\336\3211"
 876      35701F6B 
 876      B6AAA3CC 
 876      C68DDED1 
 876      31
 877 0fd8 D64D9698 		.ascii	"\326M\226\230?j\010\262\301\372\355\377\277\337\242"
 877      3F6A08B2 
 877      C1FAEDFF 
 877      BFDFA2
 878 0fe7 22378445 		.ascii	"\"7\204E\230L.\376cs\016/Z\303\301\230\2607\264\332"
 878      984C2EFE 
 878      63730E2F 
 878      5AC3C198 
 878      B037B4DA 
 879 0ffb 7B637450 		.ascii	"{ctP\354"
 879      EC
 880 1000 16B30988 		.ascii	"\026\263\011\210EGo\215\212\372\217?[$Y-\221\321\021"
 880      45476F8D 
 880      8AFA8F3F 
 880      5B24592D 
 880      91D111
 881 1013 C04107D6 		.ascii	"\300A\007\326\212\212\2110\030\303\303\325\246MF\213"
ARM GAS  C:\Users\Sava\AppData\Local\Temp\ccoQvwtf.s 			page 71


 881      8A8A8930 
 881      18C3C3D5 
 881      A64D468B 
 882 1023 D6606001 		.ascii	"\326``\001\241a\027\177>\037e\376\312\034ex\323K0\007"
 882      A161177F 
 882      3E1F65FE 
 882      CA1C6578 
 882      D34B3007 
 883 1037 5A88914D 		.ascii	"Z\210\221M[\266i\377\030c\371\0031\376[\322\015Q\026"
 883      5BB669FF 
 883      1863F903 
 883      31FE5BD2 
 883      0D5116
 884 104a BAF6571F 		.ascii	"\272\366W\037\257\321+G\264\337\230-1\244\363?C\245"
 884      AFD12B47 
 884      B4DF982D 
 884      31A4F33F 
 884      43A5
 885 105c 03BF     		.ascii	"\003\277"
 886              		.text
 887              		.section	.gnu.lto_.symtab.d4bdb29,"",%progbits
 888 0000 6C765F6D 		.ascii	"lv_mem_init\000"
 888      656D5F69 
 888      6E697400 
 889 000c 00       		.ascii	"\000"
 890 000d 00       		.ascii	"\000"
 891 000e 00       		.ascii	"\000"
 892 000f 00000000 		.ascii	"\000\000\000\000\000\000\000\000"
 892      00000000 
 893 0017 AD000000 		.ascii	"\255\000\000\000"
 894 001b 6C765F6D 		.ascii	"lv_mem_get_size\000"
 894      656D5F67 
 894      65745F73 
 894      697A6500 
 895 002b 00       		.ascii	"\000"
 896 002c 00       		.ascii	"\000"
 897 002d 00       		.ascii	"\000"
 898 002e 00000000 		.ascii	"\000\000\000\000\000\000\000\000"
 898      00000000 
 899 0036 B9000000 		.ascii	"\271\000\000\000"
 900 003a 6C765F6D 		.ascii	"lv_mem_free\000"
 900      656D5F66 
 900      72656500 
 901 0046 00       		.ascii	"\000"
 902 0047 00       		.ascii	"\000"
 903 0048 00       		.ascii	"\000"
 904 0049 00000000 		.ascii	"\000\000\000\000\000\000\000\000"
 904      00000000 
 905 0051 EA000000 		.ascii	"\352\000\000\000"
 906 0055 6C765F6D 		.ascii	"lv_mem_defrag\000"
 906      656D5F64 
 906      65667261 
 906      6700
 907 0063 00       		.ascii	"\000"
 908 0064 00       		.ascii	"\000"
 909 0065 00       		.ascii	"\000"
 910 0066 00000000 		.ascii	"\000\000\000\000\000\000\000\000"
ARM GAS  C:\Users\Sava\AppData\Local\Temp\ccoQvwtf.s 			page 72


 910      00000000 
 911 006e EC000000 		.ascii	"\354\000\000\000"
 912 0072 6C765F6D 		.ascii	"lv_mem_monitor\000"
 912      656D5F6D 
 912      6F6E6974 
 912      6F7200
 913 0081 00       		.ascii	"\000"
 914 0082 00       		.ascii	"\000"
 915 0083 00       		.ascii	"\000"
 916 0084 00000000 		.ascii	"\000\000\000\000\000\000\000\000"
 916      00000000 
 917 008c 08010000 		.ascii	"\010\001\000\000"
 918 0090 6C765F6D 		.ascii	"lv_mem_alloc\000"
 918      656D5F61 
 918      6C6C6F63 
 918      00
 919 009d 00       		.ascii	"\000"
 920 009e 00       		.ascii	"\000"
 921 009f 00       		.ascii	"\000"
 922 00a0 00000000 		.ascii	"\000\000\000\000\000\000\000\000"
 922      00000000 
 923 00a8 16010000 		.ascii	"\026\001\000\000"
 924 00ac 6C765F6D 		.ascii	"lv_mem_realloc\000"
 924      656D5F72 
 924      65616C6C 
 924      6F6300
 925 00bb 00       		.ascii	"\000"
 926 00bc 00       		.ascii	"\000"
 927 00bd 00       		.ascii	"\000"
 928 00be 00000000 		.ascii	"\000\000\000\000\000\000\000\000"
 928      00000000 
 929 00c6 1B010000 		.ascii	"\033\001\000\000"
 930 00ca 6C765F6C 		.ascii	"lv_log_add\000"
 930      6F675F61 
 930      646400
 931 00d5 00       		.ascii	"\000"
 932 00d6 02       		.ascii	"\002"
 933 00d7 00       		.ascii	"\000"
 934 00d8 00000000 		.ascii	"\000\000\000\000\000\000\000\000"
 934      00000000 
 935 00e0 49010000 		.ascii	"I\001\000\000"
 936              		.text
 937              		.section	.gnu.lto_.opts,"",%progbits
 938 0000 272D666D 		.ascii	"'-fmath-errno' '-fsigned-zeros' '-ftrapping-math' '"
 938      6174682D 
 938      6572726E 
 938      6F272027 
 938      2D667369 
 939 0033 2D666E6F 		.ascii	"-fno-trapv' '-fno-strict-overflow' '-fno-openmp' '-"
 939      2D747261 
 939      70762720 
 939      272D666E 
 939      6F2D7374 
 940 0066 666E6F2D 		.ascii	"fno-openacc' '-mcpu=cortex-m3' '-mthumb' '-g' '-O0'"
 940      6F70656E 
 940      61636327 
 940      20272D6D 
ARM GAS  C:\Users\Sava\AppData\Local\Temp\ccoQvwtf.s 			page 73


 940      6370753D 
 941 0099 20272D66 		.ascii	" '-ffunction-sections' '-ffat-lto-objects' '-finlin"
 941      66756E63 
 941      74696F6E 
 941      2D736563 
 941      74696F6E 
 942 00cc 652D6675 		.ascii	"e-functions' '-flto'\000"
 942      6E637469 
 942      6F6E7327 
 942      20272D66 
 942      6C746F27 
 943              		.text
 944              		.cfi_sections	.debug_frame
 945              		.bss
 946              		.align	2
 947              	work_mem:
 948 0000 00000000 		.space	4
 949              		.align	2
 950              	zero_mem:
 951 0004 00000000 		.space	4
 952              		.section	.text.lv_mem_init,"ax",%progbits
 953              		.align	2
 954              		.global	lv_mem_init
 955              		.thumb
 956              		.thumb_func
 957              		.type	lv_mem_init, %function
 958              	lv_mem_init:
 959              	.LFB0:
 960              		.file 1 "lvgl\\lv_misc\\lv_mem.c"
   1:lvgl\lv_misc/lv_mem.c **** /**
   2:lvgl\lv_misc/lv_mem.c ****  * @file lv_mem.c
   3:lvgl\lv_misc/lv_mem.c ****  * General and portable implementation of malloc and free.
   4:lvgl\lv_misc/lv_mem.c ****  * The dynamic memory monitoring is also supported.
   5:lvgl\lv_misc/lv_mem.c ****  */
   6:lvgl\lv_misc/lv_mem.c **** 
   7:lvgl\lv_misc/lv_mem.c **** /*********************
   8:lvgl\lv_misc/lv_mem.c ****  *      INCLUDES
   9:lvgl\lv_misc/lv_mem.c ****  *********************/
  10:lvgl\lv_misc/lv_mem.c **** #include "lv_mem.h"
  11:lvgl\lv_misc/lv_mem.c **** #include "lv_math.h"
  12:lvgl\lv_misc/lv_mem.c **** #include <string.h>
  13:lvgl\lv_misc/lv_mem.c **** 
  14:lvgl\lv_misc/lv_mem.c **** #if LV_MEM_CUSTOM != 0
  15:lvgl\lv_misc/lv_mem.c **** #include LV_MEM_CUSTOM_INCLUDE
  16:lvgl\lv_misc/lv_mem.c **** #endif
  17:lvgl\lv_misc/lv_mem.c **** 
  18:lvgl\lv_misc/lv_mem.c **** /*********************
  19:lvgl\lv_misc/lv_mem.c ****  *      DEFINES
  20:lvgl\lv_misc/lv_mem.c ****  *********************/
  21:lvgl\lv_misc/lv_mem.c **** #define LV_MEM_ADD_JUNK     0   /*Add memory junk on alloc (0xaa) and free(0xbb) (just for testing 
  22:lvgl\lv_misc/lv_mem.c **** 
  23:lvgl\lv_misc/lv_mem.c **** 
  24:lvgl\lv_misc/lv_mem.c **** #ifdef LV_MEM_ENV64
  25:lvgl\lv_misc/lv_mem.c **** # define MEM_UNIT uint64_t
  26:lvgl\lv_misc/lv_mem.c **** #else
  27:lvgl\lv_misc/lv_mem.c **** # define MEM_UNIT uint32_t
  28:lvgl\lv_misc/lv_mem.c **** #endif
ARM GAS  C:\Users\Sava\AppData\Local\Temp\ccoQvwtf.s 			page 74


  29:lvgl\lv_misc/lv_mem.c **** 
  30:lvgl\lv_misc/lv_mem.c **** 
  31:lvgl\lv_misc/lv_mem.c **** /**********************
  32:lvgl\lv_misc/lv_mem.c ****  *      TYPEDEFS
  33:lvgl\lv_misc/lv_mem.c ****  **********************/
  34:lvgl\lv_misc/lv_mem.c **** 
  35:lvgl\lv_misc/lv_mem.c **** #if LV_ENABLE_GC == 0 /*gc custom allocations must not include header*/
  36:lvgl\lv_misc/lv_mem.c **** 
  37:lvgl\lv_misc/lv_mem.c **** /*The size of this union must be 4 bytes (uint32_t)*/
  38:lvgl\lv_misc/lv_mem.c **** typedef union {
  39:lvgl\lv_misc/lv_mem.c ****     struct {
  40:lvgl\lv_misc/lv_mem.c ****         MEM_UNIT used: 1;       //1: if the entry is used
  41:lvgl\lv_misc/lv_mem.c ****         MEM_UNIT d_size: 31;    //Size off the data (1 means 4 bytes)
  42:lvgl\lv_misc/lv_mem.c ****     };
  43:lvgl\lv_misc/lv_mem.c ****     MEM_UNIT header;            //The header (used + d_size)
  44:lvgl\lv_misc/lv_mem.c **** } lv_mem_header_t;
  45:lvgl\lv_misc/lv_mem.c **** 
  46:lvgl\lv_misc/lv_mem.c **** typedef struct {
  47:lvgl\lv_misc/lv_mem.c ****     lv_mem_header_t header;
  48:lvgl\lv_misc/lv_mem.c ****     uint8_t first_data;        /*First data byte in the allocated data (Just for easily create a po
  49:lvgl\lv_misc/lv_mem.c **** } lv_mem_ent_t;
  50:lvgl\lv_misc/lv_mem.c **** 
  51:lvgl\lv_misc/lv_mem.c **** #endif /* LV_ENABLE_GC */
  52:lvgl\lv_misc/lv_mem.c **** 
  53:lvgl\lv_misc/lv_mem.c **** /**********************
  54:lvgl\lv_misc/lv_mem.c ****  *  STATIC PROTOTYPES
  55:lvgl\lv_misc/lv_mem.c ****  **********************/
  56:lvgl\lv_misc/lv_mem.c **** #if LV_MEM_CUSTOM == 0
  57:lvgl\lv_misc/lv_mem.c **** static lv_mem_ent_t  * ent_get_next(lv_mem_ent_t * act_e);
  58:lvgl\lv_misc/lv_mem.c **** static void * ent_alloc(lv_mem_ent_t * e, uint32_t size);
  59:lvgl\lv_misc/lv_mem.c **** static void ent_trunc(lv_mem_ent_t * e, uint32_t size);
  60:lvgl\lv_misc/lv_mem.c **** #endif
  61:lvgl\lv_misc/lv_mem.c **** 
  62:lvgl\lv_misc/lv_mem.c **** /**********************
  63:lvgl\lv_misc/lv_mem.c ****  *  STATIC VARIABLES
  64:lvgl\lv_misc/lv_mem.c ****  **********************/
  65:lvgl\lv_misc/lv_mem.c **** #if LV_MEM_CUSTOM == 0
  66:lvgl\lv_misc/lv_mem.c **** static uint8_t * work_mem;
  67:lvgl\lv_misc/lv_mem.c **** #endif
  68:lvgl\lv_misc/lv_mem.c **** 
  69:lvgl\lv_misc/lv_mem.c **** static uint32_t zero_mem;       /*Give the address of this variable if 0 byte should be allocated*/
  70:lvgl\lv_misc/lv_mem.c **** 
  71:lvgl\lv_misc/lv_mem.c **** /**********************
  72:lvgl\lv_misc/lv_mem.c ****  *      MACROS
  73:lvgl\lv_misc/lv_mem.c ****  **********************/
  74:lvgl\lv_misc/lv_mem.c **** 
  75:lvgl\lv_misc/lv_mem.c **** /**********************
  76:lvgl\lv_misc/lv_mem.c ****  *   GLOBAL FUNCTIONS
  77:lvgl\lv_misc/lv_mem.c ****  **********************/
  78:lvgl\lv_misc/lv_mem.c **** 
  79:lvgl\lv_misc/lv_mem.c **** /**
  80:lvgl\lv_misc/lv_mem.c ****  * Initiaiize the dyn_mem module (work memory and other variables)
  81:lvgl\lv_misc/lv_mem.c ****  */
  82:lvgl\lv_misc/lv_mem.c **** void lv_mem_init(void)
  83:lvgl\lv_misc/lv_mem.c **** {
 961              		.loc 1 83 0
 962              		.cfi_startproc
ARM GAS  C:\Users\Sava\AppData\Local\Temp\ccoQvwtf.s 			page 75


 963              		@ args = 0, pretend = 0, frame = 8
 964              		@ frame_needed = 1, uses_anonymous_args = 0
 965              		@ link register save eliminated.
 966 0000 80B4     		push	{r7}
 967              		.cfi_def_cfa_offset 4
 968              		.cfi_offset 7, -4
 969 0002 83B0     		sub	sp, sp, #12
 970              		.cfi_def_cfa_offset 16
 971 0004 00AF     		add	r7, sp, #0
 972              		.cfi_def_cfa_register 7
  84:lvgl\lv_misc/lv_mem.c **** #if LV_MEM_CUSTOM == 0
  85:lvgl\lv_misc/lv_mem.c **** 
  86:lvgl\lv_misc/lv_mem.c **** #if LV_MEM_ADR == 0
  87:lvgl\lv_misc/lv_mem.c ****     /*Allocate a large array to store the dynamically allocated data*/
  88:lvgl\lv_misc/lv_mem.c ****     static LV_MEM_ATTR MEM_UNIT work_mem_int[LV_MEM_SIZE / sizeof(MEM_UNIT)];
  89:lvgl\lv_misc/lv_mem.c ****     work_mem = (uint8_t *) work_mem_int;
 973              		.loc 1 89 0
 974 0006 0B4B     		ldr	r3, .L2
 975 0008 0B4A     		ldr	r2, .L2+4
 976 000a 1A60     		str	r2, [r3]
  90:lvgl\lv_misc/lv_mem.c **** #else
  91:lvgl\lv_misc/lv_mem.c ****     work_mem = (uint8_t *) LV_MEM_ADR;
  92:lvgl\lv_misc/lv_mem.c **** #endif
  93:lvgl\lv_misc/lv_mem.c **** 
  94:lvgl\lv_misc/lv_mem.c ****     lv_mem_ent_t * full = (lv_mem_ent_t *)work_mem;
 977              		.loc 1 94 0
 978 000c 094B     		ldr	r3, .L2
 979 000e 1B68     		ldr	r3, [r3]
 980 0010 7B60     		str	r3, [r7, #4]
  95:lvgl\lv_misc/lv_mem.c ****     full->header.used = 0;
 981              		.loc 1 95 0
 982 0012 7A68     		ldr	r2, [r7, #4]
 983 0014 1378     		ldrb	r3, [r2]
 984 0016 6FF30003 		bfc	r3, #0, #1
 985 001a 1370     		strb	r3, [r2]
  96:lvgl\lv_misc/lv_mem.c ****     /*The total mem size id reduced by the first header and the close patterns */
  97:lvgl\lv_misc/lv_mem.c ****     full->header.d_size = LV_MEM_SIZE - sizeof(lv_mem_header_t);
 986              		.loc 1 97 0
 987 001c 7A68     		ldr	r2, [r7, #4]
 988 001e 1368     		ldr	r3, [r2]
 989 0020 47F6FC71 		movw	r1, #32764
 990 0024 61F35F03 		bfi	r3, r1, #1, #31
 991 0028 1360     		str	r3, [r2]
  98:lvgl\lv_misc/lv_mem.c **** #endif
  99:lvgl\lv_misc/lv_mem.c **** }
 992              		.loc 1 99 0
 993 002a 00BF     		nop
 994 002c 0C37     		adds	r7, r7, #12
 995              		.cfi_def_cfa_offset 4
 996 002e BD46     		mov	sp, r7
 997              		.cfi_def_cfa_register 13
 998              		@ sp needed
 999 0030 80BC     		pop	{r7}
 1000              		.cfi_restore 7
 1001              		.cfi_def_cfa_offset 0
 1002 0032 7047     		bx	lr
 1003              	.L3:
ARM GAS  C:\Users\Sava\AppData\Local\Temp\ccoQvwtf.s 			page 76


 1004              		.align	2
 1005              	.L2:
 1006 0034 00000000 		.word	work_mem
 1007 0038 08000000 		.word	work_mem_int.4632
 1008              		.cfi_endproc
 1009              	.LFE0:
 1010              		.size	lv_mem_init, .-lv_mem_init
 1011              		.section	.rodata
 1012              		.align	2
 1013              	.LC0:
 1014 0000 436F756C 		.ascii	"Couldn't allocate memory\000"
 1014      646E2774 
 1014      20616C6C 
 1014      6F636174 
 1014      65206D65 
 1015 0019 000000   		.align	2
 1016              	.LC1:
 1017 001c 6C76676C 		.ascii	"lvgl\\lv_misc\\lv_mem.c\000"
 1017      5C6C765F 
 1017      6D697363 
 1017      5C6C765F 
 1017      6D656D2E 
 1018              		.section	.text.lv_mem_alloc,"ax",%progbits
 1019              		.align	2
 1020              		.global	lv_mem_alloc
 1021              		.thumb
 1022              		.thumb_func
 1023              		.type	lv_mem_alloc, %function
 1024              	lv_mem_alloc:
 1025              	.LFB1:
 100:lvgl\lv_misc/lv_mem.c **** 
 101:lvgl\lv_misc/lv_mem.c **** /**
 102:lvgl\lv_misc/lv_mem.c ****  * Allocate a memory dynamically
 103:lvgl\lv_misc/lv_mem.c ****  * @param size size of the memory to allocate in bytes
 104:lvgl\lv_misc/lv_mem.c ****  * @return pointer to the allocated memory
 105:lvgl\lv_misc/lv_mem.c ****  */
 106:lvgl\lv_misc/lv_mem.c **** void * lv_mem_alloc(uint32_t size)
 107:lvgl\lv_misc/lv_mem.c **** {
 1026              		.loc 1 107 0
 1027              		.cfi_startproc
 1028              		@ args = 0, pretend = 0, frame = 16
 1029              		@ frame_needed = 1, uses_anonymous_args = 0
 1030 0000 80B5     		push	{r7, lr}
 1031              		.cfi_def_cfa_offset 8
 1032              		.cfi_offset 7, -8
 1033              		.cfi_offset 14, -4
 1034 0002 84B0     		sub	sp, sp, #16
 1035              		.cfi_def_cfa_offset 24
 1036 0004 00AF     		add	r7, sp, #0
 1037              		.cfi_def_cfa_register 7
 1038 0006 7860     		str	r0, [r7, #4]
 108:lvgl\lv_misc/lv_mem.c ****     if(size == 0) {
 1039              		.loc 1 108 0
 1040 0008 7B68     		ldr	r3, [r7, #4]
 1041 000a 002B     		cmp	r3, #0
 1042 000c 01D1     		bne	.L5
 109:lvgl\lv_misc/lv_mem.c ****         return &zero_mem;
ARM GAS  C:\Users\Sava\AppData\Local\Temp\ccoQvwtf.s 			page 77


 1043              		.loc 1 109 0
 1044 000e 194B     		ldr	r3, .L12
 1045 0010 2BE0     		b	.L6
 1046              	.L5:
 110:lvgl\lv_misc/lv_mem.c ****     }
 111:lvgl\lv_misc/lv_mem.c **** 
 112:lvgl\lv_misc/lv_mem.c **** #ifdef LV_MEM_ENV64
 113:lvgl\lv_misc/lv_mem.c ****     /*Round the size up to 8*/
 114:lvgl\lv_misc/lv_mem.c ****     if(size & 0x7) {
 115:lvgl\lv_misc/lv_mem.c ****         size = size & (~0x7);
 116:lvgl\lv_misc/lv_mem.c ****         size += 8;
 117:lvgl\lv_misc/lv_mem.c ****     }
 118:lvgl\lv_misc/lv_mem.c **** #else
 119:lvgl\lv_misc/lv_mem.c ****     /*Round the size up to 4*/
 120:lvgl\lv_misc/lv_mem.c ****     if(size & 0x3) {
 1047              		.loc 1 120 0
 1048 0012 7B68     		ldr	r3, [r7, #4]
 1049 0014 03F00303 		and	r3, r3, #3
 1050 0018 002B     		cmp	r3, #0
 1051 001a 06D0     		beq	.L7
 121:lvgl\lv_misc/lv_mem.c ****         size = size & (~0x3);
 1052              		.loc 1 121 0
 1053 001c 7B68     		ldr	r3, [r7, #4]
 1054 001e 23F00303 		bic	r3, r3, #3
 1055 0022 7B60     		str	r3, [r7, #4]
 122:lvgl\lv_misc/lv_mem.c ****         size += 4;
 1056              		.loc 1 122 0
 1057 0024 7B68     		ldr	r3, [r7, #4]
 1058 0026 0433     		adds	r3, r3, #4
 1059 0028 7B60     		str	r3, [r7, #4]
 1060              	.L7:
 123:lvgl\lv_misc/lv_mem.c ****     }
 124:lvgl\lv_misc/lv_mem.c **** #endif
 125:lvgl\lv_misc/lv_mem.c ****     void * alloc = NULL;
 1061              		.loc 1 125 0
 1062 002a 0023     		movs	r3, #0
 1063 002c FB60     		str	r3, [r7, #12]
 126:lvgl\lv_misc/lv_mem.c **** 
 127:lvgl\lv_misc/lv_mem.c **** #if LV_MEM_CUSTOM == 0 /*Use the allocation from dyn_mem*/
 128:lvgl\lv_misc/lv_mem.c ****     lv_mem_ent_t * e = NULL;
 1064              		.loc 1 128 0
 1065 002e 0023     		movs	r3, #0
 1066 0030 BB60     		str	r3, [r7, #8]
 1067              	.L10:
 129:lvgl\lv_misc/lv_mem.c **** 
 130:lvgl\lv_misc/lv_mem.c ****     //Search for a appropriate entry
 131:lvgl\lv_misc/lv_mem.c ****     do {
 132:lvgl\lv_misc/lv_mem.c ****         //Get the next entry
 133:lvgl\lv_misc/lv_mem.c ****         e = ent_get_next(e);
 1068              		.loc 1 133 0
 1069 0032 B868     		ldr	r0, [r7, #8]
 1070 0034 FFF7FEFF 		bl	ent_get_next
 1071 0038 B860     		str	r0, [r7, #8]
 134:lvgl\lv_misc/lv_mem.c **** 
 135:lvgl\lv_misc/lv_mem.c ****         /*If there is next entry then try to allocate there*/
 136:lvgl\lv_misc/lv_mem.c ****         if(e != NULL) {
 1072              		.loc 1 136 0
ARM GAS  C:\Users\Sava\AppData\Local\Temp\ccoQvwtf.s 			page 78


 1073 003a BB68     		ldr	r3, [r7, #8]
 1074 003c 002B     		cmp	r3, #0
 1075 003e 04D0     		beq	.L8
 137:lvgl\lv_misc/lv_mem.c ****             alloc = ent_alloc(e, size);
 1076              		.loc 1 137 0
 1077 0040 7968     		ldr	r1, [r7, #4]
 1078 0042 B868     		ldr	r0, [r7, #8]
 1079 0044 FFF7FEFF 		bl	ent_alloc
 1080 0048 F860     		str	r0, [r7, #12]
 1081              	.L8:
 138:lvgl\lv_misc/lv_mem.c ****         }
 139:lvgl\lv_misc/lv_mem.c ****         //End if there is not next entry OR the alloc. is successful
 140:lvgl\lv_misc/lv_mem.c ****     } while(e != NULL && alloc == NULL);
 1082              		.loc 1 140 0
 1083 004a BB68     		ldr	r3, [r7, #8]
 1084 004c 002B     		cmp	r3, #0
 1085 004e 02D0     		beq	.L9
 1086              		.loc 1 140 0 is_stmt 0 discriminator 1
 1087 0050 FB68     		ldr	r3, [r7, #12]
 1088 0052 002B     		cmp	r3, #0
 1089 0054 EDD0     		beq	.L10
 1090              	.L9:
 141:lvgl\lv_misc/lv_mem.c **** 
 142:lvgl\lv_misc/lv_mem.c **** 
 143:lvgl\lv_misc/lv_mem.c **** #else  /*Use custom, user defined malloc function*/
 144:lvgl\lv_misc/lv_mem.c **** #if LV_ENABLE_GC == 1 /*gc must not include header*/
 145:lvgl\lv_misc/lv_mem.c ****     alloc = LV_MEM_CUSTOM_ALLOC(size);
 146:lvgl\lv_misc/lv_mem.c **** #else /* LV_ENABLE_GC */
 147:lvgl\lv_misc/lv_mem.c ****     /*Allocate a header too to store the size*/
 148:lvgl\lv_misc/lv_mem.c ****     alloc = LV_MEM_CUSTOM_ALLOC(size + sizeof(lv_mem_header_t));
 149:lvgl\lv_misc/lv_mem.c ****     if(alloc != NULL) {
 150:lvgl\lv_misc/lv_mem.c ****         ((lv_mem_ent_t *) alloc)->header.d_size = size;
 151:lvgl\lv_misc/lv_mem.c ****         ((lv_mem_ent_t *) alloc)->header.used = 1;
 152:lvgl\lv_misc/lv_mem.c ****         alloc = &((lv_mem_ent_t *) alloc)->first_data;
 153:lvgl\lv_misc/lv_mem.c ****     }
 154:lvgl\lv_misc/lv_mem.c **** #endif /* LV_ENABLE_GC */
 155:lvgl\lv_misc/lv_mem.c **** #endif /* LV_MEM_CUSTOM */
 156:lvgl\lv_misc/lv_mem.c **** 
 157:lvgl\lv_misc/lv_mem.c **** #if LV_MEM_ADD_JUNK
 158:lvgl\lv_misc/lv_mem.c ****     if(alloc != NULL) memset(alloc, 0xaa, size);
 159:lvgl\lv_misc/lv_mem.c **** #endif
 160:lvgl\lv_misc/lv_mem.c **** 
 161:lvgl\lv_misc/lv_mem.c ****     if(alloc == NULL) LV_LOG_WARN("Couldn't allocate memory");
 1091              		.loc 1 161 0 is_stmt 1
 1092 0056 FB68     		ldr	r3, [r7, #12]
 1093 0058 002B     		cmp	r3, #0
 1094 005a 05D1     		bne	.L11
 1095              		.loc 1 161 0 is_stmt 0 discriminator 1
 1096 005c 064B     		ldr	r3, .L12+4
 1097 005e A122     		movs	r2, #161
 1098 0060 0649     		ldr	r1, .L12+8
 1099 0062 0220     		movs	r0, #2
 1100 0064 FFF7FEFF 		bl	lv_log_add
 1101              	.L11:
 162:lvgl\lv_misc/lv_mem.c **** 
 163:lvgl\lv_misc/lv_mem.c ****     return alloc;
 1102              		.loc 1 163 0 is_stmt 1
ARM GAS  C:\Users\Sava\AppData\Local\Temp\ccoQvwtf.s 			page 79


 1103 0068 FB68     		ldr	r3, [r7, #12]
 1104              	.L6:
 164:lvgl\lv_misc/lv_mem.c **** }
 1105              		.loc 1 164 0
 1106 006a 1846     		mov	r0, r3
 1107 006c 1037     		adds	r7, r7, #16
 1108              		.cfi_def_cfa_offset 8
 1109 006e BD46     		mov	sp, r7
 1110              		.cfi_def_cfa_register 13
 1111              		@ sp needed
 1112 0070 80BD     		pop	{r7, pc}
 1113              	.L13:
 1114 0072 00BF     		.align	2
 1115              	.L12:
 1116 0074 04000000 		.word	zero_mem
 1117 0078 00000000 		.word	.LC0
 1118 007c 1C000000 		.word	.LC1
 1119              		.cfi_endproc
 1120              	.LFE1:
 1121              		.size	lv_mem_alloc, .-lv_mem_alloc
 1122              		.section	.text.lv_mem_free,"ax",%progbits
 1123              		.align	2
 1124              		.global	lv_mem_free
 1125              		.thumb
 1126              		.thumb_func
 1127              		.type	lv_mem_free, %function
 1128              	lv_mem_free:
 1129              	.LFB2:
 165:lvgl\lv_misc/lv_mem.c **** 
 166:lvgl\lv_misc/lv_mem.c **** /**
 167:lvgl\lv_misc/lv_mem.c ****  * Free an allocated data
 168:lvgl\lv_misc/lv_mem.c ****  * @param data pointer to an allocated memory
 169:lvgl\lv_misc/lv_mem.c ****  */
 170:lvgl\lv_misc/lv_mem.c **** void lv_mem_free(const void * data)
 171:lvgl\lv_misc/lv_mem.c **** {
 1130              		.loc 1 171 0
 1131              		.cfi_startproc
 1132              		@ args = 0, pretend = 0, frame = 16
 1133              		@ frame_needed = 1, uses_anonymous_args = 0
 1134 0000 80B5     		push	{r7, lr}
 1135              		.cfi_def_cfa_offset 8
 1136              		.cfi_offset 7, -8
 1137              		.cfi_offset 14, -4
 1138 0002 84B0     		sub	sp, sp, #16
 1139              		.cfi_def_cfa_offset 24
 1140 0004 00AF     		add	r7, sp, #0
 1141              		.cfi_def_cfa_register 7
 1142 0006 7860     		str	r0, [r7, #4]
 172:lvgl\lv_misc/lv_mem.c ****     if(data == &zero_mem) return;
 1143              		.loc 1 172 0
 1144 0008 7B68     		ldr	r3, [r7, #4]
 1145 000a 1E4A     		ldr	r2, .L25
 1146 000c 9342     		cmp	r3, r2
 1147 000e 30D0     		beq	.L22
 173:lvgl\lv_misc/lv_mem.c ****     if(data == NULL) return;
 1148              		.loc 1 173 0
 1149 0010 7B68     		ldr	r3, [r7, #4]
ARM GAS  C:\Users\Sava\AppData\Local\Temp\ccoQvwtf.s 			page 80


 1150 0012 002B     		cmp	r3, #0
 1151 0014 2FD0     		beq	.L23
 174:lvgl\lv_misc/lv_mem.c **** 
 175:lvgl\lv_misc/lv_mem.c **** 
 176:lvgl\lv_misc/lv_mem.c **** #if LV_MEM_ADD_JUNK
 177:lvgl\lv_misc/lv_mem.c ****     memset((void *)data, 0xbb, lv_mem_get_size(data));
 178:lvgl\lv_misc/lv_mem.c **** #endif
 179:lvgl\lv_misc/lv_mem.c **** 
 180:lvgl\lv_misc/lv_mem.c **** #if LV_ENABLE_GC==0
 181:lvgl\lv_misc/lv_mem.c ****     /*e points to the header*/
 182:lvgl\lv_misc/lv_mem.c ****     lv_mem_ent_t * e = (lv_mem_ent_t *)((uint8_t *) data - sizeof(lv_mem_header_t));
 1152              		.loc 1 182 0
 1153 0016 7B68     		ldr	r3, [r7, #4]
 1154 0018 043B     		subs	r3, r3, #4
 1155 001a BB60     		str	r3, [r7, #8]
 183:lvgl\lv_misc/lv_mem.c ****     e->header.used = 0;
 1156              		.loc 1 183 0
 1157 001c BA68     		ldr	r2, [r7, #8]
 1158 001e 1378     		ldrb	r3, [r2]
 1159 0020 6FF30003 		bfc	r3, #0, #1
 1160 0024 1370     		strb	r3, [r2]
 184:lvgl\lv_misc/lv_mem.c **** #endif
 185:lvgl\lv_misc/lv_mem.c **** 
 186:lvgl\lv_misc/lv_mem.c **** #if LV_MEM_CUSTOM == 0
 187:lvgl\lv_misc/lv_mem.c **** #if LV_MEM_AUTO_DEFRAG
 188:lvgl\lv_misc/lv_mem.c ****     /* Make a simple defrag.
 189:lvgl\lv_misc/lv_mem.c ****      * Join the following free entries after this*/
 190:lvgl\lv_misc/lv_mem.c ****     lv_mem_ent_t * e_next;
 191:lvgl\lv_misc/lv_mem.c ****     e_next = ent_get_next(e);
 1161              		.loc 1 191 0
 1162 0026 B868     		ldr	r0, [r7, #8]
 1163 0028 FFF7FEFF 		bl	ent_get_next
 1164 002c F860     		str	r0, [r7, #12]
 192:lvgl\lv_misc/lv_mem.c ****     while(e_next != NULL) {
 1165              		.loc 1 192 0
 1166 002e 1CE0     		b	.L18
 1167              	.L21:
 193:lvgl\lv_misc/lv_mem.c ****         if(e_next->header.used == 0) {
 1168              		.loc 1 193 0
 1169 0030 FB68     		ldr	r3, [r7, #12]
 1170 0032 1B78     		ldrb	r3, [r3]	@ zero_extendqisi2
 1171 0034 03F00103 		and	r3, r3, #1
 1172 0038 DBB2     		uxtb	r3, r3
 1173 003a 002B     		cmp	r3, #0
 1174 003c 1DD1     		bne	.L24
 194:lvgl\lv_misc/lv_mem.c ****             e->header.d_size += e_next->header.d_size + sizeof(e->header);
 1175              		.loc 1 194 0
 1176 003e BB68     		ldr	r3, [r7, #8]
 1177 0040 1B68     		ldr	r3, [r3]
 1178 0042 C3F35E03 		ubfx	r3, r3, #1, #31
 1179 0046 1A46     		mov	r2, r3
 1180 0048 FB68     		ldr	r3, [r7, #12]
 1181 004a 1B68     		ldr	r3, [r3]
 1182 004c C3F35E03 		ubfx	r3, r3, #1, #31
 1183 0050 1344     		add	r3, r3, r2
 1184 0052 0433     		adds	r3, r3, #4
 1185 0054 23F00041 		bic	r1, r3, #-2147483648
ARM GAS  C:\Users\Sava\AppData\Local\Temp\ccoQvwtf.s 			page 81


 1186 0058 BA68     		ldr	r2, [r7, #8]
 1187 005a 1368     		ldr	r3, [r2]
 1188 005c 61F35F03 		bfi	r3, r1, #1, #31
 1189 0060 1360     		str	r3, [r2]
 195:lvgl\lv_misc/lv_mem.c ****         } else {
 196:lvgl\lv_misc/lv_mem.c ****             break;
 197:lvgl\lv_misc/lv_mem.c ****         }
 198:lvgl\lv_misc/lv_mem.c ****         e_next = ent_get_next(e_next);
 1190              		.loc 1 198 0
 1191 0062 F868     		ldr	r0, [r7, #12]
 1192 0064 FFF7FEFF 		bl	ent_get_next
 1193 0068 F860     		str	r0, [r7, #12]
 1194              	.L18:
 192:lvgl\lv_misc/lv_mem.c ****         if(e_next->header.used == 0) {
 1195              		.loc 1 192 0
 1196 006a FB68     		ldr	r3, [r7, #12]
 1197 006c 002B     		cmp	r3, #0
 1198 006e DFD1     		bne	.L21
 1199 0070 04E0     		b	.L14
 1200              	.L22:
 172:lvgl\lv_misc/lv_mem.c ****     if(data == NULL) return;
 1201              		.loc 1 172 0
 1202 0072 00BF     		nop
 1203 0074 02E0     		b	.L14
 1204              	.L23:
 173:lvgl\lv_misc/lv_mem.c **** 
 1205              		.loc 1 173 0
 1206 0076 00BF     		nop
 1207 0078 00E0     		b	.L14
 1208              	.L24:
 196:lvgl\lv_misc/lv_mem.c ****         }
 1209              		.loc 1 196 0
 1210 007a 00BF     		nop
 1211              	.L14:
 199:lvgl\lv_misc/lv_mem.c ****     }
 200:lvgl\lv_misc/lv_mem.c **** #endif
 201:lvgl\lv_misc/lv_mem.c **** #else /*Use custom, user defined free function*/
 202:lvgl\lv_misc/lv_mem.c **** #if LV_ENABLE_GC==0
 203:lvgl\lv_misc/lv_mem.c ****     LV_MEM_CUSTOM_FREE(e);
 204:lvgl\lv_misc/lv_mem.c **** #else
 205:lvgl\lv_misc/lv_mem.c ****     LV_MEM_CUSTOM_FREE((void*)data);
 206:lvgl\lv_misc/lv_mem.c **** #endif /*LV_ENABLE_GC*/
 207:lvgl\lv_misc/lv_mem.c **** #endif
 208:lvgl\lv_misc/lv_mem.c **** }
 1212              		.loc 1 208 0
 1213 007c 1037     		adds	r7, r7, #16
 1214              		.cfi_def_cfa_offset 8
 1215 007e BD46     		mov	sp, r7
 1216              		.cfi_def_cfa_register 13
 1217              		@ sp needed
 1218 0080 80BD     		pop	{r7, pc}
 1219              	.L26:
 1220 0082 00BF     		.align	2
 1221              	.L25:
 1222 0084 04000000 		.word	zero_mem
 1223              		.cfi_endproc
 1224              	.LFE2:
ARM GAS  C:\Users\Sava\AppData\Local\Temp\ccoQvwtf.s 			page 82


 1225              		.size	lv_mem_free, .-lv_mem_free
 1226              		.section	.text.lv_mem_realloc,"ax",%progbits
 1227              		.align	2
 1228              		.global	lv_mem_realloc
 1229              		.thumb
 1230              		.thumb_func
 1231              		.type	lv_mem_realloc, %function
 1232              	lv_mem_realloc:
 1233              	.LFB3:
 209:lvgl\lv_misc/lv_mem.c **** 
 210:lvgl\lv_misc/lv_mem.c **** /**
 211:lvgl\lv_misc/lv_mem.c ****  * Reallocate a memory with a new size. The old content will be kept.
 212:lvgl\lv_misc/lv_mem.c ****  * @param data pointer to an allocated memory.
 213:lvgl\lv_misc/lv_mem.c ****  * Its content will be copied to the new memory block and freed
 214:lvgl\lv_misc/lv_mem.c ****  * @param new_size the desired new size in byte
 215:lvgl\lv_misc/lv_mem.c ****  * @return pointer to the new memory
 216:lvgl\lv_misc/lv_mem.c ****  */
 217:lvgl\lv_misc/lv_mem.c **** 
 218:lvgl\lv_misc/lv_mem.c **** #if LV_ENABLE_GC==0
 219:lvgl\lv_misc/lv_mem.c **** 
 220:lvgl\lv_misc/lv_mem.c **** void * lv_mem_realloc(void * data_p, uint32_t new_size)
 221:lvgl\lv_misc/lv_mem.c **** {
 1234              		.loc 1 221 0
 1235              		.cfi_startproc
 1236              		@ args = 0, pretend = 0, frame = 24
 1237              		@ frame_needed = 1, uses_anonymous_args = 0
 1238 0000 80B5     		push	{r7, lr}
 1239              		.cfi_def_cfa_offset 8
 1240              		.cfi_offset 7, -8
 1241              		.cfi_offset 14, -4
 1242 0002 86B0     		sub	sp, sp, #24
 1243              		.cfi_def_cfa_offset 32
 1244 0004 00AF     		add	r7, sp, #0
 1245              		.cfi_def_cfa_register 7
 1246 0006 7860     		str	r0, [r7, #4]
 1247 0008 3960     		str	r1, [r7]
 222:lvgl\lv_misc/lv_mem.c ****     /*data_p could be previously freed pointer (in this case it is invalid)*/
 223:lvgl\lv_misc/lv_mem.c ****     if(data_p != NULL) {
 1248              		.loc 1 223 0
 1249 000a 7B68     		ldr	r3, [r7, #4]
 1250 000c 002B     		cmp	r3, #0
 1251 000e 0BD0     		beq	.L28
 1252              	.LBB2:
 224:lvgl\lv_misc/lv_mem.c ****         lv_mem_ent_t * e = (lv_mem_ent_t *)((uint8_t *) data_p - sizeof(lv_mem_header_t));
 1253              		.loc 1 224 0
 1254 0010 7B68     		ldr	r3, [r7, #4]
 1255 0012 043B     		subs	r3, r3, #4
 1256 0014 7B61     		str	r3, [r7, #20]
 225:lvgl\lv_misc/lv_mem.c ****         if(e->header.used == 0) {
 1257              		.loc 1 225 0
 1258 0016 7B69     		ldr	r3, [r7, #20]
 1259 0018 1B78     		ldrb	r3, [r3]	@ zero_extendqisi2
 1260 001a 03F00103 		and	r3, r3, #1
 1261 001e DBB2     		uxtb	r3, r3
 1262 0020 002B     		cmp	r3, #0
 1263 0022 01D1     		bne	.L28
 226:lvgl\lv_misc/lv_mem.c ****             data_p = NULL;
ARM GAS  C:\Users\Sava\AppData\Local\Temp\ccoQvwtf.s 			page 83


 1264              		.loc 1 226 0
 1265 0024 0023     		movs	r3, #0
 1266 0026 7B60     		str	r3, [r7, #4]
 1267              	.L28:
 1268              	.LBE2:
 227:lvgl\lv_misc/lv_mem.c ****         }
 228:lvgl\lv_misc/lv_mem.c ****     }
 229:lvgl\lv_misc/lv_mem.c **** 
 230:lvgl\lv_misc/lv_mem.c ****     uint32_t old_size = lv_mem_get_size(data_p);
 1269              		.loc 1 230 0
 1270 0028 7868     		ldr	r0, [r7, #4]
 1271 002a FFF7FEFF 		bl	lv_mem_get_size
 1272 002e 3861     		str	r0, [r7, #16]
 231:lvgl\lv_misc/lv_mem.c ****     if(old_size == new_size) return data_p;     /*Also avoid reallocating the same memory*/
 1273              		.loc 1 231 0
 1274 0030 3A69     		ldr	r2, [r7, #16]
 1275 0032 3B68     		ldr	r3, [r7]
 1276 0034 9A42     		cmp	r2, r3
 1277 0036 01D1     		bne	.L29
 1278              		.loc 1 231 0 is_stmt 0 discriminator 1
 1279 0038 7B68     		ldr	r3, [r7, #4]
 1280 003a 31E0     		b	.L30
 1281              	.L29:
 232:lvgl\lv_misc/lv_mem.c **** 
 233:lvgl\lv_misc/lv_mem.c **** #if LV_MEM_CUSTOM == 0
 234:lvgl\lv_misc/lv_mem.c ****     /* Only truncate the memory is possible
 235:lvgl\lv_misc/lv_mem.c ****      * If the 'old_size' was extended by a header size in 'ent_trunc' it avoids reallocating this s
 236:lvgl\lv_misc/lv_mem.c ****     if(new_size < old_size) {
 1282              		.loc 1 236 0 is_stmt 1
 1283 003c 3A68     		ldr	r2, [r7]
 1284 003e 3B69     		ldr	r3, [r7, #16]
 1285 0040 9A42     		cmp	r2, r3
 1286 0042 09D2     		bcs	.L31
 1287              	.LBB3:
 237:lvgl\lv_misc/lv_mem.c ****         lv_mem_ent_t * e = (lv_mem_ent_t *)((uint8_t *) data_p - sizeof(lv_mem_header_t));
 1288              		.loc 1 237 0
 1289 0044 7B68     		ldr	r3, [r7, #4]
 1290 0046 043B     		subs	r3, r3, #4
 1291 0048 FB60     		str	r3, [r7, #12]
 238:lvgl\lv_misc/lv_mem.c ****         ent_trunc(e, new_size);
 1292              		.loc 1 238 0
 1293 004a 3968     		ldr	r1, [r7]
 1294 004c F868     		ldr	r0, [r7, #12]
 1295 004e FFF7FEFF 		bl	ent_trunc
 239:lvgl\lv_misc/lv_mem.c ****         return &e->first_data;
 1296              		.loc 1 239 0
 1297 0052 FB68     		ldr	r3, [r7, #12]
 1298 0054 0433     		adds	r3, r3, #4
 1299 0056 23E0     		b	.L30
 1300              	.L31:
 1301              	.LBE3:
 240:lvgl\lv_misc/lv_mem.c ****     }
 241:lvgl\lv_misc/lv_mem.c **** #endif
 242:lvgl\lv_misc/lv_mem.c **** 
 243:lvgl\lv_misc/lv_mem.c ****     void * new_p;
 244:lvgl\lv_misc/lv_mem.c ****     new_p = lv_mem_alloc(new_size);
 1302              		.loc 1 244 0
ARM GAS  C:\Users\Sava\AppData\Local\Temp\ccoQvwtf.s 			page 84


 1303 0058 3868     		ldr	r0, [r7]
 1304 005a FFF7FEFF 		bl	lv_mem_alloc
 1305 005e B860     		str	r0, [r7, #8]
 245:lvgl\lv_misc/lv_mem.c **** 
 246:lvgl\lv_misc/lv_mem.c ****     if(new_p != NULL && data_p != NULL) {
 1306              		.loc 1 246 0
 1307 0060 BB68     		ldr	r3, [r7, #8]
 1308 0062 002B     		cmp	r3, #0
 1309 0064 12D0     		beq	.L32
 1310              		.loc 1 246 0 is_stmt 0 discriminator 1
 1311 0066 7B68     		ldr	r3, [r7, #4]
 1312 0068 002B     		cmp	r3, #0
 1313 006a 0FD0     		beq	.L32
 247:lvgl\lv_misc/lv_mem.c ****         /*Copy the old data to the new. Use the smaller size*/
 248:lvgl\lv_misc/lv_mem.c ****         if(old_size != 0) {
 1314              		.loc 1 248 0 is_stmt 1
 1315 006c 3B69     		ldr	r3, [r7, #16]
 1316 006e 002B     		cmp	r3, #0
 1317 0070 0CD0     		beq	.L32
 249:lvgl\lv_misc/lv_mem.c ****             memcpy(new_p, data_p, LV_MATH_MIN(new_size, old_size));
 1318              		.loc 1 249 0
 1319 0072 3A69     		ldr	r2, [r7, #16]
 1320 0074 3B68     		ldr	r3, [r7]
 1321 0076 9342     		cmp	r3, r2
 1322 0078 28BF     		it	cs
 1323 007a 1346     		movcs	r3, r2
 1324 007c 1A46     		mov	r2, r3
 1325 007e 7968     		ldr	r1, [r7, #4]
 1326 0080 B868     		ldr	r0, [r7, #8]
 1327 0082 FFF7FEFF 		bl	memcpy
 250:lvgl\lv_misc/lv_mem.c ****             lv_mem_free(data_p);
 1328              		.loc 1 250 0
 1329 0086 7868     		ldr	r0, [r7, #4]
 1330 0088 FFF7FEFF 		bl	lv_mem_free
 1331              	.L32:
 251:lvgl\lv_misc/lv_mem.c ****         }
 252:lvgl\lv_misc/lv_mem.c ****     }
 253:lvgl\lv_misc/lv_mem.c **** 
 254:lvgl\lv_misc/lv_mem.c **** 
 255:lvgl\lv_misc/lv_mem.c ****     if(new_p == NULL) LV_LOG_WARN("Couldn't allocate memory");
 1332              		.loc 1 255 0
 1333 008c BB68     		ldr	r3, [r7, #8]
 1334 008e 002B     		cmp	r3, #0
 1335 0090 05D1     		bne	.L33
 1336              		.loc 1 255 0 is_stmt 0 discriminator 1
 1337 0092 054B     		ldr	r3, .L34
 1338 0094 FF22     		movs	r2, #255
 1339 0096 0549     		ldr	r1, .L34+4
 1340 0098 0220     		movs	r0, #2
 1341 009a FFF7FEFF 		bl	lv_log_add
 1342              	.L33:
 256:lvgl\lv_misc/lv_mem.c **** 
 257:lvgl\lv_misc/lv_mem.c ****     return new_p;
 1343              		.loc 1 257 0 is_stmt 1
 1344 009e BB68     		ldr	r3, [r7, #8]
 1345              	.L30:
 258:lvgl\lv_misc/lv_mem.c **** }
ARM GAS  C:\Users\Sava\AppData\Local\Temp\ccoQvwtf.s 			page 85


 1346              		.loc 1 258 0
 1347 00a0 1846     		mov	r0, r3
 1348 00a2 1837     		adds	r7, r7, #24
 1349              		.cfi_def_cfa_offset 8
 1350 00a4 BD46     		mov	sp, r7
 1351              		.cfi_def_cfa_register 13
 1352              		@ sp needed
 1353 00a6 80BD     		pop	{r7, pc}
 1354              	.L35:
 1355              		.align	2
 1356              	.L34:
 1357 00a8 00000000 		.word	.LC0
 1358 00ac 1C000000 		.word	.LC1
 1359              		.cfi_endproc
 1360              	.LFE3:
 1361              		.size	lv_mem_realloc, .-lv_mem_realloc
 1362              		.section	.text.lv_mem_defrag,"ax",%progbits
 1363              		.align	2
 1364              		.global	lv_mem_defrag
 1365              		.thumb
 1366              		.thumb_func
 1367              		.type	lv_mem_defrag, %function
 1368              	lv_mem_defrag:
 1369              	.LFB4:
 259:lvgl\lv_misc/lv_mem.c **** 
 260:lvgl\lv_misc/lv_mem.c **** #else /* LV_ENABLE_GC */
 261:lvgl\lv_misc/lv_mem.c **** 
 262:lvgl\lv_misc/lv_mem.c **** void * lv_mem_realloc(void * data_p, uint32_t new_size)
 263:lvgl\lv_misc/lv_mem.c **** {
 264:lvgl\lv_misc/lv_mem.c ****     void * new_p = LV_MEM_CUSTOM_REALLOC(data_p, new_size);
 265:lvgl\lv_misc/lv_mem.c ****     if(new_p == NULL) LV_LOG_WARN("Couldn't allocate memory");
 266:lvgl\lv_misc/lv_mem.c ****     return new_p;
 267:lvgl\lv_misc/lv_mem.c **** }
 268:lvgl\lv_misc/lv_mem.c **** 
 269:lvgl\lv_misc/lv_mem.c **** #endif /* lv_enable_gc */
 270:lvgl\lv_misc/lv_mem.c **** 
 271:lvgl\lv_misc/lv_mem.c **** /**
 272:lvgl\lv_misc/lv_mem.c ****  * Join the adjacent free memory blocks
 273:lvgl\lv_misc/lv_mem.c ****  */
 274:lvgl\lv_misc/lv_mem.c **** void lv_mem_defrag(void)
 275:lvgl\lv_misc/lv_mem.c **** {
 1370              		.loc 1 275 0
 1371              		.cfi_startproc
 1372              		@ args = 0, pretend = 0, frame = 8
 1373              		@ frame_needed = 1, uses_anonymous_args = 0
 1374 0000 80B5     		push	{r7, lr}
 1375              		.cfi_def_cfa_offset 8
 1376              		.cfi_offset 7, -8
 1377              		.cfi_offset 14, -4
 1378 0002 82B0     		sub	sp, sp, #8
 1379              		.cfi_def_cfa_offset 16
 1380 0004 00AF     		add	r7, sp, #0
 1381              		.cfi_def_cfa_register 7
 276:lvgl\lv_misc/lv_mem.c **** #if LV_MEM_CUSTOM == 0
 277:lvgl\lv_misc/lv_mem.c ****     lv_mem_ent_t * e_free;
 278:lvgl\lv_misc/lv_mem.c ****     lv_mem_ent_t * e_next;
 279:lvgl\lv_misc/lv_mem.c ****     e_free = ent_get_next(NULL);
ARM GAS  C:\Users\Sava\AppData\Local\Temp\ccoQvwtf.s 			page 86


 1382              		.loc 1 279 0
 1383 0006 0020     		movs	r0, #0
 1384 0008 FFF7FEFF 		bl	ent_get_next
 1385 000c 7860     		str	r0, [r7, #4]
 1386              	.L49:
 280:lvgl\lv_misc/lv_mem.c **** 
 281:lvgl\lv_misc/lv_mem.c ****     while(1) {
 282:lvgl\lv_misc/lv_mem.c ****         /*Search the next free entry*/
 283:lvgl\lv_misc/lv_mem.c ****         while(e_free != NULL) {
 1387              		.loc 1 283 0
 1388 000e 0AE0     		b	.L37
 1389              	.L40:
 284:lvgl\lv_misc/lv_mem.c ****             if(e_free->header.used != 0) {
 1390              		.loc 1 284 0
 1391 0010 7B68     		ldr	r3, [r7, #4]
 1392 0012 1B78     		ldrb	r3, [r3]	@ zero_extendqisi2
 1393 0014 03F00103 		and	r3, r3, #1
 1394 0018 DBB2     		uxtb	r3, r3
 1395 001a 002B     		cmp	r3, #0
 1396 001c 07D0     		beq	.L50
 285:lvgl\lv_misc/lv_mem.c ****                 e_free = ent_get_next(e_free);
 1397              		.loc 1 285 0
 1398 001e 7868     		ldr	r0, [r7, #4]
 1399 0020 FFF7FEFF 		bl	ent_get_next
 1400 0024 7860     		str	r0, [r7, #4]
 1401              	.L37:
 283:lvgl\lv_misc/lv_mem.c ****             if(e_free->header.used != 0) {
 1402              		.loc 1 283 0
 1403 0026 7B68     		ldr	r3, [r7, #4]
 1404 0028 002B     		cmp	r3, #0
 1405 002a F1D1     		bne	.L40
 1406 002c 00E0     		b	.L39
 1407              	.L50:
 286:lvgl\lv_misc/lv_mem.c ****             } else {
 287:lvgl\lv_misc/lv_mem.c ****                 break;
 1408              		.loc 1 287 0
 1409 002e 00BF     		nop
 1410              	.L39:
 288:lvgl\lv_misc/lv_mem.c ****             }
 289:lvgl\lv_misc/lv_mem.c ****         }
 290:lvgl\lv_misc/lv_mem.c **** 
 291:lvgl\lv_misc/lv_mem.c ****         if(e_free == NULL) return;
 1411              		.loc 1 291 0
 1412 0030 7B68     		ldr	r3, [r7, #4]
 1413 0032 002B     		cmp	r3, #0
 1414 0034 2CD0     		beq	.L51
 292:lvgl\lv_misc/lv_mem.c **** 
 293:lvgl\lv_misc/lv_mem.c ****         /*Joint the following free entries to the free*/
 294:lvgl\lv_misc/lv_mem.c ****         e_next = ent_get_next(e_free);
 1415              		.loc 1 294 0
 1416 0036 7868     		ldr	r0, [r7, #4]
 1417 0038 FFF7FEFF 		bl	ent_get_next
 1418 003c 3860     		str	r0, [r7]
 295:lvgl\lv_misc/lv_mem.c ****         while(e_next != NULL) {
 1419              		.loc 1 295 0
 1420 003e 1CE0     		b	.L43
 1421              	.L47:
ARM GAS  C:\Users\Sava\AppData\Local\Temp\ccoQvwtf.s 			page 87


 296:lvgl\lv_misc/lv_mem.c ****             if(e_next->header.used == 0) {
 1422              		.loc 1 296 0
 1423 0040 3B68     		ldr	r3, [r7]
 1424 0042 1B78     		ldrb	r3, [r3]	@ zero_extendqisi2
 1425 0044 03F00103 		and	r3, r3, #1
 1426 0048 DBB2     		uxtb	r3, r3
 1427 004a 002B     		cmp	r3, #0
 1428 004c 19D1     		bne	.L52
 297:lvgl\lv_misc/lv_mem.c ****                 e_free->header.d_size += e_next->header.d_size + sizeof(e_next->header);
 1429              		.loc 1 297 0
 1430 004e 7B68     		ldr	r3, [r7, #4]
 1431 0050 1B68     		ldr	r3, [r3]
 1432 0052 C3F35E03 		ubfx	r3, r3, #1, #31
 1433 0056 1A46     		mov	r2, r3
 1434 0058 3B68     		ldr	r3, [r7]
 1435 005a 1B68     		ldr	r3, [r3]
 1436 005c C3F35E03 		ubfx	r3, r3, #1, #31
 1437 0060 1344     		add	r3, r3, r2
 1438 0062 0433     		adds	r3, r3, #4
 1439 0064 23F00041 		bic	r1, r3, #-2147483648
 1440 0068 7A68     		ldr	r2, [r7, #4]
 1441 006a 1368     		ldr	r3, [r2]
 1442 006c 61F35F03 		bfi	r3, r1, #1, #31
 1443 0070 1360     		str	r3, [r2]
 298:lvgl\lv_misc/lv_mem.c ****             } else {
 299:lvgl\lv_misc/lv_mem.c ****                 break;
 300:lvgl\lv_misc/lv_mem.c ****             }
 301:lvgl\lv_misc/lv_mem.c **** 
 302:lvgl\lv_misc/lv_mem.c ****             e_next = ent_get_next(e_next);
 1444              		.loc 1 302 0
 1445 0072 3868     		ldr	r0, [r7]
 1446 0074 FFF7FEFF 		bl	ent_get_next
 1447 0078 3860     		str	r0, [r7]
 1448              	.L43:
 295:lvgl\lv_misc/lv_mem.c ****             if(e_next->header.used == 0) {
 1449              		.loc 1 295 0
 1450 007a 3B68     		ldr	r3, [r7]
 1451 007c 002B     		cmp	r3, #0
 1452 007e DFD1     		bne	.L47
 1453 0080 00E0     		b	.L46
 1454              	.L52:
 299:lvgl\lv_misc/lv_mem.c ****             }
 1455              		.loc 1 299 0
 1456 0082 00BF     		nop
 1457              	.L46:
 303:lvgl\lv_misc/lv_mem.c ****         }
 304:lvgl\lv_misc/lv_mem.c **** 
 305:lvgl\lv_misc/lv_mem.c ****         if(e_next == NULL) return;
 1458              		.loc 1 305 0
 1459 0084 3B68     		ldr	r3, [r7]
 1460 0086 002B     		cmp	r3, #0
 1461 0088 04D0     		beq	.L53
 306:lvgl\lv_misc/lv_mem.c **** 
 307:lvgl\lv_misc/lv_mem.c ****         /*Continue from the lastly checked entry*/
 308:lvgl\lv_misc/lv_mem.c ****         e_free = e_next;
 1462              		.loc 1 308 0
 1463 008a 3B68     		ldr	r3, [r7]
ARM GAS  C:\Users\Sava\AppData\Local\Temp\ccoQvwtf.s 			page 88


 1464 008c 7B60     		str	r3, [r7, #4]
 309:lvgl\lv_misc/lv_mem.c ****     }
 1465              		.loc 1 309 0
 1466 008e BEE7     		b	.L49
 1467              	.L51:
 291:lvgl\lv_misc/lv_mem.c **** 
 1468              		.loc 1 291 0
 1469 0090 00BF     		nop
 1470 0092 00E0     		b	.L36
 1471              	.L53:
 305:lvgl\lv_misc/lv_mem.c **** 
 1472              		.loc 1 305 0
 1473 0094 00BF     		nop
 1474              	.L36:
 310:lvgl\lv_misc/lv_mem.c **** #endif
 311:lvgl\lv_misc/lv_mem.c **** }
 1475              		.loc 1 311 0
 1476 0096 0837     		adds	r7, r7, #8
 1477              		.cfi_def_cfa_offset 8
 1478 0098 BD46     		mov	sp, r7
 1479              		.cfi_def_cfa_register 13
 1480              		@ sp needed
 1481 009a 80BD     		pop	{r7, pc}
 1482              		.cfi_endproc
 1483              	.LFE4:
 1484              		.size	lv_mem_defrag, .-lv_mem_defrag
 1485              		.section	.text.lv_mem_monitor,"ax",%progbits
 1486              		.align	2
 1487              		.global	lv_mem_monitor
 1488              		.thumb
 1489              		.thumb_func
 1490              		.type	lv_mem_monitor, %function
 1491              	lv_mem_monitor:
 1492              	.LFB5:
 312:lvgl\lv_misc/lv_mem.c **** 
 313:lvgl\lv_misc/lv_mem.c **** /**
 314:lvgl\lv_misc/lv_mem.c ****  * Give information about the work memory of dynamic allocation
 315:lvgl\lv_misc/lv_mem.c ****  * @param mon_p pointer to a dm_mon_p variable,
 316:lvgl\lv_misc/lv_mem.c ****  *              the result of the analysis will be stored here
 317:lvgl\lv_misc/lv_mem.c ****  */
 318:lvgl\lv_misc/lv_mem.c **** void lv_mem_monitor(lv_mem_monitor_t * mon_p)
 319:lvgl\lv_misc/lv_mem.c **** {
 1493              		.loc 1 319 0
 1494              		.cfi_startproc
 1495              		@ args = 0, pretend = 0, frame = 16
 1496              		@ frame_needed = 1, uses_anonymous_args = 0
 1497 0000 80B5     		push	{r7, lr}
 1498              		.cfi_def_cfa_offset 8
 1499              		.cfi_offset 7, -8
 1500              		.cfi_offset 14, -4
 1501 0002 84B0     		sub	sp, sp, #16
 1502              		.cfi_def_cfa_offset 24
 1503 0004 00AF     		add	r7, sp, #0
 1504              		.cfi_def_cfa_register 7
 1505 0006 7860     		str	r0, [r7, #4]
 320:lvgl\lv_misc/lv_mem.c ****     /*Init the data*/
 321:lvgl\lv_misc/lv_mem.c ****     memset(mon_p, 0, sizeof(lv_mem_monitor_t));
ARM GAS  C:\Users\Sava\AppData\Local\Temp\ccoQvwtf.s 			page 89


 1506              		.loc 1 321 0
 1507 0008 1822     		movs	r2, #24
 1508 000a 0021     		movs	r1, #0
 1509 000c 7868     		ldr	r0, [r7, #4]
 1510 000e FFF7FEFF 		bl	memset
 322:lvgl\lv_misc/lv_mem.c **** #if LV_MEM_CUSTOM == 0
 323:lvgl\lv_misc/lv_mem.c ****     lv_mem_ent_t * e;
 324:lvgl\lv_misc/lv_mem.c ****     e = NULL;
 1511              		.loc 1 324 0
 1512 0012 0023     		movs	r3, #0
 1513 0014 FB60     		str	r3, [r7, #12]
 325:lvgl\lv_misc/lv_mem.c **** 
 326:lvgl\lv_misc/lv_mem.c ****     e = ent_get_next(e);
 1514              		.loc 1 326 0
 1515 0016 F868     		ldr	r0, [r7, #12]
 1516 0018 FFF7FEFF 		bl	ent_get_next
 1517 001c F860     		str	r0, [r7, #12]
 327:lvgl\lv_misc/lv_mem.c **** 
 328:lvgl\lv_misc/lv_mem.c ****     while(e != NULL)  {
 1518              		.loc 1 328 0
 1519 001e 2EE0     		b	.L55
 1520              	.L59:
 329:lvgl\lv_misc/lv_mem.c ****         if(e->header.used == 0) {
 1521              		.loc 1 329 0
 1522 0020 FB68     		ldr	r3, [r7, #12]
 1523 0022 1B78     		ldrb	r3, [r3]	@ zero_extendqisi2
 1524 0024 03F00103 		and	r3, r3, #1
 1525 0028 DBB2     		uxtb	r3, r3
 1526 002a 002B     		cmp	r3, #0
 1527 002c 1ED1     		bne	.L56
 330:lvgl\lv_misc/lv_mem.c ****             mon_p->free_cnt++;
 1528              		.loc 1 330 0
 1529 002e 7B68     		ldr	r3, [r7, #4]
 1530 0030 5B68     		ldr	r3, [r3, #4]
 1531 0032 5A1C     		adds	r2, r3, #1
 1532 0034 7B68     		ldr	r3, [r7, #4]
 1533 0036 5A60     		str	r2, [r3, #4]
 331:lvgl\lv_misc/lv_mem.c ****             mon_p->free_size += e->header.d_size;
 1534              		.loc 1 331 0
 1535 0038 7B68     		ldr	r3, [r7, #4]
 1536 003a 9B68     		ldr	r3, [r3, #8]
 1537 003c FA68     		ldr	r2, [r7, #12]
 1538 003e 1268     		ldr	r2, [r2]
 1539 0040 C2F35E02 		ubfx	r2, r2, #1, #31
 1540 0044 1A44     		add	r2, r2, r3
 1541 0046 7B68     		ldr	r3, [r7, #4]
 1542 0048 9A60     		str	r2, [r3, #8]
 332:lvgl\lv_misc/lv_mem.c ****             if(e->header.d_size > mon_p->free_biggest_size) {
 1543              		.loc 1 332 0
 1544 004a FB68     		ldr	r3, [r7, #12]
 1545 004c 1B68     		ldr	r3, [r3]
 1546 004e C3F35E03 		ubfx	r3, r3, #1, #31
 1547 0052 1A46     		mov	r2, r3
 1548 0054 7B68     		ldr	r3, [r7, #4]
 1549 0056 DB68     		ldr	r3, [r3, #12]
 1550 0058 9A42     		cmp	r2, r3
 1551 005a 0CD9     		bls	.L58
ARM GAS  C:\Users\Sava\AppData\Local\Temp\ccoQvwtf.s 			page 90


 333:lvgl\lv_misc/lv_mem.c ****                 mon_p->free_biggest_size = e->header.d_size;
 1552              		.loc 1 333 0
 1553 005c FB68     		ldr	r3, [r7, #12]
 1554 005e 1B68     		ldr	r3, [r3]
 1555 0060 C3F35E03 		ubfx	r3, r3, #1, #31
 1556 0064 1A46     		mov	r2, r3
 1557 0066 7B68     		ldr	r3, [r7, #4]
 1558 0068 DA60     		str	r2, [r3, #12]
 1559 006a 04E0     		b	.L58
 1560              	.L56:
 334:lvgl\lv_misc/lv_mem.c ****             }
 335:lvgl\lv_misc/lv_mem.c ****         } else {
 336:lvgl\lv_misc/lv_mem.c ****             mon_p->used_cnt++;
 1561              		.loc 1 336 0
 1562 006c 7B68     		ldr	r3, [r7, #4]
 1563 006e 1B69     		ldr	r3, [r3, #16]
 1564 0070 5A1C     		adds	r2, r3, #1
 1565 0072 7B68     		ldr	r3, [r7, #4]
 1566 0074 1A61     		str	r2, [r3, #16]
 1567              	.L58:
 337:lvgl\lv_misc/lv_mem.c ****         }
 338:lvgl\lv_misc/lv_mem.c **** 
 339:lvgl\lv_misc/lv_mem.c ****         e = ent_get_next(e);
 1568              		.loc 1 339 0
 1569 0076 F868     		ldr	r0, [r7, #12]
 1570 0078 FFF7FEFF 		bl	ent_get_next
 1571 007c F860     		str	r0, [r7, #12]
 1572              	.L55:
 328:lvgl\lv_misc/lv_mem.c ****         if(e->header.used == 0) {
 1573              		.loc 1 328 0
 1574 007e FB68     		ldr	r3, [r7, #12]
 1575 0080 002B     		cmp	r3, #0
 1576 0082 CDD1     		bne	.L59
 340:lvgl\lv_misc/lv_mem.c ****     }
 341:lvgl\lv_misc/lv_mem.c ****     mon_p->total_size = LV_MEM_SIZE;
 1577              		.loc 1 341 0
 1578 0084 7B68     		ldr	r3, [r7, #4]
 1579 0086 4FF40042 		mov	r2, #32768
 1580 008a 1A60     		str	r2, [r3]
 342:lvgl\lv_misc/lv_mem.c ****     mon_p->used_pct = 100 - (100U * mon_p->free_size) / mon_p->total_size;
 1581              		.loc 1 342 0
 1582 008c 7B68     		ldr	r3, [r7, #4]
 1583 008e 9B68     		ldr	r3, [r3, #8]
 1584 0090 6422     		movs	r2, #100
 1585 0092 02FB03F2 		mul	r2, r2, r3
 1586 0096 7B68     		ldr	r3, [r7, #4]
 1587 0098 1B68     		ldr	r3, [r3]
 1588 009a B2FBF3F3 		udiv	r3, r2, r3
 1589 009e DBB2     		uxtb	r3, r3
 1590 00a0 C3F16403 		rsb	r3, r3, #100
 1591 00a4 DAB2     		uxtb	r2, r3
 1592 00a6 7B68     		ldr	r3, [r7, #4]
 1593 00a8 1A75     		strb	r2, [r3, #20]
 343:lvgl\lv_misc/lv_mem.c ****     mon_p->frag_pct = (uint32_t)mon_p->free_biggest_size * 100U / mon_p->free_size;
 1594              		.loc 1 343 0
 1595 00aa 7B68     		ldr	r3, [r7, #4]
 1596 00ac DB68     		ldr	r3, [r3, #12]
ARM GAS  C:\Users\Sava\AppData\Local\Temp\ccoQvwtf.s 			page 91


 1597 00ae 6422     		movs	r2, #100
 1598 00b0 02FB03F2 		mul	r2, r2, r3
 1599 00b4 7B68     		ldr	r3, [r7, #4]
 1600 00b6 9B68     		ldr	r3, [r3, #8]
 1601 00b8 B2FBF3F3 		udiv	r3, r2, r3
 1602 00bc DAB2     		uxtb	r2, r3
 1603 00be 7B68     		ldr	r3, [r7, #4]
 1604 00c0 5A75     		strb	r2, [r3, #21]
 344:lvgl\lv_misc/lv_mem.c ****     mon_p->frag_pct = 100 - mon_p->frag_pct;
 1605              		.loc 1 344 0
 1606 00c2 7B68     		ldr	r3, [r7, #4]
 1607 00c4 5B7D     		ldrb	r3, [r3, #21]	@ zero_extendqisi2
 1608 00c6 C3F16403 		rsb	r3, r3, #100
 1609 00ca DAB2     		uxtb	r2, r3
 1610 00cc 7B68     		ldr	r3, [r7, #4]
 1611 00ce 5A75     		strb	r2, [r3, #21]
 345:lvgl\lv_misc/lv_mem.c **** #endif
 346:lvgl\lv_misc/lv_mem.c **** }
 1612              		.loc 1 346 0
 1613 00d0 00BF     		nop
 1614 00d2 1037     		adds	r7, r7, #16
 1615              		.cfi_def_cfa_offset 8
 1616 00d4 BD46     		mov	sp, r7
 1617              		.cfi_def_cfa_register 13
 1618              		@ sp needed
 1619 00d6 80BD     		pop	{r7, pc}
 1620              		.cfi_endproc
 1621              	.LFE5:
 1622              		.size	lv_mem_monitor, .-lv_mem_monitor
 1623              		.section	.text.lv_mem_get_size,"ax",%progbits
 1624              		.align	2
 1625              		.global	lv_mem_get_size
 1626              		.thumb
 1627              		.thumb_func
 1628              		.type	lv_mem_get_size, %function
 1629              	lv_mem_get_size:
 1630              	.LFB6:
 347:lvgl\lv_misc/lv_mem.c **** 
 348:lvgl\lv_misc/lv_mem.c **** /**
 349:lvgl\lv_misc/lv_mem.c ****  * Give the size of an allocated memory
 350:lvgl\lv_misc/lv_mem.c ****  * @param data pointer to an allocated memory
 351:lvgl\lv_misc/lv_mem.c ****  * @return the size of data memory in bytes
 352:lvgl\lv_misc/lv_mem.c ****  */
 353:lvgl\lv_misc/lv_mem.c **** 
 354:lvgl\lv_misc/lv_mem.c **** #if LV_ENABLE_GC==0
 355:lvgl\lv_misc/lv_mem.c **** 
 356:lvgl\lv_misc/lv_mem.c **** uint32_t lv_mem_get_size(const void * data)
 357:lvgl\lv_misc/lv_mem.c **** {
 1631              		.loc 1 357 0
 1632              		.cfi_startproc
 1633              		@ args = 0, pretend = 0, frame = 16
 1634              		@ frame_needed = 1, uses_anonymous_args = 0
 1635              		@ link register save eliminated.
 1636 0000 80B4     		push	{r7}
 1637              		.cfi_def_cfa_offset 4
 1638              		.cfi_offset 7, -4
 1639 0002 85B0     		sub	sp, sp, #20
ARM GAS  C:\Users\Sava\AppData\Local\Temp\ccoQvwtf.s 			page 92


 1640              		.cfi_def_cfa_offset 24
 1641 0004 00AF     		add	r7, sp, #0
 1642              		.cfi_def_cfa_register 7
 1643 0006 7860     		str	r0, [r7, #4]
 358:lvgl\lv_misc/lv_mem.c ****     if(data == NULL) return 0;
 1644              		.loc 1 358 0
 1645 0008 7B68     		ldr	r3, [r7, #4]
 1646 000a 002B     		cmp	r3, #0
 1647 000c 01D1     		bne	.L61
 1648              		.loc 1 358 0 is_stmt 0 discriminator 1
 1649 000e 0023     		movs	r3, #0
 1650 0010 0CE0     		b	.L62
 1651              	.L61:
 359:lvgl\lv_misc/lv_mem.c ****     if(data == &zero_mem) return 0;
 1652              		.loc 1 359 0 is_stmt 1
 1653 0012 7B68     		ldr	r3, [r7, #4]
 1654 0014 084A     		ldr	r2, .L64
 1655 0016 9342     		cmp	r3, r2
 1656 0018 01D1     		bne	.L63
 1657              		.loc 1 359 0 is_stmt 0 discriminator 1
 1658 001a 0023     		movs	r3, #0
 1659 001c 06E0     		b	.L62
 1660              	.L63:
 360:lvgl\lv_misc/lv_mem.c **** 
 361:lvgl\lv_misc/lv_mem.c ****     lv_mem_ent_t * e = (lv_mem_ent_t *)((uint8_t *) data - sizeof(lv_mem_header_t));
 1661              		.loc 1 361 0 is_stmt 1
 1662 001e 7B68     		ldr	r3, [r7, #4]
 1663 0020 043B     		subs	r3, r3, #4
 1664 0022 FB60     		str	r3, [r7, #12]
 362:lvgl\lv_misc/lv_mem.c **** 
 363:lvgl\lv_misc/lv_mem.c ****     return e->header.d_size;
 1665              		.loc 1 363 0
 1666 0024 FB68     		ldr	r3, [r7, #12]
 1667 0026 1B68     		ldr	r3, [r3]
 1668 0028 C3F35E03 		ubfx	r3, r3, #1, #31
 1669              	.L62:
 364:lvgl\lv_misc/lv_mem.c **** }
 1670              		.loc 1 364 0
 1671 002c 1846     		mov	r0, r3
 1672 002e 1437     		adds	r7, r7, #20
 1673              		.cfi_def_cfa_offset 4
 1674 0030 BD46     		mov	sp, r7
 1675              		.cfi_def_cfa_register 13
 1676              		@ sp needed
 1677 0032 80BC     		pop	{r7}
 1678              		.cfi_restore 7
 1679              		.cfi_def_cfa_offset 0
 1680 0034 7047     		bx	lr
 1681              	.L65:
 1682 0036 00BF     		.align	2
 1683              	.L64:
 1684 0038 04000000 		.word	zero_mem
 1685              		.cfi_endproc
 1686              	.LFE6:
 1687              		.size	lv_mem_get_size, .-lv_mem_get_size
 1688              		.section	.text.ent_get_next,"ax",%progbits
 1689              		.align	2
ARM GAS  C:\Users\Sava\AppData\Local\Temp\ccoQvwtf.s 			page 93


 1690              		.thumb
 1691              		.thumb_func
 1692              		.type	ent_get_next, %function
 1693              	ent_get_next:
 1694              	.LFB7:
 365:lvgl\lv_misc/lv_mem.c **** 
 366:lvgl\lv_misc/lv_mem.c **** #else /* LV_ENABLE_GC */
 367:lvgl\lv_misc/lv_mem.c **** 
 368:lvgl\lv_misc/lv_mem.c **** uint32_t lv_mem_get_size(const void * data)
 369:lvgl\lv_misc/lv_mem.c **** {
 370:lvgl\lv_misc/lv_mem.c ****     return LV_MEM_CUSTOM_GET_SIZE(data);
 371:lvgl\lv_misc/lv_mem.c **** }
 372:lvgl\lv_misc/lv_mem.c **** 
 373:lvgl\lv_misc/lv_mem.c **** #endif /*LV_ENABLE_GC*/
 374:lvgl\lv_misc/lv_mem.c **** 
 375:lvgl\lv_misc/lv_mem.c **** /**********************
 376:lvgl\lv_misc/lv_mem.c ****  *   STATIC FUNCTIONS
 377:lvgl\lv_misc/lv_mem.c ****  **********************/
 378:lvgl\lv_misc/lv_mem.c **** 
 379:lvgl\lv_misc/lv_mem.c **** #if LV_MEM_CUSTOM == 0
 380:lvgl\lv_misc/lv_mem.c **** /**
 381:lvgl\lv_misc/lv_mem.c ****  * Give the next entry after 'act_e'
 382:lvgl\lv_misc/lv_mem.c ****  * @param act_e pointer to an entry
 383:lvgl\lv_misc/lv_mem.c ****  * @return pointer to an entry after 'act_e'
 384:lvgl\lv_misc/lv_mem.c ****  */
 385:lvgl\lv_misc/lv_mem.c **** static lv_mem_ent_t * ent_get_next(lv_mem_ent_t * act_e)
 386:lvgl\lv_misc/lv_mem.c **** {
 1695              		.loc 1 386 0
 1696              		.cfi_startproc
 1697              		@ args = 0, pretend = 0, frame = 16
 1698              		@ frame_needed = 1, uses_anonymous_args = 0
 1699              		@ link register save eliminated.
 1700 0000 80B4     		push	{r7}
 1701              		.cfi_def_cfa_offset 4
 1702              		.cfi_offset 7, -4
 1703 0002 85B0     		sub	sp, sp, #20
 1704              		.cfi_def_cfa_offset 24
 1705 0004 00AF     		add	r7, sp, #0
 1706              		.cfi_def_cfa_register 7
 1707 0006 7860     		str	r0, [r7, #4]
 387:lvgl\lv_misc/lv_mem.c ****     lv_mem_ent_t * next_e = NULL;
 1708              		.loc 1 387 0
 1709 0008 0023     		movs	r3, #0
 1710 000a FB60     		str	r3, [r7, #12]
 388:lvgl\lv_misc/lv_mem.c **** 
 389:lvgl\lv_misc/lv_mem.c ****     if(act_e == NULL) { /*NULL means: get the first entry*/
 1711              		.loc 1 389 0
 1712 000c 7B68     		ldr	r3, [r7, #4]
 1713 000e 002B     		cmp	r3, #0
 1714 0010 03D1     		bne	.L67
 390:lvgl\lv_misc/lv_mem.c ****         next_e = (lv_mem_ent_t *) work_mem;
 1715              		.loc 1 390 0
 1716 0012 0F4B     		ldr	r3, .L70
 1717 0014 1B68     		ldr	r3, [r3]
 1718 0016 FB60     		str	r3, [r7, #12]
 1719 0018 14E0     		b	.L68
 1720              	.L67:
ARM GAS  C:\Users\Sava\AppData\Local\Temp\ccoQvwtf.s 			page 94


 1721              	.LBB4:
 391:lvgl\lv_misc/lv_mem.c ****     } else { /*Get the next entry */
 392:lvgl\lv_misc/lv_mem.c ****         uint8_t * data = &act_e->first_data;
 1722              		.loc 1 392 0
 1723 001a 7B68     		ldr	r3, [r7, #4]
 1724 001c 0433     		adds	r3, r3, #4
 1725 001e BB60     		str	r3, [r7, #8]
 393:lvgl\lv_misc/lv_mem.c ****         next_e = (lv_mem_ent_t *)&data[act_e->header.d_size];
 1726              		.loc 1 393 0
 1727 0020 7B68     		ldr	r3, [r7, #4]
 1728 0022 1B68     		ldr	r3, [r3]
 1729 0024 C3F35E03 		ubfx	r3, r3, #1, #31
 1730 0028 1A46     		mov	r2, r3
 1731 002a BB68     		ldr	r3, [r7, #8]
 1732 002c 1344     		add	r3, r3, r2
 1733 002e FB60     		str	r3, [r7, #12]
 394:lvgl\lv_misc/lv_mem.c **** 
 395:lvgl\lv_misc/lv_mem.c ****         if(&next_e->first_data >= &work_mem[LV_MEM_SIZE]) next_e = NULL;
 1734              		.loc 1 395 0
 1735 0030 FB68     		ldr	r3, [r7, #12]
 1736 0032 1A1D     		adds	r2, r3, #4
 1737 0034 064B     		ldr	r3, .L70
 1738 0036 1B68     		ldr	r3, [r3]
 1739 0038 03F50043 		add	r3, r3, #32768
 1740 003c 9A42     		cmp	r2, r3
 1741 003e 01D3     		bcc	.L68
 1742              		.loc 1 395 0 is_stmt 0 discriminator 1
 1743 0040 0023     		movs	r3, #0
 1744 0042 FB60     		str	r3, [r7, #12]
 1745              	.L68:
 1746              	.LBE4:
 396:lvgl\lv_misc/lv_mem.c ****     }
 397:lvgl\lv_misc/lv_mem.c **** 
 398:lvgl\lv_misc/lv_mem.c ****     return next_e;
 1747              		.loc 1 398 0 is_stmt 1
 1748 0044 FB68     		ldr	r3, [r7, #12]
 399:lvgl\lv_misc/lv_mem.c **** }
 1749              		.loc 1 399 0
 1750 0046 1846     		mov	r0, r3
 1751 0048 1437     		adds	r7, r7, #20
 1752              		.cfi_def_cfa_offset 4
 1753 004a BD46     		mov	sp, r7
 1754              		.cfi_def_cfa_register 13
 1755              		@ sp needed
 1756 004c 80BC     		pop	{r7}
 1757              		.cfi_restore 7
 1758              		.cfi_def_cfa_offset 0
 1759 004e 7047     		bx	lr
 1760              	.L71:
 1761              		.align	2
 1762              	.L70:
 1763 0050 00000000 		.word	work_mem
 1764              		.cfi_endproc
 1765              	.LFE7:
 1766              		.size	ent_get_next, .-ent_get_next
 1767              		.section	.text.ent_alloc,"ax",%progbits
 1768              		.align	2
ARM GAS  C:\Users\Sava\AppData\Local\Temp\ccoQvwtf.s 			page 95


 1769              		.thumb
 1770              		.thumb_func
 1771              		.type	ent_alloc, %function
 1772              	ent_alloc:
 1773              	.LFB8:
 400:lvgl\lv_misc/lv_mem.c **** 
 401:lvgl\lv_misc/lv_mem.c **** 
 402:lvgl\lv_misc/lv_mem.c **** /**
 403:lvgl\lv_misc/lv_mem.c ****  * Try to do the real allocation with a given size
 404:lvgl\lv_misc/lv_mem.c ****  * @param e try to allocate to this entry
 405:lvgl\lv_misc/lv_mem.c ****  * @param size size of the new memory in bytes
 406:lvgl\lv_misc/lv_mem.c ****  * @return pointer to the allocated memory or NULL if not enough memory in the entry
 407:lvgl\lv_misc/lv_mem.c ****  */
 408:lvgl\lv_misc/lv_mem.c **** static void * ent_alloc(lv_mem_ent_t * e, uint32_t size)
 409:lvgl\lv_misc/lv_mem.c **** {
 1774              		.loc 1 409 0
 1775              		.cfi_startproc
 1776              		@ args = 0, pretend = 0, frame = 16
 1777              		@ frame_needed = 1, uses_anonymous_args = 0
 1778 0000 80B5     		push	{r7, lr}
 1779              		.cfi_def_cfa_offset 8
 1780              		.cfi_offset 7, -8
 1781              		.cfi_offset 14, -4
 1782 0002 84B0     		sub	sp, sp, #16
 1783              		.cfi_def_cfa_offset 24
 1784 0004 00AF     		add	r7, sp, #0
 1785              		.cfi_def_cfa_register 7
 1786 0006 7860     		str	r0, [r7, #4]
 1787 0008 3960     		str	r1, [r7]
 410:lvgl\lv_misc/lv_mem.c ****     void * alloc = NULL;
 1788              		.loc 1 410 0
 1789 000a 0023     		movs	r3, #0
 1790 000c FB60     		str	r3, [r7, #12]
 411:lvgl\lv_misc/lv_mem.c **** 
 412:lvgl\lv_misc/lv_mem.c ****     /*If the memory is free and big enough then use it */
 413:lvgl\lv_misc/lv_mem.c ****     if(e->header.used == 0 && e->header.d_size >= size) {
 1791              		.loc 1 413 0
 1792 000e 7B68     		ldr	r3, [r7, #4]
 1793 0010 1B78     		ldrb	r3, [r3]	@ zero_extendqisi2
 1794 0012 03F00103 		and	r3, r3, #1
 1795 0016 DBB2     		uxtb	r3, r3
 1796 0018 002B     		cmp	r3, #0
 1797 001a 13D1     		bne	.L73
 1798              		.loc 1 413 0 is_stmt 0 discriminator 1
 1799 001c 7B68     		ldr	r3, [r7, #4]
 1800 001e 1B68     		ldr	r3, [r3]
 1801 0020 C3F35E03 		ubfx	r3, r3, #1, #31
 1802 0024 1A46     		mov	r2, r3
 1803 0026 3B68     		ldr	r3, [r7]
 1804 0028 9A42     		cmp	r2, r3
 1805 002a 0BD3     		bcc	.L73
 414:lvgl\lv_misc/lv_mem.c ****         /*Truncate the entry to the desired size */
 415:lvgl\lv_misc/lv_mem.c ****         ent_trunc(e, size),
 1806              		.loc 1 415 0 is_stmt 1
 1807 002c 3968     		ldr	r1, [r7]
 1808 002e 7868     		ldr	r0, [r7, #4]
 1809 0030 FFF7FEFF 		bl	ent_trunc
ARM GAS  C:\Users\Sava\AppData\Local\Temp\ccoQvwtf.s 			page 96


 416:lvgl\lv_misc/lv_mem.c **** 
 417:lvgl\lv_misc/lv_mem.c ****                   e->header.used = 1;
 1810              		.loc 1 417 0
 1811 0034 7A68     		ldr	r2, [r7, #4]
 1812 0036 1378     		ldrb	r3, [r2]
 1813 0038 43F00103 		orr	r3, r3, #1
 1814 003c 1370     		strb	r3, [r2]
 418:lvgl\lv_misc/lv_mem.c **** 
 419:lvgl\lv_misc/lv_mem.c ****         /*Save the allocated data*/
 420:lvgl\lv_misc/lv_mem.c ****         alloc = &e->first_data;
 1815              		.loc 1 420 0
 1816 003e 7B68     		ldr	r3, [r7, #4]
 1817 0040 0433     		adds	r3, r3, #4
 1818 0042 FB60     		str	r3, [r7, #12]
 1819              	.L73:
 421:lvgl\lv_misc/lv_mem.c ****     }
 422:lvgl\lv_misc/lv_mem.c **** 
 423:lvgl\lv_misc/lv_mem.c ****     return alloc;
 1820              		.loc 1 423 0
 1821 0044 FB68     		ldr	r3, [r7, #12]
 424:lvgl\lv_misc/lv_mem.c **** }
 1822              		.loc 1 424 0
 1823 0046 1846     		mov	r0, r3
 1824 0048 1037     		adds	r7, r7, #16
 1825              		.cfi_def_cfa_offset 8
 1826 004a BD46     		mov	sp, r7
 1827              		.cfi_def_cfa_register 13
 1828              		@ sp needed
 1829 004c 80BD     		pop	{r7, pc}
 1830              		.cfi_endproc
 1831              	.LFE8:
 1832              		.size	ent_alloc, .-ent_alloc
 1833 004e 00BF     		.section	.text.ent_trunc,"ax",%progbits
 1834              		.align	2
 1835              		.thumb
 1836              		.thumb_func
 1837              		.type	ent_trunc, %function
 1838              	ent_trunc:
 1839              	.LFB9:
 425:lvgl\lv_misc/lv_mem.c **** 
 426:lvgl\lv_misc/lv_mem.c **** /**
 427:lvgl\lv_misc/lv_mem.c ****  * Truncate the data of entry to the given size
 428:lvgl\lv_misc/lv_mem.c ****  * @param e Pointer to an entry
 429:lvgl\lv_misc/lv_mem.c ****  * @param size new size in bytes
 430:lvgl\lv_misc/lv_mem.c ****  */
 431:lvgl\lv_misc/lv_mem.c **** static void ent_trunc(lv_mem_ent_t * e, uint32_t size)
 432:lvgl\lv_misc/lv_mem.c **** {
 1840              		.loc 1 432 0
 1841              		.cfi_startproc
 1842              		@ args = 0, pretend = 0, frame = 16
 1843              		@ frame_needed = 1, uses_anonymous_args = 0
 1844              		@ link register save eliminated.
 1845 0000 80B4     		push	{r7}
 1846              		.cfi_def_cfa_offset 4
 1847              		.cfi_offset 7, -4
 1848 0002 85B0     		sub	sp, sp, #20
 1849              		.cfi_def_cfa_offset 24
ARM GAS  C:\Users\Sava\AppData\Local\Temp\ccoQvwtf.s 			page 97


 1850 0004 00AF     		add	r7, sp, #0
 1851              		.cfi_def_cfa_register 7
 1852 0006 7860     		str	r0, [r7, #4]
 1853 0008 3960     		str	r1, [r7]
 433:lvgl\lv_misc/lv_mem.c **** #ifdef LV_MEM_ENV64
 434:lvgl\lv_misc/lv_mem.c ****     /*Round the size up to 8*/
 435:lvgl\lv_misc/lv_mem.c ****     if(size & 0x7) {
 436:lvgl\lv_misc/lv_mem.c ****         size = size & (~0x7);
 437:lvgl\lv_misc/lv_mem.c ****         size += 8;
 438:lvgl\lv_misc/lv_mem.c ****     }
 439:lvgl\lv_misc/lv_mem.c **** #else
 440:lvgl\lv_misc/lv_mem.c ****     /*Round the size up to 4*/
 441:lvgl\lv_misc/lv_mem.c ****     if(size & 0x3) {
 1854              		.loc 1 441 0
 1855 000a 3B68     		ldr	r3, [r7]
 1856 000c 03F00303 		and	r3, r3, #3
 1857 0010 002B     		cmp	r3, #0
 1858 0012 06D0     		beq	.L76
 442:lvgl\lv_misc/lv_mem.c ****         size = size & (~0x3);
 1859              		.loc 1 442 0
 1860 0014 3B68     		ldr	r3, [r7]
 1861 0016 23F00303 		bic	r3, r3, #3
 1862 001a 3B60     		str	r3, [r7]
 443:lvgl\lv_misc/lv_mem.c ****         size += 4;
 1863              		.loc 1 443 0
 1864 001c 3B68     		ldr	r3, [r7]
 1865 001e 0433     		adds	r3, r3, #4
 1866 0020 3B60     		str	r3, [r7]
 1867              	.L76:
 444:lvgl\lv_misc/lv_mem.c ****     }
 445:lvgl\lv_misc/lv_mem.c **** #endif
 446:lvgl\lv_misc/lv_mem.c **** 
 447:lvgl\lv_misc/lv_mem.c ****     /*Don't let empty space only for a header without data*/
 448:lvgl\lv_misc/lv_mem.c ****     if(e->header.d_size == size + sizeof(lv_mem_header_t)) {
 1868              		.loc 1 448 0
 1869 0022 7B68     		ldr	r3, [r7, #4]
 1870 0024 1B68     		ldr	r3, [r3]
 1871 0026 C3F35E03 		ubfx	r3, r3, #1, #31
 1872 002a 1A46     		mov	r2, r3
 1873 002c 3B68     		ldr	r3, [r7]
 1874 002e 0433     		adds	r3, r3, #4
 1875 0030 9A42     		cmp	r2, r3
 1876 0032 04D1     		bne	.L77
 449:lvgl\lv_misc/lv_mem.c ****         size = e->header.d_size;
 1877              		.loc 1 449 0
 1878 0034 7B68     		ldr	r3, [r7, #4]
 1879 0036 1B68     		ldr	r3, [r3]
 1880 0038 C3F35E03 		ubfx	r3, r3, #1, #31
 1881 003c 3B60     		str	r3, [r7]
 1882              	.L77:
 450:lvgl\lv_misc/lv_mem.c ****     }
 451:lvgl\lv_misc/lv_mem.c **** 
 452:lvgl\lv_misc/lv_mem.c ****     /* Create the new entry after the current if there is space for it */
 453:lvgl\lv_misc/lv_mem.c ****     if(e->header.d_size != size) {
 1883              		.loc 1 453 0
 1884 003e 7B68     		ldr	r3, [r7, #4]
 1885 0040 1B68     		ldr	r3, [r3]
ARM GAS  C:\Users\Sava\AppData\Local\Temp\ccoQvwtf.s 			page 98


 1886 0042 C3F35E03 		ubfx	r3, r3, #1, #31
 1887 0046 1A46     		mov	r2, r3
 1888 0048 3B68     		ldr	r3, [r7]
 1889 004a 9A42     		cmp	r2, r3
 1890 004c 1AD0     		beq	.L78
 1891              	.LBB5:
 454:lvgl\lv_misc/lv_mem.c ****         uint8_t * e_data = &e->first_data;
 1892              		.loc 1 454 0
 1893 004e 7B68     		ldr	r3, [r7, #4]
 1894 0050 0433     		adds	r3, r3, #4
 1895 0052 FB60     		str	r3, [r7, #12]
 455:lvgl\lv_misc/lv_mem.c ****         lv_mem_ent_t * after_new_e = (lv_mem_ent_t *)&e_data[size];
 1896              		.loc 1 455 0
 1897 0054 FA68     		ldr	r2, [r7, #12]
 1898 0056 3B68     		ldr	r3, [r7]
 1899 0058 1344     		add	r3, r3, r2
 1900 005a BB60     		str	r3, [r7, #8]
 456:lvgl\lv_misc/lv_mem.c ****         after_new_e->header.used = 0;
 1901              		.loc 1 456 0
 1902 005c BA68     		ldr	r2, [r7, #8]
 1903 005e 1378     		ldrb	r3, [r2]
 1904 0060 6FF30003 		bfc	r3, #0, #1
 1905 0064 1370     		strb	r3, [r2]
 457:lvgl\lv_misc/lv_mem.c ****         after_new_e->header.d_size = e->header.d_size - size - sizeof(lv_mem_header_t);
 1906              		.loc 1 457 0
 1907 0066 7B68     		ldr	r3, [r7, #4]
 1908 0068 1B68     		ldr	r3, [r3]
 1909 006a C3F35E03 		ubfx	r3, r3, #1, #31
 1910 006e 1A46     		mov	r2, r3
 1911 0070 3B68     		ldr	r3, [r7]
 1912 0072 D31A     		subs	r3, r2, r3
 1913 0074 043B     		subs	r3, r3, #4
 1914 0076 23F00041 		bic	r1, r3, #-2147483648
 1915 007a BA68     		ldr	r2, [r7, #8]
 1916 007c 1368     		ldr	r3, [r2]
 1917 007e 61F35F03 		bfi	r3, r1, #1, #31
 1918 0082 1360     		str	r3, [r2]
 1919              	.L78:
 1920              	.LBE5:
 458:lvgl\lv_misc/lv_mem.c ****     }
 459:lvgl\lv_misc/lv_mem.c **** 
 460:lvgl\lv_misc/lv_mem.c ****     /* Set the new size for the original entry */
 461:lvgl\lv_misc/lv_mem.c ****     e->header.d_size = size;
 1921              		.loc 1 461 0
 1922 0084 3B68     		ldr	r3, [r7]
 1923 0086 23F00041 		bic	r1, r3, #-2147483648
 1924 008a 7A68     		ldr	r2, [r7, #4]
 1925 008c 1368     		ldr	r3, [r2]
 1926 008e 61F35F03 		bfi	r3, r1, #1, #31
 1927 0092 1360     		str	r3, [r2]
 462:lvgl\lv_misc/lv_mem.c **** }
 1928              		.loc 1 462 0
 1929 0094 00BF     		nop
 1930 0096 1437     		adds	r7, r7, #20
 1931              		.cfi_def_cfa_offset 4
 1932 0098 BD46     		mov	sp, r7
 1933              		.cfi_def_cfa_register 13
ARM GAS  C:\Users\Sava\AppData\Local\Temp\ccoQvwtf.s 			page 99


 1934              		@ sp needed
 1935 009a 80BC     		pop	{r7}
 1936              		.cfi_restore 7
 1937              		.cfi_def_cfa_offset 0
 1938 009c 7047     		bx	lr
 1939              		.cfi_endproc
 1940              	.LFE9:
 1941              		.size	ent_trunc, .-ent_trunc
 1942 009e 00BF     		.bss
 1943              		.align	2
 1944              	work_mem_int.4632:
 1945 0008 00000000 		.space	32768
 1945      00000000 
 1945      00000000 
 1945      00000000 
 1945      00000000 
 1946              		.text
 1947              	.Letext0:
 1948              		.file 2 "c:\\program files (x86)\\cypress\\psoc creator\\4.2\\psoc creator\\import\\gnu\\arm\\5.4.
 1949              		.file 3 "c:\\program files (x86)\\cypress\\psoc creator\\4.2\\psoc creator\\import\\gnu\\arm\\5.4.
 1950              		.file 4 "lvgl\\lv_misc\\lv_mem.h"
 1951              		.section	.debug_info,"",%progbits
 1952              	.Ldebug_info0:
 1953 0000 9F040000 		.4byte	0x49f
 1954 0004 0400     		.2byte	0x4
 1955 0006 00000000 		.4byte	.Ldebug_abbrev0
 1956 000a 04       		.byte	0x4
 1957 000b 01       		.uleb128 0x1
 1958 000c D6020000 		.4byte	.LASF57
 1959 0010 0C       		.byte	0xc
 1960 0011 78020000 		.4byte	.LASF58
 1961 0015 5E000000 		.4byte	.LASF59
 1962 0019 00000000 		.4byte	.Ldebug_ranges0+0
 1963 001d 00000000 		.4byte	0
 1964 0021 00000000 		.4byte	.Ldebug_line0
 1965 0025 02       		.uleb128 0x2
 1966 0026 01       		.byte	0x1
 1967 0027 06       		.byte	0x6
 1968 0028 6C020000 		.4byte	.LASF0
 1969 002c 03       		.uleb128 0x3
 1970 002d 17000000 		.4byte	.LASF5
 1971 0031 02       		.byte	0x2
 1972 0032 1D       		.byte	0x1d
 1973 0033 37000000 		.4byte	0x37
 1974 0037 02       		.uleb128 0x2
 1975 0038 01       		.byte	0x1
 1976 0039 08       		.byte	0x8
 1977 003a 74010000 		.4byte	.LASF1
 1978 003e 02       		.uleb128 0x2
 1979 003f 02       		.byte	0x2
 1980 0040 05       		.byte	0x5
 1981 0041 36020000 		.4byte	.LASF2
 1982 0045 02       		.uleb128 0x2
 1983 0046 02       		.byte	0x2
 1984 0047 07       		.byte	0x7
 1985 0048 3D010000 		.4byte	.LASF3
 1986 004c 02       		.uleb128 0x2
ARM GAS  C:\Users\Sava\AppData\Local\Temp\ccoQvwtf.s 			page 100


 1987 004d 04       		.byte	0x4
 1988 004e 05       		.byte	0x5
 1989 004f 52020000 		.4byte	.LASF4
 1990 0053 03       		.uleb128 0x3
 1991 0054 89010000 		.4byte	.LASF6
 1992 0058 02       		.byte	0x2
 1993 0059 41       		.byte	0x41
 1994 005a 5E000000 		.4byte	0x5e
 1995 005e 02       		.uleb128 0x2
 1996 005f 04       		.byte	0x4
 1997 0060 07       		.byte	0x7
 1998 0061 23010000 		.4byte	.LASF7
 1999 0065 02       		.uleb128 0x2
 2000 0066 08       		.byte	0x8
 2001 0067 05       		.byte	0x5
 2002 0068 FB010000 		.4byte	.LASF8
 2003 006c 02       		.uleb128 0x2
 2004 006d 08       		.byte	0x8
 2005 006e 07       		.byte	0x7
 2006 006f FE000000 		.4byte	.LASF9
 2007 0073 04       		.uleb128 0x4
 2008 0074 04       		.byte	0x4
 2009 0075 05       		.byte	0x5
 2010 0076 696E7400 		.ascii	"int\000"
 2011 007a 02       		.uleb128 0x2
 2012 007b 04       		.byte	0x4
 2013 007c 07       		.byte	0x7
 2014 007d AB010000 		.4byte	.LASF10
 2015 0081 03       		.uleb128 0x3
 2016 0082 35010000 		.4byte	.LASF11
 2017 0086 03       		.byte	0x3
 2018 0087 18       		.byte	0x18
 2019 0088 2C000000 		.4byte	0x2c
 2020 008c 03       		.uleb128 0x3
 2021 008d 49020000 		.4byte	.LASF12
 2022 0091 03       		.byte	0x3
 2023 0092 30       		.byte	0x30
 2024 0093 53000000 		.4byte	0x53
 2025 0097 02       		.uleb128 0x2
 2026 0098 08       		.byte	0x8
 2027 0099 04       		.byte	0x4
 2028 009a 60020000 		.4byte	.LASF13
 2029 009e 05       		.uleb128 0x5
 2030 009f 18       		.byte	0x18
 2031 00a0 04       		.byte	0x4
 2032 00a1 2E       		.byte	0x2e
 2033 00a2 FB000000 		.4byte	0xfb
 2034 00a6 06       		.uleb128 0x6
 2035 00a7 EE000000 		.4byte	.LASF14
 2036 00ab 04       		.byte	0x4
 2037 00ac 30       		.byte	0x30
 2038 00ad 8C000000 		.4byte	0x8c
 2039 00b1 00       		.byte	0
 2040 00b2 06       		.uleb128 0x6
 2041 00b3 5C010000 		.4byte	.LASF15
 2042 00b7 04       		.byte	0x4
 2043 00b8 31       		.byte	0x31
ARM GAS  C:\Users\Sava\AppData\Local\Temp\ccoQvwtf.s 			page 101


 2044 00b9 8C000000 		.4byte	0x8c
 2045 00bd 04       		.byte	0x4
 2046 00be 06       		.uleb128 0x6
 2047 00bf 12020000 		.4byte	.LASF16
 2048 00c3 04       		.byte	0x4
 2049 00c4 32       		.byte	0x32
 2050 00c5 8C000000 		.4byte	0x8c
 2051 00c9 08       		.byte	0x8
 2052 00ca 06       		.uleb128 0x6
 2053 00cb 8E020000 		.4byte	.LASF17
 2054 00cf 04       		.byte	0x4
 2055 00d0 33       		.byte	0x33
 2056 00d1 8C000000 		.4byte	0x8c
 2057 00d5 0C       		.byte	0xc
 2058 00d6 06       		.uleb128 0x6
 2059 00d7 1A010000 		.4byte	.LASF18
 2060 00db 04       		.byte	0x4
 2061 00dc 34       		.byte	0x34
 2062 00dd 8C000000 		.4byte	0x8c
 2063 00e1 10       		.byte	0x10
 2064 00e2 06       		.uleb128 0x6
 2065 00e3 21000000 		.4byte	.LASF19
 2066 00e7 04       		.byte	0x4
 2067 00e8 35       		.byte	0x35
 2068 00e9 81000000 		.4byte	0x81
 2069 00ed 14       		.byte	0x14
 2070 00ee 06       		.uleb128 0x6
 2071 00ef DF000000 		.4byte	.LASF20
 2072 00f3 04       		.byte	0x4
 2073 00f4 36       		.byte	0x36
 2074 00f5 81000000 		.4byte	0x81
 2075 00f9 15       		.byte	0x15
 2076 00fa 00       		.byte	0
 2077 00fb 03       		.uleb128 0x3
 2078 00fc C5000000 		.4byte	.LASF21
 2079 0100 04       		.byte	0x4
 2080 0101 37       		.byte	0x37
 2081 0102 9E000000 		.4byte	0x9e
 2082 0106 02       		.uleb128 0x2
 2083 0107 04       		.byte	0x4
 2084 0108 07       		.byte	0x7
 2085 0109 09020000 		.4byte	.LASF22
 2086 010d 07       		.uleb128 0x7
 2087 010e 04       		.byte	0x4
 2088 010f 02       		.uleb128 0x2
 2089 0110 01       		.byte	0x1
 2090 0111 08       		.byte	0x8
 2091 0112 5B020000 		.4byte	.LASF23
 2092 0116 05       		.uleb128 0x5
 2093 0117 04       		.byte	0x4
 2094 0118 01       		.byte	0x1
 2095 0119 27       		.byte	0x27
 2096 011a 3D010000 		.4byte	0x13d
 2097 011e 08       		.uleb128 0x8
 2098 011f 99010000 		.4byte	.LASF24
 2099 0123 01       		.byte	0x1
 2100 0124 28       		.byte	0x28
ARM GAS  C:\Users\Sava\AppData\Local\Temp\ccoQvwtf.s 			page 102


 2101 0125 8C000000 		.4byte	0x8c
 2102 0129 04       		.byte	0x4
 2103 012a 01       		.byte	0x1
 2104 012b 1F       		.byte	0x1f
 2105 012c 00       		.byte	0
 2106 012d 08       		.uleb128 0x8
 2107 012e A0020000 		.4byte	.LASF25
 2108 0132 01       		.byte	0x1
 2109 0133 29       		.byte	0x29
 2110 0134 8C000000 		.4byte	0x8c
 2111 0138 04       		.byte	0x4
 2112 0139 1F       		.byte	0x1f
 2113 013a 00       		.byte	0
 2114 013b 00       		.byte	0
 2115 013c 00       		.byte	0
 2116 013d 09       		.uleb128 0x9
 2117 013e 04       		.byte	0x4
 2118 013f 01       		.byte	0x1
 2119 0140 26       		.byte	0x26
 2120 0141 56010000 		.4byte	0x156
 2121 0145 0A       		.uleb128 0xa
 2122 0146 16010000 		.4byte	0x116
 2123 014a 0B       		.uleb128 0xb
 2124 014b ED010000 		.4byte	.LASF27
 2125 014f 01       		.byte	0x1
 2126 0150 2B       		.byte	0x2b
 2127 0151 8C000000 		.4byte	0x8c
 2128 0155 00       		.byte	0
 2129 0156 03       		.uleb128 0x3
 2130 0157 00000000 		.4byte	.LASF26
 2131 015b 01       		.byte	0x1
 2132 015c 2C       		.byte	0x2c
 2133 015d 3D010000 		.4byte	0x13d
 2134 0161 05       		.uleb128 0x5
 2135 0162 08       		.byte	0x8
 2136 0163 01       		.byte	0x1
 2137 0164 2E       		.byte	0x2e
 2138 0165 82010000 		.4byte	0x182
 2139 0169 06       		.uleb128 0x6
 2140 016a ED010000 		.4byte	.LASF27
 2141 016e 01       		.byte	0x1
 2142 016f 2F       		.byte	0x2f
 2143 0170 56010000 		.4byte	0x156
 2144 0174 00       		.byte	0
 2145 0175 06       		.uleb128 0x6
 2146 0176 53000000 		.4byte	.LASF28
 2147 017a 01       		.byte	0x1
 2148 017b 30       		.byte	0x30
 2149 017c 81000000 		.4byte	0x81
 2150 0180 04       		.byte	0x4
 2151 0181 00       		.byte	0
 2152 0182 03       		.uleb128 0x3
 2153 0183 9E010000 		.4byte	.LASF29
 2154 0187 01       		.byte	0x1
 2155 0188 31       		.byte	0x31
 2156 0189 61010000 		.4byte	0x161
 2157 018d 0C       		.uleb128 0xc
ARM GAS  C:\Users\Sava\AppData\Local\Temp\ccoQvwtf.s 			page 103


 2158 018e 38000000 		.4byte	.LASF33
 2159 0192 01       		.byte	0x1
 2160 0193 52       		.byte	0x52
 2161 0194 00000000 		.4byte	.LFB0
 2162 0198 3C000000 		.4byte	.LFE0-.LFB0
 2163 019c 01       		.uleb128 0x1
 2164 019d 9C       		.byte	0x9c
 2165 019e C2010000 		.4byte	0x1c2
 2166 01a2 0D       		.uleb128 0xd
 2167 01a3 A7020000 		.4byte	.LASF30
 2168 01a7 01       		.byte	0x1
 2169 01a8 58       		.byte	0x58
 2170 01a9 C2010000 		.4byte	0x1c2
 2171 01ad 05       		.uleb128 0x5
 2172 01ae 03       		.byte	0x3
 2173 01af 08000000 		.4byte	work_mem_int.4632
 2174 01b3 0D       		.uleb128 0xd
 2175 01b4 94010000 		.4byte	.LASF31
 2176 01b8 01       		.byte	0x1
 2177 01b9 5E       		.byte	0x5e
 2178 01ba D3010000 		.4byte	0x1d3
 2179 01be 02       		.uleb128 0x2
 2180 01bf 91       		.byte	0x91
 2181 01c0 74       		.sleb128 -12
 2182 01c1 00       		.byte	0
 2183 01c2 0E       		.uleb128 0xe
 2184 01c3 8C000000 		.4byte	0x8c
 2185 01c7 D3010000 		.4byte	0x1d3
 2186 01cb 0F       		.uleb128 0xf
 2187 01cc 06010000 		.4byte	0x106
 2188 01d0 FF1F     		.2byte	0x1fff
 2189 01d2 00       		.byte	0
 2190 01d3 10       		.uleb128 0x10
 2191 01d4 04       		.byte	0x4
 2192 01d5 82010000 		.4byte	0x182
 2193 01d9 11       		.uleb128 0x11
 2194 01da DA010000 		.4byte	.LASF38
 2195 01de 01       		.byte	0x1
 2196 01df 6A       		.byte	0x6a
 2197 01e0 0D010000 		.4byte	0x10d
 2198 01e4 00000000 		.4byte	.LFB1
 2199 01e8 80000000 		.4byte	.LFE1-.LFB1
 2200 01ec 01       		.uleb128 0x1
 2201 01ed 9C       		.byte	0x9c
 2202 01ee 1B020000 		.4byte	0x21b
 2203 01f2 12       		.uleb128 0x12
 2204 01f3 15010000 		.4byte	.LASF35
 2205 01f7 01       		.byte	0x1
 2206 01f8 6A       		.byte	0x6a
 2207 01f9 8C000000 		.4byte	0x8c
 2208 01fd 02       		.uleb128 0x2
 2209 01fe 91       		.byte	0x91
 2210 01ff 6C       		.sleb128 -20
 2211 0200 0D       		.uleb128 0xd
 2212 0201 E8000000 		.4byte	.LASF32
 2213 0205 01       		.byte	0x1
 2214 0206 7D       		.byte	0x7d
ARM GAS  C:\Users\Sava\AppData\Local\Temp\ccoQvwtf.s 			page 104


 2215 0207 0D010000 		.4byte	0x10d
 2216 020b 02       		.uleb128 0x2
 2217 020c 91       		.byte	0x91
 2218 020d 74       		.sleb128 -12
 2219 020e 13       		.uleb128 0x13
 2220 020f 6500     		.ascii	"e\000"
 2221 0211 01       		.byte	0x1
 2222 0212 80       		.byte	0x80
 2223 0213 D3010000 		.4byte	0x1d3
 2224 0217 02       		.uleb128 0x2
 2225 0218 91       		.byte	0x91
 2226 0219 70       		.sleb128 -16
 2227 021a 00       		.byte	0
 2228 021b 14       		.uleb128 0x14
 2229 021c CE010000 		.4byte	.LASF34
 2230 0220 01       		.byte	0x1
 2231 0221 AA       		.byte	0xaa
 2232 0222 00000000 		.4byte	.LFB2
 2233 0226 88000000 		.4byte	.LFE2-.LFB2
 2234 022a 01       		.uleb128 0x1
 2235 022b 9C       		.byte	0x9c
 2236 022c 59020000 		.4byte	0x259
 2237 0230 12       		.uleb128 0x12
 2238 0231 F9000000 		.4byte	.LASF36
 2239 0235 01       		.byte	0x1
 2240 0236 AA       		.byte	0xaa
 2241 0237 59020000 		.4byte	0x259
 2242 023b 02       		.uleb128 0x2
 2243 023c 91       		.byte	0x91
 2244 023d 6C       		.sleb128 -20
 2245 023e 13       		.uleb128 0x13
 2246 023f 6500     		.ascii	"e\000"
 2247 0241 01       		.byte	0x1
 2248 0242 B6       		.byte	0xb6
 2249 0243 D3010000 		.4byte	0x1d3
 2250 0247 02       		.uleb128 0x2
 2251 0248 91       		.byte	0x91
 2252 0249 70       		.sleb128 -16
 2253 024a 0D       		.uleb128 0xd
 2254 024b 31000000 		.4byte	.LASF37
 2255 024f 01       		.byte	0x1
 2256 0250 BE       		.byte	0xbe
 2257 0251 D3010000 		.4byte	0x1d3
 2258 0255 02       		.uleb128 0x2
 2259 0256 91       		.byte	0x91
 2260 0257 74       		.sleb128 -12
 2261 0258 00       		.byte	0
 2262 0259 10       		.uleb128 0x10
 2263 025a 04       		.byte	0x4
 2264 025b 5F020000 		.4byte	0x25f
 2265 025f 15       		.uleb128 0x15
 2266 0260 11       		.uleb128 0x11
 2267 0261 C7020000 		.4byte	.LASF39
 2268 0265 01       		.byte	0x1
 2269 0266 DC       		.byte	0xdc
 2270 0267 0D010000 		.4byte	0x10d
 2271 026b 00000000 		.4byte	.LFB3
ARM GAS  C:\Users\Sava\AppData\Local\Temp\ccoQvwtf.s 			page 105


 2272 026f B0000000 		.4byte	.LFE3-.LFB3
 2273 0273 01       		.uleb128 0x1
 2274 0274 9C       		.byte	0x9c
 2275 0275 E2020000 		.4byte	0x2e2
 2276 0279 12       		.uleb128 0x12
 2277 027a F4010000 		.4byte	.LASF40
 2278 027e 01       		.byte	0x1
 2279 027f DC       		.byte	0xdc
 2280 0280 0D010000 		.4byte	0x10d
 2281 0284 02       		.uleb128 0x2
 2282 0285 91       		.byte	0x91
 2283 0286 64       		.sleb128 -28
 2284 0287 12       		.uleb128 0x12
 2285 0288 6B010000 		.4byte	.LASF41
 2286 028c 01       		.byte	0x1
 2287 028d DC       		.byte	0xdc
 2288 028e 8C000000 		.4byte	0x8c
 2289 0292 02       		.uleb128 0x2
 2290 0293 91       		.byte	0x91
 2291 0294 60       		.sleb128 -32
 2292 0295 0D       		.uleb128 0xd
 2293 0296 40020000 		.4byte	.LASF42
 2294 029a 01       		.byte	0x1
 2295 029b E6       		.byte	0xe6
 2296 029c 8C000000 		.4byte	0x8c
 2297 02a0 02       		.uleb128 0x2
 2298 02a1 91       		.byte	0x91
 2299 02a2 70       		.sleb128 -16
 2300 02a3 0D       		.uleb128 0xd
 2301 02a4 65010000 		.4byte	.LASF43
 2302 02a8 01       		.byte	0x1
 2303 02a9 F3       		.byte	0xf3
 2304 02aa 0D010000 		.4byte	0x10d
 2305 02ae 02       		.uleb128 0x2
 2306 02af 91       		.byte	0x91
 2307 02b0 68       		.sleb128 -24
 2308 02b1 16       		.uleb128 0x16
 2309 02b2 10000000 		.4byte	.LBB2
 2310 02b6 18000000 		.4byte	.LBE2-.LBB2
 2311 02ba CB020000 		.4byte	0x2cb
 2312 02be 13       		.uleb128 0x13
 2313 02bf 6500     		.ascii	"e\000"
 2314 02c1 01       		.byte	0x1
 2315 02c2 E0       		.byte	0xe0
 2316 02c3 D3010000 		.4byte	0x1d3
 2317 02c7 02       		.uleb128 0x2
 2318 02c8 91       		.byte	0x91
 2319 02c9 74       		.sleb128 -12
 2320 02ca 00       		.byte	0
 2321 02cb 17       		.uleb128 0x17
 2322 02cc 44000000 		.4byte	.LBB3
 2323 02d0 14000000 		.4byte	.LBE3-.LBB3
 2324 02d4 13       		.uleb128 0x13
 2325 02d5 6500     		.ascii	"e\000"
 2326 02d7 01       		.byte	0x1
 2327 02d8 ED       		.byte	0xed
 2328 02d9 D3010000 		.4byte	0x1d3
ARM GAS  C:\Users\Sava\AppData\Local\Temp\ccoQvwtf.s 			page 106


 2329 02dd 02       		.uleb128 0x2
 2330 02de 91       		.byte	0x91
 2331 02df 6C       		.sleb128 -20
 2332 02e0 00       		.byte	0
 2333 02e1 00       		.byte	0
 2334 02e2 18       		.uleb128 0x18
 2335 02e3 B9020000 		.4byte	.LASF44
 2336 02e7 01       		.byte	0x1
 2337 02e8 1201     		.2byte	0x112
 2338 02ea 00000000 		.4byte	.LFB4
 2339 02ee 9C000000 		.4byte	.LFE4-.LFB4
 2340 02f2 01       		.uleb128 0x1
 2341 02f3 9C       		.byte	0x9c
 2342 02f4 17030000 		.4byte	0x317
 2343 02f8 19       		.uleb128 0x19
 2344 02f9 82010000 		.4byte	.LASF45
 2345 02fd 01       		.byte	0x1
 2346 02fe 1501     		.2byte	0x115
 2347 0300 D3010000 		.4byte	0x1d3
 2348 0304 02       		.uleb128 0x2
 2349 0305 91       		.byte	0x91
 2350 0306 74       		.sleb128 -12
 2351 0307 19       		.uleb128 0x19
 2352 0308 31000000 		.4byte	.LASF37
 2353 030c 01       		.byte	0x1
 2354 030d 1601     		.2byte	0x116
 2355 030f D3010000 		.4byte	0x1d3
 2356 0313 02       		.uleb128 0x2
 2357 0314 91       		.byte	0x91
 2358 0315 70       		.sleb128 -16
 2359 0316 00       		.byte	0
 2360 0317 18       		.uleb128 0x18
 2361 0318 44000000 		.4byte	.LASF46
 2362 031c 01       		.byte	0x1
 2363 031d 3E01     		.2byte	0x13e
 2364 031f 00000000 		.4byte	.LFB5
 2365 0323 D8000000 		.4byte	.LFE5-.LFB5
 2366 0327 01       		.uleb128 0x1
 2367 0328 9C       		.byte	0x9c
 2368 0329 4A030000 		.4byte	0x34a
 2369 032d 1A       		.uleb128 0x1a
 2370 032e B5000000 		.4byte	.LASF47
 2371 0332 01       		.byte	0x1
 2372 0333 3E01     		.2byte	0x13e
 2373 0335 4A030000 		.4byte	0x34a
 2374 0339 02       		.uleb128 0x2
 2375 033a 91       		.byte	0x91
 2376 033b 6C       		.sleb128 -20
 2377 033c 1B       		.uleb128 0x1b
 2378 033d 6500     		.ascii	"e\000"
 2379 033f 01       		.byte	0x1
 2380 0340 4301     		.2byte	0x143
 2381 0342 D3010000 		.4byte	0x1d3
 2382 0346 02       		.uleb128 0x2
 2383 0347 91       		.byte	0x91
 2384 0348 74       		.sleb128 -12
 2385 0349 00       		.byte	0
ARM GAS  C:\Users\Sava\AppData\Local\Temp\ccoQvwtf.s 			page 107


 2386 034a 10       		.uleb128 0x10
 2387 034b 04       		.byte	0x4
 2388 034c FB000000 		.4byte	0xfb
 2389 0350 1C       		.uleb128 0x1c
 2390 0351 1C020000 		.4byte	.LASF48
 2391 0355 01       		.byte	0x1
 2392 0356 6401     		.2byte	0x164
 2393 0358 8C000000 		.4byte	0x8c
 2394 035c 00000000 		.4byte	.LFB6
 2395 0360 3C000000 		.4byte	.LFE6-.LFB6
 2396 0364 01       		.uleb128 0x1
 2397 0365 9C       		.byte	0x9c
 2398 0366 87030000 		.4byte	0x387
 2399 036a 1A       		.uleb128 0x1a
 2400 036b F9000000 		.4byte	.LASF36
 2401 036f 01       		.byte	0x1
 2402 0370 6401     		.2byte	0x164
 2403 0372 59020000 		.4byte	0x259
 2404 0376 02       		.uleb128 0x2
 2405 0377 91       		.byte	0x91
 2406 0378 6C       		.sleb128 -20
 2407 0379 1B       		.uleb128 0x1b
 2408 037a 6500     		.ascii	"e\000"
 2409 037c 01       		.byte	0x1
 2410 037d 6901     		.2byte	0x169
 2411 037f D3010000 		.4byte	0x1d3
 2412 0383 02       		.uleb128 0x2
 2413 0384 91       		.byte	0x91
 2414 0385 74       		.sleb128 -12
 2415 0386 00       		.byte	0
 2416 0387 1D       		.uleb128 0x1d
 2417 0388 B8010000 		.4byte	.LASF51
 2418 038c 01       		.byte	0x1
 2419 038d 8101     		.2byte	0x181
 2420 038f D3010000 		.4byte	0x1d3
 2421 0393 00000000 		.4byte	.LFB7
 2422 0397 54000000 		.4byte	.LFE7-.LFB7
 2423 039b 01       		.uleb128 0x1
 2424 039c 9C       		.byte	0x9c
 2425 039d D9030000 		.4byte	0x3d9
 2426 03a1 1A       		.uleb128 0x1a
 2427 03a2 E7010000 		.4byte	.LASF49
 2428 03a6 01       		.byte	0x1
 2429 03a7 8101     		.2byte	0x181
 2430 03a9 D3010000 		.4byte	0x1d3
 2431 03ad 02       		.uleb128 0x2
 2432 03ae 91       		.byte	0x91
 2433 03af 6C       		.sleb128 -20
 2434 03b0 19       		.uleb128 0x19
 2435 03b1 2A000000 		.4byte	.LASF50
 2436 03b5 01       		.byte	0x1
 2437 03b6 8301     		.2byte	0x183
 2438 03b8 D3010000 		.4byte	0x1d3
 2439 03bc 02       		.uleb128 0x2
 2440 03bd 91       		.byte	0x91
 2441 03be 74       		.sleb128 -12
 2442 03bf 17       		.uleb128 0x17
ARM GAS  C:\Users\Sava\AppData\Local\Temp\ccoQvwtf.s 			page 108


 2443 03c0 1A000000 		.4byte	.LBB4
 2444 03c4 2A000000 		.4byte	.LBE4-.LBB4
 2445 03c8 19       		.uleb128 0x19
 2446 03c9 F9000000 		.4byte	.LASF36
 2447 03cd 01       		.byte	0x1
 2448 03ce 8801     		.2byte	0x188
 2449 03d0 D9030000 		.4byte	0x3d9
 2450 03d4 02       		.uleb128 0x2
 2451 03d5 91       		.byte	0x91
 2452 03d6 70       		.sleb128 -16
 2453 03d7 00       		.byte	0
 2454 03d8 00       		.byte	0
 2455 03d9 10       		.uleb128 0x10
 2456 03da 04       		.byte	0x4
 2457 03db 81000000 		.4byte	0x81
 2458 03df 1E       		.uleb128 0x1e
 2459 03e0 2C020000 		.4byte	.LASF52
 2460 03e4 01       		.byte	0x1
 2461 03e5 9801     		.2byte	0x198
 2462 03e7 0D010000 		.4byte	0x10d
 2463 03eb 00000000 		.4byte	.LFB8
 2464 03ef 4E000000 		.4byte	.LFE8-.LFB8
 2465 03f3 01       		.uleb128 0x1
 2466 03f4 9C       		.byte	0x9c
 2467 03f5 25040000 		.4byte	0x425
 2468 03f9 1F       		.uleb128 0x1f
 2469 03fa 6500     		.ascii	"e\000"
 2470 03fc 01       		.byte	0x1
 2471 03fd 9801     		.2byte	0x198
 2472 03ff D3010000 		.4byte	0x1d3
 2473 0403 02       		.uleb128 0x2
 2474 0404 91       		.byte	0x91
 2475 0405 6C       		.sleb128 -20
 2476 0406 1A       		.uleb128 0x1a
 2477 0407 15010000 		.4byte	.LASF35
 2478 040b 01       		.byte	0x1
 2479 040c 9801     		.2byte	0x198
 2480 040e 8C000000 		.4byte	0x8c
 2481 0412 02       		.uleb128 0x2
 2482 0413 91       		.byte	0x91
 2483 0414 68       		.sleb128 -24
 2484 0415 19       		.uleb128 0x19
 2485 0416 E8000000 		.4byte	.LASF32
 2486 041a 01       		.byte	0x1
 2487 041b 9A01     		.2byte	0x19a
 2488 041d 0D010000 		.4byte	0x10d
 2489 0421 02       		.uleb128 0x2
 2490 0422 91       		.byte	0x91
 2491 0423 74       		.sleb128 -12
 2492 0424 00       		.byte	0
 2493 0425 20       		.uleb128 0x20
 2494 0426 BB000000 		.4byte	.LASF60
 2495 042a 01       		.byte	0x1
 2496 042b AF01     		.2byte	0x1af
 2497 042d 00000000 		.4byte	.LFB9
 2498 0431 9E000000 		.4byte	.LFE9-.LFB9
 2499 0435 01       		.uleb128 0x1
ARM GAS  C:\Users\Sava\AppData\Local\Temp\ccoQvwtf.s 			page 109


 2500 0436 9C       		.byte	0x9c
 2501 0437 80040000 		.4byte	0x480
 2502 043b 1F       		.uleb128 0x1f
 2503 043c 6500     		.ascii	"e\000"
 2504 043e 01       		.byte	0x1
 2505 043f AF01     		.2byte	0x1af
 2506 0441 D3010000 		.4byte	0x1d3
 2507 0445 02       		.uleb128 0x2
 2508 0446 91       		.byte	0x91
 2509 0447 6C       		.sleb128 -20
 2510 0448 1A       		.uleb128 0x1a
 2511 0449 15010000 		.4byte	.LASF35
 2512 044d 01       		.byte	0x1
 2513 044e AF01     		.2byte	0x1af
 2514 0450 8C000000 		.4byte	0x8c
 2515 0454 02       		.uleb128 0x2
 2516 0455 91       		.byte	0x91
 2517 0456 68       		.sleb128 -24
 2518 0457 17       		.uleb128 0x17
 2519 0458 4E000000 		.4byte	.LBB5
 2520 045c 36000000 		.4byte	.LBE5-.LBB5
 2521 0460 19       		.uleb128 0x19
 2522 0461 10000000 		.4byte	.LASF53
 2523 0465 01       		.byte	0x1
 2524 0466 C601     		.2byte	0x1c6
 2525 0468 D9030000 		.4byte	0x3d9
 2526 046c 02       		.uleb128 0x2
 2527 046d 91       		.byte	0x91
 2528 046e 74       		.sleb128 -12
 2529 046f 19       		.uleb128 0x19
 2530 0470 50010000 		.4byte	.LASF54
 2531 0474 01       		.byte	0x1
 2532 0475 C701     		.2byte	0x1c7
 2533 0477 D3010000 		.4byte	0x1d3
 2534 047b 02       		.uleb128 0x2
 2535 047c 91       		.byte	0x91
 2536 047d 70       		.sleb128 -16
 2537 047e 00       		.byte	0
 2538 047f 00       		.byte	0
 2539 0480 0D       		.uleb128 0xd
 2540 0481 D6000000 		.4byte	.LASF55
 2541 0485 01       		.byte	0x1
 2542 0486 42       		.byte	0x42
 2543 0487 D9030000 		.4byte	0x3d9
 2544 048b 05       		.uleb128 0x5
 2545 048c 03       		.byte	0x3
 2546 048d 00000000 		.4byte	work_mem
 2547 0491 0D       		.uleb128 0xd
 2548 0492 C5010000 		.4byte	.LASF56
 2549 0496 01       		.byte	0x1
 2550 0497 45       		.byte	0x45
 2551 0498 8C000000 		.4byte	0x8c
 2552 049c 05       		.uleb128 0x5
 2553 049d 03       		.byte	0x3
 2554 049e 04000000 		.4byte	zero_mem
 2555 04a2 00       		.byte	0
 2556              		.section	.debug_abbrev,"",%progbits
ARM GAS  C:\Users\Sava\AppData\Local\Temp\ccoQvwtf.s 			page 110


 2557              	.Ldebug_abbrev0:
 2558 0000 01       		.uleb128 0x1
 2559 0001 11       		.uleb128 0x11
 2560 0002 01       		.byte	0x1
 2561 0003 25       		.uleb128 0x25
 2562 0004 0E       		.uleb128 0xe
 2563 0005 13       		.uleb128 0x13
 2564 0006 0B       		.uleb128 0xb
 2565 0007 03       		.uleb128 0x3
 2566 0008 0E       		.uleb128 0xe
 2567 0009 1B       		.uleb128 0x1b
 2568 000a 0E       		.uleb128 0xe
 2569 000b 55       		.uleb128 0x55
 2570 000c 17       		.uleb128 0x17
 2571 000d 11       		.uleb128 0x11
 2572 000e 01       		.uleb128 0x1
 2573 000f 10       		.uleb128 0x10
 2574 0010 17       		.uleb128 0x17
 2575 0011 00       		.byte	0
 2576 0012 00       		.byte	0
 2577 0013 02       		.uleb128 0x2
 2578 0014 24       		.uleb128 0x24
 2579 0015 00       		.byte	0
 2580 0016 0B       		.uleb128 0xb
 2581 0017 0B       		.uleb128 0xb
 2582 0018 3E       		.uleb128 0x3e
 2583 0019 0B       		.uleb128 0xb
 2584 001a 03       		.uleb128 0x3
 2585 001b 0E       		.uleb128 0xe
 2586 001c 00       		.byte	0
 2587 001d 00       		.byte	0
 2588 001e 03       		.uleb128 0x3
 2589 001f 16       		.uleb128 0x16
 2590 0020 00       		.byte	0
 2591 0021 03       		.uleb128 0x3
 2592 0022 0E       		.uleb128 0xe
 2593 0023 3A       		.uleb128 0x3a
 2594 0024 0B       		.uleb128 0xb
 2595 0025 3B       		.uleb128 0x3b
 2596 0026 0B       		.uleb128 0xb
 2597 0027 49       		.uleb128 0x49
 2598 0028 13       		.uleb128 0x13
 2599 0029 00       		.byte	0
 2600 002a 00       		.byte	0
 2601 002b 04       		.uleb128 0x4
 2602 002c 24       		.uleb128 0x24
 2603 002d 00       		.byte	0
 2604 002e 0B       		.uleb128 0xb
 2605 002f 0B       		.uleb128 0xb
 2606 0030 3E       		.uleb128 0x3e
 2607 0031 0B       		.uleb128 0xb
 2608 0032 03       		.uleb128 0x3
 2609 0033 08       		.uleb128 0x8
 2610 0034 00       		.byte	0
 2611 0035 00       		.byte	0
 2612 0036 05       		.uleb128 0x5
 2613 0037 13       		.uleb128 0x13
ARM GAS  C:\Users\Sava\AppData\Local\Temp\ccoQvwtf.s 			page 111


 2614 0038 01       		.byte	0x1
 2615 0039 0B       		.uleb128 0xb
 2616 003a 0B       		.uleb128 0xb
 2617 003b 3A       		.uleb128 0x3a
 2618 003c 0B       		.uleb128 0xb
 2619 003d 3B       		.uleb128 0x3b
 2620 003e 0B       		.uleb128 0xb
 2621 003f 01       		.uleb128 0x1
 2622 0040 13       		.uleb128 0x13
 2623 0041 00       		.byte	0
 2624 0042 00       		.byte	0
 2625 0043 06       		.uleb128 0x6
 2626 0044 0D       		.uleb128 0xd
 2627 0045 00       		.byte	0
 2628 0046 03       		.uleb128 0x3
 2629 0047 0E       		.uleb128 0xe
 2630 0048 3A       		.uleb128 0x3a
 2631 0049 0B       		.uleb128 0xb
 2632 004a 3B       		.uleb128 0x3b
 2633 004b 0B       		.uleb128 0xb
 2634 004c 49       		.uleb128 0x49
 2635 004d 13       		.uleb128 0x13
 2636 004e 38       		.uleb128 0x38
 2637 004f 0B       		.uleb128 0xb
 2638 0050 00       		.byte	0
 2639 0051 00       		.byte	0
 2640 0052 07       		.uleb128 0x7
 2641 0053 0F       		.uleb128 0xf
 2642 0054 00       		.byte	0
 2643 0055 0B       		.uleb128 0xb
 2644 0056 0B       		.uleb128 0xb
 2645 0057 00       		.byte	0
 2646 0058 00       		.byte	0
 2647 0059 08       		.uleb128 0x8
 2648 005a 0D       		.uleb128 0xd
 2649 005b 00       		.byte	0
 2650 005c 03       		.uleb128 0x3
 2651 005d 0E       		.uleb128 0xe
 2652 005e 3A       		.uleb128 0x3a
 2653 005f 0B       		.uleb128 0xb
 2654 0060 3B       		.uleb128 0x3b
 2655 0061 0B       		.uleb128 0xb
 2656 0062 49       		.uleb128 0x49
 2657 0063 13       		.uleb128 0x13
 2658 0064 0B       		.uleb128 0xb
 2659 0065 0B       		.uleb128 0xb
 2660 0066 0D       		.uleb128 0xd
 2661 0067 0B       		.uleb128 0xb
 2662 0068 0C       		.uleb128 0xc
 2663 0069 0B       		.uleb128 0xb
 2664 006a 38       		.uleb128 0x38
 2665 006b 0B       		.uleb128 0xb
 2666 006c 00       		.byte	0
 2667 006d 00       		.byte	0
 2668 006e 09       		.uleb128 0x9
 2669 006f 17       		.uleb128 0x17
 2670 0070 01       		.byte	0x1
ARM GAS  C:\Users\Sava\AppData\Local\Temp\ccoQvwtf.s 			page 112


 2671 0071 0B       		.uleb128 0xb
 2672 0072 0B       		.uleb128 0xb
 2673 0073 3A       		.uleb128 0x3a
 2674 0074 0B       		.uleb128 0xb
 2675 0075 3B       		.uleb128 0x3b
 2676 0076 0B       		.uleb128 0xb
 2677 0077 01       		.uleb128 0x1
 2678 0078 13       		.uleb128 0x13
 2679 0079 00       		.byte	0
 2680 007a 00       		.byte	0
 2681 007b 0A       		.uleb128 0xa
 2682 007c 0D       		.uleb128 0xd
 2683 007d 00       		.byte	0
 2684 007e 49       		.uleb128 0x49
 2685 007f 13       		.uleb128 0x13
 2686 0080 00       		.byte	0
 2687 0081 00       		.byte	0
 2688 0082 0B       		.uleb128 0xb
 2689 0083 0D       		.uleb128 0xd
 2690 0084 00       		.byte	0
 2691 0085 03       		.uleb128 0x3
 2692 0086 0E       		.uleb128 0xe
 2693 0087 3A       		.uleb128 0x3a
 2694 0088 0B       		.uleb128 0xb
 2695 0089 3B       		.uleb128 0x3b
 2696 008a 0B       		.uleb128 0xb
 2697 008b 49       		.uleb128 0x49
 2698 008c 13       		.uleb128 0x13
 2699 008d 00       		.byte	0
 2700 008e 00       		.byte	0
 2701 008f 0C       		.uleb128 0xc
 2702 0090 2E       		.uleb128 0x2e
 2703 0091 01       		.byte	0x1
 2704 0092 3F       		.uleb128 0x3f
 2705 0093 19       		.uleb128 0x19
 2706 0094 03       		.uleb128 0x3
 2707 0095 0E       		.uleb128 0xe
 2708 0096 3A       		.uleb128 0x3a
 2709 0097 0B       		.uleb128 0xb
 2710 0098 3B       		.uleb128 0x3b
 2711 0099 0B       		.uleb128 0xb
 2712 009a 27       		.uleb128 0x27
 2713 009b 19       		.uleb128 0x19
 2714 009c 11       		.uleb128 0x11
 2715 009d 01       		.uleb128 0x1
 2716 009e 12       		.uleb128 0x12
 2717 009f 06       		.uleb128 0x6
 2718 00a0 40       		.uleb128 0x40
 2719 00a1 18       		.uleb128 0x18
 2720 00a2 9742     		.uleb128 0x2117
 2721 00a4 19       		.uleb128 0x19
 2722 00a5 01       		.uleb128 0x1
 2723 00a6 13       		.uleb128 0x13
 2724 00a7 00       		.byte	0
 2725 00a8 00       		.byte	0
 2726 00a9 0D       		.uleb128 0xd
 2727 00aa 34       		.uleb128 0x34
ARM GAS  C:\Users\Sava\AppData\Local\Temp\ccoQvwtf.s 			page 113


 2728 00ab 00       		.byte	0
 2729 00ac 03       		.uleb128 0x3
 2730 00ad 0E       		.uleb128 0xe
 2731 00ae 3A       		.uleb128 0x3a
 2732 00af 0B       		.uleb128 0xb
 2733 00b0 3B       		.uleb128 0x3b
 2734 00b1 0B       		.uleb128 0xb
 2735 00b2 49       		.uleb128 0x49
 2736 00b3 13       		.uleb128 0x13
 2737 00b4 02       		.uleb128 0x2
 2738 00b5 18       		.uleb128 0x18
 2739 00b6 00       		.byte	0
 2740 00b7 00       		.byte	0
 2741 00b8 0E       		.uleb128 0xe
 2742 00b9 01       		.uleb128 0x1
 2743 00ba 01       		.byte	0x1
 2744 00bb 49       		.uleb128 0x49
 2745 00bc 13       		.uleb128 0x13
 2746 00bd 01       		.uleb128 0x1
 2747 00be 13       		.uleb128 0x13
 2748 00bf 00       		.byte	0
 2749 00c0 00       		.byte	0
 2750 00c1 0F       		.uleb128 0xf
 2751 00c2 21       		.uleb128 0x21
 2752 00c3 00       		.byte	0
 2753 00c4 49       		.uleb128 0x49
 2754 00c5 13       		.uleb128 0x13
 2755 00c6 2F       		.uleb128 0x2f
 2756 00c7 05       		.uleb128 0x5
 2757 00c8 00       		.byte	0
 2758 00c9 00       		.byte	0
 2759 00ca 10       		.uleb128 0x10
 2760 00cb 0F       		.uleb128 0xf
 2761 00cc 00       		.byte	0
 2762 00cd 0B       		.uleb128 0xb
 2763 00ce 0B       		.uleb128 0xb
 2764 00cf 49       		.uleb128 0x49
 2765 00d0 13       		.uleb128 0x13
 2766 00d1 00       		.byte	0
 2767 00d2 00       		.byte	0
 2768 00d3 11       		.uleb128 0x11
 2769 00d4 2E       		.uleb128 0x2e
 2770 00d5 01       		.byte	0x1
 2771 00d6 3F       		.uleb128 0x3f
 2772 00d7 19       		.uleb128 0x19
 2773 00d8 03       		.uleb128 0x3
 2774 00d9 0E       		.uleb128 0xe
 2775 00da 3A       		.uleb128 0x3a
 2776 00db 0B       		.uleb128 0xb
 2777 00dc 3B       		.uleb128 0x3b
 2778 00dd 0B       		.uleb128 0xb
 2779 00de 27       		.uleb128 0x27
 2780 00df 19       		.uleb128 0x19
 2781 00e0 49       		.uleb128 0x49
 2782 00e1 13       		.uleb128 0x13
 2783 00e2 11       		.uleb128 0x11
 2784 00e3 01       		.uleb128 0x1
ARM GAS  C:\Users\Sava\AppData\Local\Temp\ccoQvwtf.s 			page 114


 2785 00e4 12       		.uleb128 0x12
 2786 00e5 06       		.uleb128 0x6
 2787 00e6 40       		.uleb128 0x40
 2788 00e7 18       		.uleb128 0x18
 2789 00e8 9642     		.uleb128 0x2116
 2790 00ea 19       		.uleb128 0x19
 2791 00eb 01       		.uleb128 0x1
 2792 00ec 13       		.uleb128 0x13
 2793 00ed 00       		.byte	0
 2794 00ee 00       		.byte	0
 2795 00ef 12       		.uleb128 0x12
 2796 00f0 05       		.uleb128 0x5
 2797 00f1 00       		.byte	0
 2798 00f2 03       		.uleb128 0x3
 2799 00f3 0E       		.uleb128 0xe
 2800 00f4 3A       		.uleb128 0x3a
 2801 00f5 0B       		.uleb128 0xb
 2802 00f6 3B       		.uleb128 0x3b
 2803 00f7 0B       		.uleb128 0xb
 2804 00f8 49       		.uleb128 0x49
 2805 00f9 13       		.uleb128 0x13
 2806 00fa 02       		.uleb128 0x2
 2807 00fb 18       		.uleb128 0x18
 2808 00fc 00       		.byte	0
 2809 00fd 00       		.byte	0
 2810 00fe 13       		.uleb128 0x13
 2811 00ff 34       		.uleb128 0x34
 2812 0100 00       		.byte	0
 2813 0101 03       		.uleb128 0x3
 2814 0102 08       		.uleb128 0x8
 2815 0103 3A       		.uleb128 0x3a
 2816 0104 0B       		.uleb128 0xb
 2817 0105 3B       		.uleb128 0x3b
 2818 0106 0B       		.uleb128 0xb
 2819 0107 49       		.uleb128 0x49
 2820 0108 13       		.uleb128 0x13
 2821 0109 02       		.uleb128 0x2
 2822 010a 18       		.uleb128 0x18
 2823 010b 00       		.byte	0
 2824 010c 00       		.byte	0
 2825 010d 14       		.uleb128 0x14
 2826 010e 2E       		.uleb128 0x2e
 2827 010f 01       		.byte	0x1
 2828 0110 3F       		.uleb128 0x3f
 2829 0111 19       		.uleb128 0x19
 2830 0112 03       		.uleb128 0x3
 2831 0113 0E       		.uleb128 0xe
 2832 0114 3A       		.uleb128 0x3a
 2833 0115 0B       		.uleb128 0xb
 2834 0116 3B       		.uleb128 0x3b
 2835 0117 0B       		.uleb128 0xb
 2836 0118 27       		.uleb128 0x27
 2837 0119 19       		.uleb128 0x19
 2838 011a 11       		.uleb128 0x11
 2839 011b 01       		.uleb128 0x1
 2840 011c 12       		.uleb128 0x12
 2841 011d 06       		.uleb128 0x6
ARM GAS  C:\Users\Sava\AppData\Local\Temp\ccoQvwtf.s 			page 115


 2842 011e 40       		.uleb128 0x40
 2843 011f 18       		.uleb128 0x18
 2844 0120 9642     		.uleb128 0x2116
 2845 0122 19       		.uleb128 0x19
 2846 0123 01       		.uleb128 0x1
 2847 0124 13       		.uleb128 0x13
 2848 0125 00       		.byte	0
 2849 0126 00       		.byte	0
 2850 0127 15       		.uleb128 0x15
 2851 0128 26       		.uleb128 0x26
 2852 0129 00       		.byte	0
 2853 012a 00       		.byte	0
 2854 012b 00       		.byte	0
 2855 012c 16       		.uleb128 0x16
 2856 012d 0B       		.uleb128 0xb
 2857 012e 01       		.byte	0x1
 2858 012f 11       		.uleb128 0x11
 2859 0130 01       		.uleb128 0x1
 2860 0131 12       		.uleb128 0x12
 2861 0132 06       		.uleb128 0x6
 2862 0133 01       		.uleb128 0x1
 2863 0134 13       		.uleb128 0x13
 2864 0135 00       		.byte	0
 2865 0136 00       		.byte	0
 2866 0137 17       		.uleb128 0x17
 2867 0138 0B       		.uleb128 0xb
 2868 0139 01       		.byte	0x1
 2869 013a 11       		.uleb128 0x11
 2870 013b 01       		.uleb128 0x1
 2871 013c 12       		.uleb128 0x12
 2872 013d 06       		.uleb128 0x6
 2873 013e 00       		.byte	0
 2874 013f 00       		.byte	0
 2875 0140 18       		.uleb128 0x18
 2876 0141 2E       		.uleb128 0x2e
 2877 0142 01       		.byte	0x1
 2878 0143 3F       		.uleb128 0x3f
 2879 0144 19       		.uleb128 0x19
 2880 0145 03       		.uleb128 0x3
 2881 0146 0E       		.uleb128 0xe
 2882 0147 3A       		.uleb128 0x3a
 2883 0148 0B       		.uleb128 0xb
 2884 0149 3B       		.uleb128 0x3b
 2885 014a 05       		.uleb128 0x5
 2886 014b 27       		.uleb128 0x27
 2887 014c 19       		.uleb128 0x19
 2888 014d 11       		.uleb128 0x11
 2889 014e 01       		.uleb128 0x1
 2890 014f 12       		.uleb128 0x12
 2891 0150 06       		.uleb128 0x6
 2892 0151 40       		.uleb128 0x40
 2893 0152 18       		.uleb128 0x18
 2894 0153 9642     		.uleb128 0x2116
 2895 0155 19       		.uleb128 0x19
 2896 0156 01       		.uleb128 0x1
 2897 0157 13       		.uleb128 0x13
 2898 0158 00       		.byte	0
ARM GAS  C:\Users\Sava\AppData\Local\Temp\ccoQvwtf.s 			page 116


 2899 0159 00       		.byte	0
 2900 015a 19       		.uleb128 0x19
 2901 015b 34       		.uleb128 0x34
 2902 015c 00       		.byte	0
 2903 015d 03       		.uleb128 0x3
 2904 015e 0E       		.uleb128 0xe
 2905 015f 3A       		.uleb128 0x3a
 2906 0160 0B       		.uleb128 0xb
 2907 0161 3B       		.uleb128 0x3b
 2908 0162 05       		.uleb128 0x5
 2909 0163 49       		.uleb128 0x49
 2910 0164 13       		.uleb128 0x13
 2911 0165 02       		.uleb128 0x2
 2912 0166 18       		.uleb128 0x18
 2913 0167 00       		.byte	0
 2914 0168 00       		.byte	0
 2915 0169 1A       		.uleb128 0x1a
 2916 016a 05       		.uleb128 0x5
 2917 016b 00       		.byte	0
 2918 016c 03       		.uleb128 0x3
 2919 016d 0E       		.uleb128 0xe
 2920 016e 3A       		.uleb128 0x3a
 2921 016f 0B       		.uleb128 0xb
 2922 0170 3B       		.uleb128 0x3b
 2923 0171 05       		.uleb128 0x5
 2924 0172 49       		.uleb128 0x49
 2925 0173 13       		.uleb128 0x13
 2926 0174 02       		.uleb128 0x2
 2927 0175 18       		.uleb128 0x18
 2928 0176 00       		.byte	0
 2929 0177 00       		.byte	0
 2930 0178 1B       		.uleb128 0x1b
 2931 0179 34       		.uleb128 0x34
 2932 017a 00       		.byte	0
 2933 017b 03       		.uleb128 0x3
 2934 017c 08       		.uleb128 0x8
 2935 017d 3A       		.uleb128 0x3a
 2936 017e 0B       		.uleb128 0xb
 2937 017f 3B       		.uleb128 0x3b
 2938 0180 05       		.uleb128 0x5
 2939 0181 49       		.uleb128 0x49
 2940 0182 13       		.uleb128 0x13
 2941 0183 02       		.uleb128 0x2
 2942 0184 18       		.uleb128 0x18
 2943 0185 00       		.byte	0
 2944 0186 00       		.byte	0
 2945 0187 1C       		.uleb128 0x1c
 2946 0188 2E       		.uleb128 0x2e
 2947 0189 01       		.byte	0x1
 2948 018a 3F       		.uleb128 0x3f
 2949 018b 19       		.uleb128 0x19
 2950 018c 03       		.uleb128 0x3
 2951 018d 0E       		.uleb128 0xe
 2952 018e 3A       		.uleb128 0x3a
 2953 018f 0B       		.uleb128 0xb
 2954 0190 3B       		.uleb128 0x3b
 2955 0191 05       		.uleb128 0x5
ARM GAS  C:\Users\Sava\AppData\Local\Temp\ccoQvwtf.s 			page 117


 2956 0192 27       		.uleb128 0x27
 2957 0193 19       		.uleb128 0x19
 2958 0194 49       		.uleb128 0x49
 2959 0195 13       		.uleb128 0x13
 2960 0196 11       		.uleb128 0x11
 2961 0197 01       		.uleb128 0x1
 2962 0198 12       		.uleb128 0x12
 2963 0199 06       		.uleb128 0x6
 2964 019a 40       		.uleb128 0x40
 2965 019b 18       		.uleb128 0x18
 2966 019c 9742     		.uleb128 0x2117
 2967 019e 19       		.uleb128 0x19
 2968 019f 01       		.uleb128 0x1
 2969 01a0 13       		.uleb128 0x13
 2970 01a1 00       		.byte	0
 2971 01a2 00       		.byte	0
 2972 01a3 1D       		.uleb128 0x1d
 2973 01a4 2E       		.uleb128 0x2e
 2974 01a5 01       		.byte	0x1
 2975 01a6 03       		.uleb128 0x3
 2976 01a7 0E       		.uleb128 0xe
 2977 01a8 3A       		.uleb128 0x3a
 2978 01a9 0B       		.uleb128 0xb
 2979 01aa 3B       		.uleb128 0x3b
 2980 01ab 05       		.uleb128 0x5
 2981 01ac 27       		.uleb128 0x27
 2982 01ad 19       		.uleb128 0x19
 2983 01ae 49       		.uleb128 0x49
 2984 01af 13       		.uleb128 0x13
 2985 01b0 11       		.uleb128 0x11
 2986 01b1 01       		.uleb128 0x1
 2987 01b2 12       		.uleb128 0x12
 2988 01b3 06       		.uleb128 0x6
 2989 01b4 40       		.uleb128 0x40
 2990 01b5 18       		.uleb128 0x18
 2991 01b6 9742     		.uleb128 0x2117
 2992 01b8 19       		.uleb128 0x19
 2993 01b9 01       		.uleb128 0x1
 2994 01ba 13       		.uleb128 0x13
 2995 01bb 00       		.byte	0
 2996 01bc 00       		.byte	0
 2997 01bd 1E       		.uleb128 0x1e
 2998 01be 2E       		.uleb128 0x2e
 2999 01bf 01       		.byte	0x1
 3000 01c0 03       		.uleb128 0x3
 3001 01c1 0E       		.uleb128 0xe
 3002 01c2 3A       		.uleb128 0x3a
 3003 01c3 0B       		.uleb128 0xb
 3004 01c4 3B       		.uleb128 0x3b
 3005 01c5 05       		.uleb128 0x5
 3006 01c6 27       		.uleb128 0x27
 3007 01c7 19       		.uleb128 0x19
 3008 01c8 49       		.uleb128 0x49
 3009 01c9 13       		.uleb128 0x13
 3010 01ca 11       		.uleb128 0x11
 3011 01cb 01       		.uleb128 0x1
 3012 01cc 12       		.uleb128 0x12
ARM GAS  C:\Users\Sava\AppData\Local\Temp\ccoQvwtf.s 			page 118


 3013 01cd 06       		.uleb128 0x6
 3014 01ce 40       		.uleb128 0x40
 3015 01cf 18       		.uleb128 0x18
 3016 01d0 9642     		.uleb128 0x2116
 3017 01d2 19       		.uleb128 0x19
 3018 01d3 01       		.uleb128 0x1
 3019 01d4 13       		.uleb128 0x13
 3020 01d5 00       		.byte	0
 3021 01d6 00       		.byte	0
 3022 01d7 1F       		.uleb128 0x1f
 3023 01d8 05       		.uleb128 0x5
 3024 01d9 00       		.byte	0
 3025 01da 03       		.uleb128 0x3
 3026 01db 08       		.uleb128 0x8
 3027 01dc 3A       		.uleb128 0x3a
 3028 01dd 0B       		.uleb128 0xb
 3029 01de 3B       		.uleb128 0x3b
 3030 01df 05       		.uleb128 0x5
 3031 01e0 49       		.uleb128 0x49
 3032 01e1 13       		.uleb128 0x13
 3033 01e2 02       		.uleb128 0x2
 3034 01e3 18       		.uleb128 0x18
 3035 01e4 00       		.byte	0
 3036 01e5 00       		.byte	0
 3037 01e6 20       		.uleb128 0x20
 3038 01e7 2E       		.uleb128 0x2e
 3039 01e8 01       		.byte	0x1
 3040 01e9 03       		.uleb128 0x3
 3041 01ea 0E       		.uleb128 0xe
 3042 01eb 3A       		.uleb128 0x3a
 3043 01ec 0B       		.uleb128 0xb
 3044 01ed 3B       		.uleb128 0x3b
 3045 01ee 05       		.uleb128 0x5
 3046 01ef 27       		.uleb128 0x27
 3047 01f0 19       		.uleb128 0x19
 3048 01f1 11       		.uleb128 0x11
 3049 01f2 01       		.uleb128 0x1
 3050 01f3 12       		.uleb128 0x12
 3051 01f4 06       		.uleb128 0x6
 3052 01f5 40       		.uleb128 0x40
 3053 01f6 18       		.uleb128 0x18
 3054 01f7 9742     		.uleb128 0x2117
 3055 01f9 19       		.uleb128 0x19
 3056 01fa 01       		.uleb128 0x1
 3057 01fb 13       		.uleb128 0x13
 3058 01fc 00       		.byte	0
 3059 01fd 00       		.byte	0
 3060 01fe 00       		.byte	0
 3061              		.section	.debug_aranges,"",%progbits
 3062 0000 64000000 		.4byte	0x64
 3063 0004 0200     		.2byte	0x2
 3064 0006 00000000 		.4byte	.Ldebug_info0
 3065 000a 04       		.byte	0x4
 3066 000b 00       		.byte	0
 3067 000c 0000     		.2byte	0
 3068 000e 0000     		.2byte	0
 3069 0010 00000000 		.4byte	.LFB0
ARM GAS  C:\Users\Sava\AppData\Local\Temp\ccoQvwtf.s 			page 119


 3070 0014 3C000000 		.4byte	.LFE0-.LFB0
 3071 0018 00000000 		.4byte	.LFB1
 3072 001c 80000000 		.4byte	.LFE1-.LFB1
 3073 0020 00000000 		.4byte	.LFB2
 3074 0024 88000000 		.4byte	.LFE2-.LFB2
 3075 0028 00000000 		.4byte	.LFB3
 3076 002c B0000000 		.4byte	.LFE3-.LFB3
 3077 0030 00000000 		.4byte	.LFB4
 3078 0034 9C000000 		.4byte	.LFE4-.LFB4
 3079 0038 00000000 		.4byte	.LFB5
 3080 003c D8000000 		.4byte	.LFE5-.LFB5
 3081 0040 00000000 		.4byte	.LFB6
 3082 0044 3C000000 		.4byte	.LFE6-.LFB6
 3083 0048 00000000 		.4byte	.LFB7
 3084 004c 54000000 		.4byte	.LFE7-.LFB7
 3085 0050 00000000 		.4byte	.LFB8
 3086 0054 4E000000 		.4byte	.LFE8-.LFB8
 3087 0058 00000000 		.4byte	.LFB9
 3088 005c 9E000000 		.4byte	.LFE9-.LFB9
 3089 0060 00000000 		.4byte	0
 3090 0064 00000000 		.4byte	0
 3091              		.section	.debug_ranges,"",%progbits
 3092              	.Ldebug_ranges0:
 3093 0000 00000000 		.4byte	.LFB0
 3094 0004 3C000000 		.4byte	.LFE0
 3095 0008 00000000 		.4byte	.LFB1
 3096 000c 80000000 		.4byte	.LFE1
 3097 0010 00000000 		.4byte	.LFB2
 3098 0014 88000000 		.4byte	.LFE2
 3099 0018 00000000 		.4byte	.LFB3
 3100 001c B0000000 		.4byte	.LFE3
 3101 0020 00000000 		.4byte	.LFB4
 3102 0024 9C000000 		.4byte	.LFE4
 3103 0028 00000000 		.4byte	.LFB5
 3104 002c D8000000 		.4byte	.LFE5
 3105 0030 00000000 		.4byte	.LFB6
 3106 0034 3C000000 		.4byte	.LFE6
 3107 0038 00000000 		.4byte	.LFB7
 3108 003c 54000000 		.4byte	.LFE7
 3109 0040 00000000 		.4byte	.LFB8
 3110 0044 4E000000 		.4byte	.LFE8
 3111 0048 00000000 		.4byte	.LFB9
 3112 004c 9E000000 		.4byte	.LFE9
 3113 0050 00000000 		.4byte	0
 3114 0054 00000000 		.4byte	0
 3115              		.section	.debug_line,"",%progbits
 3116              	.Ldebug_line0:
 3117 0000 AE020000 		.section	.debug_str,"MS",%progbits,1
 3117      02003501 
 3117      00000201 
 3117      FB0E0D00 
 3117      01010101 
 3118              	.LASF26:
 3119 0000 6C765F6D 		.ascii	"lv_mem_header_t\000"
 3119      656D5F68 
 3119      65616465 
 3119      725F7400 
ARM GAS  C:\Users\Sava\AppData\Local\Temp\ccoQvwtf.s 			page 120


 3120              	.LASF53:
 3121 0010 655F6461 		.ascii	"e_data\000"
 3121      746100
 3122              	.LASF5:
 3123 0017 5F5F7569 		.ascii	"__uint8_t\000"
 3123      6E74385F 
 3123      7400
 3124              	.LASF19:
 3125 0021 75736564 		.ascii	"used_pct\000"
 3125      5F706374 
 3125      00
 3126              	.LASF50:
 3127 002a 6E657874 		.ascii	"next_e\000"
 3127      5F6500
 3128              	.LASF37:
 3129 0031 655F6E65 		.ascii	"e_next\000"
 3129      787400
 3130              	.LASF33:
 3131 0038 6C765F6D 		.ascii	"lv_mem_init\000"
 3131      656D5F69 
 3131      6E697400 
 3132              	.LASF46:
 3133 0044 6C765F6D 		.ascii	"lv_mem_monitor\000"
 3133      656D5F6D 
 3133      6F6E6974 
 3133      6F7200
 3134              	.LASF28:
 3135 0053 66697273 		.ascii	"first_data\000"
 3135      745F6461 
 3135      746100
 3136              	.LASF59:
 3137 005e 433A5C55 		.ascii	"C:\\Users\\Sava\\Documents\\PSoC Creator\\GUI_and_d"
 3137      73657273 
 3137      5C536176 
 3137      615C446F 
 3137      63756D65 
 3138 008c 6973706C 		.ascii	"isplay\\LittlevGL(5v3)_demo_ILI9341.cydsn\000"
 3138      61795C4C 
 3138      6974746C 
 3138      6576474C 
 3138      28357633 
 3139              	.LASF47:
 3140 00b5 6D6F6E5F 		.ascii	"mon_p\000"
 3140      7000
 3141              	.LASF60:
 3142 00bb 656E745F 		.ascii	"ent_trunc\000"
 3142      7472756E 
 3142      6300
 3143              	.LASF21:
 3144 00c5 6C765F6D 		.ascii	"lv_mem_monitor_t\000"
 3144      656D5F6D 
 3144      6F6E6974 
 3144      6F725F74 
 3144      00
 3145              	.LASF55:
 3146 00d6 776F726B 		.ascii	"work_mem\000"
 3146      5F6D656D 
ARM GAS  C:\Users\Sava\AppData\Local\Temp\ccoQvwtf.s 			page 121


 3146      00
 3147              	.LASF20:
 3148 00df 66726167 		.ascii	"frag_pct\000"
 3148      5F706374 
 3148      00
 3149              	.LASF32:
 3150 00e8 616C6C6F 		.ascii	"alloc\000"
 3150      6300
 3151              	.LASF14:
 3152 00ee 746F7461 		.ascii	"total_size\000"
 3152      6C5F7369 
 3152      7A6500
 3153              	.LASF36:
 3154 00f9 64617461 		.ascii	"data\000"
 3154      00
 3155              	.LASF9:
 3156 00fe 6C6F6E67 		.ascii	"long long unsigned int\000"
 3156      206C6F6E 
 3156      6720756E 
 3156      7369676E 
 3156      65642069 
 3157              	.LASF35:
 3158 0115 73697A65 		.ascii	"size\000"
 3158      00
 3159              	.LASF18:
 3160 011a 75736564 		.ascii	"used_cnt\000"
 3160      5F636E74 
 3160      00
 3161              	.LASF7:
 3162 0123 6C6F6E67 		.ascii	"long unsigned int\000"
 3162      20756E73 
 3162      69676E65 
 3162      6420696E 
 3162      7400
 3163              	.LASF11:
 3164 0135 75696E74 		.ascii	"uint8_t\000"
 3164      385F7400 
 3165              	.LASF3:
 3166 013d 73686F72 		.ascii	"short unsigned int\000"
 3166      7420756E 
 3166      7369676E 
 3166      65642069 
 3166      6E7400
 3167              	.LASF54:
 3168 0150 61667465 		.ascii	"after_new_e\000"
 3168      725F6E65 
 3168      775F6500 
 3169              	.LASF15:
 3170 015c 66726565 		.ascii	"free_cnt\000"
 3170      5F636E74 
 3170      00
 3171              	.LASF43:
 3172 0165 6E65775F 		.ascii	"new_p\000"
 3172      7000
 3173              	.LASF41:
 3174 016b 6E65775F 		.ascii	"new_size\000"
 3174      73697A65 
ARM GAS  C:\Users\Sava\AppData\Local\Temp\ccoQvwtf.s 			page 122


 3174      00
 3175              	.LASF1:
 3176 0174 756E7369 		.ascii	"unsigned char\000"
 3176      676E6564 
 3176      20636861 
 3176      7200
 3177              	.LASF45:
 3178 0182 655F6672 		.ascii	"e_free\000"
 3178      656500
 3179              	.LASF6:
 3180 0189 5F5F7569 		.ascii	"__uint32_t\000"
 3180      6E743332 
 3180      5F7400
 3181              	.LASF31:
 3182 0194 66756C6C 		.ascii	"full\000"
 3182      00
 3183              	.LASF24:
 3184 0199 75736564 		.ascii	"used\000"
 3184      00
 3185              	.LASF29:
 3186 019e 6C765F6D 		.ascii	"lv_mem_ent_t\000"
 3186      656D5F65 
 3186      6E745F74 
 3186      00
 3187              	.LASF10:
 3188 01ab 756E7369 		.ascii	"unsigned int\000"
 3188      676E6564 
 3188      20696E74 
 3188      00
 3189              	.LASF51:
 3190 01b8 656E745F 		.ascii	"ent_get_next\000"
 3190      6765745F 
 3190      6E657874 
 3190      00
 3191              	.LASF56:
 3192 01c5 7A65726F 		.ascii	"zero_mem\000"
 3192      5F6D656D 
 3192      00
 3193              	.LASF34:
 3194 01ce 6C765F6D 		.ascii	"lv_mem_free\000"
 3194      656D5F66 
 3194      72656500 
 3195              	.LASF38:
 3196 01da 6C765F6D 		.ascii	"lv_mem_alloc\000"
 3196      656D5F61 
 3196      6C6C6F63 
 3196      00
 3197              	.LASF49:
 3198 01e7 6163745F 		.ascii	"act_e\000"
 3198      6500
 3199              	.LASF27:
 3200 01ed 68656164 		.ascii	"header\000"
 3200      657200
 3201              	.LASF40:
 3202 01f4 64617461 		.ascii	"data_p\000"
 3202      5F7000
 3203              	.LASF8:
ARM GAS  C:\Users\Sava\AppData\Local\Temp\ccoQvwtf.s 			page 123


 3204 01fb 6C6F6E67 		.ascii	"long long int\000"
 3204      206C6F6E 
 3204      6720696E 
 3204      7400
 3205              	.LASF22:
 3206 0209 73697A65 		.ascii	"sizetype\000"
 3206      74797065 
 3206      00
 3207              	.LASF16:
 3208 0212 66726565 		.ascii	"free_size\000"
 3208      5F73697A 
 3208      6500
 3209              	.LASF48:
 3210 021c 6C765F6D 		.ascii	"lv_mem_get_size\000"
 3210      656D5F67 
 3210      65745F73 
 3210      697A6500 
 3211              	.LASF52:
 3212 022c 656E745F 		.ascii	"ent_alloc\000"
 3212      616C6C6F 
 3212      6300
 3213              	.LASF2:
 3214 0236 73686F72 		.ascii	"short int\000"
 3214      7420696E 
 3214      7400
 3215              	.LASF42:
 3216 0240 6F6C645F 		.ascii	"old_size\000"
 3216      73697A65 
 3216      00
 3217              	.LASF12:
 3218 0249 75696E74 		.ascii	"uint32_t\000"
 3218      33325F74 
 3218      00
 3219              	.LASF4:
 3220 0252 6C6F6E67 		.ascii	"long int\000"
 3220      20696E74 
 3220      00
 3221              	.LASF23:
 3222 025b 63686172 		.ascii	"char\000"
 3222      00
 3223              	.LASF13:
 3224 0260 6C6F6E67 		.ascii	"long double\000"
 3224      20646F75 
 3224      626C6500 
 3225              	.LASF0:
 3226 026c 7369676E 		.ascii	"signed char\000"
 3226      65642063 
 3226      68617200 
 3227              	.LASF58:
 3228 0278 6C76676C 		.ascii	"lvgl\\lv_misc\\lv_mem.c\000"
 3228      5C6C765F 
 3228      6D697363 
 3228      5C6C765F 
 3228      6D656D2E 
 3229              	.LASF17:
 3230 028e 66726565 		.ascii	"free_biggest_size\000"
 3230      5F626967 
ARM GAS  C:\Users\Sava\AppData\Local\Temp\ccoQvwtf.s 			page 124


 3230      67657374 
 3230      5F73697A 
 3230      6500
 3231              	.LASF25:
 3232 02a0 645F7369 		.ascii	"d_size\000"
 3232      7A6500
 3233              	.LASF30:
 3234 02a7 776F726B 		.ascii	"work_mem_int.4632\000"
 3234      5F6D656D 
 3234      5F696E74 
 3234      2E343633 
 3234      3200
 3235              	.LASF44:
 3236 02b9 6C765F6D 		.ascii	"lv_mem_defrag\000"
 3236      656D5F64 
 3236      65667261 
 3236      6700
 3237              	.LASF39:
 3238 02c7 6C765F6D 		.ascii	"lv_mem_realloc\000"
 3238      656D5F72 
 3238      65616C6C 
 3238      6F6300
 3239              	.LASF57:
 3240 02d6 474E5520 		.ascii	"GNU C11 5.4.1 20160609 (release) [ARM/embedded-5-br"
 3240      43313120 
 3240      352E342E 
 3240      31203230 
 3240      31363036 
 3241 0309 616E6368 		.ascii	"anch revision 237715] -mcpu=cortex-m3 -mthumb -g -O"
 3241      20726576 
 3241      6973696F 
 3241      6E203233 
 3241      37373135 
 3242 033c 30202D66 		.ascii	"0 -ffunction-sections -ffat-lto-objects -finline-fu"
 3242      66756E63 
 3242      74696F6E 
 3242      2D736563 
 3242      74696F6E 
 3243 036f 6E637469 		.ascii	"nctions -flto\000"
 3243      6F6E7320 
 3243      2D666C74 
 3243      6F00
 3244              		.comm	__gnu_lto_v1,1,1
 3245              		.ident	"GCC: (GNU Tools for ARM Embedded Processors) 5.4.1 20160609 (release) [ARM/embedded-5-bran
