ARM GAS  C:\Users\Sava\AppData\Local\Temp\ccs9rGHG.s 			page 1


   1              		.syntax unified
   2              		.cpu cortex-m3
   3              		.fpu softvfp
   4              		.eabi_attribute 20, 1
   5              		.eabi_attribute 21, 1
   6              		.eabi_attribute 23, 3
   7              		.eabi_attribute 24, 1
   8              		.eabi_attribute 25, 1
   9              		.eabi_attribute 26, 1
  10              		.eabi_attribute 30, 1
  11              		.eabi_attribute 34, 1
  12              		.eabi_attribute 18, 4
  13              		.thumb
  14              		.syntax unified
  15              		.file	"lv_test_theme.c"
  16              		.text
  17              	.Ltext0:
  18              		.cfi_sections	.debug_frame
  19              		.section	.text.create_tab1,"ax",%progbits
  20              		.align	2
  21              		.thumb
  22              		.thumb_func
  23              		.type	create_tab1, %function
  24              	create_tab1:
  25              	.LFB108:
  26              		.file 1 "lv_examples\\lv_tests\\lv_test_theme\\lv_test_theme.c"
   1:lv_examples\lv_tests\lv_test_theme/lv_test_theme.c **** /**
   2:lv_examples\lv_tests\lv_test_theme/lv_test_theme.c ****  * @file lv_test_win.c
   3:lv_examples\lv_tests\lv_test_theme/lv_test_theme.c ****  *
   4:lv_examples\lv_tests\lv_test_theme/lv_test_theme.c ****  */
   5:lv_examples\lv_tests\lv_test_theme/lv_test_theme.c **** 
   6:lv_examples\lv_tests\lv_test_theme/lv_test_theme.c **** /*********************
   7:lv_examples\lv_tests\lv_test_theme/lv_test_theme.c ****  *      INCLUDES
   8:lv_examples\lv_tests\lv_test_theme/lv_test_theme.c ****  *********************/
   9:lv_examples\lv_tests\lv_test_theme/lv_test_theme.c **** #include "lv_test_theme.h"
  10:lv_examples\lv_tests\lv_test_theme/lv_test_theme.c **** #if USE_LV_TESTS
  11:lv_examples\lv_tests\lv_test_theme/lv_test_theme.c **** 
  12:lv_examples\lv_tests\lv_test_theme/lv_test_theme.c **** /*********************
  13:lv_examples\lv_tests\lv_test_theme/lv_test_theme.c ****  *      DEFINES
  14:lv_examples\lv_tests\lv_test_theme/lv_test_theme.c ****  *********************/
  15:lv_examples\lv_tests\lv_test_theme/lv_test_theme.c **** 
  16:lv_examples\lv_tests\lv_test_theme/lv_test_theme.c **** /**********************
  17:lv_examples\lv_tests\lv_test_theme/lv_test_theme.c ****  *      TYPEDEFS
  18:lv_examples\lv_tests\lv_test_theme/lv_test_theme.c ****  **********************/
  19:lv_examples\lv_tests\lv_test_theme/lv_test_theme.c **** 
  20:lv_examples\lv_tests\lv_test_theme/lv_test_theme.c **** /**********************
  21:lv_examples\lv_tests\lv_test_theme/lv_test_theme.c ****  *  STATIC PROTOTYPES
  22:lv_examples\lv_tests\lv_test_theme/lv_test_theme.c ****  **********************/
  23:lv_examples\lv_tests\lv_test_theme/lv_test_theme.c **** static void create_tab1(lv_obj_t * parent);
  24:lv_examples\lv_tests\lv_test_theme/lv_test_theme.c **** static void create_tab2(lv_obj_t * parent);
  25:lv_examples\lv_tests\lv_test_theme/lv_test_theme.c **** static void create_tab3(lv_obj_t * parent);
  26:lv_examples\lv_tests\lv_test_theme/lv_test_theme.c **** 
  27:lv_examples\lv_tests\lv_test_theme/lv_test_theme.c **** /**********************
  28:lv_examples\lv_tests\lv_test_theme/lv_test_theme.c ****  *  STATIC VARIABLES
  29:lv_examples\lv_tests\lv_test_theme/lv_test_theme.c ****  **********************/
  30:lv_examples\lv_tests\lv_test_theme/lv_test_theme.c **** 
  31:lv_examples\lv_tests\lv_test_theme/lv_test_theme.c **** /**********************
ARM GAS  C:\Users\Sava\AppData\Local\Temp\ccs9rGHG.s 			page 2


  32:lv_examples\lv_tests\lv_test_theme/lv_test_theme.c ****  *      MACROS
  33:lv_examples\lv_tests\lv_test_theme/lv_test_theme.c ****  **********************/
  34:lv_examples\lv_tests\lv_test_theme/lv_test_theme.c **** 
  35:lv_examples\lv_tests\lv_test_theme/lv_test_theme.c **** /**********************
  36:lv_examples\lv_tests\lv_test_theme/lv_test_theme.c ****  *   GLOBAL FUNCTIONS
  37:lv_examples\lv_tests\lv_test_theme/lv_test_theme.c ****  **********************/
  38:lv_examples\lv_tests\lv_test_theme/lv_test_theme.c **** 
  39:lv_examples\lv_tests\lv_test_theme/lv_test_theme.c **** /**
  40:lv_examples\lv_tests\lv_test_theme/lv_test_theme.c ****  * Create a test screen with a lot objects and apply the given theme on them
  41:lv_examples\lv_tests\lv_test_theme/lv_test_theme.c ****  * @param th pointer to a theme
  42:lv_examples\lv_tests\lv_test_theme/lv_test_theme.c ****  */
  43:lv_examples\lv_tests\lv_test_theme/lv_test_theme.c **** void lv_test_theme(lv_theme_t * th)
  44:lv_examples\lv_tests\lv_test_theme/lv_test_theme.c **** {
  45:lv_examples\lv_tests\lv_test_theme/lv_test_theme.c ****     lv_theme_set_current(th);
  46:lv_examples\lv_tests\lv_test_theme/lv_test_theme.c ****     th = lv_theme_get_current();    /*If `LV_THEME_LIVE_UPDATE  1` `th` is not used directly so get
  47:lv_examples\lv_tests\lv_test_theme/lv_test_theme.c ****     lv_obj_t * scr = lv_cont_create(NULL, NULL);
  48:lv_examples\lv_tests\lv_test_theme/lv_test_theme.c ****     lv_scr_load(scr);
  49:lv_examples\lv_tests\lv_test_theme/lv_test_theme.c ****     lv_cont_set_style(scr, th->bg);
  50:lv_examples\lv_tests\lv_test_theme/lv_test_theme.c **** 
  51:lv_examples\lv_tests\lv_test_theme/lv_test_theme.c **** 
  52:lv_examples\lv_tests\lv_test_theme/lv_test_theme.c ****     lv_obj_t * tv = lv_tabview_create(scr, NULL);
  53:lv_examples\lv_tests\lv_test_theme/lv_test_theme.c ****     lv_obj_set_size(tv, LV_HOR_RES, LV_VER_RES);
  54:lv_examples\lv_tests\lv_test_theme/lv_test_theme.c ****     lv_obj_t * tab1 = lv_tabview_add_tab(tv, "Tab 1");
  55:lv_examples\lv_tests\lv_test_theme/lv_test_theme.c ****     lv_obj_t * tab2 = lv_tabview_add_tab(tv, "Tab 2");
  56:lv_examples\lv_tests\lv_test_theme/lv_test_theme.c ****     lv_obj_t * tab3 = lv_tabview_add_tab(tv, "Tab 3");
  57:lv_examples\lv_tests\lv_test_theme/lv_test_theme.c **** 
  58:lv_examples\lv_tests\lv_test_theme/lv_test_theme.c ****     create_tab1(tab1);
  59:lv_examples\lv_tests\lv_test_theme/lv_test_theme.c ****     create_tab2(tab2);
  60:lv_examples\lv_tests\lv_test_theme/lv_test_theme.c ****     create_tab3(tab3);
  61:lv_examples\lv_tests\lv_test_theme/lv_test_theme.c **** }
  62:lv_examples\lv_tests\lv_test_theme/lv_test_theme.c **** 
  63:lv_examples\lv_tests\lv_test_theme/lv_test_theme.c **** /**********************
  64:lv_examples\lv_tests\lv_test_theme/lv_test_theme.c ****  *   STATIC FUNCTIONS
  65:lv_examples\lv_tests\lv_test_theme/lv_test_theme.c ****  **********************/
  66:lv_examples\lv_tests\lv_test_theme/lv_test_theme.c **** static void create_tab1(lv_obj_t * parent)
  67:lv_examples\lv_tests\lv_test_theme/lv_test_theme.c **** {
  27              		.loc 1 67 0
  28              		.cfi_startproc
  29              		@ args = 0, pretend = 0, frame = 0
  30              		@ frame_needed = 0, uses_anonymous_args = 0
  31              	.LVL0:
  32 0000 2DE9F041 		push	{r4, r5, r6, r7, r8, lr}
  33              		.cfi_def_cfa_offset 24
  34              		.cfi_offset 4, -24
  35              		.cfi_offset 5, -20
  36              		.cfi_offset 6, -16
  37              		.cfi_offset 7, -12
  38              		.cfi_offset 8, -8
  39              		.cfi_offset 14, -4
  40 0004 0746     		mov	r7, r0
  41              	.LVL1:
  42              	.LBB18:
  43              	.LBB19:
  44              		.file 2 "lv_examples\\lv_tests\\lv_test_theme\\../../../lvgl/lv_objx/lv_page.h"
   1:lv_examples\lv_tests\lv_test_theme\../../../lvgl/lv_objx/lv_page.h **** /**
   2:lv_examples\lv_tests\lv_test_theme\../../../lvgl/lv_objx/lv_page.h ****  * @file lv_page.h
   3:lv_examples\lv_tests\lv_test_theme\../../../lvgl/lv_objx/lv_page.h ****  *
ARM GAS  C:\Users\Sava\AppData\Local\Temp\ccs9rGHG.s 			page 3


   4:lv_examples\lv_tests\lv_test_theme\../../../lvgl/lv_objx/lv_page.h ****  */
   5:lv_examples\lv_tests\lv_test_theme\../../../lvgl/lv_objx/lv_page.h **** 
   6:lv_examples\lv_tests\lv_test_theme\../../../lvgl/lv_objx/lv_page.h **** #ifndef LV_PAGE_H
   7:lv_examples\lv_tests\lv_test_theme\../../../lvgl/lv_objx/lv_page.h **** #define LV_PAGE_H
   8:lv_examples\lv_tests\lv_test_theme\../../../lvgl/lv_objx/lv_page.h **** 
   9:lv_examples\lv_tests\lv_test_theme\../../../lvgl/lv_objx/lv_page.h **** #ifdef __cplusplus
  10:lv_examples\lv_tests\lv_test_theme\../../../lvgl/lv_objx/lv_page.h **** extern "C" {
  11:lv_examples\lv_tests\lv_test_theme\../../../lvgl/lv_objx/lv_page.h **** #endif
  12:lv_examples\lv_tests\lv_test_theme\../../../lvgl/lv_objx/lv_page.h **** 
  13:lv_examples\lv_tests\lv_test_theme\../../../lvgl/lv_objx/lv_page.h **** /*********************
  14:lv_examples\lv_tests\lv_test_theme\../../../lvgl/lv_objx/lv_page.h ****  *      INCLUDES
  15:lv_examples\lv_tests\lv_test_theme\../../../lvgl/lv_objx/lv_page.h ****  *********************/
  16:lv_examples\lv_tests\lv_test_theme\../../../lvgl/lv_objx/lv_page.h **** #ifdef LV_CONF_INCLUDE_SIMPLE
  17:lv_examples\lv_tests\lv_test_theme\../../../lvgl/lv_objx/lv_page.h **** #include "lv_conf.h"
  18:lv_examples\lv_tests\lv_test_theme\../../../lvgl/lv_objx/lv_page.h **** #else
  19:lv_examples\lv_tests\lv_test_theme\../../../lvgl/lv_objx/lv_page.h **** #include "../../lv_conf.h"
  20:lv_examples\lv_tests\lv_test_theme\../../../lvgl/lv_objx/lv_page.h **** #endif
  21:lv_examples\lv_tests\lv_test_theme\../../../lvgl/lv_objx/lv_page.h **** 
  22:lv_examples\lv_tests\lv_test_theme\../../../lvgl/lv_objx/lv_page.h **** #if USE_LV_PAGE != 0
  23:lv_examples\lv_tests\lv_test_theme\../../../lvgl/lv_objx/lv_page.h **** 
  24:lv_examples\lv_tests\lv_test_theme\../../../lvgl/lv_objx/lv_page.h **** /*Testing of dependencies*/
  25:lv_examples\lv_tests\lv_test_theme\../../../lvgl/lv_objx/lv_page.h **** #if USE_LV_CONT == 0
  26:lv_examples\lv_tests\lv_test_theme\../../../lvgl/lv_objx/lv_page.h **** #error "lv_page: lv_cont is required. Enable it in lv_conf.h (USE_LV_CONT  1) "
  27:lv_examples\lv_tests\lv_test_theme\../../../lvgl/lv_objx/lv_page.h **** #endif
  28:lv_examples\lv_tests\lv_test_theme\../../../lvgl/lv_objx/lv_page.h **** 
  29:lv_examples\lv_tests\lv_test_theme\../../../lvgl/lv_objx/lv_page.h **** #include "lv_cont.h"
  30:lv_examples\lv_tests\lv_test_theme\../../../lvgl/lv_objx/lv_page.h **** #include "../lv_core/lv_indev.h"
  31:lv_examples\lv_tests\lv_test_theme\../../../lvgl/lv_objx/lv_page.h **** 
  32:lv_examples\lv_tests\lv_test_theme\../../../lvgl/lv_objx/lv_page.h **** /*********************
  33:lv_examples\lv_tests\lv_test_theme\../../../lvgl/lv_objx/lv_page.h ****  *      DEFINES
  34:lv_examples\lv_tests\lv_test_theme\../../../lvgl/lv_objx/lv_page.h ****  *********************/
  35:lv_examples\lv_tests\lv_test_theme\../../../lvgl/lv_objx/lv_page.h **** 
  36:lv_examples\lv_tests\lv_test_theme\../../../lvgl/lv_objx/lv_page.h **** /**********************
  37:lv_examples\lv_tests\lv_test_theme\../../../lvgl/lv_objx/lv_page.h ****  *      TYPEDEFS
  38:lv_examples\lv_tests\lv_test_theme\../../../lvgl/lv_objx/lv_page.h ****  **********************/
  39:lv_examples\lv_tests\lv_test_theme\../../../lvgl/lv_objx/lv_page.h **** 
  40:lv_examples\lv_tests\lv_test_theme\../../../lvgl/lv_objx/lv_page.h **** /*Scrollbar modes: shows when should the scrollbars be visible*/
  41:lv_examples\lv_tests\lv_test_theme\../../../lvgl/lv_objx/lv_page.h **** enum
  42:lv_examples\lv_tests\lv_test_theme\../../../lvgl/lv_objx/lv_page.h **** {
  43:lv_examples\lv_tests\lv_test_theme\../../../lvgl/lv_objx/lv_page.h ****     LV_SB_MODE_OFF  = 0x0,      /*Never show scrollbars*/
  44:lv_examples\lv_tests\lv_test_theme\../../../lvgl/lv_objx/lv_page.h ****     LV_SB_MODE_ON   = 0x1,      /*Always show scrollbars*/
  45:lv_examples\lv_tests\lv_test_theme\../../../lvgl/lv_objx/lv_page.h ****     LV_SB_MODE_DRAG = 0x2,      /*Show scrollbars when page is being dragged*/
  46:lv_examples\lv_tests\lv_test_theme\../../../lvgl/lv_objx/lv_page.h ****     LV_SB_MODE_AUTO = 0x3,      /*Show scrollbars when the scrollable container is large enough to 
  47:lv_examples\lv_tests\lv_test_theme\../../../lvgl/lv_objx/lv_page.h ****     LV_SB_MODE_HIDE = 0x4,      /*Hide the scroll bar temporally*/
  48:lv_examples\lv_tests\lv_test_theme\../../../lvgl/lv_objx/lv_page.h ****     LV_SB_MODE_UNHIDE = 0x5,    /*Unhide the previously hidden scrollbar. Recover it's type too*/
  49:lv_examples\lv_tests\lv_test_theme\../../../lvgl/lv_objx/lv_page.h **** };
  50:lv_examples\lv_tests\lv_test_theme\../../../lvgl/lv_objx/lv_page.h **** typedef uint8_t lv_sb_mode_t;
  51:lv_examples\lv_tests\lv_test_theme\../../../lvgl/lv_objx/lv_page.h **** 
  52:lv_examples\lv_tests\lv_test_theme\../../../lvgl/lv_objx/lv_page.h **** /*Data of page*/
  53:lv_examples\lv_tests\lv_test_theme\../../../lvgl/lv_objx/lv_page.h **** typedef struct
  54:lv_examples\lv_tests\lv_test_theme\../../../lvgl/lv_objx/lv_page.h **** {
  55:lv_examples\lv_tests\lv_test_theme\../../../lvgl/lv_objx/lv_page.h ****     lv_cont_ext_t bg; /*Ext. of ancestor*/
  56:lv_examples\lv_tests\lv_test_theme\../../../lvgl/lv_objx/lv_page.h ****     /*New data for this type */
  57:lv_examples\lv_tests\lv_test_theme\../../../lvgl/lv_objx/lv_page.h ****     lv_obj_t * scrl;            /*The scrollable object on the background*/
  58:lv_examples\lv_tests\lv_test_theme\../../../lvgl/lv_objx/lv_page.h ****     lv_action_t rel_action;     /*Function to call when the page is released*/
  59:lv_examples\lv_tests\lv_test_theme\../../../lvgl/lv_objx/lv_page.h ****     lv_action_t pr_action;      /*Function to call when the page is pressed*/
  60:lv_examples\lv_tests\lv_test_theme\../../../lvgl/lv_objx/lv_page.h ****     struct {
ARM GAS  C:\Users\Sava\AppData\Local\Temp\ccs9rGHG.s 			page 4


  61:lv_examples\lv_tests\lv_test_theme\../../../lvgl/lv_objx/lv_page.h ****         lv_style_t *style;          /*Style of scrollbars*/
  62:lv_examples\lv_tests\lv_test_theme\../../../lvgl/lv_objx/lv_page.h ****         lv_area_t hor_area;            /*Horizontal scrollbar area relative to the page. (Handled b
  63:lv_examples\lv_tests\lv_test_theme\../../../lvgl/lv_objx/lv_page.h ****         lv_area_t ver_area;            /*Vertical scrollbar area relative to the page (Handled by t
  64:lv_examples\lv_tests\lv_test_theme\../../../lvgl/lv_objx/lv_page.h ****         uint8_t hor_draw :1;        /*1: horizontal scrollbar is visible now (Handled by the librar
  65:lv_examples\lv_tests\lv_test_theme\../../../lvgl/lv_objx/lv_page.h ****         uint8_t ver_draw :1;        /*1: vertical scrollbar is visible now (Handled by the library)
  66:lv_examples\lv_tests\lv_test_theme\../../../lvgl/lv_objx/lv_page.h ****         lv_sb_mode_t mode:3;        /*Scrollbar visibility from 'lv_page_sb_mode_t'*/
  67:lv_examples\lv_tests\lv_test_theme\../../../lvgl/lv_objx/lv_page.h ****     } sb;
  68:lv_examples\lv_tests\lv_test_theme\../../../lvgl/lv_objx/lv_page.h ****     struct {
  69:lv_examples\lv_tests\lv_test_theme\../../../lvgl/lv_objx/lv_page.h ****         uint16_t state;  /*Store the current size of the edge flash effect*/
  70:lv_examples\lv_tests\lv_test_theme\../../../lvgl/lv_objx/lv_page.h ****         lv_style_t *style;    /*Style of edge flash effect (usually homogeneous circle)*/
  71:lv_examples\lv_tests\lv_test_theme\../../../lvgl/lv_objx/lv_page.h ****         uint8_t enabled    :1;     /*1: Show a flash animation on the edge*/
  72:lv_examples\lv_tests\lv_test_theme\../../../lvgl/lv_objx/lv_page.h ****         uint8_t top_ip     :1;     /*Used internally to show that top most position is reached (fla
  73:lv_examples\lv_tests\lv_test_theme\../../../lvgl/lv_objx/lv_page.h ****         uint8_t bottom_ip  :1;     /*Used internally to show that bottom most position is reached (
  74:lv_examples\lv_tests\lv_test_theme\../../../lvgl/lv_objx/lv_page.h ****         uint8_t right_ip   :1;     /*Used internally to show that right most position is reached (f
  75:lv_examples\lv_tests\lv_test_theme\../../../lvgl/lv_objx/lv_page.h ****         uint8_t left_ip    :1;     /*Used internally to show that left most position is reached (fl
  76:lv_examples\lv_tests\lv_test_theme\../../../lvgl/lv_objx/lv_page.h ****     }edge_flash;
  77:lv_examples\lv_tests\lv_test_theme\../../../lvgl/lv_objx/lv_page.h **** 
  78:lv_examples\lv_tests\lv_test_theme\../../../lvgl/lv_objx/lv_page.h ****     uint8_t arrow_scroll   :1;        /*1: Enable scrolling with LV_GROUP_KEY_LEFT/RIGHT/UP/DOWN*/
  79:lv_examples\lv_tests\lv_test_theme\../../../lvgl/lv_objx/lv_page.h ****     uint8_t scroll_prop    :1;        /*1: Propagate the scrolling the the parent if the edge is re
  80:lv_examples\lv_tests\lv_test_theme\../../../lvgl/lv_objx/lv_page.h ****     uint8_t scroll_prop_ip :1;        /*1: Scroll propagation is in progress (used by the library)*
  81:lv_examples\lv_tests\lv_test_theme\../../../lvgl/lv_objx/lv_page.h **** } lv_page_ext_t;
  82:lv_examples\lv_tests\lv_test_theme\../../../lvgl/lv_objx/lv_page.h **** 
  83:lv_examples\lv_tests\lv_test_theme\../../../lvgl/lv_objx/lv_page.h **** enum {
  84:lv_examples\lv_tests\lv_test_theme\../../../lvgl/lv_objx/lv_page.h ****     LV_PAGE_STYLE_BG,
  85:lv_examples\lv_tests\lv_test_theme\../../../lvgl/lv_objx/lv_page.h ****     LV_PAGE_STYLE_SCRL,
  86:lv_examples\lv_tests\lv_test_theme\../../../lvgl/lv_objx/lv_page.h ****     LV_PAGE_STYLE_SB,
  87:lv_examples\lv_tests\lv_test_theme\../../../lvgl/lv_objx/lv_page.h ****     LV_PAGE_STYLE_EDGE_FLASH,
  88:lv_examples\lv_tests\lv_test_theme\../../../lvgl/lv_objx/lv_page.h **** };
  89:lv_examples\lv_tests\lv_test_theme\../../../lvgl/lv_objx/lv_page.h **** typedef uint8_t lv_page_style_t;
  90:lv_examples\lv_tests\lv_test_theme\../../../lvgl/lv_objx/lv_page.h **** 
  91:lv_examples\lv_tests\lv_test_theme\../../../lvgl/lv_objx/lv_page.h **** /**********************
  92:lv_examples\lv_tests\lv_test_theme\../../../lvgl/lv_objx/lv_page.h ****  * GLOBAL PROTOTYPES
  93:lv_examples\lv_tests\lv_test_theme\../../../lvgl/lv_objx/lv_page.h ****  **********************/
  94:lv_examples\lv_tests\lv_test_theme\../../../lvgl/lv_objx/lv_page.h **** 
  95:lv_examples\lv_tests\lv_test_theme\../../../lvgl/lv_objx/lv_page.h **** /**
  96:lv_examples\lv_tests\lv_test_theme\../../../lvgl/lv_objx/lv_page.h ****  * Create a page objects
  97:lv_examples\lv_tests\lv_test_theme\../../../lvgl/lv_objx/lv_page.h ****  * @param par pointer to an object, it will be the parent of the new page
  98:lv_examples\lv_tests\lv_test_theme\../../../lvgl/lv_objx/lv_page.h ****  * @param copy pointer to a page object, if not NULL then the new object will be copied from it
  99:lv_examples\lv_tests\lv_test_theme\../../../lvgl/lv_objx/lv_page.h ****  * @return pointer to the created page
 100:lv_examples\lv_tests\lv_test_theme\../../../lvgl/lv_objx/lv_page.h ****  */
 101:lv_examples\lv_tests\lv_test_theme\../../../lvgl/lv_objx/lv_page.h **** lv_obj_t * lv_page_create(lv_obj_t * par, const lv_obj_t * copy);
 102:lv_examples\lv_tests\lv_test_theme\../../../lvgl/lv_objx/lv_page.h **** 
 103:lv_examples\lv_tests\lv_test_theme\../../../lvgl/lv_objx/lv_page.h **** /**
 104:lv_examples\lv_tests\lv_test_theme\../../../lvgl/lv_objx/lv_page.h ****  * Delete all children of the scrl object, without deleting scrl child.
 105:lv_examples\lv_tests\lv_test_theme\../../../lvgl/lv_objx/lv_page.h ****  * @param obj pointer to an object
 106:lv_examples\lv_tests\lv_test_theme\../../../lvgl/lv_objx/lv_page.h ****  */
 107:lv_examples\lv_tests\lv_test_theme\../../../lvgl/lv_objx/lv_page.h **** void lv_page_clean(lv_obj_t *obj);
 108:lv_examples\lv_tests\lv_test_theme\../../../lvgl/lv_objx/lv_page.h **** 
 109:lv_examples\lv_tests\lv_test_theme\../../../lvgl/lv_objx/lv_page.h **** /**
 110:lv_examples\lv_tests\lv_test_theme\../../../lvgl/lv_objx/lv_page.h ****  * Get the press action of the page
 111:lv_examples\lv_tests\lv_test_theme\../../../lvgl/lv_objx/lv_page.h ****  * @param page pointer to a page object
 112:lv_examples\lv_tests\lv_test_theme\../../../lvgl/lv_objx/lv_page.h ****  * @return a function to call when the page is pressed
 113:lv_examples\lv_tests\lv_test_theme\../../../lvgl/lv_objx/lv_page.h ****  */
 114:lv_examples\lv_tests\lv_test_theme\../../../lvgl/lv_objx/lv_page.h **** lv_action_t lv_page_get_pr_action(lv_obj_t * page);
 115:lv_examples\lv_tests\lv_test_theme\../../../lvgl/lv_objx/lv_page.h **** 
 116:lv_examples\lv_tests\lv_test_theme\../../../lvgl/lv_objx/lv_page.h **** /**
 117:lv_examples\lv_tests\lv_test_theme\../../../lvgl/lv_objx/lv_page.h ****  * Get the release action of the page
ARM GAS  C:\Users\Sava\AppData\Local\Temp\ccs9rGHG.s 			page 5


 118:lv_examples\lv_tests\lv_test_theme\../../../lvgl/lv_objx/lv_page.h ****  * @param page pointer to a page object
 119:lv_examples\lv_tests\lv_test_theme\../../../lvgl/lv_objx/lv_page.h ****  * @return a function to call when the page is released
 120:lv_examples\lv_tests\lv_test_theme\../../../lvgl/lv_objx/lv_page.h ****  */
 121:lv_examples\lv_tests\lv_test_theme\../../../lvgl/lv_objx/lv_page.h **** lv_action_t lv_page_get_rel_action(lv_obj_t * page);
 122:lv_examples\lv_tests\lv_test_theme\../../../lvgl/lv_objx/lv_page.h **** 
 123:lv_examples\lv_tests\lv_test_theme\../../../lvgl/lv_objx/lv_page.h **** /**
 124:lv_examples\lv_tests\lv_test_theme\../../../lvgl/lv_objx/lv_page.h ****  * Get the scrollable object of a page
 125:lv_examples\lv_tests\lv_test_theme\../../../lvgl/lv_objx/lv_page.h ****  * @param page pointer to a page object
 126:lv_examples\lv_tests\lv_test_theme\../../../lvgl/lv_objx/lv_page.h ****  * @return pointer to a container which is the scrollable part of the page
 127:lv_examples\lv_tests\lv_test_theme\../../../lvgl/lv_objx/lv_page.h ****  */
 128:lv_examples\lv_tests\lv_test_theme\../../../lvgl/lv_objx/lv_page.h **** lv_obj_t * lv_page_get_scrl(const lv_obj_t * page);
 129:lv_examples\lv_tests\lv_test_theme\../../../lvgl/lv_objx/lv_page.h **** 
 130:lv_examples\lv_tests\lv_test_theme\../../../lvgl/lv_objx/lv_page.h **** /*=====================
 131:lv_examples\lv_tests\lv_test_theme\../../../lvgl/lv_objx/lv_page.h ****  * Setter functions
 132:lv_examples\lv_tests\lv_test_theme\../../../lvgl/lv_objx/lv_page.h ****  *====================*/
 133:lv_examples\lv_tests\lv_test_theme\../../../lvgl/lv_objx/lv_page.h **** 
 134:lv_examples\lv_tests\lv_test_theme\../../../lvgl/lv_objx/lv_page.h **** /**
 135:lv_examples\lv_tests\lv_test_theme\../../../lvgl/lv_objx/lv_page.h ****  * Set a release action for the page
 136:lv_examples\lv_tests\lv_test_theme\../../../lvgl/lv_objx/lv_page.h ****  * @param page pointer to a page object
 137:lv_examples\lv_tests\lv_test_theme\../../../lvgl/lv_objx/lv_page.h ****  * @param rel_action a function to call when the page is released
 138:lv_examples\lv_tests\lv_test_theme\../../../lvgl/lv_objx/lv_page.h ****  */
 139:lv_examples\lv_tests\lv_test_theme\../../../lvgl/lv_objx/lv_page.h **** void lv_page_set_rel_action(lv_obj_t * page, lv_action_t rel_action);
 140:lv_examples\lv_tests\lv_test_theme\../../../lvgl/lv_objx/lv_page.h **** 
 141:lv_examples\lv_tests\lv_test_theme\../../../lvgl/lv_objx/lv_page.h **** /**
 142:lv_examples\lv_tests\lv_test_theme\../../../lvgl/lv_objx/lv_page.h ****  * Set a press action for the page
 143:lv_examples\lv_tests\lv_test_theme\../../../lvgl/lv_objx/lv_page.h ****  * @param page pointer to a page object
 144:lv_examples\lv_tests\lv_test_theme\../../../lvgl/lv_objx/lv_page.h ****  * @param pr_action a function to call when the page is pressed
 145:lv_examples\lv_tests\lv_test_theme\../../../lvgl/lv_objx/lv_page.h ****  */
 146:lv_examples\lv_tests\lv_test_theme\../../../lvgl/lv_objx/lv_page.h **** void lv_page_set_pr_action(lv_obj_t * page, lv_action_t pr_action);
 147:lv_examples\lv_tests\lv_test_theme\../../../lvgl/lv_objx/lv_page.h **** 
 148:lv_examples\lv_tests\lv_test_theme\../../../lvgl/lv_objx/lv_page.h **** /**
 149:lv_examples\lv_tests\lv_test_theme\../../../lvgl/lv_objx/lv_page.h ****  * Set the scroll bar mode on a page
 150:lv_examples\lv_tests\lv_test_theme\../../../lvgl/lv_objx/lv_page.h ****  * @param page pointer to a page object
 151:lv_examples\lv_tests\lv_test_theme\../../../lvgl/lv_objx/lv_page.h ****  * @param sb_mode the new mode from 'lv_page_sb.mode_t' enum
 152:lv_examples\lv_tests\lv_test_theme\../../../lvgl/lv_objx/lv_page.h ****  */
 153:lv_examples\lv_tests\lv_test_theme\../../../lvgl/lv_objx/lv_page.h **** void lv_page_set_sb_mode(lv_obj_t * page, lv_sb_mode_t sb_mode);
 154:lv_examples\lv_tests\lv_test_theme\../../../lvgl/lv_objx/lv_page.h **** 
 155:lv_examples\lv_tests\lv_test_theme\../../../lvgl/lv_objx/lv_page.h **** /**
 156:lv_examples\lv_tests\lv_test_theme\../../../lvgl/lv_objx/lv_page.h ****  * Enable/Disable scrolling with arrows if the page is in group (arrows: LV_GROUP_KEY_LEFT/RIGHT/UP
 157:lv_examples\lv_tests\lv_test_theme\../../../lvgl/lv_objx/lv_page.h ****  * @param page pointer to a page object
 158:lv_examples\lv_tests\lv_test_theme\../../../lvgl/lv_objx/lv_page.h ****  * @param en true: enable scrolling with arrows
 159:lv_examples\lv_tests\lv_test_theme\../../../lvgl/lv_objx/lv_page.h ****  */
 160:lv_examples\lv_tests\lv_test_theme\../../../lvgl/lv_objx/lv_page.h **** void lv_page_set_arrow_scroll(lv_obj_t * page, bool en);
 161:lv_examples\lv_tests\lv_test_theme\../../../lvgl/lv_objx/lv_page.h **** 
 162:lv_examples\lv_tests\lv_test_theme\../../../lvgl/lv_objx/lv_page.h **** /**
 163:lv_examples\lv_tests\lv_test_theme\../../../lvgl/lv_objx/lv_page.h ****  * Enable the scroll propagation feature. If enabled then the page will move its parent if there is
 164:lv_examples\lv_tests\lv_test_theme\../../../lvgl/lv_objx/lv_page.h ****  * @param page pointer to a Page
 165:lv_examples\lv_tests\lv_test_theme\../../../lvgl/lv_objx/lv_page.h ****  * @param en true or false to enable/disable scroll propagation
 166:lv_examples\lv_tests\lv_test_theme\../../../lvgl/lv_objx/lv_page.h ****  */
 167:lv_examples\lv_tests\lv_test_theme\../../../lvgl/lv_objx/lv_page.h **** void lv_page_set_scroll_propagation(lv_obj_t * page, bool en);
 168:lv_examples\lv_tests\lv_test_theme\../../../lvgl/lv_objx/lv_page.h **** 
 169:lv_examples\lv_tests\lv_test_theme\../../../lvgl/lv_objx/lv_page.h **** /**
 170:lv_examples\lv_tests\lv_test_theme\../../../lvgl/lv_objx/lv_page.h ****  * Enable the edge flash effect. (Show an arc when the an edge is reached)
 171:lv_examples\lv_tests\lv_test_theme\../../../lvgl/lv_objx/lv_page.h ****  * @param page pointer to a Page
 172:lv_examples\lv_tests\lv_test_theme\../../../lvgl/lv_objx/lv_page.h ****  * @param en true or false to enable/disable end flash
 173:lv_examples\lv_tests\lv_test_theme\../../../lvgl/lv_objx/lv_page.h ****  */
 174:lv_examples\lv_tests\lv_test_theme\../../../lvgl/lv_objx/lv_page.h **** void lv_page_set_edge_flash(lv_obj_t * page, bool en);
ARM GAS  C:\Users\Sava\AppData\Local\Temp\ccs9rGHG.s 			page 6


 175:lv_examples\lv_tests\lv_test_theme\../../../lvgl/lv_objx/lv_page.h **** 
 176:lv_examples\lv_tests\lv_test_theme\../../../lvgl/lv_objx/lv_page.h **** /**
 177:lv_examples\lv_tests\lv_test_theme\../../../lvgl/lv_objx/lv_page.h ****  * Set the fit attribute of the scrollable part of a page.
 178:lv_examples\lv_tests\lv_test_theme\../../../lvgl/lv_objx/lv_page.h ****  * It means it can set its size automatically to involve all children.
 179:lv_examples\lv_tests\lv_test_theme\../../../lvgl/lv_objx/lv_page.h ****  * (Can be set separately horizontally and vertically)
 180:lv_examples\lv_tests\lv_test_theme\../../../lvgl/lv_objx/lv_page.h ****  * @param page pointer to a page object
 181:lv_examples\lv_tests\lv_test_theme\../../../lvgl/lv_objx/lv_page.h ****  * @param hor_en true: enable horizontal fit
 182:lv_examples\lv_tests\lv_test_theme\../../../lvgl/lv_objx/lv_page.h ****  * @param ver_en true: enable vertical fit
 183:lv_examples\lv_tests\lv_test_theme\../../../lvgl/lv_objx/lv_page.h ****  */
 184:lv_examples\lv_tests\lv_test_theme\../../../lvgl/lv_objx/lv_page.h **** static inline void lv_page_set_scrl_fit(lv_obj_t *page, bool hor_en, bool ver_en)
 185:lv_examples\lv_tests\lv_test_theme\../../../lvgl/lv_objx/lv_page.h **** {
 186:lv_examples\lv_tests\lv_test_theme\../../../lvgl/lv_objx/lv_page.h ****     lv_cont_set_fit(lv_page_get_scrl(page), hor_en, ver_en);
 187:lv_examples\lv_tests\lv_test_theme\../../../lvgl/lv_objx/lv_page.h **** }
 188:lv_examples\lv_tests\lv_test_theme\../../../lvgl/lv_objx/lv_page.h **** 
 189:lv_examples\lv_tests\lv_test_theme\../../../lvgl/lv_objx/lv_page.h **** /**
 190:lv_examples\lv_tests\lv_test_theme\../../../lvgl/lv_objx/lv_page.h ****  * Set width of the scrollable part of a page
 191:lv_examples\lv_tests\lv_test_theme\../../../lvgl/lv_objx/lv_page.h ****  * @param page pointer to a page object
 192:lv_examples\lv_tests\lv_test_theme\../../../lvgl/lv_objx/lv_page.h ****  * @param w the new width of the scrollable (it ha no effect is horizontal fit is enabled)
 193:lv_examples\lv_tests\lv_test_theme\../../../lvgl/lv_objx/lv_page.h ****  */
 194:lv_examples\lv_tests\lv_test_theme\../../../lvgl/lv_objx/lv_page.h **** static inline void lv_page_set_scrl_width(lv_obj_t *page, lv_coord_t w)
 195:lv_examples\lv_tests\lv_test_theme\../../../lvgl/lv_objx/lv_page.h **** {
 196:lv_examples\lv_tests\lv_test_theme\../../../lvgl/lv_objx/lv_page.h ****     lv_obj_set_width(lv_page_get_scrl(page), w);
 197:lv_examples\lv_tests\lv_test_theme\../../../lvgl/lv_objx/lv_page.h **** }
 198:lv_examples\lv_tests\lv_test_theme\../../../lvgl/lv_objx/lv_page.h **** 
 199:lv_examples\lv_tests\lv_test_theme\../../../lvgl/lv_objx/lv_page.h **** /**
 200:lv_examples\lv_tests\lv_test_theme\../../../lvgl/lv_objx/lv_page.h ****  * Set height of the scrollable part of a page
 201:lv_examples\lv_tests\lv_test_theme\../../../lvgl/lv_objx/lv_page.h ****  * @param page pointer to a page object
 202:lv_examples\lv_tests\lv_test_theme\../../../lvgl/lv_objx/lv_page.h ****  * @param h the new height of the scrollable (it ha no effect is vertical fit is enabled)
 203:lv_examples\lv_tests\lv_test_theme\../../../lvgl/lv_objx/lv_page.h ****  */
 204:lv_examples\lv_tests\lv_test_theme\../../../lvgl/lv_objx/lv_page.h **** static inline void lv_page_set_scrl_height(lv_obj_t *page, lv_coord_t h)
 205:lv_examples\lv_tests\lv_test_theme\../../../lvgl/lv_objx/lv_page.h **** {
 206:lv_examples\lv_tests\lv_test_theme\../../../lvgl/lv_objx/lv_page.h ****     lv_obj_set_height(lv_page_get_scrl(page), h);
 207:lv_examples\lv_tests\lv_test_theme\../../../lvgl/lv_objx/lv_page.h **** 
 208:lv_examples\lv_tests\lv_test_theme\../../../lvgl/lv_objx/lv_page.h **** }
 209:lv_examples\lv_tests\lv_test_theme\../../../lvgl/lv_objx/lv_page.h **** 
 210:lv_examples\lv_tests\lv_test_theme\../../../lvgl/lv_objx/lv_page.h **** /**
 211:lv_examples\lv_tests\lv_test_theme\../../../lvgl/lv_objx/lv_page.h **** * Set the layout of the scrollable part of the page
 212:lv_examples\lv_tests\lv_test_theme\../../../lvgl/lv_objx/lv_page.h **** * @param page pointer to a page object
 213:lv_examples\lv_tests\lv_test_theme\../../../lvgl/lv_objx/lv_page.h **** * @param layout a layout from 'lv_cont_layout_t'
 214:lv_examples\lv_tests\lv_test_theme\../../../lvgl/lv_objx/lv_page.h **** */
 215:lv_examples\lv_tests\lv_test_theme\../../../lvgl/lv_objx/lv_page.h **** static inline void lv_page_set_scrl_layout(lv_obj_t * page, lv_layout_t layout)
 216:lv_examples\lv_tests\lv_test_theme\../../../lvgl/lv_objx/lv_page.h **** {
 217:lv_examples\lv_tests\lv_test_theme\../../../lvgl/lv_objx/lv_page.h ****     lv_cont_set_layout(lv_page_get_scrl(page), layout);
  45              		.loc 2 217 0
  46 0006 FFF7FEFF 		bl	lv_page_get_scrl
  47              	.LVL2:
  48 000a 0821     		movs	r1, #8
  49 000c FFF7FEFF 		bl	lv_cont_set_layout
  50              	.LVL3:
  51              	.LBE19:
  52              	.LBE18:
  68:lv_examples\lv_tests\lv_test_theme/lv_test_theme.c ****     lv_page_set_scrl_layout(parent, LV_LAYOUT_PRETTY);
  69:lv_examples\lv_tests\lv_test_theme/lv_test_theme.c **** 
  70:lv_examples\lv_tests\lv_test_theme/lv_test_theme.c ****     lv_theme_t * th = lv_theme_get_current();
  53              		.loc 1 70 0
  54 0010 FFF7FEFF 		bl	lv_theme_get_current
  55              	.LVL4:
ARM GAS  C:\Users\Sava\AppData\Local\Temp\ccs9rGHG.s 			page 7


  56 0014 0546     		mov	r5, r0
  57              	.LVL5:
  71:lv_examples\lv_tests\lv_test_theme/lv_test_theme.c **** 
  72:lv_examples\lv_tests\lv_test_theme/lv_test_theme.c ****     static lv_style_t h_style;
  73:lv_examples\lv_tests\lv_test_theme/lv_test_theme.c ****     lv_style_copy(&h_style, &lv_style_transp);
  58              		.loc 1 73 0
  59 0016 DFF85C83 		ldr	r8, .L3+124
  60 001a B74E     		ldr	r6, .L3
  61 001c 4146     		mov	r1, r8
  62 001e 3046     		mov	r0, r6
  63              	.LVL6:
  64 0020 FFF7FEFF 		bl	lv_style_copy
  65              	.LVL7:
  74:lv_examples\lv_tests\lv_test_theme/lv_test_theme.c ****     h_style.body.padding.inner = LV_DPI / 4;
  66              		.loc 1 74 0
  67 0024 1923     		movs	r3, #25
  68 0026 7383     		strh	r3, [r6, #26]	@ movhi
  75:lv_examples\lv_tests\lv_test_theme/lv_test_theme.c ****     h_style.body.padding.hor = LV_DPI / 4;
  69              		.loc 1 75 0
  70 0028 3383     		strh	r3, [r6, #24]	@ movhi
  76:lv_examples\lv_tests\lv_test_theme/lv_test_theme.c ****     h_style.body.padding.ver = LV_DPI / 6;
  71              		.loc 1 76 0
  72 002a 1023     		movs	r3, #16
  73 002c F382     		strh	r3, [r6, #22]	@ movhi
  77:lv_examples\lv_tests\lv_test_theme/lv_test_theme.c **** 
  78:lv_examples\lv_tests\lv_test_theme/lv_test_theme.c ****     lv_obj_t * h = lv_cont_create(parent, NULL);
  74              		.loc 1 78 0
  75 002e 0021     		movs	r1, #0
  76 0030 3846     		mov	r0, r7
  77 0032 FFF7FEFF 		bl	lv_cont_create
  78              	.LVL8:
  79 0036 0446     		mov	r4, r0
  80              	.LVL9:
  79:lv_examples\lv_tests\lv_test_theme/lv_test_theme.c ****     lv_obj_set_style(h, &h_style);
  81              		.loc 1 79 0
  82 0038 3146     		mov	r1, r6
  83 003a FFF7FEFF 		bl	lv_obj_set_style
  84              	.LVL10:
  80:lv_examples\lv_tests\lv_test_theme/lv_test_theme.c ****     lv_obj_set_click(h, false);
  85              		.loc 1 80 0
  86 003e 0021     		movs	r1, #0
  87 0040 2046     		mov	r0, r4
  88 0042 FFF7FEFF 		bl	lv_obj_set_click
  89              	.LVL11:
  81:lv_examples\lv_tests\lv_test_theme/lv_test_theme.c ****     lv_cont_set_fit(h, true, true);
  90              		.loc 1 81 0
  91 0046 0122     		movs	r2, #1
  92 0048 1146     		mov	r1, r2
  93 004a 2046     		mov	r0, r4
  94 004c FFF7FEFF 		bl	lv_cont_set_fit
  95              	.LVL12:
  82:lv_examples\lv_tests\lv_test_theme/lv_test_theme.c ****     lv_cont_set_layout(h, LV_LAYOUT_COL_M);
  96              		.loc 1 82 0
  97 0050 0321     		movs	r1, #3
  98 0052 2046     		mov	r0, r4
  99 0054 FFF7FEFF 		bl	lv_cont_set_layout
 100              	.LVL13:
ARM GAS  C:\Users\Sava\AppData\Local\Temp\ccs9rGHG.s 			page 8


  83:lv_examples\lv_tests\lv_test_theme/lv_test_theme.c **** 
  84:lv_examples\lv_tests\lv_test_theme/lv_test_theme.c ****     lv_obj_t * btn = lv_btn_create(h, NULL);
 101              		.loc 1 84 0
 102 0058 0021     		movs	r1, #0
 103 005a 2046     		mov	r0, r4
 104 005c FFF7FEFF 		bl	lv_btn_create
 105              	.LVL14:
 106 0060 0646     		mov	r6, r0
 107              	.LVL15:
  85:lv_examples\lv_tests\lv_test_theme/lv_test_theme.c ****     lv_btn_set_style(btn, LV_BTN_STYLE_REL, th->btn.rel);
 108              		.loc 1 85 0
 109 0062 EA68     		ldr	r2, [r5, #12]
 110 0064 0021     		movs	r1, #0
 111 0066 FFF7FEFF 		bl	lv_btn_set_style
 112              	.LVL16:
  86:lv_examples\lv_tests\lv_test_theme/lv_test_theme.c ****     lv_btn_set_style(btn, LV_BTN_STYLE_PR, th->btn.pr);
 113              		.loc 1 86 0
 114 006a 2A69     		ldr	r2, [r5, #16]
 115 006c 0121     		movs	r1, #1
 116 006e 3046     		mov	r0, r6
 117 0070 FFF7FEFF 		bl	lv_btn_set_style
 118              	.LVL17:
  87:lv_examples\lv_tests\lv_test_theme/lv_test_theme.c ****     lv_btn_set_style(btn, LV_BTN_STYLE_TGL_REL, th->btn.tgl_rel);
 119              		.loc 1 87 0
 120 0074 6A69     		ldr	r2, [r5, #20]
 121 0076 0221     		movs	r1, #2
 122 0078 3046     		mov	r0, r6
 123 007a FFF7FEFF 		bl	lv_btn_set_style
 124              	.LVL18:
  88:lv_examples\lv_tests\lv_test_theme/lv_test_theme.c ****     lv_btn_set_style(btn, LV_BTN_STYLE_TGL_PR, th->btn.tgl_pr);
 125              		.loc 1 88 0
 126 007e AA69     		ldr	r2, [r5, #24]
 127 0080 0321     		movs	r1, #3
 128 0082 3046     		mov	r0, r6
 129 0084 FFF7FEFF 		bl	lv_btn_set_style
 130              	.LVL19:
  89:lv_examples\lv_tests\lv_test_theme/lv_test_theme.c ****     lv_btn_set_style(btn, LV_BTN_STYLE_INA, th->btn.ina);
 131              		.loc 1 89 0
 132 0088 EA69     		ldr	r2, [r5, #28]
 133 008a 0421     		movs	r1, #4
 134 008c 3046     		mov	r0, r6
 135 008e FFF7FEFF 		bl	lv_btn_set_style
 136              	.LVL20:
 137              	.LBB20:
 138              	.LBB21:
 139              		.file 3 "lv_examples\\lv_tests\\lv_test_theme\\../../../lvgl/lv_objx/lv_btn.h"
   1:lv_examples\lv_tests\lv_test_theme\../../../lvgl/lv_objx/lv_btn.h **** /**
   2:lv_examples\lv_tests\lv_test_theme\../../../lvgl/lv_objx/lv_btn.h ****  * @file lv_btn.h
   3:lv_examples\lv_tests\lv_test_theme\../../../lvgl/lv_objx/lv_btn.h ****  *
   4:lv_examples\lv_tests\lv_test_theme\../../../lvgl/lv_objx/lv_btn.h ****  */
   5:lv_examples\lv_tests\lv_test_theme\../../../lvgl/lv_objx/lv_btn.h **** 
   6:lv_examples\lv_tests\lv_test_theme\../../../lvgl/lv_objx/lv_btn.h **** #ifndef LV_BTN_H
   7:lv_examples\lv_tests\lv_test_theme\../../../lvgl/lv_objx/lv_btn.h **** #define LV_BTN_H
   8:lv_examples\lv_tests\lv_test_theme\../../../lvgl/lv_objx/lv_btn.h **** 
   9:lv_examples\lv_tests\lv_test_theme\../../../lvgl/lv_objx/lv_btn.h **** #ifdef __cplusplus
  10:lv_examples\lv_tests\lv_test_theme\../../../lvgl/lv_objx/lv_btn.h **** extern "C" {
  11:lv_examples\lv_tests\lv_test_theme\../../../lvgl/lv_objx/lv_btn.h **** #endif
ARM GAS  C:\Users\Sava\AppData\Local\Temp\ccs9rGHG.s 			page 9


  12:lv_examples\lv_tests\lv_test_theme\../../../lvgl/lv_objx/lv_btn.h **** 
  13:lv_examples\lv_tests\lv_test_theme\../../../lvgl/lv_objx/lv_btn.h **** /*********************
  14:lv_examples\lv_tests\lv_test_theme\../../../lvgl/lv_objx/lv_btn.h ****  *      INCLUDES
  15:lv_examples\lv_tests\lv_test_theme\../../../lvgl/lv_objx/lv_btn.h ****  *********************/
  16:lv_examples\lv_tests\lv_test_theme\../../../lvgl/lv_objx/lv_btn.h **** #ifdef LV_CONF_INCLUDE_SIMPLE
  17:lv_examples\lv_tests\lv_test_theme\../../../lvgl/lv_objx/lv_btn.h **** #include "lv_conf.h"
  18:lv_examples\lv_tests\lv_test_theme\../../../lvgl/lv_objx/lv_btn.h **** #else
  19:lv_examples\lv_tests\lv_test_theme\../../../lvgl/lv_objx/lv_btn.h **** #include "../../lv_conf.h"
  20:lv_examples\lv_tests\lv_test_theme\../../../lvgl/lv_objx/lv_btn.h **** #endif
  21:lv_examples\lv_tests\lv_test_theme\../../../lvgl/lv_objx/lv_btn.h **** 
  22:lv_examples\lv_tests\lv_test_theme\../../../lvgl/lv_objx/lv_btn.h **** #if USE_LV_BTN != 0
  23:lv_examples\lv_tests\lv_test_theme\../../../lvgl/lv_objx/lv_btn.h **** 
  24:lv_examples\lv_tests\lv_test_theme\../../../lvgl/lv_objx/lv_btn.h **** /*Testing of dependencies*/
  25:lv_examples\lv_tests\lv_test_theme\../../../lvgl/lv_objx/lv_btn.h **** #if USE_LV_CONT == 0
  26:lv_examples\lv_tests\lv_test_theme\../../../lvgl/lv_objx/lv_btn.h **** #error "lv_btn: lv_cont is required. Enable it in lv_conf.h (USE_LV_CONT  1) "
  27:lv_examples\lv_tests\lv_test_theme\../../../lvgl/lv_objx/lv_btn.h **** #endif
  28:lv_examples\lv_tests\lv_test_theme\../../../lvgl/lv_objx/lv_btn.h **** 
  29:lv_examples\lv_tests\lv_test_theme\../../../lvgl/lv_objx/lv_btn.h **** #include "lv_cont.h"
  30:lv_examples\lv_tests\lv_test_theme\../../../lvgl/lv_objx/lv_btn.h **** #include "../lv_core/lv_indev.h"
  31:lv_examples\lv_tests\lv_test_theme\../../../lvgl/lv_objx/lv_btn.h **** 
  32:lv_examples\lv_tests\lv_test_theme\../../../lvgl/lv_objx/lv_btn.h **** /*********************
  33:lv_examples\lv_tests\lv_test_theme\../../../lvgl/lv_objx/lv_btn.h ****  *      DEFINES
  34:lv_examples\lv_tests\lv_test_theme\../../../lvgl/lv_objx/lv_btn.h ****  *********************/
  35:lv_examples\lv_tests\lv_test_theme\../../../lvgl/lv_objx/lv_btn.h **** 
  36:lv_examples\lv_tests\lv_test_theme\../../../lvgl/lv_objx/lv_btn.h **** /**********************
  37:lv_examples\lv_tests\lv_test_theme\../../../lvgl/lv_objx/lv_btn.h ****  *      TYPEDEFS
  38:lv_examples\lv_tests\lv_test_theme\../../../lvgl/lv_objx/lv_btn.h ****  **********************/
  39:lv_examples\lv_tests\lv_test_theme\../../../lvgl/lv_objx/lv_btn.h **** 
  40:lv_examples\lv_tests\lv_test_theme\../../../lvgl/lv_objx/lv_btn.h **** /* Button states
  41:lv_examples\lv_tests\lv_test_theme\../../../lvgl/lv_objx/lv_btn.h ****  * It can be used not only by buttons but other button-like objects too*/
  42:lv_examples\lv_tests\lv_test_theme\../../../lvgl/lv_objx/lv_btn.h **** enum
  43:lv_examples\lv_tests\lv_test_theme\../../../lvgl/lv_objx/lv_btn.h **** {
  44:lv_examples\lv_tests\lv_test_theme\../../../lvgl/lv_objx/lv_btn.h ****     LV_BTN_STATE_REL,
  45:lv_examples\lv_tests\lv_test_theme\../../../lvgl/lv_objx/lv_btn.h ****     LV_BTN_STATE_PR,
  46:lv_examples\lv_tests\lv_test_theme\../../../lvgl/lv_objx/lv_btn.h ****     LV_BTN_STATE_TGL_REL,
  47:lv_examples\lv_tests\lv_test_theme\../../../lvgl/lv_objx/lv_btn.h ****     LV_BTN_STATE_TGL_PR,
  48:lv_examples\lv_tests\lv_test_theme\../../../lvgl/lv_objx/lv_btn.h ****     LV_BTN_STATE_INA,
  49:lv_examples\lv_tests\lv_test_theme\../../../lvgl/lv_objx/lv_btn.h ****     LV_BTN_STATE_NUM,
  50:lv_examples\lv_tests\lv_test_theme\../../../lvgl/lv_objx/lv_btn.h **** };
  51:lv_examples\lv_tests\lv_test_theme\../../../lvgl/lv_objx/lv_btn.h **** typedef uint8_t lv_btn_state_t;
  52:lv_examples\lv_tests\lv_test_theme\../../../lvgl/lv_objx/lv_btn.h **** 
  53:lv_examples\lv_tests\lv_test_theme\../../../lvgl/lv_objx/lv_btn.h **** enum
  54:lv_examples\lv_tests\lv_test_theme\../../../lvgl/lv_objx/lv_btn.h **** {
  55:lv_examples\lv_tests\lv_test_theme\../../../lvgl/lv_objx/lv_btn.h ****     LV_BTN_ACTION_CLICK,
  56:lv_examples\lv_tests\lv_test_theme\../../../lvgl/lv_objx/lv_btn.h ****     LV_BTN_ACTION_PR,
  57:lv_examples\lv_tests\lv_test_theme\../../../lvgl/lv_objx/lv_btn.h ****     LV_BTN_ACTION_LONG_PR,
  58:lv_examples\lv_tests\lv_test_theme\../../../lvgl/lv_objx/lv_btn.h ****     LV_BTN_ACTION_LONG_PR_REPEAT,
  59:lv_examples\lv_tests\lv_test_theme\../../../lvgl/lv_objx/lv_btn.h ****     LV_BTN_ACTION_NUM,
  60:lv_examples\lv_tests\lv_test_theme\../../../lvgl/lv_objx/lv_btn.h **** };
  61:lv_examples\lv_tests\lv_test_theme\../../../lvgl/lv_objx/lv_btn.h **** typedef uint8_t lv_btn_action_t;
  62:lv_examples\lv_tests\lv_test_theme\../../../lvgl/lv_objx/lv_btn.h **** 
  63:lv_examples\lv_tests\lv_test_theme\../../../lvgl/lv_objx/lv_btn.h **** 
  64:lv_examples\lv_tests\lv_test_theme\../../../lvgl/lv_objx/lv_btn.h **** /*Data of button*/
  65:lv_examples\lv_tests\lv_test_theme\../../../lvgl/lv_objx/lv_btn.h **** typedef struct
  66:lv_examples\lv_tests\lv_test_theme\../../../lvgl/lv_objx/lv_btn.h **** {
  67:lv_examples\lv_tests\lv_test_theme\../../../lvgl/lv_objx/lv_btn.h ****     lv_cont_ext_t cont; /*Ext. of ancestor*/
  68:lv_examples\lv_tests\lv_test_theme\../../../lvgl/lv_objx/lv_btn.h ****     /*New data for this type */
ARM GAS  C:\Users\Sava\AppData\Local\Temp\ccs9rGHG.s 			page 10


  69:lv_examples\lv_tests\lv_test_theme\../../../lvgl/lv_objx/lv_btn.h ****     lv_action_t actions[LV_BTN_ACTION_NUM];
  70:lv_examples\lv_tests\lv_test_theme\../../../lvgl/lv_objx/lv_btn.h ****     lv_style_t * styles[LV_BTN_STATE_NUM];        /*Styles in each state*/
  71:lv_examples\lv_tests\lv_test_theme\../../../lvgl/lv_objx/lv_btn.h ****     lv_btn_state_t state;                         /*Current state of the button from 'lv_btn_state_
  72:lv_examples\lv_tests\lv_test_theme\../../../lvgl/lv_objx/lv_btn.h **** #if LV_BTN_INK_EFFECT
  73:lv_examples\lv_tests\lv_test_theme\../../../lvgl/lv_objx/lv_btn.h ****     uint16_t ink_in_time;                         /*[ms] Time of ink fill effect (0: disable ink ef
  74:lv_examples\lv_tests\lv_test_theme\../../../lvgl/lv_objx/lv_btn.h ****     uint16_t ink_wait_time;                       /*[ms] Wait before the ink disappears */
  75:lv_examples\lv_tests\lv_test_theme\../../../lvgl/lv_objx/lv_btn.h ****     uint16_t ink_out_time;                        /*[ms] Time of ink disappearing*/
  76:lv_examples\lv_tests\lv_test_theme\../../../lvgl/lv_objx/lv_btn.h **** #endif
  77:lv_examples\lv_tests\lv_test_theme\../../../lvgl/lv_objx/lv_btn.h ****     uint8_t toggle :1;                            /*1: Toggle enabled*/
  78:lv_examples\lv_tests\lv_test_theme\../../../lvgl/lv_objx/lv_btn.h ****     uint8_t long_pr_action_executed :1;           /*1: Long press action executed (Handled by the l
  79:lv_examples\lv_tests\lv_test_theme\../../../lvgl/lv_objx/lv_btn.h **** } lv_btn_ext_t;
  80:lv_examples\lv_tests\lv_test_theme\../../../lvgl/lv_objx/lv_btn.h **** 
  81:lv_examples\lv_tests\lv_test_theme\../../../lvgl/lv_objx/lv_btn.h **** /*Styles*/
  82:lv_examples\lv_tests\lv_test_theme\../../../lvgl/lv_objx/lv_btn.h **** enum {
  83:lv_examples\lv_tests\lv_test_theme\../../../lvgl/lv_objx/lv_btn.h ****     LV_BTN_STYLE_REL,
  84:lv_examples\lv_tests\lv_test_theme\../../../lvgl/lv_objx/lv_btn.h ****     LV_BTN_STYLE_PR,
  85:lv_examples\lv_tests\lv_test_theme\../../../lvgl/lv_objx/lv_btn.h ****     LV_BTN_STYLE_TGL_REL,
  86:lv_examples\lv_tests\lv_test_theme\../../../lvgl/lv_objx/lv_btn.h ****     LV_BTN_STYLE_TGL_PR,
  87:lv_examples\lv_tests\lv_test_theme\../../../lvgl/lv_objx/lv_btn.h ****     LV_BTN_STYLE_INA,
  88:lv_examples\lv_tests\lv_test_theme\../../../lvgl/lv_objx/lv_btn.h **** };
  89:lv_examples\lv_tests\lv_test_theme\../../../lvgl/lv_objx/lv_btn.h **** typedef uint8_t lv_btn_style_t;
  90:lv_examples\lv_tests\lv_test_theme\../../../lvgl/lv_objx/lv_btn.h **** 
  91:lv_examples\lv_tests\lv_test_theme\../../../lvgl/lv_objx/lv_btn.h **** /**********************
  92:lv_examples\lv_tests\lv_test_theme\../../../lvgl/lv_objx/lv_btn.h ****  * GLOBAL PROTOTYPES
  93:lv_examples\lv_tests\lv_test_theme\../../../lvgl/lv_objx/lv_btn.h ****  **********************/
  94:lv_examples\lv_tests\lv_test_theme\../../../lvgl/lv_objx/lv_btn.h **** 
  95:lv_examples\lv_tests\lv_test_theme\../../../lvgl/lv_objx/lv_btn.h **** /**
  96:lv_examples\lv_tests\lv_test_theme\../../../lvgl/lv_objx/lv_btn.h ****  * Create a button objects
  97:lv_examples\lv_tests\lv_test_theme\../../../lvgl/lv_objx/lv_btn.h ****  * @param par pointer to an object, it will be the parent of the new button
  98:lv_examples\lv_tests\lv_test_theme\../../../lvgl/lv_objx/lv_btn.h ****  * @param copy pointer to a button object, if not NULL then the new object will be copied from it
  99:lv_examples\lv_tests\lv_test_theme\../../../lvgl/lv_objx/lv_btn.h ****  * @return pointer to the created button
 100:lv_examples\lv_tests\lv_test_theme\../../../lvgl/lv_objx/lv_btn.h ****  */
 101:lv_examples\lv_tests\lv_test_theme\../../../lvgl/lv_objx/lv_btn.h **** lv_obj_t * lv_btn_create(lv_obj_t * par, const lv_obj_t * copy);
 102:lv_examples\lv_tests\lv_test_theme\../../../lvgl/lv_objx/lv_btn.h **** 
 103:lv_examples\lv_tests\lv_test_theme\../../../lvgl/lv_objx/lv_btn.h **** /*=====================
 104:lv_examples\lv_tests\lv_test_theme\../../../lvgl/lv_objx/lv_btn.h ****  * Setter functions
 105:lv_examples\lv_tests\lv_test_theme\../../../lvgl/lv_objx/lv_btn.h ****  *====================*/
 106:lv_examples\lv_tests\lv_test_theme\../../../lvgl/lv_objx/lv_btn.h **** 
 107:lv_examples\lv_tests\lv_test_theme\../../../lvgl/lv_objx/lv_btn.h **** /**
 108:lv_examples\lv_tests\lv_test_theme\../../../lvgl/lv_objx/lv_btn.h ****  * Enable the toggled states. On release the button will change from/to toggled state.
 109:lv_examples\lv_tests\lv_test_theme\../../../lvgl/lv_objx/lv_btn.h ****  * @param btn pointer to a button object
 110:lv_examples\lv_tests\lv_test_theme\../../../lvgl/lv_objx/lv_btn.h ****  * @param tgl true: enable toggled states, false: disable
 111:lv_examples\lv_tests\lv_test_theme\../../../lvgl/lv_objx/lv_btn.h ****  */
 112:lv_examples\lv_tests\lv_test_theme\../../../lvgl/lv_objx/lv_btn.h **** void lv_btn_set_toggle(lv_obj_t * btn, bool tgl);
 113:lv_examples\lv_tests\lv_test_theme\../../../lvgl/lv_objx/lv_btn.h **** 
 114:lv_examples\lv_tests\lv_test_theme\../../../lvgl/lv_objx/lv_btn.h **** /**
 115:lv_examples\lv_tests\lv_test_theme\../../../lvgl/lv_objx/lv_btn.h ****  * Set the state of the button
 116:lv_examples\lv_tests\lv_test_theme\../../../lvgl/lv_objx/lv_btn.h ****  * @param btn pointer to a button object
 117:lv_examples\lv_tests\lv_test_theme\../../../lvgl/lv_objx/lv_btn.h ****  * @param state the new state of the button (from lv_btn_state_t enum)
 118:lv_examples\lv_tests\lv_test_theme\../../../lvgl/lv_objx/lv_btn.h ****  */
 119:lv_examples\lv_tests\lv_test_theme\../../../lvgl/lv_objx/lv_btn.h **** void lv_btn_set_state(lv_obj_t * btn, lv_btn_state_t state);
 120:lv_examples\lv_tests\lv_test_theme\../../../lvgl/lv_objx/lv_btn.h **** 
 121:lv_examples\lv_tests\lv_test_theme\../../../lvgl/lv_objx/lv_btn.h **** /**
 122:lv_examples\lv_tests\lv_test_theme\../../../lvgl/lv_objx/lv_btn.h ****  * Toggle the state of the button (ON->OFF, OFF->ON)
 123:lv_examples\lv_tests\lv_test_theme\../../../lvgl/lv_objx/lv_btn.h ****  * @param btn pointer to a button object
 124:lv_examples\lv_tests\lv_test_theme\../../../lvgl/lv_objx/lv_btn.h ****  */
 125:lv_examples\lv_tests\lv_test_theme\../../../lvgl/lv_objx/lv_btn.h **** void lv_btn_toggle(lv_obj_t * btn);
ARM GAS  C:\Users\Sava\AppData\Local\Temp\ccs9rGHG.s 			page 11


 126:lv_examples\lv_tests\lv_test_theme\../../../lvgl/lv_objx/lv_btn.h **** 
 127:lv_examples\lv_tests\lv_test_theme\../../../lvgl/lv_objx/lv_btn.h **** /**
 128:lv_examples\lv_tests\lv_test_theme\../../../lvgl/lv_objx/lv_btn.h ****  * Set a function to call when a button event happens
 129:lv_examples\lv_tests\lv_test_theme\../../../lvgl/lv_objx/lv_btn.h ****  * @param btn pointer to a button object
 130:lv_examples\lv_tests\lv_test_theme\../../../lvgl/lv_objx/lv_btn.h ****  * @param action type of event form 'lv_action_t' (press, release, long press, long press repeat)
 131:lv_examples\lv_tests\lv_test_theme\../../../lvgl/lv_objx/lv_btn.h ****  */
 132:lv_examples\lv_tests\lv_test_theme\../../../lvgl/lv_objx/lv_btn.h **** void lv_btn_set_action(lv_obj_t * btn, lv_btn_action_t type, lv_action_t action);
 133:lv_examples\lv_tests\lv_test_theme\../../../lvgl/lv_objx/lv_btn.h **** 
 134:lv_examples\lv_tests\lv_test_theme\../../../lvgl/lv_objx/lv_btn.h **** /**
 135:lv_examples\lv_tests\lv_test_theme\../../../lvgl/lv_objx/lv_btn.h ****  * Set the layout on a button
 136:lv_examples\lv_tests\lv_test_theme\../../../lvgl/lv_objx/lv_btn.h ****  * @param btn pointer to a button object
 137:lv_examples\lv_tests\lv_test_theme\../../../lvgl/lv_objx/lv_btn.h ****  * @param layout a layout from 'lv_cont_layout_t'
 138:lv_examples\lv_tests\lv_test_theme\../../../lvgl/lv_objx/lv_btn.h ****  */
 139:lv_examples\lv_tests\lv_test_theme\../../../lvgl/lv_objx/lv_btn.h **** static inline void lv_btn_set_layout(lv_obj_t * btn, lv_layout_t layout)
 140:lv_examples\lv_tests\lv_test_theme\../../../lvgl/lv_objx/lv_btn.h **** {
 141:lv_examples\lv_tests\lv_test_theme\../../../lvgl/lv_objx/lv_btn.h ****     lv_cont_set_layout(btn, layout);
 142:lv_examples\lv_tests\lv_test_theme\../../../lvgl/lv_objx/lv_btn.h **** }
 143:lv_examples\lv_tests\lv_test_theme\../../../lvgl/lv_objx/lv_btn.h **** 
 144:lv_examples\lv_tests\lv_test_theme\../../../lvgl/lv_objx/lv_btn.h **** /**
 145:lv_examples\lv_tests\lv_test_theme\../../../lvgl/lv_objx/lv_btn.h ****  * Enable the horizontal or vertical fit.
 146:lv_examples\lv_tests\lv_test_theme\../../../lvgl/lv_objx/lv_btn.h ****  * The button size will be set to involve the children horizontally or vertically.
 147:lv_examples\lv_tests\lv_test_theme\../../../lvgl/lv_objx/lv_btn.h ****  * @param btn pointer to a button object
 148:lv_examples\lv_tests\lv_test_theme\../../../lvgl/lv_objx/lv_btn.h ****  * @param hor_en true: enable the horizontal fit
 149:lv_examples\lv_tests\lv_test_theme\../../../lvgl/lv_objx/lv_btn.h ****  * @param ver_en true: enable the vertical fit
 150:lv_examples\lv_tests\lv_test_theme\../../../lvgl/lv_objx/lv_btn.h ****  */
 151:lv_examples\lv_tests\lv_test_theme\../../../lvgl/lv_objx/lv_btn.h **** static inline void lv_btn_set_fit(lv_obj_t * btn, bool hor_en, bool ver_en)
 152:lv_examples\lv_tests\lv_test_theme\../../../lvgl/lv_objx/lv_btn.h **** {
 153:lv_examples\lv_tests\lv_test_theme\../../../lvgl/lv_objx/lv_btn.h ****     lv_cont_set_fit(btn, hor_en, ver_en);
 140              		.loc 3 153 0
 141 0092 0122     		movs	r2, #1
 142 0094 1146     		mov	r1, r2
 143 0096 3046     		mov	r0, r6
 144 0098 FFF7FEFF 		bl	lv_cont_set_fit
 145              	.LVL21:
 146              	.LBE21:
 147              	.LBE20:
  90:lv_examples\lv_tests\lv_test_theme/lv_test_theme.c ****     lv_btn_set_fit(btn, true, true);
  91:lv_examples\lv_tests\lv_test_theme/lv_test_theme.c ****     lv_btn_set_toggle(btn, true);
 148              		.loc 1 91 0
 149 009c 0121     		movs	r1, #1
 150 009e 3046     		mov	r0, r6
 151 00a0 FFF7FEFF 		bl	lv_btn_set_toggle
 152              	.LVL22:
  92:lv_examples\lv_tests\lv_test_theme/lv_test_theme.c ****     lv_obj_t * btn_label = lv_label_create(btn, NULL);
 153              		.loc 1 92 0
 154 00a4 0021     		movs	r1, #0
 155 00a6 3046     		mov	r0, r6
 156 00a8 FFF7FEFF 		bl	lv_label_create
 157              	.LVL23:
  93:lv_examples\lv_tests\lv_test_theme/lv_test_theme.c ****     lv_label_set_text(btn_label, "Button");
 158              		.loc 1 93 0
 159 00ac 9349     		ldr	r1, .L3+4
 160 00ae FFF7FEFF 		bl	lv_label_set_text
 161              	.LVL24:
  94:lv_examples\lv_tests\lv_test_theme/lv_test_theme.c **** 
  95:lv_examples\lv_tests\lv_test_theme/lv_test_theme.c ****     btn = lv_btn_create(h, btn);
 162              		.loc 1 95 0
ARM GAS  C:\Users\Sava\AppData\Local\Temp\ccs9rGHG.s 			page 12


 163 00b2 3146     		mov	r1, r6
 164 00b4 2046     		mov	r0, r4
 165 00b6 FFF7FEFF 		bl	lv_btn_create
 166              	.LVL25:
 167 00ba 0646     		mov	r6, r0
 168              	.LVL26:
  96:lv_examples\lv_tests\lv_test_theme/lv_test_theme.c ****     lv_btn_toggle(btn);
 169              		.loc 1 96 0
 170 00bc FFF7FEFF 		bl	lv_btn_toggle
 171              	.LVL27:
  97:lv_examples\lv_tests\lv_test_theme/lv_test_theme.c ****     btn_label = lv_label_create(btn, NULL);
 172              		.loc 1 97 0
 173 00c0 0021     		movs	r1, #0
 174 00c2 3046     		mov	r0, r6
 175 00c4 FFF7FEFF 		bl	lv_label_create
 176              	.LVL28:
  98:lv_examples\lv_tests\lv_test_theme/lv_test_theme.c ****     lv_label_set_text(btn_label, "Toggled");
 177              		.loc 1 98 0
 178 00c8 8D49     		ldr	r1, .L3+8
 179 00ca FFF7FEFF 		bl	lv_label_set_text
 180              	.LVL29:
  99:lv_examples\lv_tests\lv_test_theme/lv_test_theme.c **** 
 100:lv_examples\lv_tests\lv_test_theme/lv_test_theme.c ****     btn = lv_btn_create(h, btn);
 181              		.loc 1 100 0
 182 00ce 3146     		mov	r1, r6
 183 00d0 2046     		mov	r0, r4
 184 00d2 FFF7FEFF 		bl	lv_btn_create
 185              	.LVL30:
 186 00d6 0646     		mov	r6, r0
 187              	.LVL31:
 101:lv_examples\lv_tests\lv_test_theme/lv_test_theme.c ****     lv_btn_set_state(btn, LV_BTN_STATE_INA);
 188              		.loc 1 101 0
 189 00d8 0421     		movs	r1, #4
 190 00da FFF7FEFF 		bl	lv_btn_set_state
 191              	.LVL32:
 102:lv_examples\lv_tests\lv_test_theme/lv_test_theme.c ****     btn_label = lv_label_create(btn, NULL);
 192              		.loc 1 102 0
 193 00de 0021     		movs	r1, #0
 194 00e0 3046     		mov	r0, r6
 195 00e2 FFF7FEFF 		bl	lv_label_create
 196              	.LVL33:
 103:lv_examples\lv_tests\lv_test_theme/lv_test_theme.c ****     lv_label_set_text(btn_label, "Inactive");
 197              		.loc 1 103 0
 198 00e6 8749     		ldr	r1, .L3+12
 199 00e8 FFF7FEFF 		bl	lv_label_set_text
 200              	.LVL34:
 104:lv_examples\lv_tests\lv_test_theme/lv_test_theme.c **** 
 105:lv_examples\lv_tests\lv_test_theme/lv_test_theme.c ****     lv_obj_t * label = lv_label_create(h, NULL);
 201              		.loc 1 105 0
 202 00ec 0021     		movs	r1, #0
 203 00ee 2046     		mov	r0, r4
 204 00f0 FFF7FEFF 		bl	lv_label_create
 205              	.LVL35:
 206 00f4 0646     		mov	r6, r0
 207              	.LVL36:
 106:lv_examples\lv_tests\lv_test_theme/lv_test_theme.c ****     lv_label_set_text(label, "Primary");
 208              		.loc 1 106 0
ARM GAS  C:\Users\Sava\AppData\Local\Temp\ccs9rGHG.s 			page 13


 209 00f6 8449     		ldr	r1, .L3+16
 210 00f8 FFF7FEFF 		bl	lv_label_set_text
 211              	.LVL37:
 107:lv_examples\lv_tests\lv_test_theme/lv_test_theme.c ****     lv_obj_set_style(label, th->label.prim);
 212              		.loc 1 107 0
 213 00fc 696B     		ldr	r1, [r5, #52]
 214 00fe 3046     		mov	r0, r6
 215 0100 FFF7FEFF 		bl	lv_obj_set_style
 216              	.LVL38:
 108:lv_examples\lv_tests\lv_test_theme/lv_test_theme.c **** 
 109:lv_examples\lv_tests\lv_test_theme/lv_test_theme.c ****     label = lv_label_create(h, NULL);
 217              		.loc 1 109 0
 218 0104 0021     		movs	r1, #0
 219 0106 2046     		mov	r0, r4
 220 0108 FFF7FEFF 		bl	lv_label_create
 221              	.LVL39:
 222 010c 0646     		mov	r6, r0
 223              	.LVL40:
 110:lv_examples\lv_tests\lv_test_theme/lv_test_theme.c ****     lv_label_set_text(label, "Secondary");
 224              		.loc 1 110 0
 225 010e 7F49     		ldr	r1, .L3+20
 226 0110 FFF7FEFF 		bl	lv_label_set_text
 227              	.LVL41:
 111:lv_examples\lv_tests\lv_test_theme/lv_test_theme.c ****     lv_obj_set_style(label, th->label.sec);
 228              		.loc 1 111 0
 229 0114 A96B     		ldr	r1, [r5, #56]
 230 0116 3046     		mov	r0, r6
 231 0118 FFF7FEFF 		bl	lv_obj_set_style
 232              	.LVL42:
 112:lv_examples\lv_tests\lv_test_theme/lv_test_theme.c **** 
 113:lv_examples\lv_tests\lv_test_theme/lv_test_theme.c ****     label = lv_label_create(h, NULL);
 233              		.loc 1 113 0
 234 011c 0021     		movs	r1, #0
 235 011e 2046     		mov	r0, r4
 236 0120 FFF7FEFF 		bl	lv_label_create
 237              	.LVL43:
 238 0124 0646     		mov	r6, r0
 239              	.LVL44:
 114:lv_examples\lv_tests\lv_test_theme/lv_test_theme.c ****     lv_label_set_text(label, "Hint");
 240              		.loc 1 114 0
 241 0126 7A49     		ldr	r1, .L3+24
 242 0128 FFF7FEFF 		bl	lv_label_set_text
 243              	.LVL45:
 115:lv_examples\lv_tests\lv_test_theme/lv_test_theme.c ****     lv_obj_set_style(label, th->label.hint);
 244              		.loc 1 115 0
 245 012c E96B     		ldr	r1, [r5, #60]
 246 012e 3046     		mov	r0, r6
 247 0130 FFF7FEFF 		bl	lv_obj_set_style
 248              	.LVL46:
 116:lv_examples\lv_tests\lv_test_theme/lv_test_theme.c **** 
 117:lv_examples\lv_tests\lv_test_theme/lv_test_theme.c ****     static const char * btnm_str[] = {"1", "2", "3", SYMBOL_OK, SYMBOL_CLOSE, ""};
 118:lv_examples\lv_tests\lv_test_theme/lv_test_theme.c ****     lv_obj_t * btnm = lv_btnm_create(h, NULL);
 249              		.loc 1 118 0
 250 0134 0021     		movs	r1, #0
 251 0136 2046     		mov	r0, r4
 252 0138 FFF7FEFF 		bl	lv_btnm_create
 253              	.LVL47:
ARM GAS  C:\Users\Sava\AppData\Local\Temp\ccs9rGHG.s 			page 14


 254 013c 0646     		mov	r6, r0
 255              	.LVL48:
 119:lv_examples\lv_tests\lv_test_theme/lv_test_theme.c ****     lv_obj_set_size(btnm, LV_HOR_RES / 4, 2 * LV_DPI / 3);
 256              		.loc 1 119 0
 257 013e 4222     		movs	r2, #66
 258 0140 5021     		movs	r1, #80
 259 0142 FFF7FEFF 		bl	lv_obj_set_size
 260              	.LVL49:
 120:lv_examples\lv_tests\lv_test_theme/lv_test_theme.c ****     lv_btnm_set_map(btnm, btnm_str);
 261              		.loc 1 120 0
 262 0146 7349     		ldr	r1, .L3+28
 263 0148 3046     		mov	r0, r6
 264 014a FFF7FEFF 		bl	lv_btnm_set_map
 265              	.LVL50:
 121:lv_examples\lv_tests\lv_test_theme/lv_test_theme.c ****     lv_btnm_set_toggle(btnm, true, 3);
 266              		.loc 1 121 0
 267 014e 0322     		movs	r2, #3
 268 0150 0121     		movs	r1, #1
 269 0152 3046     		mov	r0, r6
 270 0154 FFF7FEFF 		bl	lv_btnm_set_toggle
 271              	.LVL51:
 122:lv_examples\lv_tests\lv_test_theme/lv_test_theme.c **** 
 123:lv_examples\lv_tests\lv_test_theme/lv_test_theme.c ****     h = lv_cont_create(parent, h);
 272              		.loc 1 123 0
 273 0158 2146     		mov	r1, r4
 274 015a 3846     		mov	r0, r7
 275 015c FFF7FEFF 		bl	lv_cont_create
 276              	.LVL52:
 277 0160 0446     		mov	r4, r0
 278              	.LVL53:
 124:lv_examples\lv_tests\lv_test_theme/lv_test_theme.c **** 
 125:lv_examples\lv_tests\lv_test_theme/lv_test_theme.c ****     lv_obj_t * sw_h = lv_cont_create(h, NULL);
 279              		.loc 1 125 0
 280 0162 0021     		movs	r1, #0
 281 0164 FFF7FEFF 		bl	lv_cont_create
 282              	.LVL54:
 283 0168 0646     		mov	r6, r0
 284              	.LVL55:
 285              	.LBB22:
 286              	.LBB23:
 287              		.file 4 "lv_examples\\lv_tests\\lv_test_theme\\../../../lvgl/lv_objx/lv_cont.h"
   1:lv_examples\lv_tests\lv_test_theme\../../../lvgl/lv_objx/lv_cont.h **** /**
   2:lv_examples\lv_tests\lv_test_theme\../../../lvgl/lv_objx/lv_cont.h ****  * @file lv_cont.h
   3:lv_examples\lv_tests\lv_test_theme\../../../lvgl/lv_objx/lv_cont.h ****  *
   4:lv_examples\lv_tests\lv_test_theme\../../../lvgl/lv_objx/lv_cont.h ****  */
   5:lv_examples\lv_tests\lv_test_theme\../../../lvgl/lv_objx/lv_cont.h **** 
   6:lv_examples\lv_tests\lv_test_theme\../../../lvgl/lv_objx/lv_cont.h **** #ifndef LV_CONT_H
   7:lv_examples\lv_tests\lv_test_theme\../../../lvgl/lv_objx/lv_cont.h **** #define LV_CONT_H
   8:lv_examples\lv_tests\lv_test_theme\../../../lvgl/lv_objx/lv_cont.h **** 
   9:lv_examples\lv_tests\lv_test_theme\../../../lvgl/lv_objx/lv_cont.h **** #ifdef __cplusplus
  10:lv_examples\lv_tests\lv_test_theme\../../../lvgl/lv_objx/lv_cont.h **** extern "C" {
  11:lv_examples\lv_tests\lv_test_theme\../../../lvgl/lv_objx/lv_cont.h **** #endif
  12:lv_examples\lv_tests\lv_test_theme\../../../lvgl/lv_objx/lv_cont.h **** 
  13:lv_examples\lv_tests\lv_test_theme\../../../lvgl/lv_objx/lv_cont.h **** /*********************
  14:lv_examples\lv_tests\lv_test_theme\../../../lvgl/lv_objx/lv_cont.h ****  *      INCLUDES
  15:lv_examples\lv_tests\lv_test_theme\../../../lvgl/lv_objx/lv_cont.h ****  *********************/
  16:lv_examples\lv_tests\lv_test_theme\../../../lvgl/lv_objx/lv_cont.h **** #ifdef LV_CONF_INCLUDE_SIMPLE
ARM GAS  C:\Users\Sava\AppData\Local\Temp\ccs9rGHG.s 			page 15


  17:lv_examples\lv_tests\lv_test_theme\../../../lvgl/lv_objx/lv_cont.h **** #include "lv_conf.h"
  18:lv_examples\lv_tests\lv_test_theme\../../../lvgl/lv_objx/lv_cont.h **** #else
  19:lv_examples\lv_tests\lv_test_theme\../../../lvgl/lv_objx/lv_cont.h **** #include "../../lv_conf.h"
  20:lv_examples\lv_tests\lv_test_theme\../../../lvgl/lv_objx/lv_cont.h **** #endif
  21:lv_examples\lv_tests\lv_test_theme\../../../lvgl/lv_objx/lv_cont.h **** 
  22:lv_examples\lv_tests\lv_test_theme\../../../lvgl/lv_objx/lv_cont.h **** #if USE_LV_CONT != 0
  23:lv_examples\lv_tests\lv_test_theme\../../../lvgl/lv_objx/lv_cont.h **** 
  24:lv_examples\lv_tests\lv_test_theme\../../../lvgl/lv_objx/lv_cont.h **** #include "../lv_core/lv_obj.h"
  25:lv_examples\lv_tests\lv_test_theme\../../../lvgl/lv_objx/lv_cont.h **** 
  26:lv_examples\lv_tests\lv_test_theme\../../../lvgl/lv_objx/lv_cont.h **** /*********************
  27:lv_examples\lv_tests\lv_test_theme\../../../lvgl/lv_objx/lv_cont.h ****  *      DEFINES
  28:lv_examples\lv_tests\lv_test_theme\../../../lvgl/lv_objx/lv_cont.h ****  *********************/
  29:lv_examples\lv_tests\lv_test_theme\../../../lvgl/lv_objx/lv_cont.h **** 
  30:lv_examples\lv_tests\lv_test_theme\../../../lvgl/lv_objx/lv_cont.h **** /**********************
  31:lv_examples\lv_tests\lv_test_theme\../../../lvgl/lv_objx/lv_cont.h ****  *      TYPEDEFS
  32:lv_examples\lv_tests\lv_test_theme\../../../lvgl/lv_objx/lv_cont.h ****  **********************/
  33:lv_examples\lv_tests\lv_test_theme\../../../lvgl/lv_objx/lv_cont.h **** 
  34:lv_examples\lv_tests\lv_test_theme\../../../lvgl/lv_objx/lv_cont.h **** /*Layout options*/
  35:lv_examples\lv_tests\lv_test_theme\../../../lvgl/lv_objx/lv_cont.h **** enum
  36:lv_examples\lv_tests\lv_test_theme\../../../lvgl/lv_objx/lv_cont.h **** {
  37:lv_examples\lv_tests\lv_test_theme\../../../lvgl/lv_objx/lv_cont.h ****     LV_LAYOUT_OFF = 0,
  38:lv_examples\lv_tests\lv_test_theme\../../../lvgl/lv_objx/lv_cont.h ****     LV_LAYOUT_CENTER,
  39:lv_examples\lv_tests\lv_test_theme\../../../lvgl/lv_objx/lv_cont.h ****     LV_LAYOUT_COL_L,    /*Column left align*/
  40:lv_examples\lv_tests\lv_test_theme\../../../lvgl/lv_objx/lv_cont.h ****     LV_LAYOUT_COL_M,    /*Column middle align*/
  41:lv_examples\lv_tests\lv_test_theme\../../../lvgl/lv_objx/lv_cont.h ****     LV_LAYOUT_COL_R,    /*Column right align*/
  42:lv_examples\lv_tests\lv_test_theme\../../../lvgl/lv_objx/lv_cont.h ****     LV_LAYOUT_ROW_T,    /*Row top align*/
  43:lv_examples\lv_tests\lv_test_theme\../../../lvgl/lv_objx/lv_cont.h ****     LV_LAYOUT_ROW_M,    /*Row middle align*/
  44:lv_examples\lv_tests\lv_test_theme\../../../lvgl/lv_objx/lv_cont.h ****     LV_LAYOUT_ROW_B,    /*Row bottom align*/
  45:lv_examples\lv_tests\lv_test_theme\../../../lvgl/lv_objx/lv_cont.h ****     LV_LAYOUT_PRETTY,   /*Put as many object as possible in row and begin a new row*/
  46:lv_examples\lv_tests\lv_test_theme\../../../lvgl/lv_objx/lv_cont.h ****     LV_LAYOUT_GRID,     /*Align same-sized object into a grid*/
  47:lv_examples\lv_tests\lv_test_theme\../../../lvgl/lv_objx/lv_cont.h **** };
  48:lv_examples\lv_tests\lv_test_theme\../../../lvgl/lv_objx/lv_cont.h **** typedef uint8_t lv_layout_t;
  49:lv_examples\lv_tests\lv_test_theme\../../../lvgl/lv_objx/lv_cont.h **** 
  50:lv_examples\lv_tests\lv_test_theme\../../../lvgl/lv_objx/lv_cont.h **** typedef struct
  51:lv_examples\lv_tests\lv_test_theme\../../../lvgl/lv_objx/lv_cont.h **** {
  52:lv_examples\lv_tests\lv_test_theme\../../../lvgl/lv_objx/lv_cont.h ****     /*Inherited from 'base_obj' so no inherited ext. */ /*Ext. of ancestor*/
  53:lv_examples\lv_tests\lv_test_theme\../../../lvgl/lv_objx/lv_cont.h ****     /*New data for this type */
  54:lv_examples\lv_tests\lv_test_theme\../../../lvgl/lv_objx/lv_cont.h ****     uint8_t layout  :4;     /*A layout from 'lv_cont_layout_t' enum*/
  55:lv_examples\lv_tests\lv_test_theme\../../../lvgl/lv_objx/lv_cont.h ****     uint8_t hor_fit :1;     /*1: Enable horizontal fit to involve all children*/
  56:lv_examples\lv_tests\lv_test_theme\../../../lvgl/lv_objx/lv_cont.h ****     uint8_t ver_fit :1;     /*1: Enable horizontal fit to involve all children*/
  57:lv_examples\lv_tests\lv_test_theme\../../../lvgl/lv_objx/lv_cont.h **** } lv_cont_ext_t;
  58:lv_examples\lv_tests\lv_test_theme\../../../lvgl/lv_objx/lv_cont.h **** 
  59:lv_examples\lv_tests\lv_test_theme\../../../lvgl/lv_objx/lv_cont.h **** 
  60:lv_examples\lv_tests\lv_test_theme\../../../lvgl/lv_objx/lv_cont.h **** /**********************
  61:lv_examples\lv_tests\lv_test_theme\../../../lvgl/lv_objx/lv_cont.h ****  * GLOBAL PROTOTYPES
  62:lv_examples\lv_tests\lv_test_theme\../../../lvgl/lv_objx/lv_cont.h ****  **********************/
  63:lv_examples\lv_tests\lv_test_theme\../../../lvgl/lv_objx/lv_cont.h **** 
  64:lv_examples\lv_tests\lv_test_theme\../../../lvgl/lv_objx/lv_cont.h **** /**
  65:lv_examples\lv_tests\lv_test_theme\../../../lvgl/lv_objx/lv_cont.h ****  * Create a container objects
  66:lv_examples\lv_tests\lv_test_theme\../../../lvgl/lv_objx/lv_cont.h ****  * @param par pointer to an object, it will be the parent of the new container
  67:lv_examples\lv_tests\lv_test_theme\../../../lvgl/lv_objx/lv_cont.h ****  * @param copy pointer to a container object, if not NULL then the new object will be copied from i
  68:lv_examples\lv_tests\lv_test_theme\../../../lvgl/lv_objx/lv_cont.h ****  * @return pointer to the created container
  69:lv_examples\lv_tests\lv_test_theme\../../../lvgl/lv_objx/lv_cont.h ****  */
  70:lv_examples\lv_tests\lv_test_theme\../../../lvgl/lv_objx/lv_cont.h **** lv_obj_t * lv_cont_create(lv_obj_t * par, const lv_obj_t * copy);
  71:lv_examples\lv_tests\lv_test_theme\../../../lvgl/lv_objx/lv_cont.h **** 
  72:lv_examples\lv_tests\lv_test_theme\../../../lvgl/lv_objx/lv_cont.h **** /*=====================
  73:lv_examples\lv_tests\lv_test_theme\../../../lvgl/lv_objx/lv_cont.h ****  * Setter functions
ARM GAS  C:\Users\Sava\AppData\Local\Temp\ccs9rGHG.s 			page 16


  74:lv_examples\lv_tests\lv_test_theme\../../../lvgl/lv_objx/lv_cont.h ****  *====================*/
  75:lv_examples\lv_tests\lv_test_theme\../../../lvgl/lv_objx/lv_cont.h **** 
  76:lv_examples\lv_tests\lv_test_theme\../../../lvgl/lv_objx/lv_cont.h **** /**
  77:lv_examples\lv_tests\lv_test_theme\../../../lvgl/lv_objx/lv_cont.h ****  * Set a layout on a container
  78:lv_examples\lv_tests\lv_test_theme\../../../lvgl/lv_objx/lv_cont.h ****  * @param cont pointer to a container object
  79:lv_examples\lv_tests\lv_test_theme\../../../lvgl/lv_objx/lv_cont.h ****  * @param layout a layout from 'lv_cont_layout_t'
  80:lv_examples\lv_tests\lv_test_theme\../../../lvgl/lv_objx/lv_cont.h ****  */
  81:lv_examples\lv_tests\lv_test_theme\../../../lvgl/lv_objx/lv_cont.h **** void lv_cont_set_layout(lv_obj_t * cont, lv_layout_t layout);
  82:lv_examples\lv_tests\lv_test_theme\../../../lvgl/lv_objx/lv_cont.h **** 
  83:lv_examples\lv_tests\lv_test_theme\../../../lvgl/lv_objx/lv_cont.h **** 
  84:lv_examples\lv_tests\lv_test_theme\../../../lvgl/lv_objx/lv_cont.h **** /**
  85:lv_examples\lv_tests\lv_test_theme\../../../lvgl/lv_objx/lv_cont.h ****  * Enable the horizontal or vertical fit.
  86:lv_examples\lv_tests\lv_test_theme\../../../lvgl/lv_objx/lv_cont.h ****  * The container size will be set to involve the children horizontally or vertically.
  87:lv_examples\lv_tests\lv_test_theme\../../../lvgl/lv_objx/lv_cont.h ****  * @param cont pointer to a container object
  88:lv_examples\lv_tests\lv_test_theme\../../../lvgl/lv_objx/lv_cont.h ****  * @param hor_en true: enable the horizontal fit
  89:lv_examples\lv_tests\lv_test_theme\../../../lvgl/lv_objx/lv_cont.h ****  * @param ver_en true: enable the vertical fit
  90:lv_examples\lv_tests\lv_test_theme\../../../lvgl/lv_objx/lv_cont.h ****  */
  91:lv_examples\lv_tests\lv_test_theme\../../../lvgl/lv_objx/lv_cont.h **** void lv_cont_set_fit(lv_obj_t * cont, bool hor_en, bool ver_en);
  92:lv_examples\lv_tests\lv_test_theme\../../../lvgl/lv_objx/lv_cont.h **** 
  93:lv_examples\lv_tests\lv_test_theme\../../../lvgl/lv_objx/lv_cont.h **** /**
  94:lv_examples\lv_tests\lv_test_theme\../../../lvgl/lv_objx/lv_cont.h ****  * Set the style of a container
  95:lv_examples\lv_tests\lv_test_theme\../../../lvgl/lv_objx/lv_cont.h ****  * @param cont pointer to a container object
  96:lv_examples\lv_tests\lv_test_theme\../../../lvgl/lv_objx/lv_cont.h ****  * @param style pointer to the new style
  97:lv_examples\lv_tests\lv_test_theme\../../../lvgl/lv_objx/lv_cont.h ****  */
  98:lv_examples\lv_tests\lv_test_theme\../../../lvgl/lv_objx/lv_cont.h **** static inline void lv_cont_set_style(lv_obj_t *cont, lv_style_t * style)
  99:lv_examples\lv_tests\lv_test_theme\../../../lvgl/lv_objx/lv_cont.h **** {
 100:lv_examples\lv_tests\lv_test_theme\../../../lvgl/lv_objx/lv_cont.h ****     lv_obj_set_style(cont, style);
 288              		.loc 4 100 0
 289 016a 4146     		mov	r1, r8
 290 016c FFF7FEFF 		bl	lv_obj_set_style
 291              	.LVL56:
 292              	.LBE23:
 293              	.LBE22:
 126:lv_examples\lv_tests\lv_test_theme/lv_test_theme.c ****     lv_cont_set_style(sw_h, &lv_style_transp);
 127:lv_examples\lv_tests\lv_test_theme/lv_test_theme.c ****     lv_cont_set_fit(sw_h, false, true);
 294              		.loc 1 127 0
 295 0170 0122     		movs	r2, #1
 296 0172 0021     		movs	r1, #0
 297 0174 3046     		mov	r0, r6
 298 0176 FFF7FEFF 		bl	lv_cont_set_fit
 299              	.LVL57:
 128:lv_examples\lv_tests\lv_test_theme/lv_test_theme.c ****     lv_obj_set_width(sw_h, LV_HOR_RES / 4);
 300              		.loc 1 128 0
 301 017a 5021     		movs	r1, #80
 302 017c 3046     		mov	r0, r6
 303 017e FFF7FEFF 		bl	lv_obj_set_width
 304              	.LVL58:
 129:lv_examples\lv_tests\lv_test_theme/lv_test_theme.c ****     lv_cont_set_layout(sw_h, LV_LAYOUT_PRETTY);
 305              		.loc 1 129 0
 306 0182 0821     		movs	r1, #8
 307 0184 3046     		mov	r0, r6
 308 0186 FFF7FEFF 		bl	lv_cont_set_layout
 309              	.LVL59:
 130:lv_examples\lv_tests\lv_test_theme/lv_test_theme.c **** 
 131:lv_examples\lv_tests\lv_test_theme/lv_test_theme.c ****     lv_obj_t * sw = lv_sw_create(sw_h, NULL);
 310              		.loc 1 131 0
 311 018a 0021     		movs	r1, #0
ARM GAS  C:\Users\Sava\AppData\Local\Temp\ccs9rGHG.s 			page 17


 312 018c 3046     		mov	r0, r6
 313 018e FFF7FEFF 		bl	lv_sw_create
 314              	.LVL60:
 132:lv_examples\lv_tests\lv_test_theme/lv_test_theme.c **** 
 133:lv_examples\lv_tests\lv_test_theme/lv_test_theme.c ****     sw = lv_sw_create(sw_h, sw);
 315              		.loc 1 133 0
 316 0192 0146     		mov	r1, r0
 317 0194 3046     		mov	r0, r6
 318              	.LVL61:
 319 0196 FFF7FEFF 		bl	lv_sw_create
 320              	.LVL62:
 134:lv_examples\lv_tests\lv_test_theme/lv_test_theme.c ****     lv_sw_on(sw);
 321              		.loc 1 134 0
 322 019a FFF7FEFF 		bl	lv_sw_on
 323              	.LVL63:
 135:lv_examples\lv_tests\lv_test_theme/lv_test_theme.c **** 
 136:lv_examples\lv_tests\lv_test_theme/lv_test_theme.c ****     lv_obj_t * bar = lv_bar_create(h, NULL);
 324              		.loc 1 136 0
 325 019e 0021     		movs	r1, #0
 326 01a0 2046     		mov	r0, r4
 327 01a2 FFF7FEFF 		bl	lv_bar_create
 328              	.LVL64:
 137:lv_examples\lv_tests\lv_test_theme/lv_test_theme.c ****     lv_bar_set_value(bar, 70);
 329              		.loc 1 137 0
 330 01a6 4621     		movs	r1, #70
 331 01a8 FFF7FEFF 		bl	lv_bar_set_value
 332              	.LVL65:
 138:lv_examples\lv_tests\lv_test_theme/lv_test_theme.c **** 
 139:lv_examples\lv_tests\lv_test_theme/lv_test_theme.c ****     lv_obj_t * slider = lv_slider_create(h, NULL);
 333              		.loc 1 139 0
 334 01ac 0021     		movs	r1, #0
 335 01ae 2046     		mov	r0, r4
 336 01b0 FFF7FEFF 		bl	lv_slider_create
 337              	.LVL66:
 140:lv_examples\lv_tests\lv_test_theme/lv_test_theme.c ****     lv_bar_set_value(slider, 70);
 338              		.loc 1 140 0
 339 01b4 4621     		movs	r1, #70
 340 01b6 FFF7FEFF 		bl	lv_bar_set_value
 341              	.LVL67:
 141:lv_examples\lv_tests\lv_test_theme/lv_test_theme.c **** 
 142:lv_examples\lv_tests\lv_test_theme/lv_test_theme.c ****     lv_obj_t * line = lv_line_create(h, NULL);
 342              		.loc 1 142 0
 343 01ba 0021     		movs	r1, #0
 344 01bc 2046     		mov	r0, r4
 345 01be FFF7FEFF 		bl	lv_line_create
 346              	.LVL68:
 347 01c2 0646     		mov	r6, r0
 348              	.LVL69:
 143:lv_examples\lv_tests\lv_test_theme/lv_test_theme.c ****     static const lv_point_t line_p[] = {{0, 0}, {LV_HOR_RES / 5, 0}};
 144:lv_examples\lv_tests\lv_test_theme/lv_test_theme.c ****     lv_line_set_points(line, line_p, 2);
 349              		.loc 1 144 0
 350 01c4 0222     		movs	r2, #2
 351 01c6 5449     		ldr	r1, .L3+32
 352 01c8 FFF7FEFF 		bl	lv_line_set_points
 353              	.LVL70:
 354              	.LBB24:
 355              	.LBB25:
ARM GAS  C:\Users\Sava\AppData\Local\Temp\ccs9rGHG.s 			page 18


 356              		.file 5 "lv_examples\\lv_tests\\lv_test_theme\\../../../lvgl/lv_objx/lv_line.h"
   1:lv_examples\lv_tests\lv_test_theme\../../../lvgl/lv_objx/lv_line.h **** /**
   2:lv_examples\lv_tests\lv_test_theme\../../../lvgl/lv_objx/lv_line.h ****  * @file lv_line.h
   3:lv_examples\lv_tests\lv_test_theme\../../../lvgl/lv_objx/lv_line.h ****  *
   4:lv_examples\lv_tests\lv_test_theme\../../../lvgl/lv_objx/lv_line.h ****  */
   5:lv_examples\lv_tests\lv_test_theme\../../../lvgl/lv_objx/lv_line.h **** 
   6:lv_examples\lv_tests\lv_test_theme\../../../lvgl/lv_objx/lv_line.h **** #ifndef LV_LINE_H
   7:lv_examples\lv_tests\lv_test_theme\../../../lvgl/lv_objx/lv_line.h **** #define LV_LINE_H
   8:lv_examples\lv_tests\lv_test_theme\../../../lvgl/lv_objx/lv_line.h **** 
   9:lv_examples\lv_tests\lv_test_theme\../../../lvgl/lv_objx/lv_line.h **** #ifdef __cplusplus
  10:lv_examples\lv_tests\lv_test_theme\../../../lvgl/lv_objx/lv_line.h **** extern "C" {
  11:lv_examples\lv_tests\lv_test_theme\../../../lvgl/lv_objx/lv_line.h **** #endif
  12:lv_examples\lv_tests\lv_test_theme\../../../lvgl/lv_objx/lv_line.h **** 
  13:lv_examples\lv_tests\lv_test_theme\../../../lvgl/lv_objx/lv_line.h **** /*********************
  14:lv_examples\lv_tests\lv_test_theme\../../../lvgl/lv_objx/lv_line.h ****  *      INCLUDES
  15:lv_examples\lv_tests\lv_test_theme\../../../lvgl/lv_objx/lv_line.h ****  *********************/
  16:lv_examples\lv_tests\lv_test_theme\../../../lvgl/lv_objx/lv_line.h **** #ifdef LV_CONF_INCLUDE_SIMPLE
  17:lv_examples\lv_tests\lv_test_theme\../../../lvgl/lv_objx/lv_line.h **** #include "lv_conf.h"
  18:lv_examples\lv_tests\lv_test_theme\../../../lvgl/lv_objx/lv_line.h **** #else
  19:lv_examples\lv_tests\lv_test_theme\../../../lvgl/lv_objx/lv_line.h **** #include "../../lv_conf.h"
  20:lv_examples\lv_tests\lv_test_theme\../../../lvgl/lv_objx/lv_line.h **** #endif
  21:lv_examples\lv_tests\lv_test_theme\../../../lvgl/lv_objx/lv_line.h **** 
  22:lv_examples\lv_tests\lv_test_theme\../../../lvgl/lv_objx/lv_line.h **** #if USE_LV_LINE != 0
  23:lv_examples\lv_tests\lv_test_theme\../../../lvgl/lv_objx/lv_line.h **** 
  24:lv_examples\lv_tests\lv_test_theme\../../../lvgl/lv_objx/lv_line.h **** #include "../lv_core/lv_obj.h"
  25:lv_examples\lv_tests\lv_test_theme\../../../lvgl/lv_objx/lv_line.h **** 
  26:lv_examples\lv_tests\lv_test_theme\../../../lvgl/lv_objx/lv_line.h **** /*********************
  27:lv_examples\lv_tests\lv_test_theme\../../../lvgl/lv_objx/lv_line.h ****  *      DEFINES
  28:lv_examples\lv_tests\lv_test_theme\../../../lvgl/lv_objx/lv_line.h ****  *********************/
  29:lv_examples\lv_tests\lv_test_theme\../../../lvgl/lv_objx/lv_line.h **** 
  30:lv_examples\lv_tests\lv_test_theme\../../../lvgl/lv_objx/lv_line.h **** /**********************
  31:lv_examples\lv_tests\lv_test_theme\../../../lvgl/lv_objx/lv_line.h ****  *      TYPEDEFS
  32:lv_examples\lv_tests\lv_test_theme\../../../lvgl/lv_objx/lv_line.h ****  **********************/
  33:lv_examples\lv_tests\lv_test_theme\../../../lvgl/lv_objx/lv_line.h **** 
  34:lv_examples\lv_tests\lv_test_theme\../../../lvgl/lv_objx/lv_line.h **** /*Data of line*/
  35:lv_examples\lv_tests\lv_test_theme\../../../lvgl/lv_objx/lv_line.h **** typedef struct
  36:lv_examples\lv_tests\lv_test_theme\../../../lvgl/lv_objx/lv_line.h **** {
  37:lv_examples\lv_tests\lv_test_theme\../../../lvgl/lv_objx/lv_line.h ****     /*Inherited from 'base_obj' so no inherited ext.*/  /*Ext. of ancestor*/
  38:lv_examples\lv_tests\lv_test_theme\../../../lvgl/lv_objx/lv_line.h ****     const lv_point_t * point_array;    /*Pointer to an array with the points of the line*/
  39:lv_examples\lv_tests\lv_test_theme\../../../lvgl/lv_objx/lv_line.h ****     uint16_t  point_num;            /*Number of points in 'point_array' */
  40:lv_examples\lv_tests\lv_test_theme\../../../lvgl/lv_objx/lv_line.h ****     uint8_t  auto_size  :1;         /*1: set obj. width to x max and obj. height to y max */
  41:lv_examples\lv_tests\lv_test_theme\../../../lvgl/lv_objx/lv_line.h ****     uint8_t  y_inv      :1;         /*1: y == 0 will be on the bottom*/
  42:lv_examples\lv_tests\lv_test_theme\../../../lvgl/lv_objx/lv_line.h **** } lv_line_ext_t;
  43:lv_examples\lv_tests\lv_test_theme\../../../lvgl/lv_objx/lv_line.h **** 
  44:lv_examples\lv_tests\lv_test_theme\../../../lvgl/lv_objx/lv_line.h **** /**********************
  45:lv_examples\lv_tests\lv_test_theme\../../../lvgl/lv_objx/lv_line.h ****  * GLOBAL PROTOTYPES
  46:lv_examples\lv_tests\lv_test_theme\../../../lvgl/lv_objx/lv_line.h ****  **********************/
  47:lv_examples\lv_tests\lv_test_theme\../../../lvgl/lv_objx/lv_line.h **** 
  48:lv_examples\lv_tests\lv_test_theme\../../../lvgl/lv_objx/lv_line.h **** 
  49:lv_examples\lv_tests\lv_test_theme\../../../lvgl/lv_objx/lv_line.h **** /**
  50:lv_examples\lv_tests\lv_test_theme\../../../lvgl/lv_objx/lv_line.h ****  * Create a line objects
  51:lv_examples\lv_tests\lv_test_theme\../../../lvgl/lv_objx/lv_line.h ****  * @param par pointer to an object, it will be the parent of the new line
  52:lv_examples\lv_tests\lv_test_theme\../../../lvgl/lv_objx/lv_line.h ****  * @return pointer to the created line
  53:lv_examples\lv_tests\lv_test_theme\../../../lvgl/lv_objx/lv_line.h ****  */
  54:lv_examples\lv_tests\lv_test_theme\../../../lvgl/lv_objx/lv_line.h **** lv_obj_t * lv_line_create(lv_obj_t * par, const lv_obj_t * copy);
  55:lv_examples\lv_tests\lv_test_theme\../../../lvgl/lv_objx/lv_line.h **** 
  56:lv_examples\lv_tests\lv_test_theme\../../../lvgl/lv_objx/lv_line.h **** /*=====================
ARM GAS  C:\Users\Sava\AppData\Local\Temp\ccs9rGHG.s 			page 19


  57:lv_examples\lv_tests\lv_test_theme\../../../lvgl/lv_objx/lv_line.h ****  * Setter functions
  58:lv_examples\lv_tests\lv_test_theme\../../../lvgl/lv_objx/lv_line.h ****  *====================*/
  59:lv_examples\lv_tests\lv_test_theme\../../../lvgl/lv_objx/lv_line.h **** 
  60:lv_examples\lv_tests\lv_test_theme\../../../lvgl/lv_objx/lv_line.h **** /**
  61:lv_examples\lv_tests\lv_test_theme\../../../lvgl/lv_objx/lv_line.h ****  * Set an array of points. The line object will connect these points.
  62:lv_examples\lv_tests\lv_test_theme\../../../lvgl/lv_objx/lv_line.h ****  * @param line pointer to a line object
  63:lv_examples\lv_tests\lv_test_theme\../../../lvgl/lv_objx/lv_line.h ****  * @param point_a an array of points. Only the address is saved,
  64:lv_examples\lv_tests\lv_test_theme\../../../lvgl/lv_objx/lv_line.h ****  * so the array can NOT be a local variable which will be destroyed
  65:lv_examples\lv_tests\lv_test_theme\../../../lvgl/lv_objx/lv_line.h ****  * @param point_num number of points in 'point_a'
  66:lv_examples\lv_tests\lv_test_theme\../../../lvgl/lv_objx/lv_line.h ****  */
  67:lv_examples\lv_tests\lv_test_theme\../../../lvgl/lv_objx/lv_line.h **** void lv_line_set_points(lv_obj_t * line, const lv_point_t * point_a, uint16_t point_num);
  68:lv_examples\lv_tests\lv_test_theme\../../../lvgl/lv_objx/lv_line.h **** 
  69:lv_examples\lv_tests\lv_test_theme\../../../lvgl/lv_objx/lv_line.h **** /**
  70:lv_examples\lv_tests\lv_test_theme\../../../lvgl/lv_objx/lv_line.h ****  * Enable (or disable) the auto-size option. The size of the object will fit to its points.
  71:lv_examples\lv_tests\lv_test_theme\../../../lvgl/lv_objx/lv_line.h ****  * (set width to x max and height to y max)
  72:lv_examples\lv_tests\lv_test_theme\../../../lvgl/lv_objx/lv_line.h ****  * @param line pointer to a line object
  73:lv_examples\lv_tests\lv_test_theme\../../../lvgl/lv_objx/lv_line.h ****  * @param en true: auto size is enabled, false: auto size is disabled
  74:lv_examples\lv_tests\lv_test_theme\../../../lvgl/lv_objx/lv_line.h ****  */
  75:lv_examples\lv_tests\lv_test_theme\../../../lvgl/lv_objx/lv_line.h **** void lv_line_set_auto_size(lv_obj_t * line, bool en);
  76:lv_examples\lv_tests\lv_test_theme\../../../lvgl/lv_objx/lv_line.h **** 
  77:lv_examples\lv_tests\lv_test_theme\../../../lvgl/lv_objx/lv_line.h **** /**
  78:lv_examples\lv_tests\lv_test_theme\../../../lvgl/lv_objx/lv_line.h ****  * Enable (or disable) the y coordinate inversion.
  79:lv_examples\lv_tests\lv_test_theme\../../../lvgl/lv_objx/lv_line.h ****  * If enabled then y will be subtracted from the height of the object,
  80:lv_examples\lv_tests\lv_test_theme\../../../lvgl/lv_objx/lv_line.h ****  * therefore the y=0 coordinate will be on the bottom.
  81:lv_examples\lv_tests\lv_test_theme\../../../lvgl/lv_objx/lv_line.h ****  * @param line pointer to a line object
  82:lv_examples\lv_tests\lv_test_theme\../../../lvgl/lv_objx/lv_line.h ****  * @param en true: enable the y inversion, false:disable the y inversion
  83:lv_examples\lv_tests\lv_test_theme\../../../lvgl/lv_objx/lv_line.h ****  */
  84:lv_examples\lv_tests\lv_test_theme\../../../lvgl/lv_objx/lv_line.h **** void lv_line_set_y_invert(lv_obj_t * line, bool en);
  85:lv_examples\lv_tests\lv_test_theme\../../../lvgl/lv_objx/lv_line.h **** 
  86:lv_examples\lv_tests\lv_test_theme\../../../lvgl/lv_objx/lv_line.h **** #define lv_line_set_y_inv lv_line_set_y_invert      /*The name was inconsistent. In v.6.0 only `lv_
  87:lv_examples\lv_tests\lv_test_theme\../../../lvgl/lv_objx/lv_line.h **** 
  88:lv_examples\lv_tests\lv_test_theme\../../../lvgl/lv_objx/lv_line.h **** /**
  89:lv_examples\lv_tests\lv_test_theme\../../../lvgl/lv_objx/lv_line.h ****  * Set the style of a line
  90:lv_examples\lv_tests\lv_test_theme\../../../lvgl/lv_objx/lv_line.h ****  * @param line pointer to a line object
  91:lv_examples\lv_tests\lv_test_theme\../../../lvgl/lv_objx/lv_line.h ****  * @param style pointer to a style
  92:lv_examples\lv_tests\lv_test_theme\../../../lvgl/lv_objx/lv_line.h ****  */
  93:lv_examples\lv_tests\lv_test_theme\../../../lvgl/lv_objx/lv_line.h **** static inline void lv_line_set_style(lv_obj_t *line, lv_style_t *style)
  94:lv_examples\lv_tests\lv_test_theme\../../../lvgl/lv_objx/lv_line.h **** {
  95:lv_examples\lv_tests\lv_test_theme\../../../lvgl/lv_objx/lv_line.h ****     lv_obj_set_style(line, style);
 357              		.loc 5 95 0
 358 01cc A96C     		ldr	r1, [r5, #72]
 359 01ce 3046     		mov	r0, r6
 360 01d0 FFF7FEFF 		bl	lv_obj_set_style
 361              	.LVL71:
 362              	.LBE25:
 363              	.LBE24:
 145:lv_examples\lv_tests\lv_test_theme/lv_test_theme.c ****     lv_line_set_style(line, th->line.decor);
 146:lv_examples\lv_tests\lv_test_theme/lv_test_theme.c **** 
 147:lv_examples\lv_tests\lv_test_theme/lv_test_theme.c ****     lv_obj_t * ta = lv_ta_create(h, NULL);
 364              		.loc 1 147 0
 365 01d4 0021     		movs	r1, #0
 366 01d6 2046     		mov	r0, r4
 367 01d8 FFF7FEFF 		bl	lv_ta_create
 368              	.LVL72:
 369 01dc 0646     		mov	r6, r0
 370              	.LVL73:
 148:lv_examples\lv_tests\lv_test_theme/lv_test_theme.c ****     lv_obj_set_style(ta, th->ta.oneline);
ARM GAS  C:\Users\Sava\AppData\Local\Temp\ccs9rGHG.s 			page 20


 371              		.loc 1 148 0
 372 01de D5F81011 		ldr	r1, [r5, #272]
 373 01e2 FFF7FEFF 		bl	lv_obj_set_style
 374              	.LVL74:
 149:lv_examples\lv_tests\lv_test_theme/lv_test_theme.c ****     lv_ta_set_text(ta, "Some text");
 375              		.loc 1 149 0
 376 01e6 4D49     		ldr	r1, .L3+36
 377 01e8 3046     		mov	r0, r6
 378 01ea FFF7FEFF 		bl	lv_ta_set_text
 379              	.LVL75:
 150:lv_examples\lv_tests\lv_test_theme/lv_test_theme.c ****     lv_ta_set_one_line(ta, true);
 380              		.loc 1 150 0
 381 01ee 0121     		movs	r1, #1
 382 01f0 3046     		mov	r0, r6
 383 01f2 FFF7FEFF 		bl	lv_ta_set_one_line
 384              	.LVL76:
 151:lv_examples\lv_tests\lv_test_theme/lv_test_theme.c **** 
 152:lv_examples\lv_tests\lv_test_theme/lv_test_theme.c ****     lv_obj_t * cb = lv_cb_create(h, NULL);
 385              		.loc 1 152 0
 386 01f6 0021     		movs	r1, #0
 387 01f8 2046     		mov	r0, r4
 388 01fa FFF7FEFF 		bl	lv_cb_create
 389              	.LVL77:
 153:lv_examples\lv_tests\lv_test_theme/lv_test_theme.c **** 
 154:lv_examples\lv_tests\lv_test_theme/lv_test_theme.c ****     cb = lv_cb_create(h, cb);
 390              		.loc 1 154 0
 391 01fe 0146     		mov	r1, r0
 392 0200 2046     		mov	r0, r4
 393              	.LVL78:
 394 0202 FFF7FEFF 		bl	lv_cb_create
 395              	.LVL79:
 155:lv_examples\lv_tests\lv_test_theme/lv_test_theme.c ****     lv_btn_set_state(cb, LV_BTN_STATE_TGL_REL);
 396              		.loc 1 155 0
 397 0206 0221     		movs	r1, #2
 398 0208 FFF7FEFF 		bl	lv_btn_set_state
 399              	.LVL80:
 156:lv_examples\lv_tests\lv_test_theme/lv_test_theme.c **** 
 157:lv_examples\lv_tests\lv_test_theme/lv_test_theme.c **** 
 158:lv_examples\lv_tests\lv_test_theme/lv_test_theme.c ****     lv_obj_t * ddlist = lv_ddlist_create(h, NULL);
 400              		.loc 1 158 0
 401 020c 0021     		movs	r1, #0
 402 020e 2046     		mov	r0, r4
 403 0210 FFF7FEFF 		bl	lv_ddlist_create
 404              	.LVL81:
 405 0214 0546     		mov	r5, r0
 406              	.LVL82:
 159:lv_examples\lv_tests\lv_test_theme/lv_test_theme.c ****     lv_ddlist_open(ddlist, false);
 407              		.loc 1 159 0
 408 0216 0021     		movs	r1, #0
 409 0218 FFF7FEFF 		bl	lv_ddlist_open
 410              	.LVL83:
 160:lv_examples\lv_tests\lv_test_theme/lv_test_theme.c ****     lv_ddlist_set_selected(ddlist, 1);
 411              		.loc 1 160 0
 412 021c 0121     		movs	r1, #1
 413 021e 2846     		mov	r0, r5
 414 0220 FFF7FEFF 		bl	lv_ddlist_set_selected
 415              	.LVL84:
ARM GAS  C:\Users\Sava\AppData\Local\Temp\ccs9rGHG.s 			page 21


 161:lv_examples\lv_tests\lv_test_theme/lv_test_theme.c **** 
 162:lv_examples\lv_tests\lv_test_theme/lv_test_theme.c ****     h = lv_cont_create(parent, h);
 416              		.loc 1 162 0
 417 0224 2146     		mov	r1, r4
 418 0226 3846     		mov	r0, r7
 419 0228 FFF7FEFF 		bl	lv_cont_create
 420              	.LVL85:
 421 022c 0746     		mov	r7, r0
 422              	.LVL86:
 163:lv_examples\lv_tests\lv_test_theme/lv_test_theme.c **** 
 164:lv_examples\lv_tests\lv_test_theme/lv_test_theme.c ****     lv_obj_t * list = lv_list_create(h, NULL);
 423              		.loc 1 164 0
 424 022e 0021     		movs	r1, #0
 425 0230 FFF7FEFF 		bl	lv_list_create
 426              	.LVL87:
 427 0234 0446     		mov	r4, r0
 428              	.LVL88:
 165:lv_examples\lv_tests\lv_test_theme/lv_test_theme.c ****     lv_obj_t * list_btn;
 166:lv_examples\lv_tests\lv_test_theme/lv_test_theme.c ****     list_btn = lv_list_add(list, SYMBOL_GPS,  "GPS",  NULL);
 429              		.loc 1 166 0
 430 0236 3A4E     		ldr	r6, .L3+40
 431              	.LVL89:
 432 0238 3A4D     		ldr	r5, .L3+44
 433              	.LVL90:
 434 023a 0023     		movs	r3, #0
 435 023c 3246     		mov	r2, r6
 436 023e 2946     		mov	r1, r5
 437 0240 FFF7FEFF 		bl	lv_list_add
 438              	.LVL91:
 439 0244 8046     		mov	r8, r0
 440              	.LVL92:
 167:lv_examples\lv_tests\lv_test_theme/lv_test_theme.c ****     lv_obj_set_size(list, LV_HOR_RES / 4, LV_VER_RES / 2);
 441              		.loc 1 167 0
 442 0246 7822     		movs	r2, #120
 443 0248 5021     		movs	r1, #80
 444 024a 2046     		mov	r0, r4
 445              	.LVL93:
 446 024c FFF7FEFF 		bl	lv_obj_set_size
 447              	.LVL94:
 168:lv_examples\lv_tests\lv_test_theme/lv_test_theme.c ****     lv_btn_set_toggle(list_btn, true);
 448              		.loc 1 168 0
 449 0250 0121     		movs	r1, #1
 450 0252 4046     		mov	r0, r8
 451 0254 FFF7FEFF 		bl	lv_btn_set_toggle
 452              	.LVL95:
 169:lv_examples\lv_tests\lv_test_theme/lv_test_theme.c ****     lv_list_add(list, SYMBOL_WIFI, "WiFi", NULL);
 453              		.loc 1 169 0
 454 0258 0023     		movs	r3, #0
 455 025a 334A     		ldr	r2, .L3+48
 456 025c 3349     		ldr	r1, .L3+52
 457 025e 2046     		mov	r0, r4
 458 0260 FFF7FEFF 		bl	lv_list_add
 459              	.LVL96:
 170:lv_examples\lv_tests\lv_test_theme/lv_test_theme.c ****     lv_list_add(list, SYMBOL_GPS, "GPS", NULL);
 460              		.loc 1 170 0
 461 0264 0023     		movs	r3, #0
 462 0266 3246     		mov	r2, r6
ARM GAS  C:\Users\Sava\AppData\Local\Temp\ccs9rGHG.s 			page 22


 463 0268 2946     		mov	r1, r5
 464 026a 2046     		mov	r0, r4
 465 026c FFF7FEFF 		bl	lv_list_add
 466              	.LVL97:
 171:lv_examples\lv_tests\lv_test_theme/lv_test_theme.c ****     lv_list_add(list, SYMBOL_AUDIO, "Audio", NULL);
 467              		.loc 1 171 0
 468 0270 0023     		movs	r3, #0
 469 0272 2F4A     		ldr	r2, .L3+56
 470 0274 2F49     		ldr	r1, .L3+60
 471 0276 2046     		mov	r0, r4
 472 0278 FFF7FEFF 		bl	lv_list_add
 473              	.LVL98:
 172:lv_examples\lv_tests\lv_test_theme/lv_test_theme.c ****     lv_list_add(list, SYMBOL_VIDEO, "Video", NULL);
 474              		.loc 1 172 0
 475 027c 0023     		movs	r3, #0
 476 027e 2E4A     		ldr	r2, .L3+64
 477 0280 2E49     		ldr	r1, .L3+68
 478 0282 2046     		mov	r0, r4
 479 0284 FFF7FEFF 		bl	lv_list_add
 480              	.LVL99:
 173:lv_examples\lv_tests\lv_test_theme/lv_test_theme.c ****     lv_list_add(list, SYMBOL_CALL, "Call", NULL);
 481              		.loc 1 173 0
 482 0288 0023     		movs	r3, #0
 483 028a 2D4A     		ldr	r2, .L3+72
 484 028c 2D49     		ldr	r1, .L3+76
 485 028e 2046     		mov	r0, r4
 486 0290 FFF7FEFF 		bl	lv_list_add
 487              	.LVL100:
 174:lv_examples\lv_tests\lv_test_theme/lv_test_theme.c ****     lv_list_add(list, SYMBOL_BELL, "Bell", NULL);
 488              		.loc 1 174 0
 489 0294 0023     		movs	r3, #0
 490 0296 2C4A     		ldr	r2, .L3+80
 491 0298 2C49     		ldr	r1, .L3+84
 492 029a 2046     		mov	r0, r4
 493 029c FFF7FEFF 		bl	lv_list_add
 494              	.LVL101:
 175:lv_examples\lv_tests\lv_test_theme/lv_test_theme.c ****     lv_list_add(list, SYMBOL_FILE, "File", NULL);
 495              		.loc 1 175 0
 496 02a0 0023     		movs	r3, #0
 497 02a2 2B4A     		ldr	r2, .L3+88
 498 02a4 2B49     		ldr	r1, .L3+92
 499 02a6 2046     		mov	r0, r4
 500 02a8 FFF7FEFF 		bl	lv_list_add
 501              	.LVL102:
 176:lv_examples\lv_tests\lv_test_theme/lv_test_theme.c ****     lv_list_add(list, SYMBOL_EDIT, "Edit", NULL);
 502              		.loc 1 176 0
 503 02ac 0023     		movs	r3, #0
 504 02ae 2A4A     		ldr	r2, .L3+96
 505 02b0 2A49     		ldr	r1, .L3+100
 506 02b2 2046     		mov	r0, r4
 507 02b4 FFF7FEFF 		bl	lv_list_add
 508              	.LVL103:
 177:lv_examples\lv_tests\lv_test_theme/lv_test_theme.c ****     lv_list_add(list, SYMBOL_CUT,  "Cut",  NULL);
 509              		.loc 1 177 0
 510 02b8 0023     		movs	r3, #0
 511 02ba 294A     		ldr	r2, .L3+104
 512 02bc 2949     		ldr	r1, .L3+108
ARM GAS  C:\Users\Sava\AppData\Local\Temp\ccs9rGHG.s 			page 23


 513 02be 2046     		mov	r0, r4
 514 02c0 FFF7FEFF 		bl	lv_list_add
 515              	.LVL104:
 178:lv_examples\lv_tests\lv_test_theme/lv_test_theme.c ****     lv_list_add(list, SYMBOL_COPY, "Copy", NULL);
 516              		.loc 1 178 0
 517 02c4 0023     		movs	r3, #0
 518 02c6 284A     		ldr	r2, .L3+112
 519 02c8 2849     		ldr	r1, .L3+116
 520 02ca 2046     		mov	r0, r4
 521 02cc FFF7FEFF 		bl	lv_list_add
 522              	.LVL105:
 179:lv_examples\lv_tests\lv_test_theme/lv_test_theme.c **** 
 180:lv_examples\lv_tests\lv_test_theme/lv_test_theme.c ****     lv_obj_t * roller = lv_roller_create(h, NULL);
 523              		.loc 1 180 0
 524 02d0 0021     		movs	r1, #0
 525 02d2 3846     		mov	r0, r7
 526 02d4 FFF7FEFF 		bl	lv_roller_create
 527              	.LVL106:
 528 02d8 0446     		mov	r4, r0
 529              	.LVL107:
 530              	.LBB26:
 531              	.LBB27:
 532              		.file 6 "lv_examples\\lv_tests\\lv_test_theme\\../../../lvgl/lv_objx/lv_roller.h"
   1:lv_examples\lv_tests\lv_test_theme\../../../lvgl/lv_objx/lv_roller.h **** /**
   2:lv_examples\lv_tests\lv_test_theme\../../../lvgl/lv_objx/lv_roller.h ****  * @file lv_roller.h
   3:lv_examples\lv_tests\lv_test_theme\../../../lvgl/lv_objx/lv_roller.h ****  *
   4:lv_examples\lv_tests\lv_test_theme\../../../lvgl/lv_objx/lv_roller.h ****  */
   5:lv_examples\lv_tests\lv_test_theme\../../../lvgl/lv_objx/lv_roller.h **** 
   6:lv_examples\lv_tests\lv_test_theme\../../../lvgl/lv_objx/lv_roller.h **** #ifndef LV_ROLLER_H
   7:lv_examples\lv_tests\lv_test_theme\../../../lvgl/lv_objx/lv_roller.h **** #define LV_ROLLER_H
   8:lv_examples\lv_tests\lv_test_theme\../../../lvgl/lv_objx/lv_roller.h **** 
   9:lv_examples\lv_tests\lv_test_theme\../../../lvgl/lv_objx/lv_roller.h **** #ifdef __cplusplus
  10:lv_examples\lv_tests\lv_test_theme\../../../lvgl/lv_objx/lv_roller.h **** extern "C" {
  11:lv_examples\lv_tests\lv_test_theme\../../../lvgl/lv_objx/lv_roller.h **** #endif
  12:lv_examples\lv_tests\lv_test_theme\../../../lvgl/lv_objx/lv_roller.h **** 
  13:lv_examples\lv_tests\lv_test_theme\../../../lvgl/lv_objx/lv_roller.h **** /*********************
  14:lv_examples\lv_tests\lv_test_theme\../../../lvgl/lv_objx/lv_roller.h ****  *      INCLUDES
  15:lv_examples\lv_tests\lv_test_theme\../../../lvgl/lv_objx/lv_roller.h ****  *********************/
  16:lv_examples\lv_tests\lv_test_theme\../../../lvgl/lv_objx/lv_roller.h **** #ifdef LV_CONF_INCLUDE_SIMPLE
  17:lv_examples\lv_tests\lv_test_theme\../../../lvgl/lv_objx/lv_roller.h **** #include "lv_conf.h"
  18:lv_examples\lv_tests\lv_test_theme\../../../lvgl/lv_objx/lv_roller.h **** #else
  19:lv_examples\lv_tests\lv_test_theme\../../../lvgl/lv_objx/lv_roller.h **** #include "../../lv_conf.h"
  20:lv_examples\lv_tests\lv_test_theme\../../../lvgl/lv_objx/lv_roller.h **** #endif
  21:lv_examples\lv_tests\lv_test_theme\../../../lvgl/lv_objx/lv_roller.h **** 
  22:lv_examples\lv_tests\lv_test_theme\../../../lvgl/lv_objx/lv_roller.h **** #if USE_LV_ROLLER != 0
  23:lv_examples\lv_tests\lv_test_theme\../../../lvgl/lv_objx/lv_roller.h **** 
  24:lv_examples\lv_tests\lv_test_theme\../../../lvgl/lv_objx/lv_roller.h **** /*Testing of dependencies*/
  25:lv_examples\lv_tests\lv_test_theme\../../../lvgl/lv_objx/lv_roller.h **** #if USE_LV_DDLIST == 0
  26:lv_examples\lv_tests\lv_test_theme\../../../lvgl/lv_objx/lv_roller.h **** #error "lv_roller: lv_ddlist is required. Enable it in lv_conf.h (USE_LV_DDLIST  1) "
  27:lv_examples\lv_tests\lv_test_theme\../../../lvgl/lv_objx/lv_roller.h **** #endif
  28:lv_examples\lv_tests\lv_test_theme\../../../lvgl/lv_objx/lv_roller.h **** 
  29:lv_examples\lv_tests\lv_test_theme\../../../lvgl/lv_objx/lv_roller.h **** #include "../lv_core/lv_obj.h"
  30:lv_examples\lv_tests\lv_test_theme\../../../lvgl/lv_objx/lv_roller.h **** #include "lv_ddlist.h"
  31:lv_examples\lv_tests\lv_test_theme\../../../lvgl/lv_objx/lv_roller.h **** #include "lv_label.h"
  32:lv_examples\lv_tests\lv_test_theme\../../../lvgl/lv_objx/lv_roller.h **** 
  33:lv_examples\lv_tests\lv_test_theme\../../../lvgl/lv_objx/lv_roller.h **** /*********************
  34:lv_examples\lv_tests\lv_test_theme\../../../lvgl/lv_objx/lv_roller.h ****  *      DEFINES
ARM GAS  C:\Users\Sava\AppData\Local\Temp\ccs9rGHG.s 			page 24


  35:lv_examples\lv_tests\lv_test_theme\../../../lvgl/lv_objx/lv_roller.h ****  *********************/
  36:lv_examples\lv_tests\lv_test_theme\../../../lvgl/lv_objx/lv_roller.h **** 
  37:lv_examples\lv_tests\lv_test_theme\../../../lvgl/lv_objx/lv_roller.h **** /**********************
  38:lv_examples\lv_tests\lv_test_theme\../../../lvgl/lv_objx/lv_roller.h ****  *      TYPEDEFS
  39:lv_examples\lv_tests\lv_test_theme\../../../lvgl/lv_objx/lv_roller.h ****  **********************/
  40:lv_examples\lv_tests\lv_test_theme\../../../lvgl/lv_objx/lv_roller.h **** /*Data of roller*/
  41:lv_examples\lv_tests\lv_test_theme\../../../lvgl/lv_objx/lv_roller.h **** typedef struct {
  42:lv_examples\lv_tests\lv_test_theme\../../../lvgl/lv_objx/lv_roller.h ****     lv_ddlist_ext_t ddlist; /*Ext. of ancestor*/
  43:lv_examples\lv_tests\lv_test_theme\../../../lvgl/lv_objx/lv_roller.h ****     /*New data for this type */
  44:lv_examples\lv_tests\lv_test_theme\../../../lvgl/lv_objx/lv_roller.h **** } lv_roller_ext_t;
  45:lv_examples\lv_tests\lv_test_theme\../../../lvgl/lv_objx/lv_roller.h **** 
  46:lv_examples\lv_tests\lv_test_theme\../../../lvgl/lv_objx/lv_roller.h **** enum {
  47:lv_examples\lv_tests\lv_test_theme\../../../lvgl/lv_objx/lv_roller.h ****     LV_ROLLER_STYLE_BG,
  48:lv_examples\lv_tests\lv_test_theme\../../../lvgl/lv_objx/lv_roller.h ****     LV_ROLLER_STYLE_SEL,
  49:lv_examples\lv_tests\lv_test_theme\../../../lvgl/lv_objx/lv_roller.h **** };
  50:lv_examples\lv_tests\lv_test_theme\../../../lvgl/lv_objx/lv_roller.h **** typedef uint8_t lv_roller_style_t;
  51:lv_examples\lv_tests\lv_test_theme\../../../lvgl/lv_objx/lv_roller.h **** 
  52:lv_examples\lv_tests\lv_test_theme\../../../lvgl/lv_objx/lv_roller.h **** /**********************
  53:lv_examples\lv_tests\lv_test_theme\../../../lvgl/lv_objx/lv_roller.h ****  * GLOBAL PROTOTYPES
  54:lv_examples\lv_tests\lv_test_theme\../../../lvgl/lv_objx/lv_roller.h ****  **********************/
  55:lv_examples\lv_tests\lv_test_theme\../../../lvgl/lv_objx/lv_roller.h **** 
  56:lv_examples\lv_tests\lv_test_theme\../../../lvgl/lv_objx/lv_roller.h **** /**
  57:lv_examples\lv_tests\lv_test_theme\../../../lvgl/lv_objx/lv_roller.h ****  * Create a roller object
  58:lv_examples\lv_tests\lv_test_theme\../../../lvgl/lv_objx/lv_roller.h ****  * @param par pointer to an object, it will be the parent of the new roller
  59:lv_examples\lv_tests\lv_test_theme\../../../lvgl/lv_objx/lv_roller.h ****  * @param copy pointer to a roller object, if not NULL then the new object will be copied from it
  60:lv_examples\lv_tests\lv_test_theme\../../../lvgl/lv_objx/lv_roller.h ****  * @return pointer to the created roller
  61:lv_examples\lv_tests\lv_test_theme\../../../lvgl/lv_objx/lv_roller.h ****  */
  62:lv_examples\lv_tests\lv_test_theme\../../../lvgl/lv_objx/lv_roller.h **** lv_obj_t * lv_roller_create(lv_obj_t * par, const lv_obj_t * copy);
  63:lv_examples\lv_tests\lv_test_theme\../../../lvgl/lv_objx/lv_roller.h **** 
  64:lv_examples\lv_tests\lv_test_theme\../../../lvgl/lv_objx/lv_roller.h **** /*=====================
  65:lv_examples\lv_tests\lv_test_theme\../../../lvgl/lv_objx/lv_roller.h ****  * Setter functions
  66:lv_examples\lv_tests\lv_test_theme\../../../lvgl/lv_objx/lv_roller.h ****  *====================*/
  67:lv_examples\lv_tests\lv_test_theme\../../../lvgl/lv_objx/lv_roller.h **** 
  68:lv_examples\lv_tests\lv_test_theme\../../../lvgl/lv_objx/lv_roller.h **** /**
  69:lv_examples\lv_tests\lv_test_theme\../../../lvgl/lv_objx/lv_roller.h ****  * Set the align of the roller's options (left, right or center[default])
  70:lv_examples\lv_tests\lv_test_theme\../../../lvgl/lv_objx/lv_roller.h ****  * @param roller - pointer to a roller object
  71:lv_examples\lv_tests\lv_test_theme\../../../lvgl/lv_objx/lv_roller.h ****  * @param align - one of lv_label_align_t values (left, right, center)
  72:lv_examples\lv_tests\lv_test_theme\../../../lvgl/lv_objx/lv_roller.h ****  */
  73:lv_examples\lv_tests\lv_test_theme\../../../lvgl/lv_objx/lv_roller.h **** void lv_roller_set_align(lv_obj_t * roller, lv_label_align_t align);
  74:lv_examples\lv_tests\lv_test_theme\../../../lvgl/lv_objx/lv_roller.h **** 
  75:lv_examples\lv_tests\lv_test_theme\../../../lvgl/lv_objx/lv_roller.h **** /**
  76:lv_examples\lv_tests\lv_test_theme\../../../lvgl/lv_objx/lv_roller.h ****  * Set the options on a roller
  77:lv_examples\lv_tests\lv_test_theme\../../../lvgl/lv_objx/lv_roller.h ****  * @param roller pointer to roller object
  78:lv_examples\lv_tests\lv_test_theme\../../../lvgl/lv_objx/lv_roller.h ****  * @param options a string with '\n' separated options. E.g. "One\nTwo\nThree"
  79:lv_examples\lv_tests\lv_test_theme\../../../lvgl/lv_objx/lv_roller.h ****  */
  80:lv_examples\lv_tests\lv_test_theme\../../../lvgl/lv_objx/lv_roller.h **** static inline void lv_roller_set_options(lv_obj_t * roller, const char * options)
  81:lv_examples\lv_tests\lv_test_theme\../../../lvgl/lv_objx/lv_roller.h **** {
  82:lv_examples\lv_tests\lv_test_theme\../../../lvgl/lv_objx/lv_roller.h ****     lv_ddlist_set_options(roller, options);
 533              		.loc 6 82 0
 534 02da 2549     		ldr	r1, .L3+120
 535 02dc FFF7FEFF 		bl	lv_ddlist_set_options
 536              	.LVL108:
 537              	.LBE27:
 538              	.LBE26:
 181:lv_examples\lv_tests\lv_test_theme/lv_test_theme.c ****     lv_roller_set_options(roller, "Monday\nTuesday\nWednesday\nThursday\nFriday\nSaturday\nSunday")
 182:lv_examples\lv_tests\lv_test_theme/lv_test_theme.c ****     lv_roller_set_selected(roller, 1, false);
 539              		.loc 1 182 0
ARM GAS  C:\Users\Sava\AppData\Local\Temp\ccs9rGHG.s 			page 25


 540 02e0 0022     		movs	r2, #0
 541 02e2 0121     		movs	r1, #1
 542 02e4 2046     		mov	r0, r4
 543 02e6 FFF7FEFF 		bl	lv_roller_set_selected
 544              	.LVL109:
 183:lv_examples\lv_tests\lv_test_theme/lv_test_theme.c ****     lv_roller_set_visible_row_count(roller, 3);
 545              		.loc 1 183 0
 546 02ea 0321     		movs	r1, #3
 547 02ec 2046     		mov	r0, r4
 548 02ee FFF7FEFF 		bl	lv_roller_set_visible_row_count
 549              	.LVL110:
 550 02f2 BDE8F081 		pop	{r4, r5, r6, r7, r8, pc}
 551              	.LVL111:
 552              	.L4:
 553 02f6 00BF     		.align	2
 554              	.L3:
 555 02f8 00000000 		.word	.LANCHOR0
 556 02fc 00000000 		.word	.LC0
 557 0300 08000000 		.word	.LC1
 558 0304 10000000 		.word	.LC2
 559 0308 1C000000 		.word	.LC3
 560 030c 24000000 		.word	.LC4
 561 0310 30000000 		.word	.LC5
 562 0314 00000000 		.word	.LANCHOR1
 563 0318 00000000 		.word	.LANCHOR2
 564 031c 38000000 		.word	.LC6
 565 0320 44000000 		.word	.LC7
 566 0324 48000000 		.word	.LC8
 567 0328 4C000000 		.word	.LC9
 568 032c 54000000 		.word	.LC10
 569 0330 58000000 		.word	.LC11
 570 0334 60000000 		.word	.LC12
 571 0338 64000000 		.word	.LC13
 572 033c 6C000000 		.word	.LC14
 573 0340 70000000 		.word	.LC15
 574 0344 78000000 		.word	.LC16
 575 0348 7C000000 		.word	.LC17
 576 034c 84000000 		.word	.LC18
 577 0350 88000000 		.word	.LC19
 578 0354 90000000 		.word	.LC20
 579 0358 94000000 		.word	.LC21
 580 035c 9C000000 		.word	.LC22
 581 0360 A0000000 		.word	.LC23
 582 0364 A4000000 		.word	.LC24
 583 0368 A8000000 		.word	.LC25
 584 036c B0000000 		.word	.LC26
 585 0370 B4000000 		.word	.LC27
 586 0374 00000000 		.word	lv_style_transp
 587              		.cfi_endproc
 588              	.LFE108:
 589              		.size	create_tab1, .-create_tab1
 590              		.section	.text.create_tab2,"ax",%progbits
 591              		.align	2
 592              		.thumb
 593              		.thumb_func
 594              		.type	create_tab2, %function
 595              	create_tab2:
ARM GAS  C:\Users\Sava\AppData\Local\Temp\ccs9rGHG.s 			page 26


 596              	.LFB109:
 184:lv_examples\lv_tests\lv_test_theme/lv_test_theme.c **** }
 185:lv_examples\lv_tests\lv_test_theme/lv_test_theme.c **** 
 186:lv_examples\lv_tests\lv_test_theme/lv_test_theme.c **** static void create_tab2(lv_obj_t * parent)
 187:lv_examples\lv_tests\lv_test_theme/lv_test_theme.c **** {
 597              		.loc 1 187 0
 598              		.cfi_startproc
 599              		@ args = 0, pretend = 0, frame = 0
 600              		@ frame_needed = 0, uses_anonymous_args = 0
 601              	.LVL112:
 602 0000 2DE9F041 		push	{r4, r5, r6, r7, r8, lr}
 603              		.cfi_def_cfa_offset 24
 604              		.cfi_offset 4, -24
 605              		.cfi_offset 5, -20
 606              		.cfi_offset 6, -16
 607              		.cfi_offset 7, -12
 608              		.cfi_offset 8, -8
 609              		.cfi_offset 14, -4
 610 0004 82B0     		sub	sp, sp, #8
 611              		.cfi_def_cfa_offset 32
 612 0006 8046     		mov	r8, r0
 613              	.LVL113:
 614              	.LBB28:
 615              	.LBB29:
 218:lv_examples\lv_tests\lv_test_theme\../../../lvgl/lv_objx/lv_page.h **** }
 219:lv_examples\lv_tests\lv_test_theme\../../../lvgl/lv_objx/lv_page.h **** 
 220:lv_examples\lv_tests\lv_test_theme\../../../lvgl/lv_objx/lv_page.h **** /**
 221:lv_examples\lv_tests\lv_test_theme\../../../lvgl/lv_objx/lv_page.h ****  * Set a style of a page
 222:lv_examples\lv_tests\lv_test_theme\../../../lvgl/lv_objx/lv_page.h ****  * @param page pointer to a page object
 223:lv_examples\lv_tests\lv_test_theme\../../../lvgl/lv_objx/lv_page.h ****  * @param type which style should be set
 224:lv_examples\lv_tests\lv_test_theme\../../../lvgl/lv_objx/lv_page.h ****  * @param style pointer to a style
 225:lv_examples\lv_tests\lv_test_theme\../../../lvgl/lv_objx/lv_page.h ****  */
 226:lv_examples\lv_tests\lv_test_theme\../../../lvgl/lv_objx/lv_page.h **** void lv_page_set_style(lv_obj_t *page, lv_page_style_t type, lv_style_t *style);
 227:lv_examples\lv_tests\lv_test_theme\../../../lvgl/lv_objx/lv_page.h **** 
 228:lv_examples\lv_tests\lv_test_theme\../../../lvgl/lv_objx/lv_page.h **** /*=====================
 229:lv_examples\lv_tests\lv_test_theme\../../../lvgl/lv_objx/lv_page.h ****  * Getter functions
 230:lv_examples\lv_tests\lv_test_theme\../../../lvgl/lv_objx/lv_page.h ****  *====================*/
 231:lv_examples\lv_tests\lv_test_theme\../../../lvgl/lv_objx/lv_page.h **** 
 232:lv_examples\lv_tests\lv_test_theme\../../../lvgl/lv_objx/lv_page.h **** /**
 233:lv_examples\lv_tests\lv_test_theme\../../../lvgl/lv_objx/lv_page.h ****  * Set the scroll bar mode on a page
 234:lv_examples\lv_tests\lv_test_theme\../../../lvgl/lv_objx/lv_page.h ****  * @param page pointer to a page object
 235:lv_examples\lv_tests\lv_test_theme\../../../lvgl/lv_objx/lv_page.h ****  * @return the mode from 'lv_page_sb.mode_t' enum
 236:lv_examples\lv_tests\lv_test_theme\../../../lvgl/lv_objx/lv_page.h ****  */
 237:lv_examples\lv_tests\lv_test_theme\../../../lvgl/lv_objx/lv_page.h **** lv_sb_mode_t lv_page_get_sb_mode(const lv_obj_t * page);
 238:lv_examples\lv_tests\lv_test_theme\../../../lvgl/lv_objx/lv_page.h **** 
 239:lv_examples\lv_tests\lv_test_theme\../../../lvgl/lv_objx/lv_page.h **** 
 240:lv_examples\lv_tests\lv_test_theme\../../../lvgl/lv_objx/lv_page.h **** /**
 241:lv_examples\lv_tests\lv_test_theme\../../../lvgl/lv_objx/lv_page.h ****  * Get the the scrolling with arrows (LV_GROUP_KEY_LEFT/RIGHT/UP/DOWN) is enabled or not
 242:lv_examples\lv_tests\lv_test_theme\../../../lvgl/lv_objx/lv_page.h ****  * @param page pointer to a page object
 243:lv_examples\lv_tests\lv_test_theme\../../../lvgl/lv_objx/lv_page.h ****  * @return true: scrolling with arrows is enabled
 244:lv_examples\lv_tests\lv_test_theme\../../../lvgl/lv_objx/lv_page.h ****  */
 245:lv_examples\lv_tests\lv_test_theme\../../../lvgl/lv_objx/lv_page.h **** bool lv_page_get_arrow_scroll(const lv_obj_t * page);
 246:lv_examples\lv_tests\lv_test_theme\../../../lvgl/lv_objx/lv_page.h **** 
 247:lv_examples\lv_tests\lv_test_theme\../../../lvgl/lv_objx/lv_page.h **** /**
 248:lv_examples\lv_tests\lv_test_theme\../../../lvgl/lv_objx/lv_page.h ****  * Get the scroll propagation property
 249:lv_examples\lv_tests\lv_test_theme\../../../lvgl/lv_objx/lv_page.h ****  * @param page pointer to a Page
 250:lv_examples\lv_tests\lv_test_theme\../../../lvgl/lv_objx/lv_page.h ****  * @return true or false
ARM GAS  C:\Users\Sava\AppData\Local\Temp\ccs9rGHG.s 			page 27


 251:lv_examples\lv_tests\lv_test_theme\../../../lvgl/lv_objx/lv_page.h ****  */
 252:lv_examples\lv_tests\lv_test_theme\../../../lvgl/lv_objx/lv_page.h **** bool lv_page_get_scroll_propagation(lv_obj_t * page);
 253:lv_examples\lv_tests\lv_test_theme\../../../lvgl/lv_objx/lv_page.h **** 
 254:lv_examples\lv_tests\lv_test_theme\../../../lvgl/lv_objx/lv_page.h **** /**
 255:lv_examples\lv_tests\lv_test_theme\../../../lvgl/lv_objx/lv_page.h ****  * Get the edge flash effect property.
 256:lv_examples\lv_tests\lv_test_theme\../../../lvgl/lv_objx/lv_page.h ****  * @param page pointer to a Page
 257:lv_examples\lv_tests\lv_test_theme\../../../lvgl/lv_objx/lv_page.h ****  * return true or false
 258:lv_examples\lv_tests\lv_test_theme\../../../lvgl/lv_objx/lv_page.h ****  */
 259:lv_examples\lv_tests\lv_test_theme\../../../lvgl/lv_objx/lv_page.h **** bool lv_page_get_edge_flash(lv_obj_t * page);
 260:lv_examples\lv_tests\lv_test_theme\../../../lvgl/lv_objx/lv_page.h **** 
 261:lv_examples\lv_tests\lv_test_theme\../../../lvgl/lv_objx/lv_page.h **** /**
 262:lv_examples\lv_tests\lv_test_theme\../../../lvgl/lv_objx/lv_page.h ****  * Get that width which can be set to the children to still not cause overflow (show scrollbars)
 263:lv_examples\lv_tests\lv_test_theme\../../../lvgl/lv_objx/lv_page.h ****  * @param page pointer to a page object
 264:lv_examples\lv_tests\lv_test_theme\../../../lvgl/lv_objx/lv_page.h ****  * @return the width which still fits into the page
 265:lv_examples\lv_tests\lv_test_theme\../../../lvgl/lv_objx/lv_page.h ****  */
 266:lv_examples\lv_tests\lv_test_theme\../../../lvgl/lv_objx/lv_page.h **** lv_coord_t lv_page_get_fit_width(lv_obj_t * page);
 267:lv_examples\lv_tests\lv_test_theme\../../../lvgl/lv_objx/lv_page.h **** 
 268:lv_examples\lv_tests\lv_test_theme\../../../lvgl/lv_objx/lv_page.h **** /**
 269:lv_examples\lv_tests\lv_test_theme\../../../lvgl/lv_objx/lv_page.h ****  * Get that height which can be set to the children to still not cause overflow (show scrollbars)
 270:lv_examples\lv_tests\lv_test_theme\../../../lvgl/lv_objx/lv_page.h ****  * @param page pointer to a page object
 271:lv_examples\lv_tests\lv_test_theme\../../../lvgl/lv_objx/lv_page.h ****  * @return the height which still fits into the page
 272:lv_examples\lv_tests\lv_test_theme\../../../lvgl/lv_objx/lv_page.h ****  */
 273:lv_examples\lv_tests\lv_test_theme\../../../lvgl/lv_objx/lv_page.h **** lv_coord_t lv_page_get_fit_height(lv_obj_t * page);
 274:lv_examples\lv_tests\lv_test_theme\../../../lvgl/lv_objx/lv_page.h **** 
 275:lv_examples\lv_tests\lv_test_theme\../../../lvgl/lv_objx/lv_page.h **** /**
 276:lv_examples\lv_tests\lv_test_theme\../../../lvgl/lv_objx/lv_page.h ****  * Get width of the scrollable part of a page
 277:lv_examples\lv_tests\lv_test_theme\../../../lvgl/lv_objx/lv_page.h ****  * @param page pointer to a page object
 278:lv_examples\lv_tests\lv_test_theme\../../../lvgl/lv_objx/lv_page.h ****  * @return the width of the scrollable
 279:lv_examples\lv_tests\lv_test_theme\../../../lvgl/lv_objx/lv_page.h ****  */
 280:lv_examples\lv_tests\lv_test_theme\../../../lvgl/lv_objx/lv_page.h **** static inline lv_coord_t lv_page_get_scrl_width(const lv_obj_t *page)
 281:lv_examples\lv_tests\lv_test_theme\../../../lvgl/lv_objx/lv_page.h **** {
 282:lv_examples\lv_tests\lv_test_theme\../../../lvgl/lv_objx/lv_page.h ****     return lv_obj_get_width(lv_page_get_scrl(page));
 616              		.loc 2 282 0
 617 0008 FFF7FEFF 		bl	lv_page_get_scrl
 618              	.LVL114:
 619 000c FFF7FEFF 		bl	lv_obj_get_width
 620              	.LVL115:
 621 0010 0646     		mov	r6, r0
 622              	.LVL116:
 623              	.LBE29:
 624              	.LBE28:
 188:lv_examples\lv_tests\lv_test_theme/lv_test_theme.c ****     lv_coord_t w = lv_page_get_scrl_width(parent);
 189:lv_examples\lv_tests\lv_test_theme/lv_test_theme.c **** 
 190:lv_examples\lv_tests\lv_test_theme/lv_test_theme.c ****     lv_obj_t * chart = lv_chart_create(parent, NULL);
 625              		.loc 1 190 0
 626 0012 0021     		movs	r1, #0
 627 0014 4046     		mov	r0, r8
 628 0016 FFF7FEFF 		bl	lv_chart_create
 629              	.LVL117:
 630 001a 0446     		mov	r4, r0
 631              	.LVL118:
 191:lv_examples\lv_tests\lv_test_theme/lv_test_theme.c ****     lv_obj_set_size(chart, w / 3, LV_VER_RES / 3);
 632              		.loc 1 191 0
 633 001c 564F     		ldr	r7, .L8
 634 001e 87FB0637 		smull	r3, r7, r7, r6
 635 0022 A7EBE677 		sub	r7, r7, r6, asr #31
 636 0026 3FB2     		sxth	r7, r7
ARM GAS  C:\Users\Sava\AppData\Local\Temp\ccs9rGHG.s 			page 28


 637 0028 5022     		movs	r2, #80
 638 002a 3946     		mov	r1, r7
 639 002c FFF7FEFF 		bl	lv_obj_set_size
 640              	.LVL119:
 192:lv_examples\lv_tests\lv_test_theme/lv_test_theme.c ****     lv_obj_set_pos(chart, LV_DPI / 10, LV_DPI / 10);
 641              		.loc 1 192 0
 642 0030 0A22     		movs	r2, #10
 643 0032 1146     		mov	r1, r2
 644 0034 2046     		mov	r0, r4
 645 0036 FFF7FEFF 		bl	lv_obj_set_pos
 646              	.LVL120:
 193:lv_examples\lv_tests\lv_test_theme/lv_test_theme.c ****     lv_chart_series_t * s1 = lv_chart_add_series(chart, LV_COLOR_RED);
 647              		.loc 1 193 0
 648 003a 4FF60001 		movw	r1, 63488	@ movhi
 649 003e 2046     		mov	r0, r4
 650 0040 FFF7FEFF 		bl	lv_chart_add_series
 651              	.LVL121:
 652 0044 0546     		mov	r5, r0
 653              	.LVL122:
 194:lv_examples\lv_tests\lv_test_theme/lv_test_theme.c ****     lv_chart_set_next(chart, s1, 30);
 654              		.loc 1 194 0
 655 0046 1E22     		movs	r2, #30
 656 0048 0146     		mov	r1, r0
 657 004a 2046     		mov	r0, r4
 658              	.LVL123:
 659 004c FFF7FEFF 		bl	lv_chart_set_next
 660              	.LVL124:
 195:lv_examples\lv_tests\lv_test_theme/lv_test_theme.c ****     lv_chart_set_next(chart, s1, 20);
 661              		.loc 1 195 0
 662 0050 1422     		movs	r2, #20
 663 0052 2946     		mov	r1, r5
 664 0054 2046     		mov	r0, r4
 665 0056 FFF7FEFF 		bl	lv_chart_set_next
 666              	.LVL125:
 196:lv_examples\lv_tests\lv_test_theme/lv_test_theme.c ****     lv_chart_set_next(chart, s1, 10);
 667              		.loc 1 196 0
 668 005a 0A22     		movs	r2, #10
 669 005c 2946     		mov	r1, r5
 670 005e 2046     		mov	r0, r4
 671 0060 FFF7FEFF 		bl	lv_chart_set_next
 672              	.LVL126:
 197:lv_examples\lv_tests\lv_test_theme/lv_test_theme.c ****     lv_chart_set_next(chart, s1, 12);
 673              		.loc 1 197 0
 674 0064 0C22     		movs	r2, #12
 675 0066 2946     		mov	r1, r5
 676 0068 2046     		mov	r0, r4
 677 006a FFF7FEFF 		bl	lv_chart_set_next
 678              	.LVL127:
 198:lv_examples\lv_tests\lv_test_theme/lv_test_theme.c ****     lv_chart_set_next(chart, s1, 20);
 679              		.loc 1 198 0
 680 006e 1422     		movs	r2, #20
 681 0070 2946     		mov	r1, r5
 682 0072 2046     		mov	r0, r4
 683 0074 FFF7FEFF 		bl	lv_chart_set_next
 684              	.LVL128:
 199:lv_examples\lv_tests\lv_test_theme/lv_test_theme.c ****     lv_chart_set_next(chart, s1, 27);
 685              		.loc 1 199 0
ARM GAS  C:\Users\Sava\AppData\Local\Temp\ccs9rGHG.s 			page 29


 686 0078 1B22     		movs	r2, #27
 687 007a 2946     		mov	r1, r5
 688 007c 2046     		mov	r0, r4
 689 007e FFF7FEFF 		bl	lv_chart_set_next
 690              	.LVL129:
 200:lv_examples\lv_tests\lv_test_theme/lv_test_theme.c ****     lv_chart_set_next(chart, s1, 35);
 691              		.loc 1 200 0
 692 0082 2322     		movs	r2, #35
 693 0084 2946     		mov	r1, r5
 694 0086 2046     		mov	r0, r4
 695 0088 FFF7FEFF 		bl	lv_chart_set_next
 696              	.LVL130:
 201:lv_examples\lv_tests\lv_test_theme/lv_test_theme.c ****     lv_chart_set_next(chart, s1, 55);
 697              		.loc 1 201 0
 698 008c 3722     		movs	r2, #55
 699 008e 2946     		mov	r1, r5
 700 0090 2046     		mov	r0, r4
 701 0092 FFF7FEFF 		bl	lv_chart_set_next
 702              	.LVL131:
 202:lv_examples\lv_tests\lv_test_theme/lv_test_theme.c ****     lv_chart_set_next(chart, s1, 70);
 703              		.loc 1 202 0
 704 0096 4622     		movs	r2, #70
 705 0098 2946     		mov	r1, r5
 706 009a 2046     		mov	r0, r4
 707 009c FFF7FEFF 		bl	lv_chart_set_next
 708              	.LVL132:
 203:lv_examples\lv_tests\lv_test_theme/lv_test_theme.c ****     lv_chart_set_next(chart, s1, 75);
 709              		.loc 1 203 0
 710 00a0 4B22     		movs	r2, #75
 711 00a2 2946     		mov	r1, r5
 712 00a4 2046     		mov	r0, r4
 713 00a6 FFF7FEFF 		bl	lv_chart_set_next
 714              	.LVL133:
 204:lv_examples\lv_tests\lv_test_theme/lv_test_theme.c **** 
 205:lv_examples\lv_tests\lv_test_theme/lv_test_theme.c **** 
 206:lv_examples\lv_tests\lv_test_theme/lv_test_theme.c ****     lv_obj_t * gauge = lv_gauge_create(parent, NULL);
 715              		.loc 1 206 0
 716 00aa 0021     		movs	r1, #0
 717 00ac 4046     		mov	r0, r8
 718 00ae FFF7FEFF 		bl	lv_gauge_create
 719              	.LVL134:
 720 00b2 0546     		mov	r5, r0
 721              	.LVL135:
 207:lv_examples\lv_tests\lv_test_theme/lv_test_theme.c ****     lv_gauge_set_value(gauge, 0, 40);
 722              		.loc 1 207 0
 723 00b4 2822     		movs	r2, #40
 724 00b6 0021     		movs	r1, #0
 725 00b8 FFF7FEFF 		bl	lv_gauge_set_value
 726              	.LVL136:
 208:lv_examples\lv_tests\lv_test_theme/lv_test_theme.c ****     lv_obj_set_size(gauge, w / 4, w / 4);
 727              		.loc 1 208 0
 728 00bc 3146     		mov	r1, r6
 729 00be 002E     		cmp	r6, #0
 730 00c0 00DA     		bge	.L6
 731 00c2 F11C     		adds	r1, r6, #3
 732              	.L6:
 733 00c4 41F38F01 		sbfx	r1, r1, #2, #16
ARM GAS  C:\Users\Sava\AppData\Local\Temp\ccs9rGHG.s 			page 30


 734 00c8 0A46     		mov	r2, r1
 735 00ca 2846     		mov	r0, r5
 736 00cc FFF7FEFF 		bl	lv_obj_set_size
 737              	.LVL137:
 209:lv_examples\lv_tests\lv_test_theme/lv_test_theme.c ****     lv_obj_align(gauge, chart, LV_ALIGN_OUT_BOTTOM_LEFT, 0, LV_DPI / 4);
 738              		.loc 1 209 0
 739 00d0 1923     		movs	r3, #25
 740 00d2 0093     		str	r3, [sp]
 741 00d4 0023     		movs	r3, #0
 742 00d6 0C22     		movs	r2, #12
 743 00d8 2146     		mov	r1, r4
 744 00da 2846     		mov	r0, r5
 745 00dc FFF7FEFF 		bl	lv_obj_align
 746              	.LVL138:
 210:lv_examples\lv_tests\lv_test_theme/lv_test_theme.c **** 
 211:lv_examples\lv_tests\lv_test_theme/lv_test_theme.c **** 
 212:lv_examples\lv_tests\lv_test_theme/lv_test_theme.c ****     lv_obj_t * arc = lv_arc_create(parent, NULL);
 747              		.loc 1 212 0
 748 00e0 0021     		movs	r1, #0
 749 00e2 4046     		mov	r0, r8
 750 00e4 FFF7FEFF 		bl	lv_arc_create
 751              	.LVL139:
 213:lv_examples\lv_tests\lv_test_theme/lv_test_theme.c ****     lv_obj_align(arc, gauge, LV_ALIGN_OUT_BOTTOM_MID, 0, LV_DPI / 8);
 752              		.loc 1 213 0
 753 00e8 0C23     		movs	r3, #12
 754 00ea 0093     		str	r3, [sp]
 755 00ec 0023     		movs	r3, #0
 756 00ee 0D22     		movs	r2, #13
 757 00f0 2946     		mov	r1, r5
 758 00f2 FFF7FEFF 		bl	lv_obj_align
 759              	.LVL140:
 214:lv_examples\lv_tests\lv_test_theme/lv_test_theme.c **** 
 215:lv_examples\lv_tests\lv_test_theme/lv_test_theme.c ****     lv_obj_t * ta = lv_ta_create(parent, NULL);
 760              		.loc 1 215 0
 761 00f6 0021     		movs	r1, #0
 762 00f8 4046     		mov	r0, r8
 763 00fa FFF7FEFF 		bl	lv_ta_create
 764              	.LVL141:
 765 00fe 0446     		mov	r4, r0
 766              	.LVL142:
 216:lv_examples\lv_tests\lv_test_theme/lv_test_theme.c ****     lv_obj_set_size(ta, w / 3, LV_VER_RES / 4);
 767              		.loc 1 216 0
 768 0100 3C22     		movs	r2, #60
 769 0102 3946     		mov	r1, r7
 770 0104 FFF7FEFF 		bl	lv_obj_set_size
 771              	.LVL143:
 217:lv_examples\lv_tests\lv_test_theme/lv_test_theme.c ****     lv_obj_align(ta, NULL, LV_ALIGN_IN_TOP_RIGHT, -LV_DPI / 10, LV_DPI / 10);
 772              		.loc 1 217 0
 773 0108 0A23     		movs	r3, #10
 774 010a 0093     		str	r3, [sp]
 775 010c 6FF00903 		mvn	r3, #9
 776 0110 0322     		movs	r2, #3
 777 0112 0021     		movs	r1, #0
 778 0114 2046     		mov	r0, r4
 779 0116 FFF7FEFF 		bl	lv_obj_align
 780              	.LVL144:
 218:lv_examples\lv_tests\lv_test_theme/lv_test_theme.c ****     lv_ta_set_cursor_type(ta, LV_CURSOR_BLOCK);
ARM GAS  C:\Users\Sava\AppData\Local\Temp\ccs9rGHG.s 			page 31


 781              		.loc 1 218 0
 782 011a 0221     		movs	r1, #2
 783 011c 2046     		mov	r0, r4
 784 011e FFF7FEFF 		bl	lv_ta_set_cursor_type
 785              	.LVL145:
 219:lv_examples\lv_tests\lv_test_theme/lv_test_theme.c **** 
 220:lv_examples\lv_tests\lv_test_theme/lv_test_theme.c ****     lv_obj_t * kb = lv_kb_create(parent, NULL);
 786              		.loc 1 220 0
 787 0122 0021     		movs	r1, #0
 788 0124 4046     		mov	r0, r8
 789 0126 FFF7FEFF 		bl	lv_kb_create
 790              	.LVL146:
 791 012a 0546     		mov	r5, r0
 792              	.LVL147:
 221:lv_examples\lv_tests\lv_test_theme/lv_test_theme.c ****     lv_obj_set_size(kb, 2 * w / 3, LV_VER_RES / 3);
 793              		.loc 1 221 0
 794 012c 7600     		lsls	r6, r6, #1
 795 012e 1249     		ldr	r1, .L8
 796 0130 81FB0631 		smull	r3, r1, r1, r6
 797 0134 A1EBE671 		sub	r1, r1, r6, asr #31
 798 0138 5022     		movs	r2, #80
 799 013a 09B2     		sxth	r1, r1
 800 013c FFF7FEFF 		bl	lv_obj_set_size
 801              	.LVL148:
 222:lv_examples\lv_tests\lv_test_theme/lv_test_theme.c ****     lv_obj_align(kb, ta, LV_ALIGN_OUT_BOTTOM_RIGHT, 0, LV_DPI);
 802              		.loc 1 222 0
 803 0140 6423     		movs	r3, #100
 804 0142 0093     		str	r3, [sp]
 805 0144 0023     		movs	r3, #0
 806 0146 0E22     		movs	r2, #14
 807 0148 2146     		mov	r1, r4
 808 014a 2846     		mov	r0, r5
 809 014c FFF7FEFF 		bl	lv_obj_align
 810              	.LVL149:
 223:lv_examples\lv_tests\lv_test_theme/lv_test_theme.c ****     lv_kb_set_ta(kb, ta);
 811              		.loc 1 223 0
 812 0150 2146     		mov	r1, r4
 813 0152 2846     		mov	r0, r5
 814 0154 FFF7FEFF 		bl	lv_kb_set_ta
 815              	.LVL150:
 224:lv_examples\lv_tests\lv_test_theme/lv_test_theme.c **** 
 225:lv_examples\lv_tests\lv_test_theme/lv_test_theme.c **** 
 226:lv_examples\lv_tests\lv_test_theme/lv_test_theme.c ****     lv_obj_t * loader = lv_preload_create(parent, NULL);
 816              		.loc 1 226 0
 817 0158 0021     		movs	r1, #0
 818 015a 4046     		mov	r0, r8
 819 015c FFF7FEFF 		bl	lv_preload_create
 820              	.LVL151:
 227:lv_examples\lv_tests\lv_test_theme/lv_test_theme.c ****     lv_obj_align(loader, NULL, LV_ALIGN_CENTER, 0, - LV_DPI);
 821              		.loc 1 227 0
 822 0160 6FF06303 		mvn	r3, #99
 823 0164 0093     		str	r3, [sp]
 824 0166 0023     		movs	r3, #0
 825 0168 1A46     		mov	r2, r3
 826 016a 1946     		mov	r1, r3
 827 016c FFF7FEFF 		bl	lv_obj_align
 828              	.LVL152:
ARM GAS  C:\Users\Sava\AppData\Local\Temp\ccs9rGHG.s 			page 32


 228:lv_examples\lv_tests\lv_test_theme/lv_test_theme.c **** }
 829              		.loc 1 228 0
 830 0170 02B0     		add	sp, sp, #8
 831              		.cfi_def_cfa_offset 24
 832              		@ sp needed
 833 0172 BDE8F081 		pop	{r4, r5, r6, r7, r8, pc}
 834              	.LVL153:
 835              	.L9:
 836 0176 00BF     		.align	2
 837              	.L8:
 838 0178 56555555 		.word	1431655766
 839              		.cfi_endproc
 840              	.LFE109:
 841              		.size	create_tab2, .-create_tab2
 842              		.section	.text.create_tab3,"ax",%progbits
 843              		.align	2
 844              		.thumb
 845              		.thumb_func
 846              		.type	create_tab3, %function
 847              	create_tab3:
 848              	.LFB110:
 229:lv_examples\lv_tests\lv_test_theme/lv_test_theme.c **** 
 230:lv_examples\lv_tests\lv_test_theme/lv_test_theme.c **** 
 231:lv_examples\lv_tests\lv_test_theme/lv_test_theme.c **** static void create_tab3(lv_obj_t * parent)
 232:lv_examples\lv_tests\lv_test_theme/lv_test_theme.c **** {
 849              		.loc 1 232 0
 850              		.cfi_startproc
 851              		@ args = 0, pretend = 0, frame = 0
 852              		@ frame_needed = 0, uses_anonymous_args = 0
 853              	.LVL154:
 854 0000 2DE9F043 		push	{r4, r5, r6, r7, r8, r9, lr}
 855              		.cfi_def_cfa_offset 28
 856              		.cfi_offset 4, -28
 857              		.cfi_offset 5, -24
 858              		.cfi_offset 6, -20
 859              		.cfi_offset 7, -16
 860              		.cfi_offset 8, -12
 861              		.cfi_offset 9, -8
 862              		.cfi_offset 14, -4
 863 0004 83B0     		sub	sp, sp, #12
 864              		.cfi_def_cfa_offset 40
 865 0006 8046     		mov	r8, r0
 233:lv_examples\lv_tests\lv_test_theme/lv_test_theme.c ****     /*Create a Window*/
 234:lv_examples\lv_tests\lv_test_theme/lv_test_theme.c ****     lv_obj_t * win = lv_win_create(parent, NULL);
 866              		.loc 1 234 0
 867 0008 0021     		movs	r1, #0
 868 000a FFF7FEFF 		bl	lv_win_create
 869              	.LVL155:
 870 000e 0446     		mov	r4, r0
 871              	.LVL156:
 235:lv_examples\lv_tests\lv_test_theme/lv_test_theme.c ****     lv_win_add_btn(win, SYMBOL_CLOSE, lv_win_close_action);
 872              		.loc 1 235 0
 873 0010 5B4A     		ldr	r2, .L12
 874 0012 5C49     		ldr	r1, .L12+4
 875 0014 FFF7FEFF 		bl	lv_win_add_btn
 876              	.LVL157:
 236:lv_examples\lv_tests\lv_test_theme/lv_test_theme.c ****     lv_win_add_btn(win, SYMBOL_DOWN, NULL);
ARM GAS  C:\Users\Sava\AppData\Local\Temp\ccs9rGHG.s 			page 33


 877              		.loc 1 236 0
 878 0018 0022     		movs	r2, #0
 879 001a 5B49     		ldr	r1, .L12+8
 880 001c 2046     		mov	r0, r4
 881 001e FFF7FEFF 		bl	lv_win_add_btn
 882              	.LVL158:
 237:lv_examples\lv_tests\lv_test_theme/lv_test_theme.c ****     lv_obj_set_size(win, LV_HOR_RES / 2, LV_VER_RES / 2);
 883              		.loc 1 237 0
 884 0022 7822     		movs	r2, #120
 885 0024 A021     		movs	r1, #160
 886 0026 2046     		mov	r0, r4
 887 0028 FFF7FEFF 		bl	lv_obj_set_size
 888              	.LVL159:
 238:lv_examples\lv_tests\lv_test_theme/lv_test_theme.c ****     lv_obj_set_pos(win, LV_DPI / 20, LV_DPI / 20);
 889              		.loc 1 238 0
 890 002c 0522     		movs	r2, #5
 891 002e 1146     		mov	r1, r2
 892 0030 2046     		mov	r0, r4
 893 0032 FFF7FEFF 		bl	lv_obj_set_pos
 894              	.LVL160:
 239:lv_examples\lv_tests\lv_test_theme/lv_test_theme.c ****     lv_obj_set_top(win, true);
 895              		.loc 1 239 0
 896 0036 0121     		movs	r1, #1
 897 0038 2046     		mov	r0, r4
 898 003a FFF7FEFF 		bl	lv_obj_set_top
 899              	.LVL161:
 240:lv_examples\lv_tests\lv_test_theme/lv_test_theme.c **** 
 241:lv_examples\lv_tests\lv_test_theme/lv_test_theme.c **** 
 242:lv_examples\lv_tests\lv_test_theme/lv_test_theme.c ****     /*Create a Label in the Window*/
 243:lv_examples\lv_tests\lv_test_theme/lv_test_theme.c ****     lv_obj_t * label = lv_label_create(win, NULL);
 900              		.loc 1 243 0
 901 003e 0021     		movs	r1, #0
 902 0040 2046     		mov	r0, r4
 903 0042 FFF7FEFF 		bl	lv_label_create
 904              	.LVL162:
 905 0046 0546     		mov	r5, r0
 906              	.LVL163:
 244:lv_examples\lv_tests\lv_test_theme/lv_test_theme.c ****     lv_label_set_text(label, "Label in the window");
 907              		.loc 1 244 0
 908 0048 5049     		ldr	r1, .L12+12
 909 004a FFF7FEFF 		bl	lv_label_set_text
 910              	.LVL164:
 245:lv_examples\lv_tests\lv_test_theme/lv_test_theme.c **** 
 246:lv_examples\lv_tests\lv_test_theme/lv_test_theme.c ****     /*Create a  Line meter in the Window*/
 247:lv_examples\lv_tests\lv_test_theme/lv_test_theme.c ****     lv_obj_t * lmeter = lv_lmeter_create(win, NULL);
 911              		.loc 1 247 0
 912 004e 0021     		movs	r1, #0
 913 0050 2046     		mov	r0, r4
 914 0052 FFF7FEFF 		bl	lv_lmeter_create
 915              	.LVL165:
 916 0056 8146     		mov	r9, r0
 917              	.LVL166:
 248:lv_examples\lv_tests\lv_test_theme/lv_test_theme.c ****     lv_obj_align(lmeter, label, LV_ALIGN_OUT_BOTTOM_LEFT, 0, LV_DPI / 2);
 918              		.loc 1 248 0
 919 0058 3226     		movs	r6, #50
 920 005a 0096     		str	r6, [sp]
 921 005c 0023     		movs	r3, #0
ARM GAS  C:\Users\Sava\AppData\Local\Temp\ccs9rGHG.s 			page 34


 922 005e 0C22     		movs	r2, #12
 923 0060 2946     		mov	r1, r5
 924 0062 FFF7FEFF 		bl	lv_obj_align
 925              	.LVL167:
 249:lv_examples\lv_tests\lv_test_theme/lv_test_theme.c ****     lv_lmeter_set_value(lmeter, 70);
 926              		.loc 1 249 0
 927 0066 4621     		movs	r1, #70
 928 0068 4846     		mov	r0, r9
 929 006a FFF7FEFF 		bl	lv_lmeter_set_value
 930              	.LVL168:
 250:lv_examples\lv_tests\lv_test_theme/lv_test_theme.c **** 
 251:lv_examples\lv_tests\lv_test_theme/lv_test_theme.c ****     /*Create a 2 LEDs in the Window*/
 252:lv_examples\lv_tests\lv_test_theme/lv_test_theme.c ****     lv_obj_t * led1 = lv_led_create(win, NULL);
 931              		.loc 1 252 0
 932 006e 0021     		movs	r1, #0
 933 0070 2046     		mov	r0, r4
 934 0072 FFF7FEFF 		bl	lv_led_create
 935              	.LVL169:
 936 0076 0746     		mov	r7, r0
 937              	.LVL170:
 253:lv_examples\lv_tests\lv_test_theme/lv_test_theme.c ****     lv_obj_align(led1, lmeter, LV_ALIGN_OUT_RIGHT_MID, LV_DPI / 2, 0);
 938              		.loc 1 253 0
 939 0078 0025     		movs	r5, #0
 940              	.LVL171:
 941 007a 0095     		str	r5, [sp]
 942 007c 3346     		mov	r3, r6
 943 007e 1322     		movs	r2, #19
 944 0080 4946     		mov	r1, r9
 945 0082 FFF7FEFF 		bl	lv_obj_align
 946              	.LVL172:
 254:lv_examples\lv_tests\lv_test_theme/lv_test_theme.c ****     lv_led_on(led1);
 947              		.loc 1 254 0
 948 0086 3846     		mov	r0, r7
 949 0088 FFF7FEFF 		bl	lv_led_on
 950              	.LVL173:
 255:lv_examples\lv_tests\lv_test_theme/lv_test_theme.c **** 
 256:lv_examples\lv_tests\lv_test_theme/lv_test_theme.c ****     lv_obj_t * led2 = lv_led_create(win, NULL);
 951              		.loc 1 256 0
 952 008c 2946     		mov	r1, r5
 953 008e 2046     		mov	r0, r4
 954 0090 FFF7FEFF 		bl	lv_led_create
 955              	.LVL174:
 956 0094 8146     		mov	r9, r0
 957              	.LVL175:
 257:lv_examples\lv_tests\lv_test_theme/lv_test_theme.c ****     lv_obj_align(led2, led1, LV_ALIGN_OUT_RIGHT_MID, LV_DPI / 2, 0);
 958              		.loc 1 257 0
 959 0096 0095     		str	r5, [sp]
 960 0098 3346     		mov	r3, r6
 961 009a 1322     		movs	r2, #19
 962 009c 3946     		mov	r1, r7
 963 009e FFF7FEFF 		bl	lv_obj_align
 964              	.LVL176:
 258:lv_examples\lv_tests\lv_test_theme/lv_test_theme.c ****     lv_led_off(led2);
 965              		.loc 1 258 0
 966 00a2 4846     		mov	r0, r9
 967 00a4 FFF7FEFF 		bl	lv_led_off
 968              	.LVL177:
ARM GAS  C:\Users\Sava\AppData\Local\Temp\ccs9rGHG.s 			page 35


 259:lv_examples\lv_tests\lv_test_theme/lv_test_theme.c **** 
 260:lv_examples\lv_tests\lv_test_theme/lv_test_theme.c ****     /*Create a Page*/
 261:lv_examples\lv_tests\lv_test_theme/lv_test_theme.c ****     lv_obj_t * page = lv_page_create(parent, NULL);
 969              		.loc 1 261 0
 970 00a8 2946     		mov	r1, r5
 971 00aa 4046     		mov	r0, r8
 972 00ac FFF7FEFF 		bl	lv_page_create
 973              	.LVL178:
 974 00b0 0746     		mov	r7, r0
 975              	.LVL179:
 262:lv_examples\lv_tests\lv_test_theme/lv_test_theme.c ****     lv_obj_set_size(page, LV_HOR_RES / 3, LV_VER_RES / 2);
 976              		.loc 1 262 0
 977 00b2 7822     		movs	r2, #120
 978 00b4 6A21     		movs	r1, #106
 979 00b6 FFF7FEFF 		bl	lv_obj_set_size
 980              	.LVL180:
 263:lv_examples\lv_tests\lv_test_theme/lv_test_theme.c ****     lv_obj_set_top(page, true);
 981              		.loc 1 263 0
 982 00ba 0121     		movs	r1, #1
 983 00bc 3846     		mov	r0, r7
 984 00be FFF7FEFF 		bl	lv_obj_set_top
 985              	.LVL181:
 264:lv_examples\lv_tests\lv_test_theme/lv_test_theme.c ****     lv_obj_align(page, win, LV_ALIGN_IN_TOP_RIGHT,  LV_DPI, LV_DPI);
 986              		.loc 1 264 0
 987 00c2 6423     		movs	r3, #100
 988 00c4 0093     		str	r3, [sp]
 989 00c6 0322     		movs	r2, #3
 990 00c8 2146     		mov	r1, r4
 991 00ca 3846     		mov	r0, r7
 992 00cc FFF7FEFF 		bl	lv_obj_align
 993              	.LVL182:
 265:lv_examples\lv_tests\lv_test_theme/lv_test_theme.c **** 
 266:lv_examples\lv_tests\lv_test_theme/lv_test_theme.c ****     label = lv_label_create(page, NULL);
 994              		.loc 1 266 0
 995 00d0 2946     		mov	r1, r5
 996 00d2 3846     		mov	r0, r7
 997 00d4 FFF7FEFF 		bl	lv_label_create
 998              	.LVL183:
 267:lv_examples\lv_tests\lv_test_theme/lv_test_theme.c ****     lv_label_set_text(label, "Lorem ipsum dolor sit amet, repudiare voluptatibus pri cu.\n"
 999              		.loc 1 267 0
 1000 00d8 2D49     		ldr	r1, .L12+16
 1001 00da FFF7FEFF 		bl	lv_label_set_text
 1002              	.LVL184:
 1003              	.LBB30:
 1004              	.LBB31:
 186:lv_examples\lv_tests\lv_test_theme\../../../lvgl/lv_objx/lv_page.h **** }
 1005              		.loc 2 186 0
 1006 00de 3846     		mov	r0, r7
 1007 00e0 FFF7FEFF 		bl	lv_page_get_scrl
 1008              	.LVL185:
 1009 00e4 0122     		movs	r2, #1
 1010 00e6 1146     		mov	r1, r2
 1011 00e8 FFF7FEFF 		bl	lv_cont_set_fit
 1012              	.LVL186:
 1013              	.LBE31:
 1014              	.LBE30:
 268:lv_examples\lv_tests\lv_test_theme/lv_test_theme.c ****                       "Ei mundi pertinax posidonium eum, cum tempor maiorum at,\n"
ARM GAS  C:\Users\Sava\AppData\Local\Temp\ccs9rGHG.s 			page 36


 269:lv_examples\lv_tests\lv_test_theme/lv_test_theme.c ****                       "mea fuisset assentior ad. Usu cu suas civibus iudicabit.\n"
 270:lv_examples\lv_tests\lv_test_theme/lv_test_theme.c ****                       "Eum eu congue tempor facilisi. Tale hinc unum te vim.\n"
 271:lv_examples\lv_tests\lv_test_theme/lv_test_theme.c ****                       "Te cum populo animal eruditi, labitur inciderint at nec.\n\n"
 272:lv_examples\lv_tests\lv_test_theme/lv_test_theme.c ****                       "Eius corpora et quo. Everti voluptaria instructior est id,\n"
 273:lv_examples\lv_tests\lv_test_theme/lv_test_theme.c ****                       "vel in falli primis. Mea ei porro essent admodum,\n"
 274:lv_examples\lv_tests\lv_test_theme/lv_test_theme.c ****                       "his ei malis quodsi, te quis aeterno his.\n"
 275:lv_examples\lv_tests\lv_test_theme/lv_test_theme.c ****                       "Qui tritani recusabo reprehendunt ne,\n"
 276:lv_examples\lv_tests\lv_test_theme/lv_test_theme.c ****                       "per duis explicari at. Simul mediocritatem mei et.");
 277:lv_examples\lv_tests\lv_test_theme/lv_test_theme.c ****     lv_page_set_scrl_fit(page, true, true);
 278:lv_examples\lv_tests\lv_test_theme/lv_test_theme.c **** 
 279:lv_examples\lv_tests\lv_test_theme/lv_test_theme.c **** 
 280:lv_examples\lv_tests\lv_test_theme/lv_test_theme.c ****     /*Create a Calendar*/
 281:lv_examples\lv_tests\lv_test_theme/lv_test_theme.c ****     lv_obj_t * cal = lv_calendar_create(parent, NULL);
 1015              		.loc 1 281 0
 1016 00ec 2946     		mov	r1, r5
 1017 00ee 4046     		mov	r0, r8
 1018 00f0 FFF7FEFF 		bl	lv_calendar_create
 1019              	.LVL187:
 1020 00f4 0646     		mov	r6, r0
 1021              	.LVL188:
 282:lv_examples\lv_tests\lv_test_theme/lv_test_theme.c ****     lv_obj_set_size(cal, 5 * LV_DPI / 2, 5 * LV_DPI / 2);
 1022              		.loc 1 282 0
 1023 00f6 FA22     		movs	r2, #250
 1024 00f8 1146     		mov	r1, r2
 1025 00fa FFF7FEFF 		bl	lv_obj_set_size
 1026              	.LVL189:
 283:lv_examples\lv_tests\lv_test_theme/lv_test_theme.c ****     lv_obj_align(cal, page, LV_ALIGN_OUT_RIGHT_TOP, -LV_DPI / 2, LV_DPI / 3);
 1027              		.loc 1 283 0
 1028 00fe 2123     		movs	r3, #33
 1029 0100 0093     		str	r3, [sp]
 1030 0102 6FF03103 		mvn	r3, #49
 1031 0106 1222     		movs	r2, #18
 1032 0108 3946     		mov	r1, r7
 1033 010a 3046     		mov	r0, r6
 1034 010c FFF7FEFF 		bl	lv_obj_align
 1035              	.LVL190:
 284:lv_examples\lv_tests\lv_test_theme/lv_test_theme.c ****     lv_obj_set_top(cal, true);
 1036              		.loc 1 284 0
 1037 0110 0121     		movs	r1, #1
 1038 0112 3046     		mov	r0, r6
 1039 0114 FFF7FEFF 		bl	lv_obj_set_top
 1040              	.LVL191:
 285:lv_examples\lv_tests\lv_test_theme/lv_test_theme.c **** 
 286:lv_examples\lv_tests\lv_test_theme/lv_test_theme.c ****     static lv_calendar_date_t highlighted_days[2];
 287:lv_examples\lv_tests\lv_test_theme/lv_test_theme.c ****     highlighted_days[0].day = 5;
 1041              		.loc 1 287 0
 1042 0118 1E49     		ldr	r1, .L12+20
 1043 011a 0523     		movs	r3, #5
 1044 011c 81F83F30 		strb	r3, [r1, #63]
 288:lv_examples\lv_tests\lv_test_theme/lv_test_theme.c ****     highlighted_days[0].month = 5;
 1045              		.loc 1 288 0
 1046 0120 81F83E30 		strb	r3, [r1, #62]
 289:lv_examples\lv_tests\lv_test_theme/lv_test_theme.c ****     highlighted_days[0].year = 2018;
 1047              		.loc 1 289 0
 1048 0124 40F2E272 		movw	r2, #2018
 1049 0128 8A87     		strh	r2, [r1, #60]	@ movhi
 290:lv_examples\lv_tests\lv_test_theme/lv_test_theme.c **** 
ARM GAS  C:\Users\Sava\AppData\Local\Temp\ccs9rGHG.s 			page 37


 291:lv_examples\lv_tests\lv_test_theme/lv_test_theme.c ****     highlighted_days[1].day = 8;
 1050              		.loc 1 291 0
 1051 012a 0820     		movs	r0, #8
 1052 012c 81F84300 		strb	r0, [r1, #67]
 292:lv_examples\lv_tests\lv_test_theme/lv_test_theme.c ****     highlighted_days[1].month = 5;
 1053              		.loc 1 292 0
 1054 0130 81F84230 		strb	r3, [r1, #66]
 293:lv_examples\lv_tests\lv_test_theme/lv_test_theme.c ****     highlighted_days[1].year = 2018;
 1055              		.loc 1 293 0
 1056 0134 A1F84020 		strh	r2, [r1, #64]	@ movhi
 294:lv_examples\lv_tests\lv_test_theme/lv_test_theme.c **** 
 295:lv_examples\lv_tests\lv_test_theme/lv_test_theme.c ****     lv_calendar_set_highlighted_dates(cal, highlighted_days, 2);
 1057              		.loc 1 295 0
 1058 0138 01F13C04 		add	r4, r1, #60
 1059              	.LVL192:
 1060 013c 0222     		movs	r2, #2
 1061 013e 2146     		mov	r1, r4
 1062 0140 3046     		mov	r0, r6
 1063 0142 FFF7FEFF 		bl	lv_calendar_set_highlighted_dates
 1064              	.LVL193:
 296:lv_examples\lv_tests\lv_test_theme/lv_test_theme.c ****     lv_calendar_set_today_date(cal, &highlighted_days[0]);
 1065              		.loc 1 296 0
 1066 0146 2146     		mov	r1, r4
 1067 0148 3046     		mov	r0, r6
 1068 014a FFF7FEFF 		bl	lv_calendar_set_today_date
 1069              	.LVL194:
 297:lv_examples\lv_tests\lv_test_theme/lv_test_theme.c ****     lv_calendar_set_showed_date(cal, &highlighted_days[0]);
 1070              		.loc 1 297 0
 1071 014e 2146     		mov	r1, r4
 1072 0150 3046     		mov	r0, r6
 1073 0152 FFF7FEFF 		bl	lv_calendar_set_showed_date
 1074              	.LVL195:
 298:lv_examples\lv_tests\lv_test_theme/lv_test_theme.c **** 
 299:lv_examples\lv_tests\lv_test_theme/lv_test_theme.c ****     /*Create a Message box*/
 300:lv_examples\lv_tests\lv_test_theme/lv_test_theme.c ****     static const char * mbox_btn_map[] = {"\211", "\222Got it!", "\211", ""};
 301:lv_examples\lv_tests\lv_test_theme/lv_test_theme.c ****     lv_obj_t * mbox = lv_mbox_create(parent, NULL);
 1075              		.loc 1 301 0
 1076 0156 2946     		mov	r1, r5
 1077 0158 4046     		mov	r0, r8
 1078 015a FFF7FEFF 		bl	lv_mbox_create
 1079              	.LVL196:
 1080 015e 0446     		mov	r4, r0
 1081              	.LVL197:
 302:lv_examples\lv_tests\lv_test_theme/lv_test_theme.c ****     lv_mbox_set_text(mbox, "Click on the window or the page to bring it to the foreground");
 1082              		.loc 1 302 0
 1083 0160 0D49     		ldr	r1, .L12+24
 1084 0162 FFF7FEFF 		bl	lv_mbox_set_text
 1085              	.LVL198:
 303:lv_examples\lv_tests\lv_test_theme/lv_test_theme.c ****     lv_mbox_add_btns(mbox, mbox_btn_map, NULL);
 1086              		.loc 1 303 0
 1087 0166 2A46     		mov	r2, r5
 1088 0168 0C49     		ldr	r1, .L12+28
 1089 016a 2046     		mov	r0, r4
 1090 016c FFF7FEFF 		bl	lv_mbox_add_btns
 1091              	.LVL199:
 304:lv_examples\lv_tests\lv_test_theme/lv_test_theme.c ****     lv_obj_set_top(mbox, true);
 1092              		.loc 1 304 0
ARM GAS  C:\Users\Sava\AppData\Local\Temp\ccs9rGHG.s 			page 38


 1093 0170 0121     		movs	r1, #1
 1094 0172 2046     		mov	r0, r4
 1095 0174 FFF7FEFF 		bl	lv_obj_set_top
 1096              	.LVL200:
 305:lv_examples\lv_tests\lv_test_theme/lv_test_theme.c **** 
 306:lv_examples\lv_tests\lv_test_theme/lv_test_theme.c **** 
 307:lv_examples\lv_tests\lv_test_theme/lv_test_theme.c **** }
 1097              		.loc 1 307 0
 1098 0178 03B0     		add	sp, sp, #12
 1099              		.cfi_def_cfa_offset 28
 1100              		@ sp needed
 1101 017a BDE8F083 		pop	{r4, r5, r6, r7, r8, r9, pc}
 1102              	.LVL201:
 1103              	.L13:
 1104 017e 00BF     		.align	2
 1105              	.L12:
 1106 0180 00000000 		.word	lv_win_close_action
 1107 0184 F0000000 		.word	.LC28
 1108 0188 F4000000 		.word	.LC29
 1109 018c F8000000 		.word	.LC30
 1110 0190 0C010000 		.word	.LC31
 1111 0194 00000000 		.word	.LANCHOR0
 1112 0198 1C030000 		.word	.LC32
 1113 019c 18000000 		.word	.LANCHOR1+24
 1114              		.cfi_endproc
 1115              	.LFE110:
 1116              		.size	create_tab3, .-create_tab3
 1117              		.section	.text.lv_test_theme,"ax",%progbits
 1118              		.align	2
 1119              		.global	lv_test_theme
 1120              		.thumb
 1121              		.thumb_func
 1122              		.type	lv_test_theme, %function
 1123              	lv_test_theme:
 1124              	.LFB107:
  44:lv_examples\lv_tests\lv_test_theme/lv_test_theme.c ****     lv_theme_set_current(th);
 1125              		.loc 1 44 0
 1126              		.cfi_startproc
 1127              		@ args = 0, pretend = 0, frame = 0
 1128              		@ frame_needed = 0, uses_anonymous_args = 0
 1129              	.LVL202:
 1130 0000 70B5     		push	{r4, r5, r6, lr}
 1131              		.cfi_def_cfa_offset 16
 1132              		.cfi_offset 4, -16
 1133              		.cfi_offset 5, -12
 1134              		.cfi_offset 6, -8
 1135              		.cfi_offset 14, -4
  45:lv_examples\lv_tests\lv_test_theme/lv_test_theme.c ****     th = lv_theme_get_current();    /*If `LV_THEME_LIVE_UPDATE  1` `th` is not used directly so get
 1136              		.loc 1 45 0
 1137 0002 FFF7FEFF 		bl	lv_theme_set_current
 1138              	.LVL203:
  46:lv_examples\lv_tests\lv_test_theme/lv_test_theme.c ****     lv_obj_t * scr = lv_cont_create(NULL, NULL);
 1139              		.loc 1 46 0
 1140 0006 FFF7FEFF 		bl	lv_theme_get_current
 1141              	.LVL204:
 1142 000a 0546     		mov	r5, r0
 1143              	.LVL205:
ARM GAS  C:\Users\Sava\AppData\Local\Temp\ccs9rGHG.s 			page 39


  47:lv_examples\lv_tests\lv_test_theme/lv_test_theme.c ****     lv_scr_load(scr);
 1144              		.loc 1 47 0
 1145 000c 0021     		movs	r1, #0
 1146 000e 0846     		mov	r0, r1
 1147              	.LVL206:
 1148 0010 FFF7FEFF 		bl	lv_cont_create
 1149              	.LVL207:
 1150 0014 0446     		mov	r4, r0
 1151              	.LVL208:
  48:lv_examples\lv_tests\lv_test_theme/lv_test_theme.c ****     lv_cont_set_style(scr, th->bg);
 1152              		.loc 1 48 0
 1153 0016 FFF7FEFF 		bl	lv_scr_load
 1154              	.LVL209:
 1155              	.LBB32:
 1156              	.LBB33:
 1157              		.loc 4 100 0
 1158 001a 2968     		ldr	r1, [r5]
 1159 001c 2046     		mov	r0, r4
 1160 001e FFF7FEFF 		bl	lv_obj_set_style
 1161              	.LVL210:
 1162              	.LBE33:
 1163              	.LBE32:
  52:lv_examples\lv_tests\lv_test_theme/lv_test_theme.c ****     lv_obj_set_size(tv, LV_HOR_RES, LV_VER_RES);
 1164              		.loc 1 52 0
 1165 0022 0021     		movs	r1, #0
 1166 0024 2046     		mov	r0, r4
 1167 0026 FFF7FEFF 		bl	lv_tabview_create
 1168              	.LVL211:
 1169 002a 0446     		mov	r4, r0
 1170              	.LVL212:
  53:lv_examples\lv_tests\lv_test_theme/lv_test_theme.c ****     lv_obj_t * tab1 = lv_tabview_add_tab(tv, "Tab 1");
 1171              		.loc 1 53 0
 1172 002c F022     		movs	r2, #240
 1173 002e 4FF4A071 		mov	r1, #320
 1174 0032 FFF7FEFF 		bl	lv_obj_set_size
 1175              	.LVL213:
  54:lv_examples\lv_tests\lv_test_theme/lv_test_theme.c ****     lv_obj_t * tab2 = lv_tabview_add_tab(tv, "Tab 2");
 1176              		.loc 1 54 0
 1177 0036 0C49     		ldr	r1, .L16
 1178 0038 2046     		mov	r0, r4
 1179 003a FFF7FEFF 		bl	lv_tabview_add_tab
 1180              	.LVL214:
 1181 003e 0646     		mov	r6, r0
 1182              	.LVL215:
  55:lv_examples\lv_tests\lv_test_theme/lv_test_theme.c ****     lv_obj_t * tab3 = lv_tabview_add_tab(tv, "Tab 3");
 1183              		.loc 1 55 0
 1184 0040 0A49     		ldr	r1, .L16+4
 1185 0042 2046     		mov	r0, r4
 1186              	.LVL216:
 1187 0044 FFF7FEFF 		bl	lv_tabview_add_tab
 1188              	.LVL217:
 1189 0048 0546     		mov	r5, r0
 1190              	.LVL218:
  56:lv_examples\lv_tests\lv_test_theme/lv_test_theme.c **** 
 1191              		.loc 1 56 0
 1192 004a 0949     		ldr	r1, .L16+8
 1193 004c 2046     		mov	r0, r4
ARM GAS  C:\Users\Sava\AppData\Local\Temp\ccs9rGHG.s 			page 40


 1194              	.LVL219:
 1195 004e FFF7FEFF 		bl	lv_tabview_add_tab
 1196              	.LVL220:
 1197 0052 0446     		mov	r4, r0
 1198              	.LVL221:
  58:lv_examples\lv_tests\lv_test_theme/lv_test_theme.c ****     create_tab2(tab2);
 1199              		.loc 1 58 0
 1200 0054 3046     		mov	r0, r6
 1201              	.LVL222:
 1202 0056 FFF7FEFF 		bl	create_tab1
 1203              	.LVL223:
  59:lv_examples\lv_tests\lv_test_theme/lv_test_theme.c ****     create_tab3(tab3);
 1204              		.loc 1 59 0
 1205 005a 2846     		mov	r0, r5
 1206 005c FFF7FEFF 		bl	create_tab2
 1207              	.LVL224:
  60:lv_examples\lv_tests\lv_test_theme/lv_test_theme.c **** }
 1208              		.loc 1 60 0
 1209 0060 2046     		mov	r0, r4
 1210 0062 FFF7FEFF 		bl	create_tab3
 1211              	.LVL225:
 1212 0066 70BD     		pop	{r4, r5, r6, pc}
 1213              	.LVL226:
 1214              	.L17:
 1215              		.align	2
 1216              	.L16:
 1217 0068 5C030000 		.word	.LC33
 1218 006c 64030000 		.word	.LC34
 1219 0070 6C030000 		.word	.LC35
 1220              		.cfi_endproc
 1221              	.LFE107:
 1222              		.size	lv_test_theme, .-lv_test_theme
 1223              		.section	.rodata
 1224              		.align	2
 1225              		.set	.LANCHOR2,. + 0
 1226              		.type	line_p.8337, %object
 1227              		.size	line_p.8337, 8
 1228              	line_p.8337:
 1229 0000 0000     		.short	0
 1230 0002 0000     		.short	0
 1231 0004 4000     		.short	64
 1232 0006 0000     		.short	0
 1233              		.data
 1234              		.align	2
 1235              		.set	.LANCHOR1,. + 0
 1236              		.type	btnm_str.8330, %object
 1237              		.size	btnm_str.8330, 24
 1238              	btnm_str.8330:
 1239 0000 88030000 		.word	.LC39
 1240 0004 8C030000 		.word	.LC40
 1241 0008 90030000 		.word	.LC41
 1242 000c 94030000 		.word	.LC42
 1243 0010 F0000000 		.word	.LC28
 1244 0014 84030000 		.word	.LC38
 1245              		.type	mbox_btn_map.8367, %object
 1246              		.size	mbox_btn_map.8367, 16
 1247              	mbox_btn_map.8367:
ARM GAS  C:\Users\Sava\AppData\Local\Temp\ccs9rGHG.s 			page 41


 1248 0018 74030000 		.word	.LC36
 1249 001c 78030000 		.word	.LC37
 1250 0020 74030000 		.word	.LC36
 1251 0024 84030000 		.word	.LC38
 1252              		.section	.rodata.str1.4,"aMS",%progbits,1
 1253              		.align	2
 1254              	.LC0:
 1255 0000 42757474 		.ascii	"Button\000"
 1255      6F6E00
 1256 0007 00       		.space	1
 1257              	.LC1:
 1258 0008 546F6767 		.ascii	"Toggled\000"
 1258      6C656400 
 1259              	.LC2:
 1260 0010 496E6163 		.ascii	"Inactive\000"
 1260      74697665 
 1260      00
 1261 0019 000000   		.space	3
 1262              	.LC3:
 1263 001c 5072696D 		.ascii	"Primary\000"
 1263      61727900 
 1264              	.LC4:
 1265 0024 5365636F 		.ascii	"Secondary\000"
 1265      6E646172 
 1265      7900
 1266 002e 0000     		.space	2
 1267              	.LC5:
 1268 0030 48696E74 		.ascii	"Hint\000"
 1268      00
 1269 0035 000000   		.space	3
 1270              	.LC6:
 1271 0038 536F6D65 		.ascii	"Some text\000"
 1271      20746578 
 1271      7400
 1272 0042 0000     		.space	2
 1273              	.LC7:
 1274 0044 47505300 		.ascii	"GPS\000"
 1275              	.LC8:
 1276 0048 EFA0A900 		.ascii	"\357\240\251\000"
 1277              	.LC9:
 1278 004c 57694669 		.ascii	"WiFi\000"
 1278      00
 1279 0051 000000   		.space	3
 1280              	.LC10:
 1281 0054 EFA0AB00 		.ascii	"\357\240\253\000"
 1282              	.LC11:
 1283 0058 41756469 		.ascii	"Audio\000"
 1283      6F00
 1284 005e 0000     		.space	2
 1285              	.LC12:
 1286 0060 EFA08000 		.ascii	"\357\240\200\000"
 1287              	.LC13:
 1288 0064 56696465 		.ascii	"Video\000"
 1288      6F00
 1289 006a 0000     		.space	2
 1290              	.LC14:
 1291 006c EFA08100 		.ascii	"\357\240\201\000"
ARM GAS  C:\Users\Sava\AppData\Local\Temp\ccs9rGHG.s 			page 42


 1292              	.LC15:
 1293 0070 43616C6C 		.ascii	"Call\000"
 1293      00
 1294 0075 000000   		.space	3
 1295              	.LC16:
 1296 0078 EFA0A200 		.ascii	"\357\240\242\000"
 1297              	.LC17:
 1298 007c 42656C6C 		.ascii	"Bell\000"
 1298      00
 1299 0081 000000   		.space	3
 1300              	.LC18:
 1301 0084 EFA0A700 		.ascii	"\357\240\247\000"
 1302              	.LC19:
 1303 0088 46696C65 		.ascii	"File\000"
 1303      00
 1304 008d 000000   		.space	3
 1305              	.LC20:
 1306 0090 EFA0AA00 		.ascii	"\357\240\252\000"
 1307              	.LC21:
 1308 0094 45646974 		.ascii	"Edit\000"
 1308      00
 1309 0099 000000   		.space	3
 1310              	.LC22:
 1311 009c EFA09000 		.ascii	"\357\240\220\000"
 1312              	.LC23:
 1313 00a0 43757400 		.ascii	"Cut\000"
 1314              	.LC24:
 1315 00a4 EFA0A300 		.ascii	"\357\240\243\000"
 1316              	.LC25:
 1317 00a8 436F7079 		.ascii	"Copy\000"
 1317      00
 1318 00ad 000000   		.space	3
 1319              	.LC26:
 1320 00b0 EFA0A400 		.ascii	"\357\240\244\000"
 1321              	.LC27:
 1322 00b4 4D6F6E64 		.ascii	"Monday\012Tuesday\012Wednesday\012Thursday\012Frida"
 1322      61790A54 
 1322      75657364 
 1322      61790A57 
 1322      65646E65 
 1323 00db 790A5361 		.ascii	"y\012Saturday\012Sunday\000"
 1323      74757264 
 1323      61790A53 
 1323      756E6461 
 1323      7900
 1324 00ed 000000   		.space	3
 1325              	.LC28:
 1326 00f0 EFA08400 		.ascii	"\357\240\204\000"
 1327              	.LC29:
 1328 00f4 EFA09E00 		.ascii	"\357\240\236\000"
 1329              	.LC30:
 1330 00f8 4C616265 		.ascii	"Label in the window\000"
 1330      6C20696E 
 1330      20746865 
 1330      2077696E 
 1330      646F7700 
 1331              	.LC31:
ARM GAS  C:\Users\Sava\AppData\Local\Temp\ccs9rGHG.s 			page 43


 1332 010c 4C6F7265 		.ascii	"Lorem ipsum dolor sit amet, repudiare voluptatibus "
 1332      6D206970 
 1332      73756D20 
 1332      646F6C6F 
 1332      72207369 
 1333 013f 70726920 		.ascii	"pri cu.\012Ei mundi pertinax posidonium eum, cum te"
 1333      63752E0A 
 1333      4569206D 
 1333      756E6469 
 1333      20706572 
 1334 016f 6D706F72 		.ascii	"mpor maiorum at,\012mea fuisset assentior ad. Usu c"
 1334      206D6169 
 1334      6F72756D 
 1334      2061742C 
 1334      0A6D6561 
 1335 019f 75207375 		.ascii	"u suas civibus iudicabit.\012Eum eu congue tempor f"
 1335      61732063 
 1335      69766962 
 1335      75732069 
 1335      75646963 
 1336 01cf 6163696C 		.ascii	"acilisi. Tale hinc unum te vim.\012Te cum populo an"
 1336      6973692E 
 1336      2054616C 
 1336      65206869 
 1336      6E632075 
 1337 01ff 696D616C 		.ascii	"imal eruditi, labitur inciderint at nec.\012\012Eiu"
 1337      20657275 
 1337      64697469 
 1337      2C206C61 
 1337      62697475 
 1338 022c 7320636F 		.ascii	"s corpora et quo. Everti voluptaria instructior est"
 1338      72706F72 
 1338      61206574 
 1338      2071756F 
 1338      2E204576 
 1339 025f 2069642C 		.ascii	" id,\012vel in falli primis. Mea ei porro essent ad"
 1339      0A76656C 
 1339      20696E20 
 1339      66616C6C 
 1339      69207072 
 1340 028f 6D6F6475 		.ascii	"modum,\012his ei malis quodsi, te quis aeterno his."
 1340      6D2C0A68 
 1340      69732065 
 1340      69206D61 
 1340      6C697320 
 1341 02bf 0A517569 		.ascii	"\012Qui tritani recusabo reprehendunt ne,\012per du"
 1341      20747269 
 1341      74616E69 
 1341      20726563 
 1341      75736162 
 1342 02ec 69732065 		.ascii	"is explicari at. Simul mediocritatem mei et.\000"
 1342      78706C69 
 1342      63617269 
 1342      2061742E 
 1342      2053696D 
 1343 0319 000000   		.space	3
 1344              	.LC32:
ARM GAS  C:\Users\Sava\AppData\Local\Temp\ccs9rGHG.s 			page 44


 1345 031c 436C6963 		.ascii	"Click on the window or the page to bring it to the "
 1345      6B206F6E 
 1345      20746865 
 1345      2077696E 
 1345      646F7720 
 1346 034f 666F7265 		.ascii	"foreground\000"
 1346      67726F75 
 1346      6E6400
 1347 035a 0000     		.space	2
 1348              	.LC33:
 1349 035c 54616220 		.ascii	"Tab 1\000"
 1349      3100
 1350 0362 0000     		.space	2
 1351              	.LC34:
 1352 0364 54616220 		.ascii	"Tab 2\000"
 1352      3200
 1353 036a 0000     		.space	2
 1354              	.LC35:
 1355 036c 54616220 		.ascii	"Tab 3\000"
 1355      3300
 1356 0372 0000     		.space	2
 1357              	.LC36:
 1358 0374 8900     		.ascii	"\211\000"
 1359 0376 0000     		.space	2
 1360              	.LC37:
 1361 0378 92476F74 		.ascii	"\222Got it!\000"
 1361      20697421 
 1361      00
 1362 0381 000000   		.space	3
 1363              	.LC38:
 1364 0384 00       		.ascii	"\000"
 1365 0385 000000   		.space	3
 1366              	.LC39:
 1367 0388 3100     		.ascii	"1\000"
 1368 038a 0000     		.space	2
 1369              	.LC40:
 1370 038c 3200     		.ascii	"2\000"
 1371 038e 0000     		.space	2
 1372              	.LC41:
 1373 0390 3300     		.ascii	"3\000"
 1374 0392 0000     		.space	2
 1375              	.LC42:
 1376 0394 EFA08300 		.ascii	"\357\240\203\000"
 1377              		.bss
 1378              		.align	2
 1379              		.set	.LANCHOR0,. + 0
 1380              		.type	h_style.8325, %object
 1381              		.size	h_style.8325, 60
 1382              	h_style.8325:
 1383 0000 00000000 		.space	60
 1383      00000000 
 1383      00000000 
 1383      00000000 
 1383      00000000 
 1384              		.type	highlighted_days.8366, %object
 1385              		.size	highlighted_days.8366, 8
 1386              	highlighted_days.8366:
ARM GAS  C:\Users\Sava\AppData\Local\Temp\ccs9rGHG.s 			page 45


 1387 003c 00000000 		.space	8
 1387      00000000 
 1388              		.text
 1389              	.Letext0:
 1390              		.file 7 "c:\\program files (x86)\\cypress\\psoc creator\\4.2\\psoc creator\\import\\gnu\\arm\\5.4.
 1391              		.file 8 "c:\\program files (x86)\\cypress\\psoc creator\\4.2\\psoc creator\\import\\gnu\\arm\\5.4.
 1392              		.file 9 "lv_examples\\lv_tests\\lv_test_theme\\../../../lvgl/lv_misc/lv_ll.h"
 1393              		.file 10 "lv_examples\\lv_tests\\lv_test_theme\\../../../lvgl/lv_hal/../lv_misc/lv_color.h"
 1394              		.file 11 "lv_examples\\lv_tests\\lv_test_theme\\../../../lvgl/lv_hal/../lv_misc/lv_area.h"
 1395              		.file 12 "lv_examples\\lv_tests\\lv_test_theme\\../../../lvgl/lv_hal/../lv_core/../lv_misc/lv_font
 1396              		.file 13 "lv_examples\\lv_tests\\lv_test_theme\\../../../lvgl/lv_hal/../lv_core/lv_style.h"
 1397              		.file 14 "lv_examples\\lv_tests\\lv_test_theme\\../../../lvgl/lv_hal/../lv_core/lv_obj.h"
 1398              		.file 15 "lv_examples\\lv_tests\\lv_test_theme\\../../../lvgl/lv_themes/lv_theme.h"
 1399              		.file 16 "lv_examples\\lv_tests\\lv_test_theme\\../../../lvgl/lv_objx/lv_chart.h"
 1400              		.file 17 "lv_examples\\lv_tests\\lv_test_theme\\../../../lvgl/lv_objx/lv_ta.h"
 1401              		.file 18 "lv_examples\\lv_tests\\lv_test_theme\\../../../lvgl/lv_objx/lv_calendar.h"
 1402              		.file 19 "lv_examples\\lv_tests\\lv_test_theme\\../../../lvgl/lv_objx/lv_ddlist.h"
 1403              		.file 20 "lv_examples\\lv_tests\\lv_test_theme\\../../../lvgl/lv_objx/lv_label.h"
 1404              		.file 21 "lv_examples\\lv_tests\\lv_test_theme\\../../../lvgl/lv_objx/lv_btnm.h"
 1405              		.file 22 "lv_examples\\lv_tests\\lv_test_theme\\../../../lvgl/lv_objx/lv_sw.h"
 1406              		.file 23 "lv_examples\\lv_tests\\lv_test_theme\\../../../lvgl/lv_objx/lv_bar.h"
 1407              		.file 24 "lv_examples\\lv_tests\\lv_test_theme\\../../../lvgl/lv_objx/lv_slider.h"
 1408              		.file 25 "lv_examples\\lv_tests\\lv_test_theme\\../../../lvgl/lv_objx/lv_cb.h"
 1409              		.file 26 "lv_examples\\lv_tests\\lv_test_theme\\../../../lvgl/lv_objx/lv_list.h"
 1410              		.file 27 "lv_examples\\lv_tests\\lv_test_theme\\../../../lvgl/lv_objx/lv_gauge.h"
 1411              		.file 28 "lv_examples\\lv_tests\\lv_test_theme\\../../../lvgl/lv_objx/lv_arc.h"
 1412              		.file 29 "lv_examples\\lv_tests\\lv_test_theme\\../../../lvgl/lv_objx/lv_kb.h"
 1413              		.file 30 "lv_examples\\lv_tests\\lv_test_theme\\../../../lvgl/lv_objx/lv_preload.h"
 1414              		.file 31 "lv_examples\\lv_tests\\lv_test_theme\\../../../lvgl/lv_objx/lv_win.h"
 1415              		.file 32 "lv_examples\\lv_tests\\lv_test_theme\\../../../lvgl/lv_objx/lv_lmeter.h"
 1416              		.file 33 "lv_examples\\lv_tests\\lv_test_theme\\../../../lvgl/lv_objx/lv_led.h"
 1417              		.file 34 "lv_examples\\lv_tests\\lv_test_theme\\../../../lvgl/lv_objx/lv_mbox.h"
 1418              		.file 35 "lv_examples\\lv_tests\\lv_test_theme\\../../../lvgl/lv_objx/lv_tabview.h"