ARM GAS  C:\Users\Sava\AppData\Local\Temp\cchHm4c4.s 			page 1


   1              		.syntax unified
   2              		.cpu cortex-m3
   3              		.fpu softvfp
   4              		.eabi_attribute 20, 1
   5              		.eabi_attribute 21, 1
   6              		.eabi_attribute 23, 3
   7              		.eabi_attribute 24, 1
   8              		.eabi_attribute 25, 1
   9              		.eabi_attribute 26, 1
  10              		.eabi_attribute 30, 6
  11              		.eabi_attribute 34, 1
  12              		.eabi_attribute 18, 4
  13              		.thumb
  14              		.syntax unified
  15              		.file	"lv_theme.c"
  16              		.text
  17              	.Ltext0:
  18              		.section	.gnu.lto_.inline.d4c1b67,"",%progbits
  19 0000 789C6361 		.ascii	"x\234ca`d\000\0015\006\004`b``a\006R,\037\364\030X@"
  19      60640001 
  19      35060460 
  19      62606061 
  19      06522C1F 
  20 0018 3C9010BA 		.ascii	"<\220\020\272\010\003\0008\266\002\222"
  20      08030038 
  20      B60292
  21              		.text
  22              		.section	.gnu.lto_lv_theme_set_current.d4c1b67,"",%progbits
  23 0000 789C3D50 		.ascii	"x\234=P=K\003A\020\235\267{&(Dll$b\032\011!\340\317"
  23      3D4B0341 
  23      109DB77B 
  23      2628446C 
  23      6C24621A 
  24 0018 B0B0B416 		.ascii	"\260\260\264\026,$\230\342\254\014io\274\344P{\265\010"
  24      2C2498E2 
  24      AC0C696F 
  24      BCE4507B 
  24      B508
  25 002a 9A5492F8 		.ascii	"\232T\222\370\031S^#G0\235\"\026ba#\012)B\212\034(\242"
  25      19535E23 
  25      47309D22 
  25      16626123 
  25      0A29428A 
  26 0041 10E3EC09 		.ascii	"\020\343\354\011.,3\357\355\314\2337k\021\310\234\254"
  26      2E2C33EF 
  26      EDCC9B37 
  26      6B11C89C 
  26      AC
  27 0052 843989D3 		.ascii	"\2049\211\323\006h\202\"\2710o G\301\301\207\032*\264"
  27      06688222 
  27      B9306F20 
  27      47C1C187 
  27      1A2AB4
  28 0065 B7BBBECA 		.ascii	"\267\273\276\312\324Y\316K\247\252\271\021\300\323D"
  28      D459CE4B 
  28      A7AAB911 
  28      C0D344
ARM GAS  C:\Users\Sava\AppData\Local\Temp\cchHm4c4.s 			page 2


  29 0074 23156910 		.ascii	"#\025i\020\352\310H\325C\371\352P\277+O\003\226\300"
  29      EAC848D5 
  29      43F9EA50 
  29      BF2B4F03 
  29      96C0
  30 0086 F0AEF236 		.ascii	"\360\256\3626i\240BJ\340^\265?\257gA\222~w\236\226\322"
  30      69A0424A 
  30      E05EB53F 
  30      AF674192 
  30      7E779E96 
  31 009b C7CC2E73 		.ascii	"\307\314.s+\307\343\236\3268\205\0265\234 \211\006\222"
  31      2BC7E39E 
  31      D6388516 
  31      359C2089 
  31      0692
  32 00ad 2414E10C 		.ascii	"$\024\341\014iS\375\332\372\331O\304\312fx\352o$\316"
  32      6953FDDA 
  32      FAD94FC4 
  32      CA6678EA 
  32      6F24CE
  33 00c0 1133169B 		.ascii	"\0213\026\233\313\001\217F%\016>\307\276\022\226\330"
  33      CB018F46 
  33      250E3EC7 
  33      BE1296D8 
  34 00d0 361D3488 		.ascii	"6\0354\210\\\205J\202\356\302\255\204\327Y\323 J\007"
  34      5C854A82 
  34      EEC2AD84 
  34      D759D320 
  34      4A07
  35 00e2 5EFB3E6E 		.ascii	"^\373>n\034Y\221\015\337\357?\307\235!\3570O\011\267"
  35      1C59910D 
  35      DFEF3FC7 
  35      9D21EF30 
  35      4F09B7
  36 00f5 2B1B19BA 		.ascii	"+\033\031\272w\373x3Q\303\321\026G\274\306\245|\303"
  36      77FB7833 
  36      51C3D116 
  36      47BCC6A5 
  36      7CC3
  37 0107 85982234 		.ascii	"\205\230\"4QCI+\352\301\015\206\213F5\332\177\240\304"
  37      5143492B 
  37      EAC10D86 
  37      8B4635DA 
  37      7FA0C4
  38 011a 8D8C9BB1 		.ascii	"\215\214\233\261\213\353\366\212]\\-\344s\033\271\315"
  38      8BEBF68A 
  38      5D5C2DE4 
  38      731BB9CD 
  39 012a FF6C618D 		.ascii	"\377la\215T!\377\013\352\324nW"
  39      5421FF0B 
  39      EAD46E57 
  40              		.text
  41              		.section	.gnu.lto_lv_theme_get_current.d4c1b67,"",%progbits
  42 0000 789C6550 		.ascii	"x\234eP\277KBQ\024>\337\275\017\037\004\231s8\2708\270"
  42      BF4B4251 
  42      143EDFBD 
  42      0F1F0499 
ARM GAS  C:\Users\Sava\AppData\Local\Temp\cchHm4c4.s 			page 3


  42      7338B838 
  43 0015 B4F71F34 		.ascii	"\264\367\03747\007\015!5\030\004\205\253G}\2172jhH("
  43      37070D21 
  43      35180485 
  43      AB477D8F 
  43      326A6848 
  44 002a 0B8706ED 		.ascii	"\013\207\006\355\227\325\226\3333\032\213(hj\211\212"
  44      97D596DB 
  44      331A8B28 
  44      686A898A 
  45 003a 0269F091 		.ascii	"\002i\360\221\215f\347(\264t\341\334\363\353\343\373"
  45      8D66E728 
  45      B474E1DC 
  45      F3EBE3FB 
  46 004a CE390E81 		.ascii	"\3169\016\201\364M\212\213\323\320\310!\030\022\203"
  46      F44D8A8B 
  46      D3D0C821 
  46      181283
  47 0059 95DF4211 		.ascii	"\225\337B\021\240\234\261\310\341\333\364\014\356\275"
  47      A09CB1C8 
  47      E1DBF40C 
  47      EEBD
  48 0067 F33DDB35 		.ascii	"\363=\3335\276%8\222\206\267\273\257QM\201\204\244\025"
  48      BE253892 
  48      86B7BBAF 
  48      514D8184 
  48      A415
  49 0079 7E28B9A9 		.ascii	"~(\271\251\032s\201\237\375\257\245\255\242?\345[C}"
  49      1A73819F 
  49      FDAFA5AD 
  49      A23FE55B 
  49      437D
  50 008b 43A8238E 		.ascii	"C\250#\216\032T\003\207H\221\200_.~\266G#\036\313K("
  50      1A540387 
  50      4891805F 
  50      2E7EB647 
  50      231ECB4B 
  51 00a0 443A4788 		.ascii	"D:G\210\210\"\244\271\261\331\353\216%\017\230\3279"
  51      8822A4B9 
  51      B1D9EB8E 
  51      250F98D7 
  51      39
  52 00b1 A8AE4677 		.ascii	"\250\256Fw\352\201\227\370O%\330c$\317\246\003\356\367"
  52      EA8197F8 
  52      4F25D863 
  52      24CFA603 
  52      EEF7
  53 00c3 8B1C54DC 		.ascii	"\213\034T\334\326\245+ \005RG\031)4\342\354;\012\345"
  53      D6A52B20 
  53      05524719 
  53      2934E2EC 
  53      3B0AE5
  54 00d6 F0A36555 		.ascii	"\360\243eU\240hu\217\262\177u\347\352\340\026:K\263"
  54      A068758F 
  54      B27F75E7 
  54      EAE0163A 
  54      4BB3
ARM GAS  C:\Users\Sava\AppData\Local\Temp\cchHm4c4.s 			page 4


  55 00e8 F9F9E4E6 		.ascii	"\371\371\344\346z\274\306\034\223ZI\266\327r\373\346"
  55      7ABCC61C 
  55      935A49B6 
  55      D772FBE6 
  56 00f8 F17AA48A 		.ascii	"\361z\244\212\375<\017\352\006\247r\207\023\225F\003"
  56      FD3C0FEA 
  56      06A77287 
  56      13954603 
  57 0108 550CF805 		.ascii	"U\014\370\005j\337\220\217\021\013U[.7\324P\361\216"
  57      6ADF908F 
  57      110B555B 
  57      2E37D450 
  57      F18E
  58 011a 118844E3 		.ascii	"\021\210D\343\231\354|f&\223\235]YH/\246\227\377\242"
  58      99EC7C66 
  58      26939D5D 
  58      59482FA6 
  58      97FFA2
  59 012d 8939FA05 		.ascii	"\2119\372\005\225\011n\306"
  59      95096EC6 
  60              		.text
  61              		.section	.gnu.lto_.symbol_nodes.d4c1b67,"",%progbits
  62 0000 789C6361 		.ascii	"x\234ca`d\320a\000\002&\336z\006\206\011\347\030\030"
  62      6064D061 
  62      000226DE 
  62      7A068609 
  62      E71818
  63 0013 80D4AA46 		.ascii	"\200\324\252FE\006\006V\036\206\026!\006\006f&\276z"
  63      45060656 
  63      1E861621 
  63      06066626 
  63      BE7A
  64 0025 46140906 		.ascii	"F\024\011\006\000\300\216\010L"
  64      00C08E08 
  64      4C
  65              		.text
  66              		.section	.gnu.lto_.refs.d4c1b67,"",%progbits
  67 0000 789C6361 		.ascii	"x\234ca`d\340f`\000\222\214@\300\004$\031\000\001M\000"
  67      6064E066 
  67      6000928C 
  67      40C00424 
  67      1900014D 
  68 0015 1A       		.ascii	"\032"
  69              		.text
  70              		.section	.gnu.lto_.decls.d4c1b67,"",%progbits
  71 0000 789CCD7C 		.ascii	"x\234\315|{PTY\232'\347\236\233\311\303D*\324\351q:"
  71      7B505459 
  71      9A27E79E 
  71      9BC9C344 
  71      2AD4E971 
  72 0015 DCE8DA6A 		.ascii	"\334\350\332j\272\232\211\215)\333\256\236\211\211\335"
  72      BA9A898D 
  72      29DBAE9E 
  72      8989DD
  73 0024 8D8DD99D 		.ascii	"\215\215\331\235\211\256\211\236\215\231\335\215\230"
  73      89AE899E 
  73      8D99DD8D 
ARM GAS  C:\Users\Sava\AppData\Local\Temp\cchHm4c4.s 			page 5


  73      98
  74 0031 F9CB0E86 		.ascii	"\371\313\016\206G\226\022\215@$iU\371\307\366\244\250"
  74      4796128D 
  74      40246955 
  74      F9C7F6A4 
  74      A8
  75 0042 3C149537 		.ascii	"<\024\2257\010\362TD@\005D@\236\246(o\005\005AQ\021"
  75      08F25444 
  75      40054440 
  75      9EA6286F 
  75      05054151 
  76 0057 50F1ADC8 		.ascii	"P\361\255\310C\021y\355w\0367\3573\263\253f\"&6\243"
  76      431179ED 
  76      771E37EF 
  76      33B3AB66 
  76      222636A3 
  77 006b 3EB927EF 		.ascii	">\271'\357w\317\367}\277\357w\276s\316\2757K\364B^\344"
  77      77CFF77D 
  77      BFEF77BE 
  77      73CEBD37 
  77      4BF4425E 
  78 0080 F3EC7F7A 		.ascii	"\363\354\177zy\365\233\274\274N\303\361\032|0\374\375"
  78      79F59BBC 
  78      BC4EC3F1 
  78      1A7C30FC 
  78      FD
  79 0091 272FF923 		.ascii	"'/\371#\200\014\300?\203 \344\212[\202\227\352C\316"
  79      800CC03F 
  79      8320E48A 
  79      5B8297EA 
  79      43CE
  80 00a3 99F8351B 		.ascii	"\231\3705\033@6\201\\\203\357\206\271\036\342:F\327"
  80      4036815C 
  80      83EF86B9 
  80      1EE23A46 
  80      D7
  81 00b4 923E450F 		.ascii	"\222>E\017\327\221\363\002\277nDs\355\212\200\226\227"
  81      D791F302 
  81      BF6E4473 
  81      ED8A8096 
  81      97
  82 00c5 FA2F7BDF 		.ascii	"\372/{\337C\243D\025\221\217\027\217\311\365AL\020r"
  82      43A34415 
  82      918F178F 
  82      C9F5414C 
  82      1072
  83 00d7 85226B20 		.ascii	"\205\"k \244W\246]\310\337k\024(>\364#\237@\3140\273"
  83      A457A65D 
  83      C8DF6B14 
  83      283EF423 
  83      9F40CC30 
  84 00ec 48A92F99 		.ascii	"H\251/\231\006\263\354\020y\271\274\220t\025\375q\357"
  84      06B3EC10 
  84      79B9BC90 
  84      7415FD71 
  84      EF
  85 00fd 6567351F 		.ascii	"eg5\037,\005}\267y\256\307\204\241O8\036_<\375\353/"
ARM GAS  C:\Users\Sava\AppData\Local\Temp\cchHm4c4.s 			page 6


  85      2C057DB7 
  85      79AEC784 
  85      A14F381E 
  85      5F3CFDEB 
  86 0112 CE38E093 		.ascii	"\3168\340\223\342p\010[edn\356\257>\216\347\005\264"
  86      E270085B 
  86      65646EEE 
  86      AF3E8EE7 
  86      05B4
  87 0124 C10F89D0 		.ascii	"\301\017\211\320\234\271\236\373h=47\371\241O\241\031"
  87      9CB99EFB 
  87      683D3437 
  87      F9A14FA1 
  87      19
  88 0135 7F2A79D0 		.ascii	"\177*y\320\302\316&bh_l}\375K\326\334\002\255\246\261"
  88      C2CE2662 
  88      685F6C7D 
  88      FD4BD6DC 
  88      02ADA6B1 
  89 0149 19E73AA6 		.ascii	"\031\347:\246<\201\240}\241u\246\324\227\235v\020\355"
  89      3C81A07D 
  89      A175A6D4 
  89      979D7610 
  89      ED
  90 015a DCE6F95E 		.ascii	"\334\346\371^\023k\373@\263\341Me\203?Sw\022\323\267"
  90      136BFB40 
  90      B3E14D65 
  90      833F5377 
  90      12D3B7
  91 016d 3E56B58A 		.ascii	">V\265\212\370S\352\337\033\307@\272\031\177N\217\233"
  91      F853EADF 
  91      1BC740BA 
  91      197F4E8F 
  91      9B
  92 017e 1B5A3AF9 		.ascii	"\033Z:\371e\277\200\346\343\245\263M\353Y\323\2548\273"
  92      65BF80E6 
  92      E3A5B34D 
  92      EB59D3AC 
  92      38BB
  93 0190 899D7DDE 		.ascii	"\211\235}\336\220xZ\300\377\211u\262\177j\202\373\263"
  93      90785AC0 
  93      FF8975B2 
  93      7F6A82FB 
  93      B3
  94 01a1 199A7171 		.ascii	"\031\232qq)\016\013\336FOU\035x\\\356\003\247\266\370"
  94      290E0BDE 
  94      464F551D 
  94      785CEE03 
  94      A7B6F8
  95 01b4 A135E26A 		.ascii	"\2415\342j\325\253\306E\177\326&\247/8\347\316\212\370"
  95      D5ABC645 
  95      7FD626A7 
  95      2F38E7CE 
  95      8AF8
  96 01c6 CFC9B170 		.ascii	"\317\311\261p\263v\264\303\027\005\371\235\"hM\254\275"
  96      B376B4C3 
  96      1705F99D 
ARM GAS  C:\Users\Sava\AppData\Local\Temp\cchHm4c4.s 			page 7


  96      22684DAC 
  96      BD
  97 01d7 FBEFFB1C 		.ascii	"\373\357\373\034\016\204\332\220\037jA\030\225\243/"
  97      0E84DA90 
  97      1F6A4118 
  97      95A32F
  98 01e6 484AB6F8 		.ascii	"HJ\266\370\301\277\211\016G\234\343m\211\303\274\331"
  98      C1BF890E 
  98      479CE36D 
  98      89C3BCD9 
  99 01f6 0B7DB905 		.ascii	"\013}\271\005\375b\213\027jEA\244O\242\205\232\321\026"
  99      FD628B17 
  99      6A4541A4 
  99      4FA2859A 
  99      D116
 100 0208 D484B690 		.ascii	"\324\204\266\220\376\313\013O_\365\307\355\210\032x"
 100      FECB0B4F 
 100      5FF5C7ED 
 100      881A78
 101 0217 9DF13211 		.ascii	"\235\3612\021\273\014\324\035\331R\351p|\202.\203\201"
 101      BB0CD41D 
 101      D952E970 
 101      7C822E83 
 101      81
 102 0228 4BB201B0 		.ascii	"K\262\001\260gl\301il\241\273\371\330\360z|\231f[\250"
 102      676CC169 
 102      6CA1BBF9 
 102      D8F07A7C 
 102      99665BA8 
 103 023c 4B7E74C6 		.ascii	"K~t\306\"[\310\012O;\000YGW\301D\273l\342\262;\023W"
 103      225BC80A 
 103      4F3B0059 
 103      4757C144 
 103      BB6CE2B2 
 104 0253 8C4D0CBE 		.ascii	"\214M\014\276\275\226\317\341\375\004\232\255}K/\002"
 104      BD96CFE1 
 104      FD049AAD 
 104      7D4B2F02 
 105 0263 F012E357 		.ascii	"\360\022\343W\307\332\2023\200%I\200\346\324\325\275"
 105      C7DA8233 
 105      80254980 
 105      E6D4D5BD 
 106 0273 AD26BC0F 		.ascii	"\255&\274\017\323s\267G\3677\"v\335:h\226~\\zK\030\367"
 106      D373B747 
 106      F7372276 
 106      DD3A6896 
 106      7E5C7A4B 
 107 0289 39A4620D 		.ascii	"9\244b\015+r\3619\313\305\245\276\236S\026\234D\257"
 107      2B72F139 
 107      CBC5A5BE 
 107      9E53169C 
 107      44AF
 108 029b 1506DB73 		.ascii	"\025\006\333sV\326!\277 \352\245c\237\303/\310\013u"
 108      56D621BF 
 108      20EAA563 
 108      9FC32FC8 
 108      0B75
ARM GAS  C:\Users\Sava\AppData\Local\Temp\cchHm4c4.s 			page 8


 109 02ad 804B5DE0 		.ascii	"\200K]\340\022\352\007??\347~\366\301\227\275\360%\317"
 109      12EA073F 
 109      3FE77EF6 
 109      C197BDF0 
 109      25CF
 110 02bf DAEBDFD0 		.ascii	"\332\353\337\320\254]\207\210\257\311\021\177\356\307"
 110      AC5D8788 
 110      AFC9117F 
 110      EEC7
 111 02cd 48DF967A 		.ascii	"H\337\226z\357\211\037\316`&N>r4\213\356L\334tk\242"
 111      EF891FCE 
 111      60264E3E 
 111      72348BEE 
 111      4CDC746B 
 112 02e2 EEC8E767 		.ascii	"\356\310\347gH\336n\200\211\001\331\304u\304m\364\234"
 112      48DE6E80 
 112      8901D9C4 
 112      75C46DF4 
 112      9C
 113 02f3 6C5AB6B0 		.ascii	"lZ\266\260\250M\320\354+=\374S\234O-\342\236\334\221"
 113      A84DD0EC 
 113      2B3DFC53 
 113      9C4F2DE2 
 113      9EDC91
 114 0306 F675D019 		.ascii	"\366u\320\031\371\317/\327\001\206\337z\243\021\270"
 114      F9CF2FD7 
 114      0186DF7A 
 114      A311B8
 115 0315 30D7E143 		.ascii	"0\327\341C\377\262\234\304\025\375G$\345\304\213~\357"
 115      FFB29CC4 
 115      15FD4724 
 115      E5C48B7E 
 115      EF
 116 0326 8586E19A 		.ascii	"\205\206\341\232[,\035\322\270\330\304\306EY\371\225"
 116      5B2C1DD2 
 116      B8D8C4C6 
 116      4559F995 
 117 0336 F875B898 		.ascii	"\370u\270\230YH\352\232\2527!?f\202\367\346T\3666J{"
 117      5948EA9A 
 117      AA37213F 
 117      6682F7E6 
 117      54F6364A 
 118 034b BB0BA7EF 		.ascii	"\273\013\247\357Ao\304\356(\265O|\371\011=&\343\251"
 118      416FC4EE 
 118      28B54F7C 
 118      F9093D26 
 118      E3A9
 119 035d F47C8105 		.ascii	"\364|\201\005\227\321.\315\267\313fR\005\024\270100"
 119      97D12ECD 
 119      B7CB6652 
 119      0514B831 
 119      3030
 120 036f 28B084F3 		.ascii	"(\260\204\363\352o\006\253\035)\277 \260\242\007h\243"
 120      EA6F06AB 
 120      1D29BF20 
 120      B0A20768 
 120      A3
ARM GAS  C:\Users\Sava\AppData\Local\Temp\cchHm4c4.s 			page 9


 121 0380 8CDA5662 		.ascii	"\214\332Vbb\033\374\343\225J4\035$\027\202\214*\323"
 121      621BFCE3 
 121      954A341D 
 121      2417828C 
 121      2AD3
 122 0392 06C0D024 		.ascii	"\006\300\320$\300;\201\002\3218\310C\024H\213R\011q"
 122      C03B8102 
 122      D138C843 
 122      14488B52 
 122      0971
 123 03a4 D73993F0 		.ascii	"\3279\223\360G\331\216\203?&\256\240;\000/\271\3426"
 123      47D98E83 
 123      3F26AEA0 
 123      3B002FB9 
 123      E236
 124 03b6 62FCDCBA 		.ascii	"b\374\334\272\205\242>\006\027\015\222\356\370%\017"
 124      85A23E06 
 124      170D92EE 
 124      F8250F
 125 03c5 BAD639DB 		.ascii	"\272\3269\333\315\004(t\237_1\250\277\202\272ES\350"
 125      CD042874 
 125      9F5F31A8 
 125      BF82BA45 
 125      53E8
 126 03d7 1CED121C 		.ascii	"\034\355\022\034\0209(z\361\364\311\366\347\270}\322"
 126      1039287A 
 126      F1F4C9F6 
 126      E7B87DD2 
 127 03e7 DB90FBDE 		.ascii	"\333\220\373\336z\250}\300\352l\325\310\357\361\031"
 127      7AA87DC0 
 127      EA6CD5C8 
 127      EFF119
 128 03f6 0A95F8A2 		.ascii	"\012\225\370\242\362i\253\005\005n\012\014\242@9S{\205"
 128      F269AB05 
 128      056E0A0C 
 128      A2403953 
 128      7B85
 129 0408 1C87330E 		.ascii	"\034\2073\0163KSh\223\021Ri\306H\021m\202\324S@\352"
 129      334B5368 
 129      93115269 
 129      C648116D 
 129      82D45340 
 130 041d 31187CA2 		.ascii	"1\030|\242B)\375`\000\353\231\370\363\010\334t\3239"
 130      4229FD60 
 130      00EB99F8 
 130      F308DC74 
 130      D339
 131 042f 8B77B8CB 		.ascii	"\213w\270\313B\342\005\035e\274\340|^\315\324+_\\\303"
 131      42E2051D 
 131      65BCE07C 
 131      5ECDD42B 
 131      5F5CC3
 132 0442 C643CD87 		.ascii	"\306C\315\207\204\273~hS\220\241C\350\005\370\341\316"
 132      84BB7E68 
 132      5390A143 
 132      E805F8E1 
 132      CE
ARM GAS  C:\Users\Sava\AppData\Local\Temp\cchHm4c4.s 			page 10


 133 0453 276625B3 		.ascii	"'f%\263\027\021+\317A\351\231<.\210Qj\353\324{\307\006"
 133      17112BCF 
 133      41E9993C 
 133      2E88516A 
 133      EBD47BC7 
 134 0468 DCC64C5D 		.ascii	"\334\306L]ho\272lBA\233\330\2053\007\377\230\\\370\032"
 134      686FBA6C 
 134      42419BD8 
 134      853307FF 
 134      985CF81A 
 135 047c 2E7C295F 		.ascii	".|)_\370\234^h\354\314+\017\316\254\010\2467E\037\256"
 135      F89C5E68 
 135      ECCC2B0F 
 135      CEAC08A6 
 135      37451FAE 
 136 0490 8984B294 		.ascii	"\211\204\262\224\261q\216\211\332\202\360\342\251\003"
 136      B1718E89 
 136      DA82F0E2 
 136      A903
 137 049e 8EEA7FA6 		.ascii	"\216\352\177\246\245\260\021\214LCZ\277\224\262\012"
 137      A5B0118C 
 137      4C435ABF 
 137      94B20A
 138 04ad D62E2217 		.ascii	"\326.\"\027kS\234\314Z%X\253\240\271\230\346\254\235"
 138      6B539CCC 
 138      5A2558AB 
 138      A0B998E6 
 138      AC9D
 139 04bf 01536FC1 		.ascii	"\001So\301\324,\310\0339\037\020\302J\374\217X>H\020"
 139      D42CC81B 
 139      391F10C2 
 139      4AFC8F58 
 139      3E4810
 140 04d2 DDBC7FB7 		.ascii	"\335\274\177\267\371X\352\244\374\2336\342\337Z<\360"
 140      F958EAA4 
 140      FC9B36E2 
 140      DF5A3CF0 
 141 04e2 CFB91753 		.ascii	"\317\271\027SO;\015<\355\220\230'M\331\033\330\224-"
 141      4F3B0D3C 
 141      ED909827 
 141      4DD91BD8 
 141      942D
 142 04f4 55E90DAC 		.ascii	"U\351\015\254J\327?\351\351\364cU\302A&\276\343-\005"
 142      4AD73FE9 
 142      E9F46355 
 142      C24126BE 
 142      E32D05
 143 0507 D5BE789A 		.ascii	"\325\276x\232U\346\222\323\335\205\353\360<k<*\351?"
 143      55E692D3 
 143      DD85EBF0 
 143      3C6B3C2A 
 143      E93F
 144 0519 2180E666 		.ascii	"!\200\346fR\227\211j\256\363\306oY\333\341\370=\264"
 144      5297896A 
 144      AEF3C66F 
 144      59DBE1F8 
 144      3DB4
ARM GAS  C:\Users\Sava\AppData\Local\Temp\cchHm4c4.s 			page 11


 145 052b 6BEFCD97 		.ascii	"k\357\315\227\013x\215\245n,\263|\301\314\252\246CW"
 145      0B788DA5 
 145      6E2CB37C 
 145      C1CCAAA6 
 145      4357
 146 053d 359701A0 		.ascii	"5\227\001\240\315\274j.\302\227\037\344\302<\365?ha"
 146      CDBC6A2E 
 146      C2971FE4 
 146      C23CF53F 
 146      6861
 147 054f 5E82A83E 		.ascii	"^\202\250>\312I\336\314\213f]\316\365\364\3658I\244"
 147      CA49DECC 
 147      8B665DCE 
 147      F5F4F538 
 147      49A4
 148 0561 268EE48E 		.ascii	"&\216\344\216\236\260\2703\261\346\326D\335\221@:\241"
 148      9EB0B833 
 148      B1E6D644 
 148      DD91403A 
 148      A1
 149 0572 AE828915 		.ascii	"\256\202\211\025\331\304\222T\230\217.\337\317\012\300"
 149      D9C49254 
 149      988F2EDF 
 149      CF0AC0
 150 0581 A9CCC66A 		.ascii	"\251\314\306jAY\213\237;\033q\202;\033\213\017c\322"
 150      41598B9F 
 150      3B1B7182 
 150      3B1B8B0F 
 150      63D2
 151 0593 E994BA57 		.ascii	"\351\224\272W\000t\004\227\221U\311H\316\243\303\275"
 151      00740497 
 151      9155C948 
 151      CEA3C3BD 
 152 05a3 22BE468D 		.ascii	"\"\276F\215\240'\007\313g,x\2245\226\236e\214\362\331"
 152      A02707CB 
 152      672C7894 
 152      35969E65 
 152      8CF2D9
 153 05b6 D002CDB1 		.ascii	"\320\002\315\261\356\362J2\033\376\234\240\276\266\026"
 153      EEF24A32 
 153      1BFE9CA0 
 153      BEB616
 154 05c5 A0980F7F 		.ascii	"\240\230\017\177\316\346\303\301\243\263'\275\361\003"
 154      CEE6C3C1 
 154      A3B327BD 
 154      F103
 155 05d3 E66F65EA 		.ascii	"\346oe\352\313A\305\342\244\324\322HB=\010^$\312^\374"
 155      CB41C5E2 
 155      A4D4D248 
 155      423D085E 
 155      24CA5EFC 
 156 05e7 DC35AFA7 		.ascii	"\3345\257\247\354sl\370[\231\302(\011\"\3729\217(A\330"
 156      EC736CF8 
 156      5B99C228 
 156      0922FA39 
 156      8F2841D8 
 157 05fb 82E205B6 		.ascii	"\202\342\005\266<9\231Zb\306\317\231\211\212s\003\235"
ARM GAS  C:\Users\Sava\AppData\Local\Temp\cchHm4c4.s 			page 12


 157      3C39995A 
 157      62C6CF99 
 157      898A7303 
 157      9D
 158 060c DED27CA8 		.ascii	"\336\322|\250\355\340\260A\007\022\354\277\242\363a"
 158      EDE0B041 
 158      0712ECBF 
 158      A2F361
 159 061b 32F87248 		.ascii	"2\370rH\366\005\\\343\013\315\205'\005\010\3172\020"
 159      F6055CE3 
 159      0BCD8527 
 159      0508CF32 
 159      10
 160 062c A455E726 		.ascii	"\244U\347&\266\352\254\032]L^\207\227\3519\3345r\037"
 160      B6EAAC1A 
 160      5D4C5E87 
 160      97E939DC 
 160      35721F
 161 063f 7053CF5D 		.ascii	"pS\317]\016\345\334\225J\272Di`=]`s\027\371\206\315"
 161      0EE5DC95 
 161      4ABA4469 
 161      603D5D60 
 161      7317F986 
 162 0654 5D981E43 		.ascii	"]\230\036C\227\317\034\313\373}\260\303\244Z\030n`\013"
 162      97CF1CCB 
 162      FB7DB0C3 
 162      A45A186E 
 162      600B
 163 0666 C3A2AE8A 		.ascii	"\303\242\256\212\344\000|\200\235+\034=uM\304GYc\362"
 163      E4007C80 
 163      9D2B1C3D 
 163      754DC447 
 163      5963F2
 164 0679 4AA663BD 		.ascii	"J\246c\275H\326\335$\214P\221|\267VP_\345\217\217\271"
 164      48D6DD24 
 164      8C50917C 
 164      B756505F 
 164      E58F8FB9 
 165 068d 57C81F7E 		.ascii	"W\310\037~\230\342\353\307\327Q)\177x\251\226\333\221"
 165      98E2EBC7 
 165      D751297F 
 165      78A996DB 
 165      91
 166 069e D86EB21C 		.ascii	"\330n\262\034t\301\213\362\240+\271\312\034\027,\274"
 166      74C18BF2 
 166      A02BB9CA 
 166      1C172CBC 
 167 06ae 2C37EDBD 		.ascii	",7\355\275\321k\302'\231\345\274\231\304\034\263\037"
 167      D16BC227 
 167      99E5BC99 
 167      C41CB31F 
 168 06be 4F4ACA1F 		.ascii	"OJ\312\037L\012Y_/\234-Z\257\264S\240\262S\350\2623"
 168      4C0A595F 
 168      2F9C2D5A 
 168      AFB453A0 
 168      B253E8B2 
 169 06d3 96919218 		.ascii	"\226\221\222\030\200k\230\235r\307\302a\037\334\314"
ARM GAS  C:\Users\Sava\AppData\Local\Temp\cchHm4c4.s 			page 13


 169      806B989D 
 169      72C7C261 
 169      1FDCCC
 170 06e2 1AEDB3D5 		.ascii	"\032\355\263\325e|\375OVj\331\315%W|\261\223\236\303"
 170      657CFD4F 
 170      566AD9CD 
 170      25577CB1 
 170      939EC3
 171 06f5 E7B2EF9C 		.ascii	"\347\262\357\234\364\227W1>\350\224+\013kk\377\262\206"
 171      F4975731 
 171      3EE8942B 
 171      0B6B6BFF 
 171      B286
 172 0707 685B22D1 		.ascii	"h[\"\321\372\277U\026\322S4\203'\301\325R\352\252)\367"
 172      FABF5516 
 172      D2533483 
 172      27C1D552 
 172      EAAA29F7 
 173 071b 65E9AA1F 		.ascii	"e\351\252\037\242k\013V{I\221\020\225\227\224\011\254"
 173      A26B0B56 
 173      7B499110 
 173      95979409 
 173      AC
 174 072c F65640AC 		.ascii	"\366V@\254\225B :-(\346\301\211\3067\1775u\"\236\314"
 174      9542203A 
 174      2D28E6C1 
 174      89C6377F 
 174      3575229E 
 175 0741 FED0353A 		.ascii	"\376\3205:\001\364#\372P\314Q\211\300&l\222\256r\270"
 175      01F423FA 
 175      50CC5189 
 175      C0266C92 
 175      AE72B8
 176 0754 EECB2DAE 		.ascii	"\356\313-\256b]\333aq\304\231\321?\370\261\336]pj\313"
 176      625DDB61 
 176      71C499D1 
 176      3FF8B1DE 
 176      5D706ACB 
 177 0768 749E9554 		.ascii	"t\236\225TiP\321W\351\302=P\244a\315\005Y.\346F]5\332"
 177      6950D157 
 177      E9C23D50 
 177      A461CD05 
 177      592EE646 
 178 077f 65729BB4 		.ascii	"er\233\264D(|\234c\301\313\024=\241</\373\261\200\202"
 178      44287C9C 
 178      63C1CB14 
 178      3DA13C2F 
 178      FBB18082 
 179 0793 363213B5 		.ascii	"62\023\265\376PK\316\301\325g\344\221C\014JS\221\006"
 179      FE504BCE 
 179      C1D567E4 
 179      91430C4A 
 179      539106
 180 07a6 0E741650 		.ascii	"\016t\026Pp\207\010Xz\275T\337\341\277\221_\352t{\251"
 180      70870858 
 180      7ABD54DF 
 180      E1BF915F 
ARM GAS  C:\Users\Sava\AppData\Local\Temp\cchHm4c4.s 			page 14


 180      EA747BA9 
 181 07ba 97F6BA0B 		.ascii	"\227\366\272\013\347\342>S\022\246J\001\213\027\252"
 181      E7E23E53 
 181      12A64A01 
 181      8B17AA
 182 07c9 76116676 		.ascii	"v\021fv\376\320\317"
 182      FED0CF
 183 07d0 708A9952 		.ascii	"p\212\231R\244\255c\242+\000\347\263FC\333\265+&\\\301"
 183      A4AD63A2 
 183      2B00E7B3 
 183      4643DBB5 
 183      2B265CC1 
 184 07e4 1A2F1E57 		.ascii	"\032/\036W\230\361Ev\23477\366\234o\015\203H\015\276"
 184      98F14576 
 184      9C3737F6 
 184      9C6F0D83 
 184      480DBE
 185 07f7 5178CF87 		.ascii	"Qx\317\207o\005\311~\341\351\370\323\345\000\334Mu7"
 185      6F05C97E 
 185      E1E9F8D3 
 185      E500DC4D 
 185      7537
 186 0809 E78C0F0C 		.ascii	"\347\214\017\014X\350J\223|,\201\226\315\242\2055\202"
 186      58E84A93 
 186      7C2C8196 
 186      CDA28535 
 186      82
 187 081a E0902F0F 		.ascii	"\340\220/\017[\3211\207s?F\327\005\013:\006\2405*38"
 187      5BD13187 
 187      733F46D7 
 187      050B3A06 
 187      A0352A33 
 188 082f 4FFDAD54 		.ascii	"O\375\255T\314\345\016\006`=P\256\2160\342\002\277\204"
 188      CCE50E06 
 188      603D50AE 
 188      8E30E202 
 188      BF84
 189 0841 00780D10 		.ascii	"\000x\015\020\351\003 zAz@\272A\272@.\202\\\006\271"
 189      E903207A 
 189      417A40BA 
 189      41BA402E 
 189      825C06B9 
 190 0855 04D206D2 		.ascii	"\004\322\006\322\012\322\014\322\244\244\236se\217\274"
 190      0AD20CD2 
 190      A4A49E73 
 190      658FBC
 191 0864 026BE0BD 		.ascii	"\002k\340\275\272f\2209\205#L\375\343o3~E\350r\204\253"
 191      BA669039 
 191      85234CFD 
 191      E36F337E 
 191      45E87284 
 192 0879 72BA8022 		.ascii	"r\272\200\"\345K\013\364\177@\2209\272&sT\025!\353x"
 192      E54B0BF4 
 192      7F409039 
 192      BA267354 
 192      1521EB78 
 193 088d 9BDCEFE2 		.ascii	"\233\334\357\342\036\272\\\205\352\207Rx\327G\005}\337"
ARM GAS  C:\Users\Sava\AppData\Local\Temp\cchHm4c4.s 			page 15


 193      1EBA5C85 
 193      EA875278 
 193      D747057D 
 193      DF
 194 089e 5FCA57BC 		.ascii	"_\312W\274\377\255\343\212\231\270\222\341\336\025\205"
 194      FFADE38A 
 194      99B892E1 
 194      DE1585
 195 08ad 81778B1C 		.ascii	"\201w\213\034q' \236\245E<S\220\003U\020\250QE '#\020"
 195      7127209E 
 195      A5453C53 
 195      90035510 
 195      A8514520 
 196 08c4 5F60FF5F 		.ascii	"_`\377_\326];t\227m\334\3356MoW\204\315\212\336\332"
 196      D65D3B74 
 196      976DDCDD 
 196      364D6F57 
 196      84CD8ADE 
 197 08d9 596F597C 		.ascii	"YoY|\200|*\322\031_>\017\332\360\357U\201\3346\"\005"
 197      807C2AD2 
 197      195F3E0F 
 197      DAF0EF55 
 197      81DC3622 
 198 08ee BB030CE5 		.ascii	"\273\003\014\345@K\321a\247\312\275\016\326!'\214\323"
 198      404BD161 
 198      A7CABD0E 
 198      D621278C 
 198      D3
 199 08ff 2D61BCFE 		.ascii	"-a\274\376\015l\031o\344(B\365E\371\306\274U\200>V*"
 199      0D6C196F 
 199      E42842F5 
 199      45F9C6BC 
 199      55803E56 
 200 0914 3075187B 		.ascii	"0u\030{\250H\253^\255c\327\275:\336=L\"\250\306X_\321"
 200      A848AB5E 
 200      AD63D7BD 
 200      3ADE3D4C 
 200      22A8C658 
 201 092a FDE81EA6 		.ascii	"\375\350\036\246M\322}^\253\275U\333\371\210\325\221"
 201      4DD27D5E 
 201      ABBD55DB 
 201      F988D591 
 202 093a 64A6BAB5 		.ascii	"d\246\272\265\206\272\212\2229TL\367\000\215\352\232"
 202      86BA8A92 
 202      39544CF7 
 202      008DEA9A 
 203 094a A940BE5F 		.ascii	"\251@\276_\225\312\353\272T\022\377\345\363\3754\225"
 203      95CAEBBA 
 203      5412FFE5 
 203      F3FD3495 
 204 095a 03AA54E6 		.ascii	"\003\252T\346\012t\362}VR\336\261\016\017\322\312!\344"
 204      0A74F27D 
 204      5652DEB1 
 204      0E0FD2CA 
 204      21E4
 205 096c 3775179A 		.ascii	"7u\027\232\\Eu\215\024\325Ap\363\206\\T\033\025EU[\023"
 205      5C45758D 
ARM GAS  C:\Users\Sava\AppData\Local\Temp\cchHm4c4.s 			page 16


 205      14D54170 
 205      F3865C54 
 205      1B154555 
 206 0982 6E421DF8 		.ascii	"nB\035\370\267\326\004R\352\272\017gI\305W\313\"\205"
 206      B7D60452 
 206      EABA0F67 
 206      49C557CB 
 206      2285
 207 0994 897F1D8B 		.ascii	"\211\177\035\213\240\377\352\245\326\021QY\245\207T"
 207      A0FFEAA5 
 207      D6115159 
 207      A58754
 208 09a3 2CBE2555 		.ascii	",\276%Ui\357\266\344k\225PG\225[\366\332\202\355\227"
 208      69EFB6E4 
 208      6B955047 
 208      955BF6DA 
 208      82ED97
 209 09b6 0FC43B6E 		.ascii	"\017\304;n\3743]\270\356\003\\n+\313\225\216 \343\235"
 209      FC335DB8 
 209      EE035C6E 
 209      2BCB958E 
 209      20E39D
 210 09c9 FF813104 		.ascii	"\377\2011\004zE\373\271\272\021CT\210\276\003\005F\345"
 210      7A45FBB9 
 210      BA114354 
 210      88BE0305 
 210      46E5
 211 09db DB1CCEBB 		.ascii	"\333\034\316\273\020\367(\2041\0022\014r\017\344\216"
 211      10F72884 
 211      3102320C 
 211      720FE48E 
 212 09eb 6A60BC53 		.ascii	"j`\274S\356w\310\316\354\266\\\2214<\207\324\216i\367"
 212      EE77C8CE 
 212      ECB65C91 
 212      343C87D4 
 212      8E69F7
 213 09fe 59AA30B4 		.ascii	"Y\2520\264l\274\307\366Y\267u38\234\233\223z\"\200,"
 213      6CBCC7F6 
 213      59B77533 
 213      389C9B93 
 213      7A22802C 
 214 0a12 687B6296 		.ascii	"h{b\226][\255\204\236\311\251\000|\237Mi\205\017\223"
 214      5D5BAD84 
 214      9EC9A900 
 214      7C9F4D69 
 214      850F93
 215 0a25 F303F024 		.ascii	"\363\003\360$m\340\302\305\324\022\355\015\227\242O"
 215      6DE0C2C5 
 215      D412ED0D 
 215      97A24F
 216 0a34 158BD607 		.ascii	"\025\213\326\007t\3113\016D\230\340\213\326\007\322"
 216      74C9330E 
 216      4498E08B 
 216      D607D2
 217 0a43 72E9137A 		.ascii	"r\351\023zHV\372\271\225\367-\370)\353\376X\306X\233"
 217      4856FAB9 
 217      95F72DF8 
ARM GAS  C:\Users\Sava\AppData\Local\Temp\cchHm4c4.s 			page 17


 217      29EBFE58 
 217      C6589B
 218 0a56 054FB3C6 		.ascii	"\005O\263\306\255#cI\026\374\2165\006*2\347\315x\221"
 218      AD236349 
 218      16FC8E35 
 218      062A32E7 
 218      CD7891
 219 0a69 364CA71B 		.ascii	"6L\247\033\353\322\020M2\277\331\320\030\277E\016\350"
 219      EBD2104D 
 219      32BFD9D0 
 219      18BF450E 
 219      E8
 220 0a7a 31A4ECA9 		.ascii	"1\244\354\25114L\273)\336\"\261\341\221\241n\207&\275"
 220      31344CBB 
 220      29DE22B1 
 220      E191A16E 
 220      8726BD
 221 0a8d B021AE07 		.ascii	"\260!\256\007\205:\012\314S\236\336\347\220\336)H\351"
 221      853A0ACC 
 221      539EDEE7 
 221      90DE2948 
 221      E9
 222 0a9e 13906782 		.ascii	"\023\220g\202rC\334\"\367\377\320\260\177\226U\226\247"
 222      7243DC22 
 222      F7FFD0B0 
 222      7F965596 
 222      A7
 223 0aaf 864E7A7F 		.ascii	"\206Nz\177\342\251:O\020q\322\361{W\004\274\302\302"
 223      E2A93A4F 
 223      1071D2F1 
 223      7B5704BC 
 223      C2C2
 224 0ac1 2F6E7858 		.ascii	"/nxX\023\200\367{\323\306|\306rY\000N\242\015\341\342"
 224      1380F77B 
 224      D3C67CC6 
 224      7259004E 
 224      A20DE1E2 
 225 0ad5 ECDD8FFE 		.ascii	"\354\335\217\376\322\346\3109\\Jk\320\0330\375J\370"
 225      D2E6C839 
 225      5C4A6BD0 
 225      1B30FD4A 
 225      F8
 226 0ae6 C3373D5F 		.ascii	"\3037=_\013\206\213\36539\323\347\020\316\245\006L\327"
 226      0B868BF5 
 226      3339D3E7 
 226      10CEA506 
 226      4CD7
 227 0af8 96672AD7 		.ascii	"\226g*\327\271n(\200\215|\011l\211\2073\306`\273\301"
 227      B96E2880 
 227      8D7C096C 
 227      898733C6 
 227      60BBC1
 228 0b0b 6F86E337 		.ascii	"o\206\3437\007\266\337\002v\263 \363*\374\012d\374\246"
 228      07B6DF02 
 228      76B320F3 
 228      2AFC0A64 
 228      FCA6
ARM GAS  C:\Users\Sava\AppData\Local\Temp\cchHm4c4.s 			page 18


 229 0b1d 05A3EE3B 		.ascii	"\005\243\356;\024\370\3451\374f\214V\2525\361?a\343"
 229      14F8E531 
 229      FC668C56 
 229      AA35F13F 
 229      61E3
 230 0b2f 8BE0F192 		.ascii	"\213\340\361\222w\245\274\237P)\221|\377t\353\2347."
 230      77A5BC9F 
 230      5029917C 
 230      FF74EB9C 
 230      372E
 231 0b41 F256ADDB 		.ascii	"\362V\255\3336\261u[e[\302\244\017.c\347\332\017\244"
 231      36B1755B 
 231      655BC2A4 
 231      0F2E63E7 
 231      DA0FA4
 232 0b54 CF98F019 		.ascii	"\317\230\360\031\206\375B\345{\270D\302\276\216a\377"
 232      86FD42E5 
 232      7BB844C2 
 232      BE8E61FF 
 233 0b64 116C7DF8 		.ascii	"\021l}\370\036\330/\032bo\236;u\273C\000nsrC\024\231"
 233      1ED82F1A 
 233      626F9E3B 
 233      75BB4300 
 233      6E737243 
 234 0b7a F17FACAE 		.ascii	"\361\177\254\256\022\253\232(\336+\327N\223H\235\234"
 234      12AB9A28 
 234      DE2BD74E 
 234      93489D9C 
 235 0b8a 554F2321 		.ascii	"UO#!E\215\264^\327\343HX\345\231t\340 \264\014Y\\\001"
 235      458DB45E 
 235      D7E34858 
 235      E59974E0 
 235      20B40C59 
 236 0ba0 59035952 		.ascii	"Y\003YR\025\271t)\011\004\230\005A\357\276r4\254\320"
 236      15B97429 
 236      09049805 
 236      41EFBE72 
 236      34ACD0
 237 0bb3 6DC7AA6E 		.ascii	"m\307\252n0\034\237O\253\360\305\255,\007}\315\271\313"
 237      301C9F4F 
 237      ABF0C5AD 
 237      2C077DCD 
 237      B9CB
 238 0bc5 DEF82A6B 		.ascii	"\336\370*k8W\017\236\307x\2006\326=\316*\371o\004;\266"
 238      38570F9E 
 238      C7788036 
 238      D63DCE2A 
 238      F96F043B 
 239 0bda 8E9608FB 		.ascii	"\216\226\010\373\256F\201I\034\306(\021\033\307\311"
 239      AE468149 
 239      1CC62811 
 239      1BC7C9
 240 0be9 D42F75FA 		.ascii	"\324/u\372\357\245\352d\340N\012L]\212Z\265\314f\001"
 240      EFA5EA64 
 240      E04E0A4C 
 240      5D8A5AB5 
 240      CC6601
ARM GAS  C:\Users\Sava\AppData\Local\Temp\cchHm4c4.s 			page 19


 241 0bfc 0E756EA2 		.ascii	"\016un\242\313P(hh\214\253\377\222\305\007K:\372\214"
 241      CB502868 
 241      688CABFF 
 241      92C5074B 
 241      3AFA8C
 242 0c0f 230107AA 		.ascii	"#\001\007\252L\014w\012\331\216\304\315\344\211\012"
 242      4C0C770A 
 242      D98EC4CD 
 242      E4890A
 243 0c1e 55FFD2A5 		.ascii	"U\377\322\245n\214\3719\260~\226\032&\332\004\363\303"
 243      6E8CF939 
 243      B07E961A 
 243      26DA04F3 
 243      C3
 244 0c2f 807912F4 		.ascii	"\200y\022\364\272\037\344 H2\310\021\220C \007@\342"
 244      BA1FE420 
 244      4832C811 
 244      90432007 
 244      40E2
 245 0c41 B17244CD 		.ascii	"\261rD\315)\021\330g\210\200\202\025\357C\034\007\314"
 245      2911D867 
 245      88808215 
 245      EF431C07 
 245      CC
 246 0c52 94147B0D 		.ascii	"\224\024{\015U\225\223R\255\004\026\031Z/\264`\261\251"
 246      55959352 
 246      AD041619 
 246      5A2FB460 
 246      B1A9
 247 0c64 A45E01D6 		.ascii	"\244^\001\326b9R\223Y\021\376VY\231\337\034\375#X\314"
 247      62395293 
 247      5911FE56 
 247      5999DF1C 
 247      FD2358CC 
 248 0c78 80827E06 		.ascii	"\200\202~\006\313\226\314\0222\27536+mA+\247:\232D|"
 248      CB96CC12 
 248      32BD3336 
 248      2B6D412B 
 248      A73A9A44 
 249 0c8d 97D1E5E8 		.ascii	"\227\321\345\350\276\007\277g[\262\377\012\255\344\234"
 249      BE07BF67 
 249      5BB2FF0A 
 249      ADE49C
 250 0c9c B214337F 		.ascii	"\262\0243\177\230G\366\372y\253\263\361\010O0\325\354"
 250      9847F6FA 
 250      79ABB3F1 
 250      084F30D5 
 250      EC
 251 0cad D13B75EB 		.ascii	"\321;u\353\361\024mx\277\035\271\361\322\302\251\305"
 251      F1146D78 
 251      BF1DB9F1 
 251      D2C2A9C5 
 252 0cbd 279D9A2E 		.ascii	"'\235\232.9\2119\330\315\220$\373\345.\231\037\351\000"
 252      398939D8 
 252      CD9024FB 
 252      E52E991F 
 252      E900
ARM GAS  C:\Users\Sava\AppData\Local\Temp\cchHm4c4.s 			page 20


 253 0ccf 688ECC8F 		.ascii	"h\216\314\217\255\214\036\031\2200\345 >\226\240\231"
 253      AD8C1E19 
 253      9030E520 
 253      3E96A099 
 254 0cdf E9733CA5 		.ascii	"\351s<\245+7A5\210\365\272\036\007q\016'T.\020*\013"
 254      2B374135 
 254      88F5BA1E 
 254      07710E27 
 254      542E102A 
 255 0cf4 FCC80639 		.ascii	"\374\310\0069\006\222\211\225\2038?A\263R\321\006\254"
 255      06928995 
 255      83383F41 
 255      B352D106 
 255      AC
 256 0d05 1CC4D9EC 		.ascii	"\034\304\331\354\021C\016\326\214b\237\266\373\367\027"
 256      11430ED6 
 256      8C629FB6 
 256      FBF717
 257 0d14 30625BDC 		.ascii	"0b[\334\215\274\272\215\355v\201s\024\300)\326\201S"
 257      8DBCBA8D 
 257      ED768173 
 257      14C029D6 
 257      8153
 258 0d26 800395D1 		.ascii	"\200\003\225\321.t\342\275tuF\326,\357\021\273BZ|i\266"
 258      2E74E2BD 
 258      747546D6 
 258      2CEF11BB 
 258      425A7C69 
 259 0d3b 88A07EEB 		.ascii	"\210\240~\353\327\004\033\302\216\373\002\323\225\306"
 259      D7041BC2 
 259      8EFB02D3 
 259      95C6
 260 0d49 927EE0D7 		.ascii	"\222~\340\327~\345\312g\261&<E\217\351]\230Q\217\334"
 260      7EE5CA67 
 260      B1263C45 
 260      8FE95D98 
 260      518FDC
 261 0d5c 9C6EE00E 		.ascii	"\234n\340\016\270\226\207\027\264\016T\177E\034 p\245"
 261      B8968717 
 261      B40E547F 
 261      451C2070 
 261      A5
 262 0d6d F1F05C34 		.ascii	"\361\360\\4\275\340n\307\236\212\267\240\024LN\026\363"
 262      BDE06EC7 
 262      9E8AB7A0 
 262      144C4E16 
 262      F3
 263 0d7e EC944076 		.ascii	"\354\224@v\362\000\210|\220\343 \205 EX\371\004b\224"
 263      F200887C 
 263      90E32085 
 263      204558F9 
 263      046294
 264 0d91 56CE622D 		.ascii	"V\316b-\346ht\246|\301\204_\263\011k\2456/\337\037m"
 264      E66874A6 
 264      7CC1845F 
 264      B3096BA5 
 264      362FDF1F 
ARM GAS  C:\Users\Sava\AppData\Local\Temp\cchHm4c4.s 			page 21


 265 0da6 0C32B486 		.ascii	"\0142\264\206J\301\310\3677X\333E\247\273\223p\301\011"
 265      4AC1C8F7 
 265      3758DB45 
 265      A7BB9370 
 265      C109
 266 0db8 EC9AEE88 		.ascii	"\354\232\356\210\003\354\221G\376\255\203\276\312\025"
 266      03EC9147 
 266      FEAD83BE 
 266      CA15
 267 0dc6 FB49AC5C 		.ascii	"\373I\254\\\261\237\302\322}\225\375\007{S\021\376@"
 267      B19FC2D2 
 267      7D95FD07 
 267      7B5311FE 
 267      40
 268 0dd7 1D14136B 		.ascii	"\035\024\023k\227\010C\244\271oba\355\257z\357>v8\322"
 268      970843A4 
 268      B96F6261 
 268      EDAF7AEF 
 268      3E7638D2 
 269 0deb 2CE40A54 		.ascii	",\344\012TF\014a\303=\230\374\370\002B\252\201\363\254"
 269      460C61C3 
 269      3D98FCF8 
 269      0242AA81 
 269      F3AC
 270 0dfd 0894F378 		.ascii	"\010\224\363x*!\236\323\020C\205\212\326\203\203\026"
 270      2A219ED3 
 270      1043858A 
 270      D6838316 
 271 0e0d 474A08ED 		.ascii	"GJ\010\355\272\026\031u\255\244\365\245AJ\353r\035\304"
 271      BA161975 
 271      ADA4F5A5 
 271      414AEB72 
 271      1DC4
 272 0e1f 7369A5AB 		.ascii	"si\245\253\336\254\250|\020\024w\2737\260\273\335q\315"
 272      DEACA87C 
 272      101477BB 
 272      37B0BBDD 
 272      71CD
 273 0e31 A3A901BC 		.ascii	"\243\251\001\274\310\320;\343\357\356L\257\307Y>\354"
 273      C8D03BE3 
 273      EFEE4CAF 
 273      C7593EEC 
 274 0e41 B97F5BCF 		.ascii	"\271\177[\317\262\031\027\262\306\330\352\330\222\200"
 274      B21917B2 
 274      C6D8EAD8 
 274      9280
 275 0e4f 4B68C354 		.ascii	"Kh\303T\276T:-(o\017\362t\235\203t\235\245\3448\317"
 275      BE543A2D 
 275      286F0FF2 
 275      749D8374 
 275      9DA5E438 
 276 0e64 63AB83D8 		.ascii	"c\253\203\330.@l\365 \265\252\370\352\006\177\304\266"
 276      2E406CF5 
 276      20B5AAF8 
 276      EA067FC4 
 276      B6
 277 0e75 3224C26A 		.ascii	"2$\302j\000\357<\366\2645\256\226\341(\323*k\367\027"
ARM GAS  C:\Users\Sava\AppData\Local\Temp\cchHm4c4.s 			page 22


 277      00EF3CF6 
 277      B435AE96 
 277      E128D32A 
 277      6BF717
 278 0e88 850C8DF3 		.ascii	"\205\014\215\363\272\352\014\375\324*\315\326\030\366"
 278      BAEA0CFD 
 278      D42ACDD6 
 278      18F6
 279 0e96 E45A795D 		.ascii	"\344Zy]J\313\352\360c`\335!\340\345\237\270\030\207"
 279      4ACBEAF0 
 279      6360DD21 
 279      E0E59FB8 
 279      1887
 280 0ea8 70190364 		.ascii	"p\031\003df9\277\201\337A\333\004\315\225\361\224\024"
 280      6639BF81 
 280      DF41DB04 
 280      CD95F194 
 280      14
 281 0eb9 6F866411 		.ascii	"o\206d\021yXS\360\376\346\2547\256b\272W\313\356]\365"
 281      795853F0 
 281      FEE6AC37 
 281      AE62BA57 
 281      CBEE5DF5 
 282 0ecd C7B5AC91 		.ascii	"\307\265\254\221<r\250h\035nb\215Si%\227\375q;kLV4|"
 282      3C72A868 
 282      1D6E628D 
 282      53692597 
 282      FD713B6B 
 283 0ee5 863BE8B1 		.ascii	"\206;\350\261wkI&le\330j\201\227\243\225\201-\262\353"
 283      776B4926 
 283      6C65D86A 
 283      8197A395 
 283      812DB2EB 
 284 0ef9 97C0F576 		.ascii	"\227\300\365v7\2563\3654\031\261\026\255\262\342\306"
 284      37AE33F5 
 284      3419B116 
 284      ADB2E2C6 
 285 0f09 862A814D 		.ascii	"\206*\201M\220\300F\232\300v\236\300NH`\007$\317\011"
 285      90C0469A 
 285      C0769EC0 
 285      4E486007 
 285      24CF09
 286 0f1c 7205E42A 		.ascii	"r\005\344*\310eU\"W\007\\v\332\264vtiL\221\235j5VV\335"
 286      C8655522 
 286      57075C76 
 286      DAB47674 
 286      694C919D 
 287 0f35 9C1B5025 		.ascii	"\234\033P%]\037\257\"\351\213\003t\261\335\256\033\002"
 287      5D1FAF22 
 287      E98B0374 
 287      B1DDAE1B 
 287      02
 288 0f46 CF6F4FFE 		.ascii	"\317oO\376\011\356a\304\235Jn9\214\020\305TM\\\327\""
 288      09EE61C4 
 288      9D4A6E39 
 288      8C10C554 
 288      4D5CD722 
ARM GAS  C:\Users\Sava\AppData\Local\Temp\cchHm4c4.s 			page 23


 289 0f5a A69BC77D 		.ascii	"\246\233\307}\015\342\356\205X\373@zT\013\226\314A\177"
 289      0DE2EE85 
 289      58FB407A 
 289      540B96CC 
 289      417F
 290 0f6c 56E5893B 		.ascii	"V\345\211;\315\340\026\271D\002N\037\361\273\001\005"
 290      CDE016B9 
 290      44024E1F 
 290      F1BB0105 
 291 0f7c E1CAB8BA 		.ascii	"\341\312\270\272A\024\374&\240\034q\227\241\256r\324"
 291      4114FC26 
 291      A01C7197 
 291      A1AE72D4 
 292 0f8c CF0D509E 		.ascii	"\317\015P\236w\353Bn\313\250\312\361g\334\274A\210;"
 292      77EB426E 
 292      CBA8CAF1 
 292      67DCBC41 
 292      883B
 293 0f9e D271     		.ascii	"\322q"
 294 0fa0 24C38207 		.ascii	"$\303\202\007\030\313\012\306\037T <B\033\342\345\265"
 294      18CB0AC6 
 294      1F54203C 
 294      421BE2E5 
 294      B5
 295 0fb1 FC341392 		.ascii	"\3744\023\222\247\274Q\245\267\003\340\301\240G\216"
 295      A7BC51A5 
 295      B703E0C1 
 295      A0478E
 296 0fc0 8DA813A4 		.ascii	"\215\250\023\244W\366T\377\0069\324C\000\365M\200\371"
 296      57F654FF 
 296      0639D443 
 296      00F54D80 
 296      F9
 297 0fd1 86AA860F 		.ascii	"\206\252\206\017\263\340\006u\301\025\2464\355\347\301"
 297      B3E00675 
 297      C115A634 
 297      EDE7C1
 298 0fe0 7593E086 		.ascii	"u\223\340\206s\262\036\230\361]\226\340W]\225e~F\011"
 298      73B21E98 
 298      F15D96E0 
 298      575D9565 
 298      7E4609
 299 0ff3 7655A611 		.ascii	"vU\246\021n\365.X\035\005\253w@"
 299      6EF52E58 
 299      1D05AB77 
 299      40
 300 1000 6EAB08DD 		.ascii	"n\253\010\335<\240\251L#\036)}Q\306`@\253\254\003\254"
 300      3CA0A94C 
 300      231E297D 
 300      51C66040 
 300      ABAC03AC 
 301 1014 5E0D985E 		.ascii	"^\015\230^Y\301\350:\206\300\210\016\201\226}#\335\374"
 301      59C1E83A 
 301      86C0880E 
 301      81967D23 
 301      DDFC
 302 1026 85ACD304 		.ascii	"\205\254\323\004\201s\317.\035\227\236)\223v\331\360"
ARM GAS  C:\Users\Sava\AppData\Local\Temp\cchHm4c4.s 			page 24


 302      8173CF2E 
 302      1D979E29 
 302      9376D9F0 
 303 1036 DEC7029E 		.ascii	"\336\307\002\236d\351~\375\272;\315\037?aU%\357\301"
 303      64E97EFD 
 303      BA3BCD1F 
 303      3F615525 
 303      EFC1
 304 1048 C5E33EEC 		.ascii	"\305\343>\354V>\177\006\357\314VV\025R(&\334\215I7\225"
 304      563E7F06 
 304      EFCC5656 
 304      15522826 
 304      DC8D4937 
 305 105d 628203FA 		.ascii	"b\202\003\372\030\000}\010`N\201L\202\214\203<R\001"
 305      18007D08 
 305      604E814C 
 305      828C833C 
 305      5201
 306 106f 9B31A01A 		.ascii	"\2331\240\032\374\006\206\224\225BV\276\244U\326\216"
 306      FC068694 
 306      954256BE 
 306      A455D68E 
 307 107f 9A1C59F7 		.ascii	"\232\034Y\367\201VWQ\352\370m\310~Z(&\214f\207t%\030"
 307      81565751 
 307      EAF86DC8 
 307      7E5A2826 
 307      8C668774 
 308 1095 6D8666A5 		.ascii	"m\206f\245\331\301\374<\351M\216E~\001\207\024\350~"
 308      D9C1FC3C 
 308      E94D8E45 
 308      7E018714 
 308      E87E
 309 10a7 0D719EBA 		.ascii	"\015q\236\272\211P\205\344}@\222\255\015\237r$_\000"
 309      895085E4 
 309      7D4092AD 
 309      0D9F7224 
 309      5F00
 310 10b9 92CF00BD 		.ascii	"\222\317\000\275\227 O@\236\253P\374\320\257\242\320"
 310      97204F40 
 310      9EAB50FC 
 310      D0AFA2D0 
 311 10c9 53B7C090 		.ascii	"S\267\300\220;\020\003\274VM\360Z\365T_\253\224\025"
 311      3B1003BC 
 311      564DF05A 
 311      F5545FAB 
 311      9415
 312 10db 65A19F52 		.ascii	"e\241\237R\356\251\0216K\375\232\231So\3315s\036._\375"
 312      EEA91136 
 312      4BFD9A99 
 312      536FD935 
 312      731E2E5F 
 313 10f0 0923680E 		.ascii	"\011#h\016!d\366\207;I\030\277`\204<s+-\325\202g\331"
 313      2164F687 
 313      3B4918BF 
 313      60843C73 
 313      2B2DD582 
 314 1106 78FDF8E4 		.ascii	"x\375\370\344y\205\305\343x\235\346\240\314\001(\263"
ARM GAS  C:\Users\Sava\AppData\Local\Temp\cchHm4c4.s 			page 25


 314      7985C5E3 
 314      789DE6A0 
 314      CC0128B3 
 315 1116 00C60CC8 		.ascii	"\000\306\014\310[\025 \367e@\010\350\323\036iuWV~\243"
 315      5B1520F7 
 315      654008E8 
 315      D31E6975 
 315      57567EA3 
 316 112a 55D68DD6 		.ascii	"U\326\215\326;j\250\365\312\012Z\335f\320M\353F\353"
 316      3B6AA8F5 
 316      CA0A5ADD 
 316      66D04DEB 
 316      46EB
 317 113c 95271F5E 		.ascii	"\225'\037^\372\360w6\011\030\2637\343\356y\343E\006"
 317      FAF07736 
 317      0918B337 
 317      E3EE79E3 
 317      4506
 318 114e 4665EA85 		.ascii	"Fe\352\205\\\001/\263F\315\336\352\003\010\357\367\245"
 318      5C012FB3 
 318      46CDDEEA 
 318      0308EFF7 
 318      A5
 319 115f EF7765BE 		.ascii	"\357we\276\234\256\022\311\206$h#\247W\2632\001\304"
 319      9CAE12C9 
 319      86246823 
 319      A757B332 
 319      01C4
 320 1171 F965CF75 		.ascii	"\371e\317uIv\376\275VY\027i\213\032C\203\236\2254\251"
 320      4976FEBD 
 320      56591769 
 320      8B1A4383 
 320      9E9534A9 
 321 1185 63B12EAB 		.ascii	"c\261.\253cus\317y\231'p\011\022\270\002\311[\004\371"
 321      637573CF 
 321      79992770 
 321      0912B802 
 321      C95B04F9 
 322 1199 00F25195 		.ascii	"\000\362Q\225\304\006ep\013\206\376J\233f\251\334m\340"
 322      C4066570 
 322      0B86FE4A 
 322      9B66A9DC 
 322      6DE0
 323 11ab E5CE79EC 		.ascii	"\345\316y\354l\205\005'\371~\317\245\251Cd\376\354\023"
 323      6C850527 
 323      F97ECFA5 
 323      A94364FE 
 323      EC13
 324 11bd 83509C18 		.ascii	"\203P\234\030\210\366\203\354\025\225\276\344\252\301"
 324      88F683EC 
 324      1595BEE4 
 324      AAC1
 325 11cb 2017B887 		.ascii	" \027\270\2079K\315\021\225\262\226#\231\0147\320\321"
 325      394BCD11 
 325      95B29623 
 325      990C37D0 
 325      D1
ARM GAS  C:\Users\Sava\AppData\Local\Temp\cchHm4c4.s 			page 26


 326 11dc 0FAF63DA 		.ascii	"\017\257c\332\341\245\357\3115\274\342S\037\236\340"
 326      E1A5EFC9 
 326      35BCE253 
 326      1F9EE0
 327 11eb AF18BD25 		.ascii	"\257\030\275%\213\315kmY\323\001\370\010C\340\352\231"
 327      8BCD6B6D 
 327      59D301F8 
 327      0843E0EA 
 327      99
 328 11fc 8959CF43 		.ascii	"\211Y\317C*\201#p\010\0208\010\321'\202$\251\020X\350"
 328      2A812370 
 328      08103808 
 328      D1278224 
 328      A91058E8 
 329 1210 D32C3513 		.ascii	"\323,5\023\3348\303KR\237j\011\230\340\021\260\371>"
 329      DC38C34B 
 329      529F6A09 
 329      98E011B0 
 329      F93E
 330 1222 1560FA9E 		.ascii	"\025`\372\236\025\200\315\365\321Z\235 j\006\225\370"
 330      1580CDF5 
 330      D15A9D20 
 330      6A0695F8 
 331 1232 B8783E07 		.ascii	"\270x>\007\243\215\332,\313\254K\3461\036\201\030\017"
 331      A38DDA2C 
 331      CBAC4BE6 
 331      311E8118 
 331      0F
 332 1243 437C4755 		.ascii	"C|GU\361\315\364i\026e\311\236\274\030\357\243iK\326"
 332      F1CDF469 
 332      1665C99E 
 332      BC18EFA3 
 332      694BD6
 333 1256 A50DCE2D 		.ascii	"\245\015\316-\365\361\012K\342h\346=IPk\322v!\276\360"
 333      F5F10A4B 
 333      E268E63D 
 333      49506BD2 
 333      7621BEF0 
 334 126a 3A7FEDE5 		.ascii	":\177\355\345\016I[u\313\376\327\374\215Q'i'\356K\257"
 334      0E495B75 
 334      CBFED7FC 
 334      8D512769 
 334      27EE4BAF 
 335 127e 1771BAAF 		.ascii	"\027q\272\257\273\251\372f\237f\252\316\320\003\355"
 335      BBA9FA66 
 335      9F66AACE 
 335      D003ED
 336 128d 71AACEE0 		.ascii	"q\252\316\340\240\344\000(Y\000\3121\220L\220t\220l"
 336      A0E40028 
 336      5900CA31 
 336      904C9074 
 336      906C
 337 129f 15406D7D 		.ascii	"\025@m}\252\251\332\300\220\"\243M}\252\251:\303\030"
 337      AAA9DAC0 
 337      9022A34D 
 337      7DAAA93A 
 337      C318
ARM GAS  C:\Users\Sava\AppData\Local\Temp\cchHm4c4.s 			page 27


 338 12b1 4BBEADED 		.ascii	"K\276\255\355SM\325*]\335T\335\310\322\237a4^Z\3734"
 338      534DD52A 
 338      5DDD54DD 
 338      C8D29F61 
 338      345E5AFB 
 339 12c6 53B5DEAC 		.ascii	"S\265\336\254\004\274\330\035\237\333\347\255gK\252"
 339      04BCD81D 
 339      9FDBE7AD 
 339      674BAA
 340 12d5 B885DFD7 		.ascii	"\270\205\337\327\314\345\300\034\007`\362\000\214|\025"
 340      CCE5C01C 
 340      0760F200 
 340      8C7C15
 341 12e4 180D5AB6 		.ascii	"\030\015Z\266\344zbK\035cK\256\021[\206%\266dp\266\220"
 341      E47A624B 
 341      1D634BAE 
 341      115B8625 
 341      B66470B6 
 342 12f9 9E5CF3B1 		.ascii	"\236\\\363\261\232-\022;6pv\\>>0\204p\226[vdk\331Q\374"
 342      9A2D123B 
 342      3670765C 
 342      3E3E3084 
 342      70965B76 
 343 1312 03D951CC 		.ascii	"\003\331Q\314A(\005\020N\000\010\247@J@\212@N\252\000"
 343      41280510 
 343      4E0008A7 
 343      404A408A 
 343      404EAA00 
 344 1326 C950B3C3 		.ascii	"\311P\263\303\300\220r!\247fG\261'v\344\250\331Q\354"
 344      C0907221 
 344      A76647B1 
 344      2776E4A8 
 344      D951EC
 345 1339 911D6BBD 		.ascii	"\221\035k\275\224\035\305F\354H\327\262Co\366\373\263"
 345      941DC546 
 345      EC48D7B2 
 345      436FF6FB 
 345      B3
 346 134a A38C0353 		.ascii	"\243\214\003S\016\300\234\0060*T`\254\364j\330Q\346"
 346      0EC09C06 
 346      302A5460 
 346      ACF46AD8 
 346      51E6
 347 135c 891D4BBD 		.ascii	"\211\035K\275\224\035eF\354\310\223\330Q\314\331Q\346"
 347      941D6546 
 347      ECC893D8 
 347      51CCD951 
 347      E6
 348 136d 9E1D73A7 		.ascii	"\236\035s\247\317\027\360U\305i\302\216\366\033IY\001"
 348      CF17F055 
 348      C569C28E 
 348      F61B4959 
 348      01
 349 137e 38CF97BD 		.ascii	"8\317\227\275\340\270/-A\304\005n\2512\326\253\241J"
 349      E0B82F2D 
 349      41C4056E 
 349      A932D6AB 
ARM GAS  C:\Users\Sava\AppData\Local\Temp\cchHm4c4.s 			page 28


 349      A14A
 350 1390 D50FA44A 		.ascii	"\325\017\244J\025G\244\026\020\251\001D.\200T\203\234"
 350      1547A416 
 350      10A90144 
 350      2E805483 
 350      9C
 351 13a1 0339AF42 		.ascii	"\0039\257B\347n\257\212*\006\206\024\351\037\351UQ\245"
 351      E76EAF8A 
 351      2A068614 
 351      E91FE955 
 351      51A5
 352 13b3 CA13551E 		.ascii	"\312\023U\036\364\252\250R\345\221*\303\214*UFT\031"
 352      F4AAA852 
 352      E5912AC3 
 352      8C2A5546 
 352      5419
 353 13c5 EDD55045 		.ascii	"\355\325PEo\326E\225\341\304\2143\"\222\357\263\317"
 353      6FD64595 
 353      E1C48C33 
 353      2292EFB3 
 353      CF
 354 13d6 F4F28C91 		.ascii	"\364\362\214\221k\316\212\030\325\273\311\230\033f\325"
 354      6BCE8A18 
 354      D5BBC998 
 354      1B66D5
 355 13e5 731C2F02 		.ascii	"s\034/\002\216\015\200]\235\012\273!-\263\352=1\353"
 355      8E0D805D 
 355      9D0ABB21 
 355      2DB3EA3D 
 355      31EB
 356 13f7 266356BD 		.ascii	"&cV\275v\256Dg\256w\335\347?)J$T\031\255\031\177\354"
 356      76AE4467 
 356      AE77DDE7 
 356      3F294A24 
 356      5419AD19 
 357 140d 874B1855 		.ascii	"\207K\030U\016\3667\017\230p%k\354=~b\326\202\353Xc"
 357      0EF6370F 
 357      9870256B 
 357      EC3D7E62 
 357      D682EB58 
 358 1422 65B133D7 		.ascii	"e\2613\327\214\333Xc\260\365E\212\200\257\261\306\225"
 358      8CDB5863 
 358      B0F5458A 
 358      80AFB1C6 
 358      95
 359 1433 9ED28F08 		.ascii	"\236\322\217\010\217\261F\332\363\346\324\365\370)k"
 359      8FB146DA 
 359      F3E6D4F5 
 359      F8296B
 360 1442 34CE392E 		.ascii	"4\3169.\370\343\031\332\360s&8SD~K]\276\303\320\240"
 360      F8E319DA 
 360      F0732638 
 360      53447E4B 
 360      5DBEC3D0 
 361 1457 0CAA1920 		.ascii	"\014\252\031 \353U\006\245|o\211\351_\220\363\334b\254"
 361      EB5506A5 
 361      7C6F89E9 
ARM GAS  C:\Users\Sava\AppData\Local\Temp\cchHm4c4.s 			page 29


 361      5F90F3DC 
 361      62AC
 362 1469 AD2045AE 		.ascii	"\255 E\256\254|Y\253\254[\265\024(\330\246U\326\337"
 362      AC7C59AB 
 362      AC5BB514 
 362      28D8A655 
 362      D6DF
 363 147b 8B3A2E6B 		.ascii	"\213:.k;\215\265\025~\234W\260^\253\254\177JW-k\267"
 363      3B8DB515 
 363      7E9C57B0 
 363      5EABAC7F 
 363      4A572D6B 
 364 1490 196B2B4B 		.ascii	"\031k+Kd\257j\371\244\017\321\323\016\263\227\363\255"
 364      64AF6AF9 
 364      A40FD1D3 
 364      0EB397F3 
 364      AD
 365 14a1 0FF8D603 		.ascii	"\017\370\326\003|\273\012\322\011\322\001\322\015\322"
 365      7CBB0AD2 
 365      09D201D2 
 365      0DD2
 366 14af 057205A4 		.ascii	"\005r\005\244]T\336\212\311f\314\352\3251Kz\231}\003"
 366      5D54DE8A 
 366      C966CCEA 
 366      D5314B7A 
 366      997D03
 367 14c2 7F99BDB8 		.ascii	"\177\231\275\270\251\376\276\200?0.\254=\037=\301o\220"
 367      A9FEBE80 
 367      3F302EAC 
 367      3D1F3DC1 
 367      6F90
 368 14d4 BE25EDD6 		.ascii	"\276%\355\326\273i\317\374\361*;9\321\224\011\005n/"
 368      BB69CFFC 
 368      F12A3B39 
 368      D1940905 
 368      6E2F
 369 14e6 7BA3BA3A 		.ascii	"{\243\272:\351\3163_\234D\033\346\203q\007\223\275)"
 369      E9CE335F 
 369      9C441BE6 
 369      83710793 
 369      BD29
 370 14f8 6B8236B2 		.ascii	"k\2026\262\210\347\272\024\214\271\011\000\335\366\274"
 370      88E7BA14 
 370      8CB90900 
 370      DDF6BC
 371 1507 BEEC7201 		.ascii	"\276\354r\001t\303XY\211\375\203.\025\234\267=\225\234"
 371      74C35859 
 371      89FD832E 
 371      159CB73D 
 371      959C
 372 1519 B7B26E97 		.ascii	"\267\262n\227\241\256r\2174\306\2364\335\026\277\317"
 372      A1AE728F 
 372      34C69E34 
 372      DD16BFCF 
 373 1529 1EE936CF 		.ascii	"\036\3516\317\313\010\344\345\026\340?\0142\0102$\272"
 373      CB08E4E5 
 373      16E03F0C 
ARM GAS  C:\Users\Sava\AppData\Local\Temp\cchHm4c4.s 			page 30


 373      32083224 
 373      BA
 374 153a 5E339A3D 		.ascii	"^3\232=\325\351@8\215!v\277$\243Td\330>#\355\356\224"
 374      D5E94038 
 374      8D2176BF 
 374      24A35464 
 374      D83E23ED 
 375 1550 85691F9C 		.ascii	"\205i\037\234\313N^-\177=\351\213\013XC\272\303\277"
 375      CB4E5E2D 
 375      7F3DE98B 
 375      0B5843BA 
 375      C3BF
 376 1562 81DFE12F 		.ascii	"\201\337\341/\235(\233\014\300'\331\311\206\311\314"
 376      9D289B0C 
 376      C027D9C9 
 376      86C9CC
 377 1571 4B3C4577 		.ascii	"K<EwH\273n\240e\312\007W\262\223\345\015\307\336\211"
 377      48BB6EA0 
 377      65CA0757 
 377      B293E50D 
 377      C7DE89
 378 1584 F83C6D98 		.ascii	"\370<m\230\032n\335\331\037\340qS1\311C\230\202\020"
 378      1A6EDDD9 
 378      1FE07153 
 378      31C94398 
 378      8210
 379 1596 1E81EB8F 		.ascii	"\036\201\353\217A\036\252\312Y\2722\217\023\220\232"
 379      411EAACA 
 379      59BA328F 
 379      13909A
 380 15a5 498F795C 		.ascii	"I\217y\\\355Tef\322SfR\324\231\321\353\252\036\344\263"
 380      ED546566 
 380      D2536652 
 380      D499D1EB 
 380      AA1EE4B3 
 381 15b9 D78F2675 		.ascii	"\327\217&ut\036zR\274\237\277]}\203\322\373\334\241"
 381      741E7A52 
 381      BC9FBF5D 
 381      7D83D2FB 
 381      DCA1
 382 15cb 8575B881 		.ascii	"\205u\270\201\" v\366\034\317\305\212;\2453\235\232"
 382      222076F6 
 382      1CCFC58A 
 382      3BA5339D 
 382      9A
 383 15dc E2FCC293 		.ascii	"\342\374\302\223\203\263\235*\007\365\272\312iBw\247"
 383      83B39D2A 
 383      07F5BACA 
 383      694277A7 
 384 15ec F405C7F6 		.ascii	"\364\005\307\366%`\373\014p}\256\032\236\343,\236\027"
 384      2560FB0C 
 384      707DAE1A 
 384      9EE32C9E 
 384      17
 385 15fd BA780E75 		.ascii	"\272x\016u\324u\362\302\337M\332\303\367[\347E\334\314"
 385      D475F2C2 
 385      DF4DDAC3 
ARM GAS  C:\Users\Sava\AppData\Local\Temp\cchHm4c4.s 			page 31


 385      F75BE745 
 385      DCCC
 386 160f D2DB929D 		.ascii	"\322\333\222\235=\343\217/\321\006\036i\275\367\214"
 386      3DE38F2F 
 386      D1061E69 
 386      BDF78C
 387 161e 6EA7DCBC 		.ascii	"n\247\334\274\355=\315\035\230\001\007\336\252\222\332"
 387      ED3DCD1D 
 387      980107DE 
 387      AA92DA
 388 162d AA84E10D 		.ascii	"\252\204\341\015$u\332\323\034\325\314\177a\243sU\372"
 388      2475DAD3 
 388      1CD5CC7F 
 388      61A37355 
 388      FA
 389 163e 2DEA06FE 		.ascii	"-\352\006\376[\324s'\016C\261\350`\256VU\304\235\360"
 389      5BD47327 
 389      0E43B1E8 
 389      60AE5655 
 389      C49DF0
 390 1651 C63DAC31 		.ascii	"\306=\2541~\351\310*\302\375,)\373\256\217L\231\025"
 390      7EE9C82A 
 390      C2FD2C29 
 390      FBAE8F4C 
 390      9915
 391 1663 49A9517A 		.ascii	"I\251Qz\003\261\242\017\236g\0009+\357\014\225=\335"
 391      03B1A20F 
 391      9E670039 
 391      2BEF0C95 
 391      3DDD
 392 1675 BEFEC031 		.ascii	"\276\376\3001Y\004L\026 )\357UI\311g\221~\320E\372:"
 392      59044C16 
 392      2029EF55 
 392      49C96791 
 392      7ED045FA 
 393 168a EF6A4E00 		.ascii	"\357jN\000\276\305\202\311x\327r\321\033\337e\215\372"
 393      BEC582C9 
 393      78D772D1 
 393      1BDF658D 
 393      FA
 394 169b 8AB85716 		.ascii	"\212\270W\026<\316\032wg.\376/\374\210\015\276\214W"
 394      3CCE1A77 
 394      672EFE2F 
 394      FC880DBE 
 394      8C57
 395 16ad 2F3E0A8A 		.ascii	"/>\012\212\337M9\327\244\327J\211\347+\340\371\332\367"
 395      DF4D39D7 
 395      A4D74A89 
 395      E72BE0F9 
 395      DAF7
 396 16bf 9805E4A1 		.ascii	"\230\005\344\241\272\306=\337k\012B\253\340\271\303"
 396      BAC63DDF 
 396      6B0A42AB 
 396      E0B9C3
 397 16ce 1488E24C 		.ascii	"\024\210\342L\312\254\246\310\300,\033v\257\032O\344"
 397      CAACA6C8 
 397      C02C1B76 
ARM GAS  C:\Users\Sava\AppData\Local\Temp\cchHm4c4.s 			page 32


 397      AF1A4FE4 
 398 16de 558835C3 		.ascii	"U\2105\303U\2702\035K\332\216\324\257B\314\325\034h"
 398      55B8321D 
 398      4BDA8ED4 
 398      AF42CCD5 
 398      1C68
 399 16f0 32E3677E 		.ascii	"2\343g~\356\326\254o\351\333\256\322\202\365\200\351"
 399      EED6AC6F 
 399      E9DBAED2 
 399      82F580E9 
 400 1700 872D5889 		.ascii	"\207-X\211>\0119\011BN\200p\017\202\304\203\354\007"
 400      3E093909 
 400      424E8070 
 400      0F82C483 
 400      EC07
 401 1712 495485FE 		.ascii	"IT\205\376\300e\247\325\330\216\362f\242K\367\222VW"
 401      C065A7D5 
 401      D88EF266 
 401      A24BF792 
 401      5657
 402 1724 57005CAA 		.ascii	"W\000\\\252\017\264\252\272\325\352(\001\024T\364\200"
 402      0FB4AABA 
 402      D5EA2801 
 402      1454F480 
 403 1734 8E2913DF 		.ascii	"\216)\023\337fhSZ\253\032a\330\244\3020\371\007b\230"
 403      6668535A 
 403      AB1A61D8 
 403      A4C230F9 
 403      076298
 404 1747 CC314C01 		.ascii	"\3141L\001\014\217\000n\251 \207A\016\201\034UaxQ\205"
 404      0C8F006E 
 404      A9208741 
 404      0E811C55 
 404      61785185 
 405 175b A1811D05 		.ascii	"\241\201\035\0050\027T\030&{\302\260E\205a\262G\014"
 405      30175418 
 405      267BC2B0 
 405      458561B2 
 405      470C
 406 176d 6B0986C9 		.ascii	"k\011\206\311F\0306h1\324\333t\355\262\262z\247\235"
 406      46183668 
 406      31D4DB74 
 406      EDB2B27A 
 406      A79D
 407 177f DE789A0D 		.ascii	"\336x\232\015\311\204G\357S\005<\317\032\247\217\216"
 407      C98447EF 
 407      53053CCF 
 407      1AA78F8E 
 408 178f FF17BEFD 		.ascii	"\377\027\276\375\"o\347\\\332\333[\300\337\313s\376"
 408      226FE75C 
 408      DADB5BC0 
 408      DFCB73FE 
 409 179f 9894DED9 		.ascii	"\230\224\336\331\343\031\001\370#\253R=\275\257\247"
 409      E31901F8 
 409      23AB523D 
 409      BDAFA7
 410 17ae 48265CC3 		.ascii	"H&\\\303wPsw-\3078j7\205'\207\347\341\030\344!\033\260"
ARM GAS  C:\Users\Sava\AppData\Local\Temp\cchHm4c4.s 			page 33


 410      77507377 
 410      2DC7386A 
 410      37852787 
 410      E7E118E4 
 411 17c5 CF35290B 		.ascii	"\3175)\013\317\312 \335\352\344\030"
 411      CFCA20DD 
 411      EAE418
 412 17d0 859E3AA4 		.ascii	"\205\236:\244\331\352\350\015\273BON.\251[\207WY\004"
 412      D9EAE80D 
 412      BB424F4E 
 412      2EA95B87 
 412      575904
 413 17e3 BD2F7AEA 		.ascii	"\275/z\352M\212\010\336\253\237\306\347\377 \377\363"
 413      4D8A08DE 
 413      AB9FC6E7 
 413      FF20FFF3 
 414 17f3 B9FF05E0 		.ascii	"\271\377\005\340\377q\360\277P\345\377;\346\177\276"
 414      FF71F0BF 
 414      50E5FF3B 
 414      E67FBE
 415 1802 91FF8B4A 		.ascii	"\221\377\213J\340j\014\015\273\350?[\327\226\346\313"
 415      E06A0C0D 
 415      BBE83F5B 
 415      D796E6CB 
 416 1812 562C8181 		.ascii	"V,\201\201n\036\366\026qON\202''\300\223R\220S % \305"
 416      6E1EF616 
 416      714F4E82 
 416      2727C093 
 416      52905320 
 417 1829 26E543DF 		.ascii	"&\345C\337\364!\276\321#\210\221\2559\271T\012I\273"
 417      F421BED1 
 417      238891AD 
 417      39B9540A 
 417      49BB
 418 183b A407FD8F 		.ascii	"\244\007\375\217\377\207\340C\334\3133i\224\365k\320"
 418      FF87E043 
 418      DCCB3369 
 418      94F56BD0 
 419 184b F141CD52 		.ascii	"\361A\315R\242\310\030O\276\260do7\024\031\0014\243"
 419      A2C8184F 
 419      BEB0646F 
 419      37141901 
 419      34A3
 420 185d 7DA942DF 		.ascii	"}\251B\337\223\322\360\354\240j\273T\344f\240\256\010"
 420      93D2F0EC 
 420      A06ABB54 
 420      E466A0AE 
 420      08
 421 186e 9F35D59E 		.ascii	"\2375\325\236\316\363q\355\345\214?A\201\033\371[\215"
 421      CEF371ED 
 421      E58C3F41 
 421      811BF95B 
 421      8D
 422 187f 9943FC45 		.ascii	"\231C\374E(\322c\026\000\320eR\274\334tF\207\326\361"
 422      28D26316 
 422      00D06552 
 422      BCDC7446 
ARM GAS  C:\Users\Sava\AppData\Local\Temp\cchHm4c4.s 			page 34


 422      87D6F1
 423 1892 7F206E90 		.ascii	"\177 n\220\347Ic\230)K[\026t\017+\213\000\321\375;\242"
 423      E7496398 
 423      294B5B16 
 423      740F2B8B 
 423      00D1FD3B 
 424 18a7 4BEE8C14 		.ascii	"K\356\214\024\212LW\332N\243\002Q\243;\373\033\242K"
 424      8A4C57DA 
 424      4EA30251 
 424      A33BFB1B 
 424      A24B
 425 18b9 76CD67B4 		.ascii	"v\315g\264\272\225Z\335y\023).\244\236\356\343\016\273"
 425      BA955ADD 
 425      7913292E 
 425      A49EEEE3 
 425      0EBB
 426 18cb F6F1BA1F 		.ascii	"\366\361\272\037\367\254um\222a\276\316\273v!wM\324"
 426      F7AC756D 
 426      9261BECE 
 426      BB762177 
 426      4DD4
 427 18dd C697DFCF 		.ascii	"\306\227\337\317\361 \367\364\327x\210\256\233\304\253"
 427      F120F7F4 
 427      D77888AE 
 427      9BC4AB
 428 18ec DA10EF52 		.ascii	"\332\020\357R8\310\343\361~\256\353\"\317u\254\355;"
 428      38C8E3F1 
 428      7EAEEB22 
 428      CF75ACED 
 428      3B
 429 18fd 8B328DBC 		.ascii	"\2132\215\274(p\021k\200n\320)\267\375=Q&\217V\336q"
 429      2870116B 
 429      806ED029 
 429      B7FD3D51 
 429      268F56DE 
 430 1912 65D7EB69 		.ascii	"e\327\353i\363:\345\021\2124\271C\231\246E/E\324 \222"
 430      F33AE511 
 430      8A34B943 
 430      99A6452F 
 430      45D42092 
 431 1926 AF44644C 		.ascii	"\257DdL\213\310}\035\"\303\203\034\021\362^\323y\244"
 431      8BC87D1D 
 431      22C3831C 
 431      11F25ED3 
 431      79A4
 432 1938 89B24A37 		.ascii	"\211\262J7D\206\225\375\337\321\366\337\257u'\3275S"
 432      448695FD 
 432      DFD1F6DF 
 432      AF7527D7 
 432      3553
 433 194a A49934BA 		.ascii	"\244\2314\272\352\011\310A\336\251\305\254k\262rM\303"
 433      EA09C841 
 433      DEA9C5AC 
 433      6BB2724D 
 433      C3
 434 195b 1AF5575A 		.ascii	"\032\365WZ\236\324S\274\311[CU\332D\236\321&r\376\327"
 434      9ED453BC 
ARM GAS  C:\Users\Sava\AppData\Local\Temp\cchHm4c4.s 			page 35


 434      C95B4355 
 434      DA449ED1 
 434      2672FED7 
 435 196f 4497ACDE 		.ascii	"D\227\254\336\237\212\232\020\237h\373m\241I'/\004\014"
 435      9F8A9A10 
 435      9F68FB6D 
 435      A149272F 
 435      040C
 436 1981 6BFBBD85 		.ascii	"k\373\275\2055\341\335\356T\240\361Z\213\306+\035\332"
 436      35E1DDEE 
 436      54A0F15A 
 436      8BC62B1D 
 436      DA
 437 1992 0B5DD28B 		.ascii	"\013]\322\213\211\340\312\200\250\311|\277N?\343+\342"
 437      89E0CA80 
 437      A8C97CBF 
 437      4E3FE32B 
 437      E2
 438 19a3 0BD9458D 		.ascii	"\013\331E\215\213\032_\036h\375~@)E\036\215\276\326"
 438      8B1A5F1E 
 438      68FD7E40 
 438      29451E8D 
 438      BED6
 439 19b5 FAFD0A6B 		.ascii	"\372\375\012k\323\330\252L\343]\255\343\243\242V?\303"
 439      D3D8AA4C 
 439      E35DADE3 
 439      A3A2563F 
 439      C3
 440 19c6 95C7746D 		.ascii	"\225\307tm\036\015^\367\345A\222\205\371\234\026\357"
 440      1E0D5EF7 
 440      E5419285 
 440      F99C16EF 
 441 19d6 592D45D2 		.ascii	"Y-E\322K\221\272\350\352{WD\331\330\313;'wP\232DM\221"
 441      4B91BAE8 
 441      EA7B5744 
 441      D9D8CB3B 
 441      2777509A 
 442 19ed 6AD482D2 		.ascii	"j\324\202\322F\213I2\237+T\305D_\376\353\224\240\334"
 442      468B4932 
 442      9F2B54C5 
 442      445FFEEB 
 442      94A0DC
 443 1a00 33064551 		.ascii	"3\006EQ\377S\351\333\224]\272\362O\352\256\004\001Y"
 443      FF53E9DB 
 443      945DBAF2 
 443      4FEAAE04 
 443      0159
 444 1a12 677FD4A6 		.ascii	"g\177\324\246\316\355;\235\231\246-(\303DNv\361\011"
 444      CEED3B9D 
 444      99A62D28 
 444      C3444E76 
 444      F109
 445 1a24 B10326C4 		.ascii	"\261\003&\304\3130\011^\002\251\003\271\002R\011\322"
 445      CB30095E 
 445      02A903B9 
 445      025209D2 
 446 1a34 09E204A9 		.ascii	"\011\342\004\251\007i\002\271\010\322\002r\036\344*"
ARM GAS  C:\Users\Sava\AppData\Local\Temp\cchHm4c4.s 			page 36


 446      076902B9 
 446      08D20272 
 446      1EE42A
 447 1a43 481BC805 		.ascii	"H\033\310\005\220f\2203 \355 \025 \345 5 \335 gA\252"
 447      90669033 
 447      20ED2015 
 447      20E52035 
 447      20DD2067 
 448 1a59 415A414E 		.ascii	"AZAN\2034\202\234\003\251\002i\000\251\005)SM\276\313"
 448      8334829C 
 448      03A90269 
 448      00A90529 
 448      534DBECB 
 449 1a6d B4109107 		.ascii	"\264\020\221\007k\361Z\356\036\220\321\2015\313\315"
 449      6BF15AEE 
 449      1E90D181 
 449      35CBCD
 450 1a7c C4A11B08 		.ascii	"\304\241\033\010\307\257\243/\224.w\235\250\261\270"
 450      C7AFA32F 
 450      942E779D 
 450      A8B1B8
 451 1a8b 7E7C766C 		.ascii	"~|vl\210\276\022\332\007\027\367\230\\\257\204\022\024"
 451      88BE12DA 
 451      0717F798 
 451      5CAF8412 
 451      14
 452 1a9c DD80817A 		.ascii	"\335\200\201z\001\203\377\337\360\200\030\323\0175\344"
 452      0183FFDF 
 452      F08018D3 
 452      0F35E4
 453 1aab 04285F5E 		.ascii	"\004(_^\355S\260\005&\037\223\364\362j\305\233\366\031"
 453      ED53B005 
 453      261F93F4 
 453      F26AC59B 
 453      F619
 454 1abd 4C7F1A0F 		.ascii	"L\177\032\017\337\361\237\306\257V\277}f\331\254\370"
 454      DFF19FC6 
 454      AF56BF7D 
 454      66D9ACF8 
 455 1acd 5DDF3FFD 		.ascii	"]\337?\375Hqm\277\211\374\254\357\272Id\035\334(+X5"
 455      48716DBF 
 455      89FCACEF 
 455      BA49641D 
 455      DC282B58 
 456 1ae2 7F56E428 		.ascii	"\177V\344(*rL\0145\375\357\247\347\035\216$\270P$z\350"
 456      2A724C0C 
 456      35FDEFA7 
 456      E71D8E24 
 456      B850247A 
 457 1af7 B4FC7F72 		.ascii	"\264\374\177r\200C\362\247\014\335C^h\300\364\031\271"
 457      8043F2A7 
 457      0CDD435E 
 457      68C0F419 
 457      B9
 458 1b08 913CB2DC 		.ascii	"\221<\262\334 \34034\021\350\341\373\213\357\261\322"
 458      20E03334 
 458      11E8E1FB 
ARM GAS  C:\Users\Sava\AppData\Local\Temp\cchHm4c4.s 			page 37


 458      8BEFB1D2 
 459 1b18 28F147B6 		.ascii	"(\361G\266z\223Z\015\345F\333J2\027}\231Q\347\261\204"
 459      7A935A0D 
 459      E546DB4A 
 459      32177D99 
 459      51E7B184 
 460 1b2c 0032301C 		.ascii	"\00020\034\344\177\354\000Z\350\206\23488\224m\016R"
 460      E47FEC00 
 460      5AE8869C 
 460      3838946D 
 460      0E52
 461 1b3e 9B1FA767 		.ascii	"\233\037\247g\034\001\3702\263\3312\324z-\340g'\034"
 461      1C01F832 
 461      B3D932D4 
 461      7A2DE067 
 461      271C
 462 1b50 8E128773 		.ascii	"\216\022\207s\351\002\031\351\314\354\020\353Ba~\210"
 462      E90219E9 
 462      CCEC10EB 
 462      42617E88 
 463 1b60 F4846E99 		.ascii	"\364\204n\231~FnQ\266]x\256\372\205\276\332\323a\206"
 463      7E466E51 
 463      B65D78AE 
 463      FA85BEDA 
 463      D36186
 464 1b73 2DF90BCA 		.ascii	"-\371\013\312\235\005\203!?-f\325\341+G\242\017`I]\241"
 464      9D058321 
 464      3F2D66D5 
 464      E12B47A2 
 464      0F60495D 
 465 1b88 894223A6 		.ascii	"\211B#\246\237zm\212\374&\330\276\323\272\313\032\034"
 465      9F7A6D8A 
 465      FC26D8BE 
 465      D3BACB1A 
 465      1C
 466 1b99 6BB50787 		.ascii	"k\265\007\207\355\266\331\254Qv\237\257\376\376\037"
 466      EDB6D9AC 
 466      51769FAF 
 466      FEFE1F
 467 1ba8 3FFDEB6D 		.ascii	"?\375\353m\333\274L\366\220\320H\253\030f\215\2144E"
 467      DBBC4CF6 
 467      90D048AB 
 467      18668D8C 
 467      3445
 468 1bba EC0AD961 		.ascii	"\354\012\331a\305\3211!\276\301\301\273#\242\354\177"
 468      C5D13121 
 468      BEC1C1BB 
 468      23A2EC7F 
 469 1bca 196CDF8B 		.ascii	"\031l\337\213\302\376\363\366\030[\364\016[\310\256"
 469      C2FEF3F6 
 469      185BF40E 
 469      5BC8AE
 470 1bd9 4FBF8E88 		.ascii	"O\277\216\210\264\306~\032\364\335_\376\305\237n\017"
 470      B4C67E1A 
 470      F4DD5FFE 
 470      C59F6E0F 
 471 1be9 DB1363B3 		.ascii	"\333\023c\263\306\306n\217\211\215\016\3734\314f\015"
ARM GAS  C:\Users\Sava\AppData\Local\Temp\cchHm4c4.s 			page 38


 471      C6C66E8F 
 471      898D0EFB 
 471      34CC660D 
 472 1bf9 B147DBB6 		.ascii	"\261G\333\266\377\352\213_\252\277\210\330\025\023m"
 472      FFEA8B5F 
 472      AABF88D8 
 472      15136D
 473 1c08 B36FDF11 		.ascii	"\263o\337\021\265{{\210m\327\366?\377\342W_l#G\177\026"
 473      B57B7B88 
 473      6DD7F63F 
 473      FFE2575F 
 473      6C23477F 
 474 1c1d 151D65FD 		.ascii	"\025\035e\3753kHh\304\366\210\250\260\310\335\341\326"
 474      336B4868 
 474      C4F688A8 
 474      B0C8DDE1 
 474      D6
 475 1c2e EDBB42C2 		.ascii	"\355\273B\302vFDY\267\007\207[\277\016\331\035i\017"
 475      76464459 
 475      B707875B 
 475      BF0ED91D 
 475      690F
 476 1c40 B6EF89B1 		.ascii	"\266\357\211\261\306~\261\323\313\233\273\362\315\277"
 476      C67EB1D3 
 476      CB9BBBF2 
 476      CDBF
 477 1c4e 9727B17B 		.ascii	"\227'\261{b\267\007\307\332\303\301,\230\367\001\370"
 477      62B707C7 
 477      DAC3C12C 
 477      98F701F8 
 478 1c5e 009260FB 		.ascii	"\000\222`\373/\"\277\331\021\271]\0023v\373\027_l\205"
 478      2F22BFD9 
 478      11B95D02 
 478      3376FB17 
 478      5F6C85
 479 1c71 4658B4CD 		.ascii	"FX\264\315\272\225\035\356\212\210\015c_EF\333\210\343"
 479      BA951DEE 
 479      8A880D63 
 479      5F4546DB 
 479      88E3
 480 1c83 D081352A 		.ascii	"\320\2015*\326j\242_\3701L\267\375E\260\335G:\3006k"
 480      D66AA25F 
 480      F8314CB7 
 480      FD45B0DD 
 480      473AC036 
 481 1c98 B86987CD 		.ascii	"\270i\207\315j\215\022C#w[\305\257wGFZ\244\036\210\202"
 481      6A8D1243 
 481      23775BC5 
 481      AF774746 
 481      5AA41E88 
 482 1cad 9FD408B6 		.ascii	"\237\324\010\266\377\314\275y\370\033k\337\023i\005"
 482      FFCCBD79 
 482      F81B6BDF 
 482      136905
 483 1cbc 9BA2DDFA 		.ascii	"\233\242\335\372\035\\\005@\006\307\306\204\204Y!\223"
 483      1D5C0540 
 483      06C7C684 
ARM GAS  C:\Users\Sava\AppData\Local\Temp\cchHm4c4.s 			page 39


 483      84592193 
 484 1ccc DC9637FF 		.ascii	"\334\2267\377\313\272\214\266\205\007\333\267~\337\210"
 484      CBBA8CB6 
 484      8507DBB7 
 484      7EDF88
 485 1cdb 420044E8 		.ascii	"B\000D\350\334\022i\265\333\2556\326\263\370ut\224\235"
 485      DC1269B5 
 485      DBAD36D6 
 485      B3F87574 
 485      949D
 486 1ced 07F5E52F 		.ascii	"\007\365\345/yP\344\300wWtT4U\301\24111\342\316\340"
 486      7950E4C0 
 486      77577454 
 486      3455C1A1 
 486      3131E2CE 
 487 1d02 98EF7CA3 		.ascii	"\230\357|\243\300\253\340\030`\227\357\016\340\340\267"
 487      C0ABE018 
 487      6097EF0E 
 487      E0E0B7
 488 1d11 11E1F69D 		.ascii	"\021\341\366\235~\344(4\302\276+$\306\262;*\",:\334"
 488      7EE42834 
 488      C2BE2B24 
 488      C6B23B2A 
 488      222C3ADC 
 489 1d25 1A1C1911 		.ascii	"\032\034\031\021k\367\335\021\271'fgpxl\230\370-\\\272"
 489      6BF7DD11 
 489      B9276667 
 489      70786C98 
 489      F82D5CBA 
 490 1d39 8E3523A2 		.ascii	"\2165#\242\302\255\337}o\177\211k\340\357F~\030\354"
 490      C2ADDF7D 
 490      6F7F896B 
 490      E0EF467E 
 490      18EC
 491 1d4b EA32D86E 		.ascii	"\3522\330na\307Z\303!\261v\177\251\361u\204-\326\036"
 491      61C75AC3 
 491      21B1767F 
 491      A9F17584 
 491      2DD61E
 492 1d5e 102C5D1C 		.ascii	"\020,]\034k\267\355\016\223\334\012\213\262\373J'\354"
 492      6BB7ED0E 
 492      93DC0A8B 
 492      B2FB4A27 
 492      EC
 493 1d6f 626874F8 		.ascii	"bht\370\036\223uW\214}\217wLH8\020f\207)\"*\312j\303"
 493      1E937557 
 493      8C7D8F77 
 493      4C483810 
 493      66872922 
 494 1d87 3BA36DF8 		.ascii	";\243m\370\033\253\315\034\2733$<\372[\221P\371\023"
 494      1BABCD1C 
 494      BB33243C 
 494      FA5B9150 
 494      F913
 495 1d99 9225DAA4 		.ascii	"\222%\332\244\314\016\266\233(\014\346PH\205\325&\306"
 495      CC0EB69B 
 495      280CE650 
ARM GAS  C:\Users\Sava\AppData\Local\Temp\cchHm4c4.s 			page 40


 495      4885D526 
 495      C6
 496 1daa 84D8EC44 		.ascii	"\204\330\354D\2055\203I3\330n\266\205\204G\354\216\365"
 496      85358349 
 496      33D86EB6 
 496      858447EC 
 496      8EF5
 497 1dbc 03CE8733 		.ascii	"\003\316\2073\036\370\355\012\211\210b\207\246\035\340"
 497      1EF8ED0A 
 497      89886287 
 497      A61DE0
 498 1dcb 75AC4872 		.ascii	"u\254Hr\355m\213\336\015\000\205\373IL\010\266\013\241"
 498      ED6D8BDE 
 498      0D0085FB 
 498      494C08B6 
 498      0BA1
 499 1ddd 3B7EAC81 		.ascii	";~\254\201K:\"\244\266\303\000\372&\302\372\255\020"
 499      4B3A22A4 
 499      B6C300FA 
 499      26C2FAAD 
 499      10
 500 1dee 1B2AC686 		.ascii	"\033*\306\206\331\"\275\241\014\2206\016\265G\231\355"
 500      D922BDA1 
 500      0C90360E 
 500      B54799ED 
 501 1dfe 3B228363 		.ascii	";\"\203cl\336\344\217\315\032)\304\330\200\247P\035"
 501      6CDEE48F 
 501      CD1A29C4 
 501      D880A750 
 501      1D
 502 1e0f A2C223C2 		.ascii	"\242\302#\302\314\266\350\310H\0100\326\032i\016\017"
 502      CCB6E8C8 
 502      480830D6 
 502      1A690E0F 
 503 1e1f 27F912C9 		.ascii	"'\371\022\311?8\"*\304;6&\"*4\372;3\224\230\330h\233"
 503      3F38222A 
 503      C43B3626 
 503      222A34FA 
 503      3B339498 
 504 1e36 600FF186 		.ascii	"`\017\361\206\241E\334\023\011\177D\222~q\027(\010\277"
 504      A145DC13 
 504      097F4492 
 504      7E711728 
 504      08BF
 505 1e48 0B15C1CC 		.ascii	"\013\025\301\314.!,\024C\323',$\322\032\025\036b\363"
 505      2E212C14 
 505      43D3272C 
 505      24D21A15 
 505      1E62F3
 506 1e5b B5478787 		.ascii	"\265G\207\207\354\011&_}k\265\376\216\034\370C\277a"
 506      EC09265F 
 506      7D6BB5FE 
 506      8E1CF843 
 506      BF61
 507 1e6d F6886FAC 		.ascii	"\366\210o\254\301p&\366\223\235\021;vF\202\330\255\341"
 507      C17026F6 
 507      939D113B 
ARM GAS  C:\Users\Sava\AppData\Local\Temp\cchHm4c4.s 			page 41


 507      764682D8 
 507      ADE1
 508 1e7f F40B5FA2 		.ascii	"\364\013_\242\037\025\002\301\371\356\264\206P\334l"
 508      1F1502C1 
 508      F9EEB486 
 508      50DC6C
 509 1e8e 6676640A 		.ascii	"fvd\012\333\011\020\012\261\337z\377.*:48:\312\207\375"
 509      DB09100A 
 509      B1DF7AFF 
 509      2E2A3A34 
 509      383ACA87 
 510 1ea3 FDFA6B6F 		.ascii	"\375\372ko(\027\221\321!\3418\304\026f\332\021\262{"
 510      281791D1 
 510      21E138C4 
 510      1666DA11 
 510      B27B
 511 1eb5 87D51CB9 		.ascii	"\207\325\034\271\313j'\331\212\214 \251 \21284\304\206"
 511      CB6A27D9 
 511      8A8C20A9 
 511      208A3834 
 511      C486
 512 1ec7 23617486 		.ascii	"#at\206[\201_8b\327\016\021<\374\235\211Z7E\206\204"
 512      5B815F38 
 512      62D70E11 
 512      3CFC9D89 
 512      5A374586 
 513 1edc 5A234528 		.ascii	"Z#E(Wv\000\"L\214\261E\3542\203\012\004%\206\0013L1"
 513      57760022 
 513      4C8CB145 
 513      EC32830A 
 513      04258601 
 514 1ef3 211038FE 		.ascii	"!\0208\3766\"\312\2334\241\334\372\271j\260\335mV\302"
 514      3622CA9B 
 514      34A1DCFA 
 514      B96AB0DD 
 514      6D56C2
 515 1f06 14957A87 		.ascii	"\024\225z\207\\\251\375\371_v\346\377\001\034\360\022"
 515      5CA9FDF9 
 515      5F76E6FF 
 515      011CF012 
 516 1f16 DD       		.ascii	"\335"
 517              		.text
 518              		.section	.gnu.lto_.symtab.d4c1b67,"",%progbits
 519 0000 6C765F74 		.ascii	"lv_theme_set_current\000"
 519      68656D65 
 519      5F736574 
 519      5F637572 
 519      72656E74 
 520 0015 00       		.ascii	"\000"
 521 0016 00       		.ascii	"\000"
 522 0017 00       		.ascii	"\000"
 523 0018 00000000 		.ascii	"\000\000\000\000\000\000\000\000"
 523      00000000 
 524 0020 CF020000 		.ascii	"\317\002\000\000"
 525 0024 6C765F74 		.ascii	"lv_theme_get_current\000"
 525      68656D65 
 525      5F676574 
ARM GAS  C:\Users\Sava\AppData\Local\Temp\cchHm4c4.s 			page 42


 525      5F637572 
 525      72656E74 
 526 0039 00       		.ascii	"\000"
 527 003a 00       		.ascii	"\000"
 528 003b 00       		.ascii	"\000"
 529 003c 00000000 		.ascii	"\000\000\000\000\000\000\000\000"
 529      00000000 
 530 0044 D2020000 		.ascii	"\322\002\000\000"
 531              		.text
 532              		.section	.gnu.lto_.opts,"",%progbits
 533 0000 272D666D 		.ascii	"'-fmath-errno' '-fsigned-zeros' '-ftrapping-math' '"
 533      6174682D 
 533      6572726E 
 533      6F272027 
 533      2D667369 
 534 0033 2D666E6F 		.ascii	"-fno-trapv' '-fno-strict-overflow' '-fno-openmp' '-"
 534      2D747261 
 534      70762720 
 534      272D666E 
 534      6F2D7374 
 535 0066 666E6F2D 		.ascii	"fno-openacc' '-mcpu=cortex-m3' '-mthumb' '-g' '-O0'"
 535      6F70656E 
 535      61636327 
 535      20272D6D 
 535      6370753D 
 536 0099 20272D66 		.ascii	" '-ffunction-sections' '-ffat-lto-objects' '-finlin"
 536      66756E63 
 536      74696F6E 
 536      2D736563 
 536      74696F6E 
 537 00cc 652D6675 		.ascii	"e-functions' '-flto'\000"
 537      6E637469 
 537      6F6E7327 
 537      20272D66 
 537      6C746F27 
 538              		.text
 539              		.cfi_sections	.debug_frame
 540              		.bss
 541              		.align	2
 542              	current_theme:
 543 0000 00000000 		.space	4
 544              		.section	.text.lv_theme_set_current,"ax",%progbits
 545              		.align	2
 546              		.global	lv_theme_set_current
 547              		.thumb
 548              		.thumb_func
 549              		.type	lv_theme_set_current, %function
 550              	lv_theme_set_current:
 551              	.LFB12:
 552              		.file 1 "lvgl\\lv_themes\\lv_theme.c"
   1:lvgl\lv_themes/lv_theme.c **** /**
   2:lvgl\lv_themes/lv_theme.c ****  * @file lv_theme.c
   3:lvgl\lv_themes/lv_theme.c ****  *
   4:lvgl\lv_themes/lv_theme.c ****  */
   5:lvgl\lv_themes/lv_theme.c **** 
   6:lvgl\lv_themes/lv_theme.c **** /*********************
   7:lvgl\lv_themes/lv_theme.c ****  *      INCLUDES
ARM GAS  C:\Users\Sava\AppData\Local\Temp\cchHm4c4.s 			page 43


   8:lvgl\lv_themes/lv_theme.c ****  *********************/
   9:lvgl\lv_themes/lv_theme.c **** #include "lv_theme.h"
  10:lvgl\lv_themes/lv_theme.c **** #include "../lv_core/lv_obj.h"
  11:lvgl\lv_themes/lv_theme.c **** 
  12:lvgl\lv_themes/lv_theme.c **** /*********************
  13:lvgl\lv_themes/lv_theme.c ****  *      DEFINES
  14:lvgl\lv_themes/lv_theme.c ****  *********************/
  15:lvgl\lv_themes/lv_theme.c **** 
  16:lvgl\lv_themes/lv_theme.c **** /**********************
  17:lvgl\lv_themes/lv_theme.c ****  *      TYPEDEFS
  18:lvgl\lv_themes/lv_theme.c ****  **********************/
  19:lvgl\lv_themes/lv_theme.c **** 
  20:lvgl\lv_themes/lv_theme.c **** /**********************
  21:lvgl\lv_themes/lv_theme.c ****  *  STATIC PROTOTYPES
  22:lvgl\lv_themes/lv_theme.c ****  **********************/
  23:lvgl\lv_themes/lv_theme.c **** 
  24:lvgl\lv_themes/lv_theme.c **** /**********************
  25:lvgl\lv_themes/lv_theme.c ****  *  STATIC VARIABLES
  26:lvgl\lv_themes/lv_theme.c ****  **********************/
  27:lvgl\lv_themes/lv_theme.c **** 
  28:lvgl\lv_themes/lv_theme.c **** #if LV_THEME_LIVE_UPDATE == 0
  29:lvgl\lv_themes/lv_theme.c **** static lv_theme_t * current_theme;
  30:lvgl\lv_themes/lv_theme.c **** #else
  31:lvgl\lv_themes/lv_theme.c **** /* If live update is used then a big `lv_style_t` array is used to store the real styles of the the
  32:lvgl\lv_themes/lv_theme.c ****  * On `lv_theme_set_current` the styles of the theme are copied to this array.
  33:lvgl\lv_themes/lv_theme.c ****  * The pointers in `current_theme` are initialized to point to the styles in the array.
  34:lvgl\lv_themes/lv_theme.c ****  * This way the theme styles will always point to the same memory address even after theme is chang
  35:lvgl\lv_themes/lv_theme.c ****  * (The pointers in the theme points to the styles declared by the theme itself) */
  36:lvgl\lv_themes/lv_theme.c **** 
  37:lvgl\lv_themes/lv_theme.c **** /* Store the styles in this array.
  38:lvgl\lv_themes/lv_theme.c ****  * Can't determine the size in compile time because sizeof is not evaluated (should be `sizeof(lv_t
  39:lvgl\lv_themes/lv_theme.c ****  * Error will be generated in run time if too small.*/
  40:lvgl\lv_themes/lv_theme.c **** static lv_style_t th_styles[120];
  41:lvgl\lv_themes/lv_theme.c **** static bool inited = false;
  42:lvgl\lv_themes/lv_theme.c **** static lv_theme_t current_theme;
  43:lvgl\lv_themes/lv_theme.c **** #endif
  44:lvgl\lv_themes/lv_theme.c **** 
  45:lvgl\lv_themes/lv_theme.c **** /**********************
  46:lvgl\lv_themes/lv_theme.c ****  *      MACROS
  47:lvgl\lv_themes/lv_theme.c ****  **********************/
  48:lvgl\lv_themes/lv_theme.c **** 
  49:lvgl\lv_themes/lv_theme.c **** /**********************
  50:lvgl\lv_themes/lv_theme.c ****  *   GLOBAL FUNCTIONS
  51:lvgl\lv_themes/lv_theme.c ****  **********************/
  52:lvgl\lv_themes/lv_theme.c **** 
  53:lvgl\lv_themes/lv_theme.c **** /**
  54:lvgl\lv_themes/lv_theme.c ****  * Set a theme for the system.
  55:lvgl\lv_themes/lv_theme.c ****  * From now, all the created objects will use styles from this theme by default
  56:lvgl\lv_themes/lv_theme.c ****  * @param th pointer to theme (return value of: 'lv_theme_init_xxx()')
  57:lvgl\lv_themes/lv_theme.c ****  */
  58:lvgl\lv_themes/lv_theme.c **** void lv_theme_set_current(lv_theme_t * th)
  59:lvgl\lv_themes/lv_theme.c **** {
 553              		.loc 1 59 0
 554              		.cfi_startproc
 555              		@ args = 0, pretend = 0, frame = 8
 556              		@ frame_needed = 1, uses_anonymous_args = 0
 557              		@ link register save eliminated.
ARM GAS  C:\Users\Sava\AppData\Local\Temp\cchHm4c4.s 			page 44


 558 0000 80B4     		push	{r7}
 559              		.cfi_def_cfa_offset 4
 560              		.cfi_offset 7, -4
 561 0002 83B0     		sub	sp, sp, #12
 562              		.cfi_def_cfa_offset 16
 563 0004 00AF     		add	r7, sp, #0
 564              		.cfi_def_cfa_register 7
 565 0006 7860     		str	r0, [r7, #4]
  60:lvgl\lv_themes/lv_theme.c **** #if LV_THEME_LIVE_UPDATE == 0
  61:lvgl\lv_themes/lv_theme.c ****     current_theme = th;
 566              		.loc 1 61 0
 567 0008 034A     		ldr	r2, .L2
 568 000a 7B68     		ldr	r3, [r7, #4]
 569 000c 1360     		str	r3, [r2]
  62:lvgl\lv_themes/lv_theme.c **** #else
  63:lvgl\lv_themes/lv_theme.c ****     uint32_t style_num = sizeof(lv_theme_t) / sizeof(lv_style_t *);     /*Number of styles in a the
  64:lvgl\lv_themes/lv_theme.c **** 
  65:lvgl\lv_themes/lv_theme.c ****     if(!inited) {
  66:lvgl\lv_themes/lv_theme.c ****         /*It's not sure `th_styles` is big enough. Check it now!*/
  67:lvgl\lv_themes/lv_theme.c ****         if(style_num > sizeof(th_styles) / sizeof(lv_style_t)) {
  68:lvgl\lv_themes/lv_theme.c ****             LV_LOG_ERROR("Themes: th_styles array is too small. Increase it's size!");
  69:lvgl\lv_themes/lv_theme.c ****             while(1);
  70:lvgl\lv_themes/lv_theme.c ****         }
  71:lvgl\lv_themes/lv_theme.c **** 
  72:lvgl\lv_themes/lv_theme.c ****         /*Initialize the style pointers `current_theme` to point to the `th_styles` style array */
  73:lvgl\lv_themes/lv_theme.c ****         uint16_t i;
  74:lvgl\lv_themes/lv_theme.c ****         lv_style_t ** cur_th_style_p = (lv_style_t **) &current_theme;
  75:lvgl\lv_themes/lv_theme.c ****         for(i = 0; i < style_num; i++) {
  76:lvgl\lv_themes/lv_theme.c ****             uintptr_t adr = (uintptr_t)&th_styles[i];
  77:lvgl\lv_themes/lv_theme.c ****             memcpy(&cur_th_style_p[i], &adr, sizeof(lv_style_t *));
  78:lvgl\lv_themes/lv_theme.c ****         }
  79:lvgl\lv_themes/lv_theme.c ****         inited = true;
  80:lvgl\lv_themes/lv_theme.c ****     }
  81:lvgl\lv_themes/lv_theme.c **** 
  82:lvgl\lv_themes/lv_theme.c **** 
  83:lvgl\lv_themes/lv_theme.c ****     /*Copy the styles pointed by the new theme to the `th_styles` style array*/
  84:lvgl\lv_themes/lv_theme.c ****     uint16_t i;
  85:lvgl\lv_themes/lv_theme.c ****     lv_style_t ** th_style = (lv_style_t **) th;
  86:lvgl\lv_themes/lv_theme.c ****     for(i = 0; i < style_num; i++) {
  87:lvgl\lv_themes/lv_theme.c ****         uintptr_t s = (uintptr_t)th_style[i];
  88:lvgl\lv_themes/lv_theme.c ****         if(s) memcpy(&th_styles[i], (void *)s, sizeof(lv_style_t));
  89:lvgl\lv_themes/lv_theme.c ****     }
  90:lvgl\lv_themes/lv_theme.c **** 
  91:lvgl\lv_themes/lv_theme.c ****     /*Let the object know their style might change*/
  92:lvgl\lv_themes/lv_theme.c ****     lv_obj_report_style_mod(NULL);
  93:lvgl\lv_themes/lv_theme.c **** #endif
  94:lvgl\lv_themes/lv_theme.c **** }
 570              		.loc 1 94 0
 571 000e 00BF     		nop
 572 0010 0C37     		adds	r7, r7, #12
 573              		.cfi_def_cfa_offset 4
 574 0012 BD46     		mov	sp, r7
 575              		.cfi_def_cfa_register 13
 576              		@ sp needed
 577 0014 80BC     		pop	{r7}
 578              		.cfi_restore 7
 579              		.cfi_def_cfa_offset 0
ARM GAS  C:\Users\Sava\AppData\Local\Temp\cchHm4c4.s 			page 45


 580 0016 7047     		bx	lr
 581              	.L3:
 582              		.align	2
 583              	.L2:
 584 0018 00000000 		.word	current_theme
 585              		.cfi_endproc
 586              	.LFE12:
 587              		.size	lv_theme_set_current, .-lv_theme_set_current
 588              		.section	.text.lv_theme_get_current,"ax",%progbits
 589              		.align	2
 590              		.global	lv_theme_get_current
 591              		.thumb
 592              		.thumb_func
 593              		.type	lv_theme_get_current, %function
 594              	lv_theme_get_current:
 595              	.LFB13:
  95:lvgl\lv_themes/lv_theme.c **** 
  96:lvgl\lv_themes/lv_theme.c **** /**
  97:lvgl\lv_themes/lv_theme.c ****  * Get the current system theme.
  98:lvgl\lv_themes/lv_theme.c ****  * @return pointer to the current system theme. NULL if not set.
  99:lvgl\lv_themes/lv_theme.c ****  */
 100:lvgl\lv_themes/lv_theme.c **** lv_theme_t * lv_theme_get_current(void)
 101:lvgl\lv_themes/lv_theme.c **** {
 596              		.loc 1 101 0
 597              		.cfi_startproc
 598              		@ args = 0, pretend = 0, frame = 0
 599              		@ frame_needed = 1, uses_anonymous_args = 0
 600              		@ link register save eliminated.
 601 0000 80B4     		push	{r7}
 602              		.cfi_def_cfa_offset 4
 603              		.cfi_offset 7, -4
 604 0002 00AF     		add	r7, sp, #0
 605              		.cfi_def_cfa_register 7
 102:lvgl\lv_themes/lv_theme.c **** #if LV_THEME_LIVE_UPDATE == 0
 103:lvgl\lv_themes/lv_theme.c ****     return current_theme;
 606              		.loc 1 103 0
 607 0004 024B     		ldr	r3, .L6
 608 0006 1B68     		ldr	r3, [r3]
 104:lvgl\lv_themes/lv_theme.c **** #else
 105:lvgl\lv_themes/lv_theme.c ****     if(!inited) return NULL;
 106:lvgl\lv_themes/lv_theme.c ****     else return &current_theme;
 107:lvgl\lv_themes/lv_theme.c **** #endif
 108:lvgl\lv_themes/lv_theme.c **** }
 609              		.loc 1 108 0
 610 0008 1846     		mov	r0, r3
 611 000a BD46     		mov	sp, r7
 612              		.cfi_def_cfa_register 13
 613              		@ sp needed
 614 000c 80BC     		pop	{r7}
 615              		.cfi_restore 7
 616              		.cfi_def_cfa_offset 0
 617 000e 7047     		bx	lr
 618              	.L7:
 619              		.align	2
 620              	.L6:
 621 0010 00000000 		.word	current_theme
 622              		.cfi_endproc
ARM GAS  C:\Users\Sava\AppData\Local\Temp\cchHm4c4.s 			page 46


 623              	.LFE13:
 624              		.size	lv_theme_get_current, .-lv_theme_get_current
 625              		.text
 626              	.Letext0:
 627              		.file 2 "c:\\program files (x86)\\cypress\\psoc creator\\4.2\\psoc creator\\import\\gnu\\arm\\5.4.
 628              		.file 3 "c:\\program files (x86)\\cypress\\psoc creator\\4.2\\psoc creator\\import\\gnu\\arm\\5.4.
 629              		.file 4 "lvgl\\lv_themes\\../lv_core/../lv_misc/lv_color.h"
 630              		.file 5 "lvgl\\lv_themes\\../lv_core/../lv_misc/lv_area.h"
 631              		.file 6 "lvgl\\lv_themes\\../lv_core/../lv_misc/lv_font.h"
 632              		.file 7 "lvgl\\lv_themes\\../lv_core/lv_style.h"
 633              		.file 8 "lvgl\\lv_themes\\lv_theme.h"