ARM GAS  C:\Users\Sava\AppData\Local\Temp\ccs9rGHG.s 			page 1


   1              		.syntax unified
   2              		.cpu cortex-m3
   3              		.fpu softvfp
   4              		.eabi_attribute 20, 1
   5              		.eabi_attribute 21, 1
   6              		.eabi_attribute 23, 3
   7              		.eabi_attribute 24, 1
   8              		.eabi_attribute 25, 1
   9              		.eabi_attribute 26, 1
  10              		.eabi_attribute 30, 1
  11              		.eabi_attribute 34, 1
  12              		.eabi_attribute 18, 4
  13              		.thumb
  14              		.syntax unified
  15              		.file	"lv_test_theme.c"
  16              		.text
  17              	.Ltext0:
  18              		.cfi_sections	.debug_frame
  19              		.section	.text.create_tab1,"ax",%progbits
  20              		.align	2
  21              		.thumb
  22              		.thumb_func
  23              		.type	create_tab1, %function
  24              	create_tab1:
  25              	.LFB108:
  26              		.file 1 "lv_examples\\lv_tests\\lv_test_theme\\lv_test_theme.c"
   1:lv_examples\lv_tests\lv_test_theme/lv_test_theme.c **** /**
   2:lv_examples\lv_tests\lv_test_theme/lv_test_theme.c ****  * @file lv_test_win.c
   3:lv_examples\lv_tests\lv_test_theme/lv_test_theme.c ****  *
   4:lv_examples\lv_tests\lv_test_theme/lv_test_theme.c ****  */
   5:lv_examples\lv_tests\lv_test_theme/lv_test_theme.c **** 
   6:lv_examples\lv_tests\lv_test_theme/lv_test_theme.c **** /*********************
   7:lv_examples\lv_tests\lv_test_theme/lv_test_theme.c ****  *      INCLUDES
   8:lv_examples\lv_tests\lv_test_theme/lv_test_theme.c ****  *********************/
   9:lv_examples\lv_tests\lv_test_theme/lv_test_theme.c **** #include "lv_test_theme.h"
  10:lv_examples\lv_tests\lv_test_theme/lv_test_theme.c **** #if USE_LV_TESTS
  11:lv_examples\lv_tests\lv_test_theme/lv_test_theme.c **** 
  12:lv_examples\lv_tests\lv_test_theme/lv_test_theme.c **** /*********************
  13:lv_examples\lv_tests\lv_test_theme/lv_test_theme.c ****  *      DEFINES
  14:lv_examples\lv_tests\lv_test_theme/lv_test_theme.c ****  *********************/
  15:lv_examples\lv_tests\lv_test_theme/lv_test_theme.c **** 
  16:lv_examples\lv_tests\lv_test_theme/lv_test_theme.c **** /**********************
  17:lv_examples\lv_tests\lv_test_theme/lv_test_theme.c ****  *      TYPEDEFS
  18:lv_examples\lv_tests\lv_test_theme/lv_test_theme.c ****  **********************/
  19:lv_examples\lv_tests\lv_test_theme/lv_test_theme.c **** 
  20:lv_examples\lv_tests\lv_test_theme/lv_test_theme.c **** /**********************
  21:lv_examples\lv_tests\lv_test_theme/lv_test_theme.c ****  *  STATIC PROTOTYPES
  22:lv_examples\lv_tests\lv_test_theme/lv_test_theme.c ****  **********************/
  23:lv_examples\lv_tests\lv_test_theme/lv_test_theme.c **** static void create_tab1(lv_obj_t * parent);
  24:lv_examples\lv_tests\lv_test_theme/lv_test_theme.c **** static void create_tab2(lv_obj_t * parent);
  25:lv_examples\lv_tests\lv_test_theme/lv_test_theme.c **** static void create_tab3(lv_obj_t * parent);
  26:lv_examples\lv_tests\lv_test_theme/lv_test_theme.c **** 
  27:lv_examples\lv_tests\lv_test_theme/lv_test_theme.c **** /**********************
  28:lv_examples\lv_tests\lv_test_theme/lv_test_theme.c ****  *  STATIC VARIABLES
  29:lv_examples\lv_tests\lv_test_theme/lv_test_theme.c ****  **********************/
  30:lv_examples\lv_tests\lv_test_theme/lv_test_theme.c **** 
  31:lv_examples\lv_tests\lv_test_theme/lv_test_theme.c **** /**********************
ARM GAS  C:\Users\Sava\AppData\Local\Temp\ccs9rGHG.s 			page 2


  32:lv_examples\lv_tests\lv_test_theme/lv_test_theme.c ****  *      MACROS
  33:lv_examples\lv_tests\lv_test_theme/lv_test_theme.c ****  **********************/
  34:lv_examples\lv_tests\lv_test_theme/lv_test_theme.c **** 
  35:lv_examples\lv_tests\lv_test_theme/lv_test_theme.c **** /**********************
  36:lv_examples\lv_tests\lv_test_theme/lv_test_theme.c ****  *   GLOBAL FUNCTIONS
  37:lv_examples\lv_tests\lv_test_theme/lv_test_theme.c ****  **********************/
  38:lv_examples\lv_tests\lv_test_theme/lv_test_theme.c **** 
  39:lv_examples\lv_tests\lv_test_theme/lv_test_theme.c **** /**
  40:lv_examples\lv_tests\lv_test_theme/lv_test_theme.c ****  * Create a test screen with a lot objects and apply the given theme on them
  41:lv_examples\lv_tests\lv_test_theme/lv_test_theme.c ****  * @param th pointer to a theme
  42:lv_examples\lv_tests\lv_test_theme/lv_test_theme.c ****  */
  43:lv_examples\lv_tests\lv_test_theme/lv_test_theme.c **** void lv_test_theme(lv_theme_t * th)
  44:lv_examples\lv_tests\lv_test_theme/lv_test_theme.c **** {
  45:lv_examples\lv_tests\lv_test_theme/lv_test_theme.c ****     lv_theme_set_current(th);
  46:lv_examples\lv_tests\lv_test_theme/lv_test_theme.c ****     th = lv_theme_get_current();    /*If `LV_THEME_LIVE_UPDATE  1` `th` is not used directly so get
  47:lv_examples\lv_tests\lv_test_theme/lv_test_theme.c ****     lv_obj_t * scr = lv_cont_create(NULL, NULL);
  48:lv_examples\lv_tests\lv_test_theme/lv_test_theme.c ****     lv_scr_load(scr);
  49:lv_examples\lv_tests\lv_test_theme/lv_test_theme.c ****     lv_cont_set_style(scr, th->bg);
  50:lv_examples\lv_tests\lv_test_theme/lv_test_theme.c **** 
  51:lv_examples\lv_tests\lv_test_theme/lv_test_theme.c **** 
  52:lv_examples\lv_tests\lv_test_theme/lv_test_theme.c ****     lv_obj_t * tv = lv_tabview_create(scr, NULL);
  53:lv_examples\lv_tests\lv_test_theme/lv_test_theme.c ****     lv_obj_set_size(tv, LV_HOR_RES, LV_VER_RES);
  54:lv_examples\lv_tests\lv_test_theme/lv_test_theme.c ****     lv_obj_t * tab1 = lv_tabview_add_tab(tv, "Tab 1");
  55:lv_examples\lv_tests\lv_test_theme/lv_test_theme.c ****     lv_obj_t * tab2 = lv_tabview_add_tab(tv, "Tab 2");
  56:lv_examples\lv_tests\lv_test_theme/lv_test_theme.c ****     lv_obj_t * tab3 = lv_tabview_add_tab(tv, "Tab 3");
  57:lv_examples\lv_tests\lv_test_theme/lv_test_theme.c **** 
  58:lv_examples\lv_tests\lv_test_theme/lv_test_theme.c ****     create_tab1(tab1);
  59:lv_examples\lv_tests\lv_test_theme/lv_test_theme.c ****     create_tab2(tab2);
  60:lv_examples\lv_tests\lv_test_theme/lv_test_theme.c ****     create_tab3(tab3);
  61:lv_examples\lv_tests\lv_test_theme/lv_test_theme.c **** }
  62:lv_examples\lv_tests\lv_test_theme/lv_test_theme.c **** 
  63:lv_examples\lv_tests\lv_test_theme/lv_test_theme.c **** /**********************
  64:lv_examples\lv_tests\lv_test_theme/lv_test_theme.c ****  *   STATIC FUNCTIONS
  65:lv_examples\lv_tests\lv_test_theme/lv_test_theme.c ****  **********************/
  66:lv_examples\lv_tests\lv_test_theme/lv_test_theme.c **** static void create_tab1(lv_obj_t * parent)
  67:lv_examples\lv_tests\lv_test_theme/lv_test_theme.c **** {
  27              		.loc 1 67 0
  28              		.cfi_startproc
  29              		@ args = 0, pretend = 0, frame = 0
  30              		@ frame_needed = 0, uses_anonymous_args = 0
  31              	.LVL0:
  32 0000 2DE9F041 		push	{r4, r5, r6, r7, r8, lr}
  33              		.cfi_def_cfa_offset 24
  34              		.cfi_offset 4, -24
  35              		.cfi_offset 5, -20
  36              		.cfi_offset 6, -16
  37              		.cfi_offset 7, -12
  38              		.cfi_offset 8, -8
  39              		.cfi_offset 14, -4
  40 0004 0746     		mov	r7, r0
  41              	.LVL1:
  42              	.LBB18:
  43              	.LBB19:
  44              		.file 2 "lv_examples\\lv_tests\\lv_test_theme\\../../../lvgl/lv_objx/lv_page.h"
   1:lv_examples\lv_tests\lv_test_theme\../../../lvgl/lv_objx/lv_page.h **** /**
   2:lv_examples\lv_tests\lv_test_theme\../../../lvgl/lv_objx/lv_page.h ****  * @file lv_page.h
   3:lv_examples\lv_tests\lv_test_theme\../../../lvgl/lv_objx/lv_page.h ****  *
ARM GAS  C:\Users\Sava\AppData\Local\Temp\ccs9rGHG.s 			page 3


   4:lv_examples\lv_tests\lv_test_theme\../../../lvgl/lv_objx/lv_page.h ****  */
   5:lv_examples\lv_tests\lv_test_theme\../../../lvgl/lv_objx/lv_page.h **** 
   6:lv_examples\lv_tests\lv_test_theme\../../../lvgl/lv_objx/lv_page.h **** #ifndef LV_PAGE_H
   7:lv_examples\lv_tests\lv_test_theme\../../../lvgl/lv_objx/lv_page.h **** #define LV_PAGE_H
   8:lv_examples\lv_tests\lv_test_theme\../../../lvgl/lv_objx/lv_page.h **** 
   9:lv_examples\lv_tests\lv_test_theme\../../../lvgl/lv_objx/lv_page.h **** #ifdef __cplusplus
  10:lv_examples\lv_tests\lv_test_theme\../../../lvgl/lv_objx/lv_page.h **** extern "C" {
  11:lv_examples\lv_tests\lv_test_theme\../../../lvgl/lv_objx/lv_page.h **** #endif
  12:lv_examples\lv_tests\lv_test_theme\../../../lvgl/lv_objx/lv_page.h **** 
  13:lv_examples\lv_tests\lv_test_theme\../../../lvgl/lv_objx/lv_page.h **** /*********************
  14:lv_examples\lv_tests\lv_test_theme\../../../lvgl/lv_objx/lv_page.h ****  *      INCLUDES
  15:lv_examples\lv_tests\lv_test_theme\../../../lvgl/lv_objx/lv_page.h ****  *********************/
  16:lv_examples\lv_tests\lv_test_theme\../../../lvgl/lv_objx/lv_page.h **** #ifdef LV_CONF_INCLUDE_SIMPLE
  17:lv_examples\lv_tests\lv_test_theme\../../../lvgl/lv_objx/lv_page.h **** #include "lv_conf.h"
  18:lv_examples\lv_tests\lv_test_theme\../../../lvgl/lv_objx/lv_page.h **** #else
  19:lv_examples\lv_tests\lv_test_theme\../../../lvgl/lv_objx/lv_page.h **** #include "../../lv_conf.h"
  20:lv_examples\lv_tests\lv_test_theme\../../../lvgl/lv_objx/lv_page.h **** #endif
  21:lv_examples\lv_tests\lv_test_theme\../../../lvgl/lv_objx/lv_page.h **** 
  22:lv_examples\lv_tests\lv_test_theme\../../../lvgl/lv_objx/lv_page.h **** #if USE_LV_PAGE != 0
  23:lv_examples\lv_tests\lv_test_theme\../../../lvgl/lv_objx/lv_page.h **** 
  24:lv_examples\lv_tests\lv_test_theme\../../../lvgl/lv_objx/lv_page.h **** /*Testing of dependencies*/
  25:lv_examples\lv_tests\lv_test_theme\../../../lvgl/lv_objx/lv_page.h **** #if USE_LV_CONT == 0
  26:lv_examples\lv_tests\lv_test_theme\../../../lvgl/lv_objx/lv_page.h **** #error "lv_page: lv_cont is required. Enable it in lv_conf.h (USE_LV_CONT  1) "
  27:lv_examples\lv_tests\lv_test_theme\../../../lvgl/lv_objx/lv_page.h **** #endif
  28:lv_examples\lv_tests\lv_test_theme\../../../lvgl/lv_objx/lv_page.h **** 
  29:lv_examples\lv_tests\lv_test_theme\../../../lvgl/lv_objx/lv_page.h **** #include "lv_cont.h"
  30:lv_examples\lv_tests\lv_test_theme\../../../lvgl/lv_objx/lv_page.h **** #include "../lv_core/lv_indev.h"
  31:lv_examples\lv_tests\lv_test_theme\../../../lvgl/lv_objx/lv_page.h **** 
  32:lv_examples\lv_tests\lv_test_theme\../../../lvgl/lv_objx/lv_page.h **** /*********************
  33:lv_examples\lv_tests\lv_test_theme\../../../lvgl/lv_objx/lv_page.h ****  *      DEFINES
  34:lv_examples\lv_tests\lv_test_theme\../../../lvgl/lv_objx/lv_page.h ****  *********************/
  35:lv_examples\lv_tests\lv_test_theme\../../../lvgl/lv_objx/lv_page.h **** 
  36:lv_examples\lv_tests\lv_test_theme\../../../lvgl/lv_objx/lv_page.h **** /**********************
  37:lv_examples\lv_tests\lv_test_theme\../../../lvgl/lv_objx/lv_page.h ****  *      TYPEDEFS
  38:lv_examples\lv_tests\lv_test_theme\../../../lvgl/lv_objx/lv_page.h ****  **********************/
  39:lv_examples\lv_tests\lv_test_theme\../../../lvgl/lv_objx/lv_page.h **** 
  40:lv_examples\lv_tests\lv_test_theme\../../../lvgl/lv_objx/lv_page.h **** /*Scrollbar modes: shows when should the scrollbars be visible*/
  41:lv_examples\lv_tests\lv_test_theme\../../../lvgl/lv_objx/lv_page.h **** enum
  42:lv_examples\lv_tests\lv_test_theme\../../../lvgl/lv_objx/lv_page.h **** {
  43:lv_examples\lv_tests\lv_test_theme\../../../lvgl/lv_objx/lv_page.h ****     LV_SB_MODE_OFF  = 0x0,      /*Never show scrollbars*/
  44:lv_examples\lv_tests\lv_test_theme\../../../lvgl/lv_objx/lv_page.h ****     LV_SB_MODE_ON   = 0x1,      /*Always show scrollbars*/
  45:lv_examples\lv_tests\lv_test_theme\../../../lvgl/lv_objx/lv_page.h ****     LV_SB_MODE_DRAG = 0x2,      /*Show scrollbars when page is being dragged*/
  46:lv_examples\lv_tests\lv_test_theme\../../../lvgl/lv_objx/lv_page.h ****     LV_SB_MODE_AUTO = 0x3,      /*Show scrollbars when the scrollable container is large enough to 
  47:lv_examples\lv_tests\lv_test_theme\../../../lvgl/lv_objx/lv_page.h ****     LV_SB_MODE_HIDE = 0x4,      /*Hide the scroll bar temporally*/
  48:lv_examples\lv_tests\lv_test_theme\../../../lvgl/lv_objx/lv_page.h ****     LV_SB_MODE_UNHIDE = 0x5,    /*Unhide the previously hidden scrollbar. Recover it's type too*/
  49:lv_examples\lv_tests\lv_test_theme\../../../lvgl/lv_objx/lv_page.h **** };
  50:lv_examples\lv_tests\lv_test_theme\../../../lvgl/lv_objx/lv_page.h **** typedef uint8_t lv_sb_mode_t;
  51:lv_examples\lv_tests\lv_test_theme\../../../lvgl/lv_objx/lv_page.h **** 
  52:lv_examples\lv_tests\lv_test_theme\../../../lvgl/lv_objx/lv_page.h **** /*Data of page*/
  53:lv_examples\lv_tests\lv_test_theme\../../../lvgl/lv_objx/lv_page.h **** typedef struct
  54:lv_examples\lv_tests\lv_test_theme\../../../lvgl/lv_objx/lv_page.h **** {
  55:lv_examples\lv_tests\lv_test_theme\../../../lvgl/lv_objx/lv_page.h ****     lv_cont_ext_t bg; /*Ext. of ancestor*/
  56:lv_examples\lv_tests\lv_test_theme\../../../lvgl/lv_objx/lv_page.h ****     /*New data for this type */
  57:lv_examples\lv_tests\lv_test_theme\../../../lvgl/lv_objx/lv_page.h ****     lv_obj_t * scrl;            /*The scrollable object on the background*/
  58:lv_examples\lv_tests\lv_test_theme\../../../lvgl/lv_objx/lv_page.h ****     lv_action_t rel_action;     /*Function to call when the page is released*/
  59:lv_examples\lv_tests\lv_test_theme\../../../lvgl/lv_objx/lv_page.h ****     lv_action_t pr_action;      /*Function to call when the page is pressed*/
  60:lv_examples\lv_tests\lv_test_theme\../../../lvgl/lv_objx/lv_page.h ****     struct {
ARM GAS  C:\Users\Sava\AppData\Local\Temp\ccs9rGHG.s 			page 4


  61:lv_examples\lv_tests\lv_test_theme\../../../lvgl/lv_objx/lv_page.h ****         lv_style_t *style;          /*Style of scrollbars*/
  62:lv_examples\lv_tests\lv_test_theme\../../../lvgl/lv_objx/lv_page.h ****         lv_area_t hor_area;            /*Horizontal scrollbar area relative to the page. (Handled b
  63:lv_examples\lv_tests\lv_test_theme\../../../lvgl/lv_objx/lv_page.h ****         lv_area_t ver_area;            /*Vertical scrollbar area relative to the page (Handled by t
  64:lv_examples\lv_tests\lv_test_theme\../../../lvgl/lv_objx/lv_page.h ****         uint8_t hor_draw :1;        /*1: horizontal scrollbar is visible now (Handled by the librar
  65:lv_examples\lv_tests\lv_test_theme\../../../lvgl/lv_objx/lv_page.h ****         uint8_t ver_draw :1;        /*1: vertical scrollbar is visible now (Handled by the library)
  66:lv_examples\lv_tests\lv_test_theme\../../../lvgl/lv_objx/lv_page.h ****         lv_sb_mode_t mode:3;        /*Scrollbar visibility from 'lv_page_sb_mode_t'*/
  67:lv_examples\lv_tests\lv_test_theme\../../../lvgl/lv_objx/lv_page.h ****     } sb;
  68:lv_examples\lv_tests\lv_test_theme\../../../lvgl/lv_objx/lv_page.h ****     struct {
  69:lv_examples\lv_tests\lv_test_theme\../../../lvgl/lv_objx/lv_page.h ****         uint16_t state;  /*Store the current size of the edge flash effect*/
  70:lv_examples\lv_tests\lv_test_theme\../../../lvgl/lv_objx/lv_page.h ****         lv_style_t *style;    /*Style of edge flash effect (usually homogeneous circle)*/
  71:lv_examples\lv_tests\lv_test_theme\../../../lvgl/lv_objx/lv_page.h ****         uint8_t enabled    :1;     /*1: Show a flash animation on the edge*/
  72:lv_examples\lv_tests\lv_test_theme\../../../lvgl/lv_objx/lv_page.h ****         uint8_t top_ip     :1;     /*Used internally to show that top most position is reached (fla
  73:lv_examples\lv_tests\lv_test_theme\../../../lvgl/lv_objx/lv_page.h ****         uint8_t bottom_ip  :1;     /*Used internally to show that bottom most position is reached (
  74:lv_examples\lv_tests\lv_test_theme\../../../lvgl/lv_objx/lv_page.h ****         uint8_t right_ip   :1;     /*Used internally to show that right most position is reached (f
  75:lv_examples\lv_tests\lv_test_theme\../../../lvgl/lv_objx/lv_page.h ****         uint8_t left_ip    :1;     /*Used internally to show that left most position is reached (fl
  76:lv_examples\lv_tests\lv_test_theme\../../../lvgl/lv_objx/lv_page.h ****     }edge_flash;
  77:lv_examples\lv_tests\lv_test_theme\../../../lvgl/lv_objx/lv_page.h **** 
  78:lv_examples\lv_tests\lv_test_theme\../../../lvgl/lv_objx/lv_page.h ****     uint8_t arrow_scroll   :1;        /*1: Enable scrolling with LV_GROUP_KEY_LEFT/RIGHT/UP/DOWN*/
  79:lv_examples\lv_tests\lv_test_theme\../../../lvgl/lv_objx/lv_page.h ****     uint8_t scroll_prop    :1;        /*1: Propagate the scrolling the the parent if the edge is re
  80:lv_examples\lv_tests\lv_test_theme\../../../lvgl/lv_objx/lv_page.h ****     uint8_t scroll_prop_ip :1;        /*1: Scroll propagation is in progress (used by the library)*
  81:lv_examples\lv_tests\lv_test_theme\../../../lvgl/lv_objx/lv_page.h **** } lv_page_ext_t;
  82:lv_examples\lv_tests\lv_test_theme\../../../lvgl/lv_objx/lv_page.h **** 
  83:lv_examples\lv_tests\lv_test_theme\../../../lvgl/lv_objx/lv_page.h **** enum {
  84:lv_examples\lv_tests\lv_test_theme\../../../lvgl/lv_objx/lv_page.h ****     LV_PAGE_STYLE_BG,
  85:lv_examples\lv_tests\lv_test_theme\../../../lvgl/lv_objx/lv_page.h ****     LV_PAGE_STYLE_SCRL,
  86:lv_examples\lv_tests\lv_test_theme\../../../lvgl/lv_objx/lv_page.h ****     LV_PAGE_STYLE_SB,
  87:lv_examples\lv_tests\lv_test_theme\../../../lvgl/lv_objx/lv_page.h ****     LV_PAGE_STYLE_EDGE_FLASH,
  88:lv_examples\lv_tests\lv_test_theme\../../../lvgl/lv_objx/lv_page.h **** };
  89:lv_examples\lv_tests\lv_test_theme\../../../lvgl/lv_objx/lv_page.h **** typedef uint8_t lv_page_style_t;
  90:lv_examples\lv_tests\lv_test_theme\../../../lvgl/lv_objx/lv_page.h **** 
  91:lv_examples\lv_tests\lv_test_theme\../../../lvgl/lv_objx/lv_page.h **** /**********************
  92:lv_examples\lv_tests\lv_test_theme\../../../lvgl/lv_objx/lv_page.h ****  * GLOBAL PROTOTYPES
  93:lv_examples\lv_tests\lv_test_theme\../../../lvgl/lv_objx/lv_page.h ****  **********************/
  94:lv_examples\lv_tests\lv_test_theme\../../../lvgl/lv_objx/lv_page.h **** 
  95:lv_examples\lv_tests\lv_test_theme\../../../lvgl/lv_objx/lv_page.h **** /**
  96:lv_examples\lv_tests\lv_test_theme\../../../lvgl/lv_objx/lv_page.h ****  * Create a page objects
  97:lv_examples\lv_tests\lv_test_theme\../../../lvgl/lv_objx/lv_page.h ****  * @param par pointer to an object, it will be the parent of the new page
  98:lv_examples\lv_tests\lv_test_theme\../../../lvgl/lv_objx/lv_page.h ****  * @param copy pointer to a page object, if not NULL then the new object will be copied from it
  99:lv_examples\lv_tests\lv_test_theme\../../../lvgl/lv_objx/lv_page.h ****  * @return pointer to the created page
 100:lv_examples\lv_tests\lv_test_theme\../../../lvgl/lv_objx/lv_page.h ****  */
 101:lv_examples\lv_tests\lv_test_theme\../../../lvgl/lv_objx/lv_page.h **** lv_obj_t * lv_page_create(lv_obj_t * par, const lv_obj_t * copy);
 102:lv_examples\lv_tests\lv_test_theme\../../../lvgl/lv_objx/lv_page.h **** 
 103:lv_examples\lv_tests\lv_test_theme\../../../lvgl/lv_objx/lv_page.h **** /**
 104:lv_examples\lv_tests\lv_test_theme\../../../lvgl/lv_objx/lv_page.h ****  * Delete all children of the scrl object, without deleting scrl child.
 105:lv_examples\lv_tests\lv_test_theme\../../../lvgl/lv_objx/lv_page.h ****  * @param obj pointer to an object
 106:lv_examples\lv_tests\lv_test_theme\../../../lvgl/lv_objx/lv_page.h ****  */
 107:lv_examples\lv_tests\lv_test_theme\../../../lvgl/lv_objx/lv_page.h **** void lv_page_clean(lv_obj_t *obj);
 108:lv_examples\lv_tests\lv_test_theme\../../../lvgl/lv_objx/lv_page.h **** 
 109:lv_examples\lv_tests\lv_test_theme\../../../lvgl/lv_objx/lv_page.h **** /**
 110:lv_examples\lv_tests\lv_test_theme\../../../lvgl/lv_objx/lv_page.h ****  * Get the press action of the page
 111:lv_examples\lv_tests\lv_test_theme\../../../lvgl/lv_objx/lv_page.h ****  * @param page pointer to a page object
 112:lv_examples\lv_tests\lv_test_theme\../../../lvgl/lv_objx/lv_page.h ****  * @return a function to call when the page is pressed
 113:lv_examples\lv_tests\lv_test_theme\../../../lvgl/lv_objx/lv_page.h ****  */
 114:lv_examples\lv_tests\lv_test_theme\../../../lvgl/lv_objx/lv_page.h **** lv_action_t lv_page_get_pr_action(lv_obj_t * page);
 115:lv_examples\lv_tests\lv_test_theme\../../../lvgl/lv_objx/lv_page.h **** 
 116:lv_examples\lv_tests\lv_test_theme\../../../lvgl/lv_objx/lv_page.h **** /**
 117:lv_examples\lv_tests\lv_test_theme\../../../lvgl/lv_objx/lv_page.h ****  * Get the release action of the page
ARM GAS  C:\Users\Sava\AppData\Local\Temp\ccs9rGHG.s 			page 5


 118:lv_examples\lv_tests\lv_test_theme\../../../lvgl/lv_objx/lv_page.h ****  * @param page pointer to a page object
 119:lv_examples\lv_tests\lv_test_theme\../../../lvgl/lv_objx/lv_page.h ****  * @return a function to call when the page is released
 120:lv_examples\lv_tests\lv_test_theme\../../../lvgl/lv_objx/lv_page.h ****  */
 121:lv_examples\lv_tests\lv_test_theme\../../../lvgl/lv_objx/lv_page.h **** lv_action_t lv_page_get_rel_action(lv_obj_t * page);
 122:lv_examples\lv_tests\lv_test_theme\../../../lvgl/lv_objx/lv_page.h **** 
 123:lv_examples\lv_tests\lv_test_theme\../../../lvgl/lv_objx/lv_page.h **** /**
 124:lv_examples\lv_tests\lv_test_theme\../../../lvgl/lv_objx/lv_page.h ****  * Get the scrollable object of a page
 125:lv_examples\lv_tests\lv_test_theme\../../../lvgl/lv_objx/lv_page.h ****  * @param page pointer to a page object
 126:lv_examples\lv_tests\lv_test_theme\../../../lvgl/lv_objx/lv_page.h ****  * @return pointer to a container which is the scrollable part of the page
 127:lv_examples\lv_tests\lv_test_theme\../../../lvgl/lv_objx/lv_page.h ****  */
 128:lv_examples\lv_tests\lv_test_theme\../../../lvgl/lv_objx/lv_page.h **** lv_obj_t * lv_page_get_scrl(const lv_obj_t * page);
 129:lv_examples\lv_tests\lv_test_theme\../../../lvgl/lv_objx/lv_page.h **** 
 130:lv_examples\lv_tests\lv_test_theme\../../../lvgl/lv_objx/lv_page.h **** /*=====================
 131:lv_examples\lv_tests\lv_test_theme\../../../lvgl/lv_objx/lv_page.h ****  * Setter functions
 132:lv_examples\lv_tests\lv_test_theme\../../../lvgl/lv_objx/lv_page.h ****  *====================*/
 133:lv_examples\lv_tests\lv_test_theme\../../../lvgl/lv_objx/lv_page.h **** 
 134:lv_examples\lv_tests\lv_test_theme\../../../lvgl/lv_objx/lv_page.h **** /**
 135:lv_examples\lv_tests\lv_test_theme\../../../lvgl/lv_objx/lv_page.h ****  * Set a release action for the page
 136:lv_examples\lv_tests\lv_test_theme\../../../lvgl/lv_objx/lv_page.h ****  * @param page pointer to a page object
 137:lv_examples\lv_tests\lv_test_theme\../../../lvgl/lv_objx/lv_page.h ****  * @param rel_action a function to call when the page is released
 138:lv_examples\lv_tests\lv_test_theme\../../../lvgl/lv_objx/lv_page.h ****  */
 139:lv_examples\lv_tests\lv_test_theme\../../../lvgl/lv_objx/lv_page.h **** void lv_page_set_rel_action(lv_obj_t * page, lv_action_t rel_action);
 140:lv_examples\lv_tests\lv_test_theme\../../../lvgl/lv_objx/lv_page.h **** 
 141:lv_examples\lv_tests\lv_test_theme\../../../lvgl/lv_objx/lv_page.h **** /**
 142:lv_examples\lv_tests\lv_test_theme\../../../lvgl/lv_objx/lv_page.h ****  * Set a press action for the page
 143:lv_examples\lv_tests\lv_test_theme\../../../lvgl/lv_objx/lv_page.h ****  * @param page pointer to a page object
 144:lv_examples\lv_tests\lv_test_theme\../../../lvgl/lv_objx/lv_page.h ****  * @param pr_action a function to call when the page is pressed
 145:lv_examples\lv_tests\lv_test_theme\../../../lvgl/lv_objx/lv_page.h ****  */
 146:lv_examples\lv_tests\lv_test_theme\../../../lvgl/lv_objx/lv_page.h **** void lv_page_set_pr_action(lv_obj_t * page, lv_action_t pr_action);
 147:lv_examples\lv_tests\lv_test_theme\../../../lvgl/lv_objx/lv_page.h **** 
 148:lv_examples\lv_tests\lv_test_theme\../../../lvgl/lv_objx/lv_page.h **** /**
 149:lv_examples\lv_tests\lv_test_theme\../../../lvgl/lv_objx/lv_page.h ****  * Set the scroll bar mode on a page
 150:lv_examples\lv_tests\lv_test_theme\../../../lvgl/lv_objx/lv_page.h ****  * @param page pointer to a page object
 151:lv_examples\lv_tests\lv_test_theme\../../../lvgl/lv_objx/lv_page.h ****  * @param sb_mode the new mode from 'lv_page_sb.mode_t' enum
 152:lv_examples\lv_tests\lv_test_theme\../../../lvgl/lv_objx/lv_page.h ****  */
 153:lv_examples\lv_tests\lv_test_theme\../../../lvgl/lv_objx/lv_page.h **** void lv_page_set_sb_mode(lv_obj_t * page, lv_sb_mode_t sb_mode);
 154:lv_examples\lv_tests\lv_test_theme\../../../lvgl/lv_objx/lv_page.h **** 
 155:lv_examples\lv_tests\lv_test_theme\../../../lvgl/lv_objx/lv_page.h **** /**
 156:lv_examples\lv_tests\lv_test_theme\../../../lvgl/lv_objx/lv_page.h ****  * Enable/Disable scrolling with arrows if the page is in group (arrows: LV_GROUP_KEY_LEFT/RIGHT/UP
 157:lv_examples\lv_tests\lv_test_theme\../../../lvgl/lv_objx/lv_page.h ****  * @param page pointer to a page object
 158:lv_examples\lv_tests\lv_test_theme\../../../lvgl/lv_objx/lv_page.h ****  * @param en true: enable scrolling with arrows
 159:lv_examples\lv_tests\lv_test_theme\../../../lvgl/lv_objx/lv_page.h ****  */
 160:lv_examples\lv_tests\lv_test_theme\../../../lvgl/lv_objx/lv_page.h **** void lv_page_set_arrow_scroll(lv_obj_t * page, bool en);
 161:lv_examples\lv_tests\lv_test_theme\../../../lvgl/lv_objx/lv_page.h **** 
 162:lv_examples\lv_tests\lv_test_theme\../../../lvgl/lv_objx/lv_page.h **** /**
 163:lv_examples\lv_tests\lv_test_theme\../../../lvgl/lv_objx/lv_page.h ****  * Enable the scroll propagation feature. If enabled then the page will move its parent if there is
 164:lv_examples\lv_tests\lv_test_theme\../../../lvgl/lv_objx/lv_page.h ****  * @param page pointer to a Page
 165:lv_examples\lv_tests\lv_test_theme\../../../lvgl/lv_objx/lv_page.h ****  * @param en true or false to enable/disable scroll propagation
 166:lv_examples\lv_tests\lv_test_theme\../../../lvgl/lv_objx/lv_page.h ****  */
 167:lv_examples\lv_tests\lv_test_theme\../../../lvgl/lv_objx/lv_page.h **** void lv_page_set_scroll_propagation(lv_obj_t * page, bool en);
 168:lv_examples\lv_tests\lv_test_theme\../../../lvgl/lv_objx/lv_page.h **** 
 169:lv_examples\lv_tests\lv_test_theme\../../../lvgl/lv_objx/lv_page.h **** /**
 170:lv_examples\lv_tests\lv_test_theme\../../../lvgl/lv_objx/lv_page.h ****  * Enable the edge flash effect. (Show an arc when the an edge is reached)
 171:lv_examples\lv_tests\lv_test_theme\../../../lvgl/lv_objx/lv_page.h ****  * @param page pointer to a Page
 172:lv_examples\lv_tests\lv_test_theme\../../../lvgl/lv_objx/lv_page.h ****  * @param en true or false to enable/disable end flash
 173:lv_examples\lv_tests\lv_test_theme\../../../lvgl/lv_objx/lv_page.h ****  */
 174:lv_examples\lv_tests\lv_test_theme\../../../lvgl/lv_objx/lv_page.h **** void lv_page_set_edge_flash(lv_obj_t * page, bool en);
ARM GAS  C:\Users\Sava\AppData\Local\Temp\ccs9rGHG.s 			page 6


 175:lv_examples\lv_tests\lv_test_theme\../../../lvgl/lv_objx/lv_page.h **** 
 176:lv_examples\lv_tests\lv_test_theme\../../../lvgl/lv_objx/lv_page.h **** /**
 177:lv_examples\lv_tests\lv_test_theme\../../../lvgl/lv_objx/lv_page.h ****  * Set the fit attribute of the scrollable part of a page.
 178:lv_examples\lv_tests\lv_test_theme\../../../lvgl/lv_objx/lv_page.h ****  * It means it can set its size automatically to involve all children.
 179:lv_examples\lv_tests\lv_test_theme\../../../lvgl/lv_objx/lv_page.h ****  * (Can be set separately horizontally and vertically)
 180:lv_examples\lv_tests\lv_test_theme\../../../lvgl/lv_objx/lv_page.h ****  * @param page pointer to a page object
 181:lv_examples\lv_tests\lv_test_theme\../../../lvgl/lv_objx/lv_page.h ****  * @param hor_en true: enable horizontal fit
 182:lv_examples\lv_tests\lv_test_theme\../../../lvgl/lv_objx/lv_page.h ****  * @param ver_en true: enable vertical fit
 183:lv_examples\lv_tests\lv_test_theme\../../../lvgl/lv_objx/lv_page.h ****  */
 184:lv_examples\lv_tests\lv_test_theme\../../../lvgl/lv_objx/lv_page.h **** static inline void lv_page_set_scrl_fit(lv_obj_t *page, bool hor_en, bool ver_en)
 185:lv_examples\lv_tests\lv_test_theme\../../../lvgl/lv_objx/lv_page.h **** {
 186:lv_examples\lv_tests\lv_test_theme\../../../lvgl/lv_objx/lv_page.h ****     lv_cont_set_fit(lv_page_get_scrl(page), hor_en, ver_en);
 187:lv_examples\lv_tests\lv_test_theme\../../../lvgl/lv_objx/lv_page.h **** }
 188:lv_examples\lv_tests\lv_test_theme\../../../lvgl/lv_objx/lv_page.h **** 
 189:lv_examples\lv_tests\lv_test_theme\../../../lvgl/lv_objx/lv_page.h **** /**
 190:lv_examples\lv_tests\lv_test_theme\../../../lvgl/lv_objx/lv_page.h ****  * Set width of the scrollable part of a page
 191:lv_examples\lv_tests\lv_test_theme\../../../lvgl/lv_objx/lv_page.h ****  * @param page pointer to a page object
 192:lv_examples\lv_tests\lv_test_theme\../../../lvgl/lv_objx/lv_page.h ****  * @param w the new width of the scrollable (it ha no effect is horizontal fit is enabled)
 193:lv_examples\lv_tests\lv_test_theme\../../../lvgl/lv_objx/lv_page.h ****  */
 194:lv_examples\lv_tests\lv_test_theme\../../../lvgl/lv_objx/lv_page.h **** static inline void lv_page_set_scrl_width(lv_obj_t *page, lv_coord_t w)
 195:lv_examples\lv_tests\lv_test_theme\../../../lvgl/lv_objx/lv_page.h **** {
 196:lv_examples\lv_tests\lv_test_theme\../../../lvgl/lv_objx/lv_page.h ****     lv_obj_set_width(lv_page_get_scrl(page), w);
 197:lv_examples\lv_tests\lv_test_theme\../../../lvgl/lv_objx/lv_page.h **** }
 198:lv_examples\lv_tests\lv_test_theme\../../../lvgl/lv_objx/lv_page.h **** 
 199:lv_examples\lv_tests\lv_test_theme\../../../lvgl/lv_objx/lv_page.h **** /**
 200:lv_examples\lv_tests\lv_test_theme\../../../lvgl/lv_objx/lv_page.h ****  * Set height of the scrollable part of a page
 201:lv_examples\lv_tests\lv_test_theme\../../../lvgl/lv_objx/lv_page.h ****  * @param page pointer to a page object
 202:lv_examples\lv_tests\lv_test_theme\../../../lvgl/lv_objx/lv_page.h ****  * @param h the new height of the scrollable (it ha no effect is vertical fit is enabled)
 203:lv_examples\lv_tests\lv_test_theme\../../../lvgl/lv_objx/lv_page.h ****  */
 204:lv_examples\lv_tests\lv_test_theme\../../../lvgl/lv_objx/lv_page.h **** static inline void lv_page_set_scrl_height(lv_obj_t *page, lv_coord_t h)
 205:lv_examples\lv_tests\lv_test_theme\../../../lvgl/lv_objx/lv_page.h **** {
 206:lv_examples\lv_tests\lv_test_theme\../../../lvgl/lv_objx/lv_page.h ****     lv_obj_set_height(lv_page_get_scrl(page), h);
 207:lv_examples\lv_tests\lv_test_theme\../../../lvgl/lv_objx/lv_page.h **** 
 208:lv_examples\lv_tests\lv_test_theme\../../../lvgl/lv_objx/lv_page.h **** }
 209:lv_examples\lv_tests\lv_test_theme\../../../lvgl/lv_objx/lv_page.h **** 
 210:lv_examples\lv_tests\lv_test_theme\../../../lvgl/lv_objx/lv_page.h **** /**
 211:lv_examples\lv_tests\lv_test_theme\../../../lvgl/lv_objx/lv_page.h **** * Set the layout of the scrollable part of the page
 212:lv_examples\lv_tests\lv_test_theme\../../../lvgl/lv_objx/lv_page.h **** * @param page pointer to a page object
 213:lv_examples\lv_tests\lv_test_theme\../../../lvgl/lv_objx/lv_page.h **** * @param layout a layout from 'lv_cont_layout_t'
 214:lv_examples\lv_tests\lv_test_theme\../../../lvgl/lv_objx/lv_page.h **** */
 215:lv_examples\lv_tests\lv_test_theme\../../../lvgl/lv_objx/lv_page.h **** static inline void lv_page_set_scrl_layout(lv_obj_t * page, lv_layout_t layout)
 216:lv_examples\lv_tests\lv_test_theme\../../../lvgl/lv_objx/lv_page.h **** {
 217:lv_examples\lv_tests\lv_test_theme\../../../lvgl/lv_objx/lv_page.h ****     lv_cont_set_layout(lv_page_get_scrl(page), layout);
  45              		.loc 2 217 0
  46 0006 FFF7FEFF 		bl	lv_page_get_scrl
  47              	.LVL2:
  48 000a 0821     		movs	r1, #8
  49 000c FFF7FEFF 		bl	lv_cont_set_layout
  50              	.LVL3:
  51              	.LBE19:
  52              	.LBE18:
  68:lv_examples\lv_tests\lv_test_theme/lv_test_theme.c ****     lv_page_set_scrl_layout(parent, LV_LAYOUT_PRETTY);
  69:lv_examples\lv_tests\lv_test_theme/lv_test_theme.c **** 
  70:lv_examples\lv_tests\lv_test_theme/lv_test_theme.c ****     lv_theme_t * th = lv_theme_get_current();
  53              		.loc 1 70 0
  54 0010 FFF7FEFF 		bl	lv_theme_get_current
  55              	.LVL4:
ARM GAS  C:\Users\Sava\AppData\Local\Temp\ccs9rGHG.s 			page 7


  56 0014 0546     		mov	r5, r0
  57              	.LVL5:
  71:lv_examples\lv_tests\lv_test_theme/lv_test_theme.c **** 
  72:lv_examples\lv_tests\lv_test_theme/lv_test_theme.c ****     static lv_style_t h_style;
  73:lv_examples\lv_tests\lv_test_theme/lv_test_theme.c ****     lv_style_copy(&h_style, &lv_style_transp);
  58              		.loc 1 73 0
  59 0016 DFF85C83 		ldr	r8, .L3+124
  60 001a B74E     		ldr	r6, .L3
  61 001c 4146     		mov	r1, r8
  62 001e 3046     		mov	r0, r6
  63              	.LVL6:
  64 0020 FFF7FEFF 		bl	lv_style_copy
  65              	.LVL7:
  74:lv_examples\lv_tests\lv_test_theme/lv_test_theme.c ****     h_style.body.padding.inner = LV_DPI / 4;
  66              		.loc 1 74 0
  67 0024 1923     		movs	r3, #25
  68 0026 7383     		strh	r3, [r6, #26]	@ movhi
  75:lv_examples\lv_tests\lv_test_theme/lv_test_theme.c ****     h_style.body.padding.hor = LV_DPI / 4;
  69              		.loc 1 75 0
  70 0028 3383     		strh	r3, [r6, #24]	@ movhi
  76:lv_examples\lv_tests\lv_test_theme/lv_test_theme.c ****     h_style.body.padding.ver = LV_DPI / 6;
  71              		.loc 1 76 0
  72 002a 1023     		movs	r3, #16
  73 002c F382     		strh	r3, [r6, #22]	@ movhi
  77:lv_examples\lv_tests\lv_test_theme/lv_test_theme.c **** 
  78:lv_examples\lv_tests\lv_test_theme/lv_test_theme.c ****     lv_obj_t * h = lv_cont_create(parent, NULL);
  74              		.loc 1 78 0
  75 002e 0021     		movs	r1, #0
  76 0030 3846     		mov	r0, r7
  77 0032 FFF7FEFF 		bl	lv_cont_create
  78              	.LVL8:
  79 0036 0446     		mov	r4, r0
  80              	.LVL9:
  79:lv_examples\lv_tests\lv_test_theme/lv_test_theme.c ****     lv_obj_set_style(h, &h_style);
  81              		.loc 1 79 0
  82 0038 3146     		mov	r1, r6
  83 003a FFF7FEFF 		bl	lv_obj_set_style
  84              	.LVL10:
  80:lv_examples\lv_tests\lv_test_theme/lv_test_theme.c ****     lv_obj_set_click(h, false);
  85              		.loc 1 80 0
  86 003e 0021     		movs	r1, #0
  87 0040 2046     		mov	r0, r4
  88 0042 FFF7FEFF 		bl	lv_obj_set_click
  89              	.LVL11:
  81:lv_examples\lv_tests\lv_test_theme/lv_test_theme.c ****     lv_cont_set_fit(h, true, true);
  90              		.loc 1 81 0
  91 0046 0122     		movs	r2, #1
  92 0048 1146     		mov	r1, r2
  93 004a 2046     		mov	r0, r4
  94 004c FFF7FEFF 		bl	lv_cont_set_fit
  95              	.LVL12:
  82:lv_examples\lv_tests\lv_test_theme/lv_test_theme.c ****     lv_cont_set_layout(h, LV_LAYOUT_COL_M);
  96              		.loc 1 82 0
  97 0050 0321     		movs	r1, #3
  98 0052 2046     		mov	r0, r4
  99 0054 FFF7FEFF 		bl	lv_cont_set_layout
 100              	.LVL13:
ARM GAS  C:\Users\Sava\AppData\Local\Temp\ccs9rGHG.s 			page 8


  83:lv_examples\lv_tests\lv_test_theme/lv_test_theme.c **** 
  84:lv_examples\lv_tests\lv_test_theme/lv_test_theme.c ****     lv_obj_t * btn = lv_btn_create(h, NULL);
 101              		.loc 1 84 0
 102 0058 0021     		movs	r1, #0
 103 005a 2046     		mov	r0, r4
 104 005c FFF7FEFF 		bl	lv_btn_create
 105              	.LVL14:
 106 0060 0646     		mov	r6, r0
 107              	.LVL15:
  85:lv_examples\lv_tests\lv_test_theme/lv_test_theme.c ****     lv_btn_set_style(btn, LV_BTN_STYLE_REL, th->btn.rel);
 108              		.loc 1 85 0
 109 0062 EA68     		ldr	r2, [r5, #12]
 110 0064 0021     		movs	r1, #0
 111 0066 FFF7FEFF 		bl	lv_btn_set_style
 112              	.LVL16:
  86:lv_examples\lv_tests\lv_test_theme/lv_test_theme.c ****     lv_btn_set_style(btn, LV_BTN_STYLE_PR, th->btn.pr);
 113              		.loc 1 86 0
 114 006a 2A69     		ldr	r2, [r5, #16]
 115 006c 0121     		movs	r1, #1
 116 006e 3046     		mov	r0, r6
 117 0070 FFF7FEFF 		bl	lv_btn_set_style
 118              	.LVL17:
  87:lv_examples\lv_tests\lv_test_theme/lv_test_theme.c ****     lv_btn_set_style(btn, LV_BTN_STYLE_TGL_REL, th->btn.tgl_rel);
 119              		.loc 1 87 0
 120 0074 6A69     		ldr	r2, [r5, #20]
 121 0076 0221     		movs	r1, #2
 122 0078 3046     		mov	r0, r6
 123 007a FFF7FEFF 		bl	lv_btn_set_style
 124              	.LVL18:
  88:lv_examples\lv_tests\lv_test_theme/lv_test_theme.c ****     lv_btn_set_style(btn, LV_BTN_STYLE_TGL_PR, th->btn.tgl_pr);
 125              		.loc 1 88 0
 126 007e AA69     		ldr	r2, [r5, #24]
 127 0080 0321     		movs	r1, #3
 128 0082 3046     		mov	r0, r6
 129 0084 FFF7FEFF 		bl	lv_btn_set_style
 130              	.LVL19:
  89:lv_examples\lv_tests\lv_test_theme/lv_test_theme.c ****     lv_btn_set_style(btn, LV_BTN_STYLE_INA, th->btn.ina);
 131              		.loc 1 89 0
 132 0088 EA69     		ldr	r2, [r5, #28]
 133 008a 0421     		movs	r1, #4
 134 008c 3046     		mov	r0, r6
 135 008e FFF7FEFF 		bl	lv_btn_set_style
 136              	.LVL20:
 137              	.LBB20:
 138              	.LBB21:
 139              		.file 3 "lv_examples\\lv_tests\\lv_test_theme\\../../../lvgl/lv_objx/lv_btn.h"
   1:lv_examples\lv_tests\lv_test_theme\../../../lvgl/lv_objx/lv_btn.h **** /**
   2:lv_examples\lv_tests\lv_test_theme\../../../lvgl/lv_objx/lv_btn.h ****  * @file lv_btn.h
   3:lv_examples\lv_tests\lv_test_theme\../../../lvgl/lv_objx/lv_btn.h ****  *
   4:lv_examples\lv_tests\lv_test_theme\../../../lvgl/lv_objx/lv_btn.h ****  */
   5:lv_examples\lv_tests\lv_test_theme\../../../lvgl/lv_objx/lv_btn.h **** 
   6:lv_examples\lv_tests\lv_test_theme\../../../lvgl/lv_objx/lv_btn.h **** #ifndef LV_BTN_H
   7:lv_examples\lv_tests\lv_test_theme\../../../lvgl/lv_objx/lv_btn.h **** #define LV_BTN_H
   8:lv_examples\lv_tests\lv_test_theme\../../../lvgl/lv_objx/lv_btn.h **** 
   9:lv_examples\lv_tests\lv_test_theme\../../../lvgl/lv_objx/lv_btn.h **** #ifdef __cplusplus
  10:lv_examples\lv_tests\lv_test_theme\../../../lvgl/lv_objx/lv_btn.h **** extern "C" {
  11:lv_examples\lv_tests\lv_test_theme\../../../lvgl/lv_objx/lv_btn.h **** #endif
ARM GAS  C:\Users\Sava\AppData\Local\Temp\ccs9rGHG.s 			page 9


  12:lv_examples\lv_tests\lv_test_theme\../../../lvgl/lv_objx/lv_btn.h **** 
  13:lv_examples\lv_tests\lv_test_theme\../../../lvgl/lv_objx/lv_btn.h **** /*********************
  14:lv_examples\lv_tests\lv_test_theme\../../../lvgl/lv_objx/lv_btn.h ****  *      INCLUDES
  15:lv_examples\lv_tests\lv_test_theme\../../../lvgl/lv_objx/lv_btn.h ****  *********************/
  16:lv_examples\lv_tests\lv_test_theme\../../../lvgl/lv_objx/lv_btn.h **** #ifdef LV_CONF_INCLUDE_SIMPLE
  17:lv_examples\lv_tests\lv_test_theme\../../../lvgl/lv_objx/lv_btn.h **** #include "lv_conf.h"
  18:lv_examples\lv_tests\lv_test_theme\../../../lvgl/lv_objx/lv_btn.h **** #else
  19:lv_examples\lv_tests\lv_test_theme\../../../lvgl/lv_objx/lv_btn.h **** #include "../../lv_conf.h"
  20:lv_examples\lv_tests\lv_test_theme\../../../lvgl/lv_objx/lv_btn.h **** #endif
  21:lv_examples\lv_tests\lv_test_theme\../../../lvgl/lv_objx/lv_btn.h **** 
  22:lv_examples\lv_tests\lv_test_theme\../../../lvgl/lv_objx/lv_btn.h **** #if USE_LV_BTN != 0
  23:lv_examples\lv_tests\lv_test_theme\../../../lvgl/lv_objx/lv_btn.h **** 
  24:lv_examples\lv_tests\lv_test_theme\../../../lvgl/lv_objx/lv_btn.h **** /*Testing of dependencies*/
  25:lv_examples\lv_tests\lv_test_theme\../../../lvgl/lv_objx/lv_btn.h **** #if USE_LV_CONT == 0
  26:lv_examples\lv_tests\lv_test_theme\../../../lvgl/lv_objx/lv_btn.h **** #error "lv_btn: lv_cont is required. Enable it in lv_conf.h (USE_LV_CONT  1) "
  27:lv_examples\lv_tests\lv_test_theme\../../../lvgl/lv_objx/lv_btn.h **** #endif
  28:lv_examples\lv_tests\lv_test_theme\../../../lvgl/lv_objx/lv_btn.h **** 
  29:lv_examples\lv_tests\lv_test_theme\../../../lvgl/lv_objx/lv_btn.h **** #include "lv_cont.h"
  30:lv_examples\lv_tests\lv_test_theme\../../../lvgl/lv_objx/lv_btn.h **** #include "../lv_core/lv_indev.h"
  31:lv_examples\lv_tests\lv_test_theme\../../../lvgl/lv_objx/lv_btn.h **** 
  32:lv_examples\lv_tests\lv_test_theme\../../../lvgl/lv_objx/lv_btn.h **** /*********************
  33:lv_examples\lv_tests\lv_test_theme\../../../lvgl/lv_objx/lv_btn.h ****  *      DEFINES
  34:lv_examples\lv_tests\lv_test_theme\../../../lvgl/lv_objx/lv_btn.h ****  *********************/
  35:lv_examples\lv_tests\lv_test_theme\../../../lvgl/lv_objx/lv_btn.h **** 
  36:lv_examples\lv_tests\lv_test_theme\../../../lvgl/lv_objx/lv_btn.h **** /**********************
  37:lv_examples\lv_tests\lv_test_theme\../../../lvgl/lv_objx/lv_btn.h ****  *      TYPEDEFS
  38:lv_examples\lv_tests\lv_test_theme\../../../lvgl/lv_objx/lv_btn.h ****  **********************/
  39:lv_examples\lv_tests\lv_test_theme\../../../lvgl/lv_objx/lv_btn.h **** 
  40:lv_examples\lv_tests\lv_test_theme\../../../lvgl/lv_objx/lv_btn.h **** /* Button states
  41:lv_examples\lv_tests\lv_test_theme\../../../lvgl/lv_objx/lv_btn.h ****  * It can be used not only by buttons but other button-like objects too*/
  42:lv_examples\lv_tests\lv_test_theme\../../../lvgl/lv_objx/lv_btn.h **** enum
  43:lv_examples\lv_tests\lv_test_theme\../../../lvgl/lv_objx/lv_btn.h **** {
  44:lv_examples\lv_tests\lv_test_theme\../../../lvgl/lv_objx/lv_btn.h ****     LV_BTN_STATE_REL,
  45:lv_examples\lv_tests\lv_test_theme\../../../lvgl/lv_objx/lv_btn.h ****     LV_BTN_STATE_PR,
  46:lv_examples\lv_tests\lv_test_theme\../../../lvgl/lv_objx/lv_btn.h ****     LV_BTN_STATE_TGL_REL,
  47:lv_examples\lv_tests\lv_test_theme\../../../lvgl/lv_objx/lv_btn.h ****     LV_BTN_STATE_TGL_PR,
  48:lv_examples\lv_tests\lv_test_theme\../../../lvgl/lv_objx/lv_btn.h ****     LV_BTN_STATE_INA,
  49:lv_examples\lv_tests\lv_test_theme\../../../lvgl/lv_objx/lv_btn.h ****     LV_BTN_STATE_NUM,
  50:lv_examples\lv_tests\lv_test_theme\../../../lvgl/lv_objx/lv_btn.h **** };
  51:lv_examples\lv_tests\lv_test_theme\../../../lvgl/lv_objx/lv_btn.h **** typedef uint8_t lv_btn_state_t;
  52:lv_examples\lv_tests\lv_test_theme\../../../lvgl/lv_objx/lv_btn.h **** 
  53:lv_examples\lv_tests\lv_test_theme\../../../lvgl/lv_objx/lv_btn.h **** enum
  54:lv_examples\lv_tests\lv_test_theme\../../../lvgl/lv_objx/lv_btn.h **** {
  55:lv_examples\lv_tests\lv_test_theme\../../../lvgl/lv_objx/lv_btn.h ****     LV_BTN_ACTION_CLICK,
  56:lv_examples\lv_tests\lv_test_theme\../../../lvgl/lv_objx/lv_btn.h ****     LV_BTN_ACTION_PR,
  57:lv_examples\lv_tests\lv_test_theme\../../../lvgl/lv_objx/lv_btn.h ****     LV_BTN_ACTION_LONG_PR,
  58:lv_examples\lv_tests\lv_test_theme\../../../lvgl/lv_objx/lv_btn.h ****     LV_BTN_ACTION_LONG_PR_REPEAT,
  59:lv_examples\lv_tests\lv_test_theme\../../../lvgl/lv_objx/lv_btn.h ****     LV_BTN_ACTION_NUM,
  60:lv_examples\lv_tests\lv_test_theme\../../../lvgl/lv_objx/lv_btn.h **** };
  61:lv_examples\lv_tests\lv_test_theme\../../../lvgl/lv_objx/lv_btn.h **** typedef uint8_t lv_btn_action_t;
  62:lv_examples\lv_tests\lv_test_theme\../../../lvgl/lv_objx/lv_btn.h **** 
  63:lv_examples\lv_tests\lv_test_theme\../../../lvgl/lv_objx/lv_btn.h **** 
  64:lv_examples\lv_tests\lv_test_theme\../../../lvgl/lv_objx/lv_btn.h **** /*Data of button*/
  65:lv_examples\lv_tests\lv_test_theme\../../../lvgl/lv_objx/lv_btn.h **** typedef struct
  66:lv_examples\lv_tests\lv_test_theme\../../../lvgl/lv_objx/lv_btn.h **** {
  67:lv_examples\lv_tests\lv_test_theme\../../../lvgl/lv_objx/lv_btn.h ****     lv_cont_ext_t cont; /*Ext. of ancestor*/
  68:lv_examples\lv_tests\lv_test_theme\../../../lvgl/lv_objx/lv_btn.h ****     /*New data for this type */
ARM GAS  C:\Users\Sava\AppData\Local\Temp\ccs9rGHG.s 			page 10


  69:lv_examples\lv_tests\lv_test_theme\../../../lvgl/lv_objx/lv_btn.h ****     lv_action_t actions[LV_BTN_ACTION_NUM];
  70:lv_examples\lv_tests\lv_test_theme\../../../lvgl/lv_objx/lv_btn.h ****     lv_style_t * styles[LV_BTN_STATE_NUM];        /*Styles in each state*/
  71:lv_examples\lv_tests\lv_test_theme\../../../lvgl/lv_objx/lv_btn.h ****     lv_btn_state_t state;                         /*Current state of the button from 'lv_btn_state_
  72:lv_examples\lv_tests\lv_test_theme\../../../lvgl/lv_objx/lv_btn.h **** #if LV_BTN_INK_EFFECT
  73:lv_examples\lv_tests\lv_test_theme\../../../lvgl/lv_objx/lv_btn.h ****     uint16_t ink_in_time;                         /*[ms] Time of ink fill effect (0: disable ink ef
  74:lv_examples\lv_tests\lv_test_theme\../../../lvgl/lv_objx/lv_btn.h ****     uint16_t ink_wait_time;                       /*[ms] Wait before the ink disappears */
  75:lv_examples\lv_tests\lv_test_theme\../../../lvgl/lv_objx/lv_btn.h ****     uint16_t ink_out_time;                        /*[ms] Time of ink disappearing*/
  76:lv_examples\lv_tests\lv_test_theme\../../../lvgl/lv_objx/lv_btn.h **** #endif
  77:lv_examples\lv_tests\lv_test_theme\../../../lvgl/lv_objx/lv_btn.h ****     uint8_t toggle :1;                            /*1: Toggle enabled*/
  78:lv_examples\lv_tests\lv_test_theme\../../../lvgl/lv_objx/lv_btn.h ****     uint8_t long_pr_action_executed :1;           /*1: Long press action executed (Handled by the l
  79:lv_examples\lv_tests\lv_test_theme\../../../lvgl/lv_objx/lv_btn.h **** } lv_btn_ext_t;
  80:lv_examples\lv_tests\lv_test_theme\../../../lvgl/lv_objx/lv_btn.h **** 
  81:lv_examples\lv_tests\lv_test_theme\../../../lvgl/lv_objx/lv_btn.h **** /*Styles*/
  82:lv_examples\lv_tests\lv_test_theme\../../../lvgl/lv_objx/lv_btn.h **** enum {
  83:lv_examples\lv_tests\lv_test_theme\../../../lvgl/lv_objx/lv_btn.h ****     LV_BTN_STYLE_REL,
  84:lv_examples\lv_tests\lv_test_theme\../../../lvgl/lv_objx/lv_btn.h ****     LV_BTN_STYLE_PR,
  85:lv_examples\lv_tests\lv_test_theme\../../../lvgl/lv_objx/lv_btn.h ****     LV_BTN_STYLE_TGL_REL,
  86:lv_examples\lv_tests\lv_test_theme\../../../lvgl/lv_objx/lv_btn.h ****     LV_BTN_STYLE_TGL_PR,
  87:lv_examples\lv_tests\lv_test_theme\../../../lvgl/lv_objx/lv_btn.h ****     LV_BTN_STYLE_INA,
  88:lv_examples\lv_tests\lv_test_theme\../../../lvgl/lv_objx/lv_btn.h **** };
  89:lv_examples\lv_tests\lv_test_theme\../../../lvgl/lv_objx/lv_btn.h **** typedef uint8_t lv_btn_style_t;
  90:lv_examples\lv_tests\lv_test_theme\../../../lvgl/lv_objx/lv_btn.h **** 
  91:lv_examples\lv_tests\lv_test_theme\../../../lvgl/lv_objx/lv_btn.h **** /**********************
  92:lv_examples\lv_tests\lv_test_theme\../../../lvgl/lv_objx/lv_btn.h ****  * GLOBAL PROTOTYPES
  93:lv_examples\lv_tests\lv_test_theme\../../../lvgl/lv_objx/lv_btn.h ****  **********************/
  94:lv_examples\lv_tests\lv_test_theme\../../../lvgl/lv_objx/lv_btn.h **** 
  95:lv_examples\lv_tests\lv_test_theme\../../../lvgl/lv_objx/lv_btn.h **** /**
  96:lv_examples\lv_tests\lv_test_theme\../../../lvgl/lv_objx/lv_btn.h ****  * Create a button objects
  97:lv_examples\lv_tests\lv_test_theme\../../../lvgl/lv_objx/lv_btn.h ****  * @param par pointer to an object, it will be the parent of the new button
  98:lv_examples\lv_tests\lv_test_theme\../../../lvgl/lv_objx/lv_btn.h ****  * @param copy pointer to a button object, if not NULL then the new object will be copied from it
  99:lv_examples\lv_tests\lv_test_theme\../../../lvgl/lv_objx/lv_btn.h ****  * @return pointer to the created button
 100:lv_examples\lv_tests\lv_test_theme\../../../lvgl/lv_objx/lv_btn.h ****  */
 101:lv_examples\lv_tests\lv_test_theme\../../../lvgl/lv_objx/lv_btn.h **** lv_obj_t * lv_btn_create(lv_obj_t * par, const lv_obj_t * copy);
 102:lv_examples\lv_tests\lv_test_theme\../../../lvgl/lv_objx/lv_btn.h **** 
 103:lv_examples\lv_tests\lv_test_theme\../../../lvgl/lv_objx/lv_btn.h **** /*=====================
 104:lv_examples\lv_tests\lv_test_theme\../../../lvgl/lv_objx/lv_btn.h ****  * Setter functions
 105:lv_examples\lv_tests\lv_test_theme\../../../lvgl/lv_objx/lv_btn.h ****  *====================*/
 106:lv_examples\lv_tests\lv_test_theme\../../../lvgl/lv_objx/lv_btn.h **** 
 107:lv_examples\lv_tests\lv_test_theme\../../../lvgl/lv_objx/lv_btn.h **** /**
 108:lv_examples\lv_tests\lv_test_theme\../../../lvgl/lv_objx/lv_btn.h ****  * Enable the toggled states. On release the button will change from/to toggled state.
 109:lv_examples\lv_tests\lv_test_theme\../../../lvgl/lv_objx/lv_btn.h ****  * @param btn pointer to a button object
 110:lv_examples\lv_tests\lv_test_theme\../../../lvgl/lv_objx/lv_btn.h ****  * @param tgl true: enable toggled states, false: disable
 111:lv_examples\lv_tests\lv_test_theme\../../../lvgl/lv_objx/lv_btn.h ****  */
 112:lv_examples\lv_tests\lv_test_theme\../../../lvgl/lv_objx/lv_btn.h **** void lv_btn_set_toggle(lv_obj_t * btn, bool tgl);
 113:lv_examples\lv_tests\lv_test_theme\../../../lvgl/lv_objx/lv_btn.h **** 
 114:lv_examples\lv_tests\lv_test_theme\../../../lvgl/lv_objx/lv_btn.h **** /**
 115:lv_examples\lv_tests\lv_test_theme\../../../lvgl/lv_objx/lv_btn.h ****  * Set the state of the button
 116:lv_examples\lv_tests\lv_test_theme\../../../lvgl/lv_objx/lv_btn.h ****  * @param btn pointer to a button object
 117:lv_examples\lv_tests\lv_test_theme\../../../lvgl/lv_objx/lv_btn.h ****  * @param state the new state of the button (from lv_btn_state_t enum)
 118:lv_examples\lv_tests\lv_test_theme\../../../lvgl/lv_objx/lv_btn.h ****  */
 119:lv_examples\lv_tests\lv_test_theme\../../../lvgl/lv_objx/lv_btn.h **** void lv_btn_set_state(lv_obj_t * btn, lv_btn_state_t state);
 120:lv_examples\lv_tests\lv_test_theme\../../../lvgl/lv_objx/lv_btn.h **** 
 121:lv_examples\lv_tests\lv_test_theme\../../../lvgl/lv_objx/lv_btn.h **** /**
 122:lv_examples\lv_tests\lv_test_theme\../../../lvgl/lv_objx/lv_btn.h ****  * Toggle the state of the button (ON->OFF, OFF->ON)
 123:lv_examples\lv_tests\lv_test_theme\../../../lvgl/lv_objx/lv_btn.h ****  * @param btn pointer to a button object
 124:lv_examples\lv_tests\lv_test_theme\../../../lvgl/lv_objx/lv_btn.h ****  */
 125:lv_examples\lv_tests\lv_test_theme\../../../lvgl/lv_objx/lv_btn.h **** void lv_btn_toggle(lv_obj_t * btn);
ARM GAS  C:\Users\Sava\AppData\Local\Temp\ccs9rGHG.s 			page 11


 126:lv_examples\lv_tests\lv_test_theme\../../../lvgl/lv_objx/lv_btn.h **** 
 127:lv_examples\lv_tests\lv_test_theme\../../../lvgl/lv_objx/lv_btn.h **** /**
 128:lv_examples\lv_tests\lv_test_theme\../../../lvgl/lv_objx/lv_btn.h ****  * Set a function to call when a button event happens
 129:lv_examples\lv_tests\lv_test_theme\../../../lvgl/lv_objx/lv_btn.h ****  * @param btn pointer to a button object
 130:lv_examples\lv_tests\lv_test_theme\../../../lvgl/lv_objx/lv_btn.h ****  * @param action type of event form 'lv_action_t' (press, release, long press, long press repeat)
 131:lv_examples\lv_tests\lv_test_theme\../../../lvgl/lv_objx/lv_btn.h ****  */
 132:lv_examples\lv_tests\lv_test_theme\../../../lvgl/lv_objx/lv_btn.h **** void lv_btn_set_action(lv_obj_t * btn, lv_btn_action_t type, lv_action_t action);
 133:lv_examples\lv_tests\lv_test_theme\../../../lvgl/lv_objx/lv_btn.h **** 
 134:lv_examples\lv_tests\lv_test_theme\../../../lvgl/lv_objx/lv_btn.h **** /**
 135:lv_examples\lv_tests\lv_test_theme\../../../lvgl/lv_objx/lv_btn.h ****  * Set the layout on a button
 136:lv_examples\lv_tests\lv_test_theme\../../../lvgl/lv_objx/lv_btn.h ****  * @param btn pointer to a button object
 137:lv_examples\lv_tests\lv_test_theme\../../../lvgl/lv_objx/lv_btn.h ****  * @param layout a layout from 'lv_cont_layout_t'
 138:lv_examples\lv_tests\lv_test_theme\../../../lvgl/lv_objx/lv_btn.h ****  */
 139:lv_examples\lv_tests\lv_test_theme\../../../lvgl/lv_objx/lv_btn.h **** static inline void lv_btn_set_layout(lv_obj_t * btn, lv_layout_t layout)
 140:lv_examples\lv_tests\lv_test_theme\../../../lvgl/lv_objx/lv_btn.h **** {
 141:lv_examples\lv_tests\lv_test_theme\../../../lvgl/lv_objx/lv_btn.h ****     lv_cont_set_layout(btn, layout);
 142:lv_examples\lv_tests\lv_test_theme\../../../lvgl/lv_objx/lv_btn.h **** }
 143:lv_examples\lv_tests\lv_test_theme\../../../lvgl/lv_objx/lv_btn.h **** 
 144:lv_examples\lv_tests\lv_test_theme\../../../lvgl/lv_objx/lv_btn.h **** /**
 145:lv_examples\lv_tests\lv_test_theme\../../../lvgl/lv_objx/lv_btn.h ****  * Enable the horizontal or vertical fit.
 146:lv_examples\lv_tests\lv_test_theme\../../../lvgl/lv_objx/lv_btn.h ****  * The button size will be set to involve the children horizontally or vertically.
 147:lv_examples\lv_tests\lv_test_theme\../../../lvgl/lv_objx/lv_btn.h ****  * @param btn pointer to a button object
 148:lv_examples\lv_tests\lv_test_theme\../../../lvgl/lv_objx/lv_btn.h ****  * @param hor_en true: enable the horizontal fit
 149:lv_examples\lv_tests\lv_test_theme\../../../lvgl/lv_objx/lv_btn.h ****  * @param ver_en true: enable the vertical fit
 150:lv_examples\lv_tests\lv_test_theme\../../../lvgl/lv_objx/lv_btn.h ****  */
 151:lv_examples\lv_tests\lv_test_theme\../../../lvgl/lv_objx/lv_btn.h **** static inline void lv_btn_set_fit(lv_obj_t * btn, bool hor_en, bool ver_en)
 152:lv_examples\lv_tests\lv_test_theme\../../../lvgl/lv_objx/lv_btn.h **** {
 153:lv_examples\lv_tests\lv_test_theme\../../../lvgl/lv_objx/lv_btn.h ****     lv_cont_set_fit(btn, hor_en, ver_en);
 140              		.loc 3 153 0
 141 0092 0122     		movs	r2, #1
 142 0094 1146     		mov	r1, r2
 143 0096 3046     		mov	r0, r6
 144 0098 FFF7FEFF 		bl	lv_cont_set_fit
 145              	.LVL21:
 146              	.LBE21:
 147              	.LBE20:
  90:lv_examples\lv_tests\lv_test_theme/lv_test_theme.c ****     lv_btn_set_fit(btn, true, true);
  91:lv_examples\lv_tests\lv_test_theme/lv_test_theme.c ****     lv_btn_set_toggle(btn, true);
 148              		.loc 1 91 0
 149 009c 0121     		movs	r1, #1
 150 009e 3046     		mov	r0, r6
 151 00a0 FFF7FEFF 		bl	lv_btn_set_toggle
 152              	.LVL22:
  92:lv_examples\lv_tests\lv_test_theme/lv_test_theme.c ****     lv_obj_t * btn_label = lv_label_create(btn, NULL);
 153              		.loc 1 92 0
 154 00a4 0021     		movs	r1, #0
 155 00a6 3046     		mov	r0, r6
 156 00a8 FFF7FEFF 		bl	lv_label_create
 157              	.LVL23:
  93:lv_examples\lv_tests\lv_test_theme/lv_test_theme.c ****     lv_label_set_text(btn_label, "Button");
 158              		.loc 1 93 0
 159 00ac 9349     		ldr	r1, .L3+4
 160 00ae FFF7FEFF 		bl	lv_label_set_text
 161              	.LVL24:
  94:lv_examples\lv_tests\lv_test_theme/lv_test_theme.c **** 
  95:lv_examples\lv_tests\lv_test_theme/lv_test_theme.c ****     btn = lv_btn_create(h, btn);
 162              		.loc 1 95 0
ARM GAS  C:\Users\Sava\AppData\Local\Temp\ccs9rGHG.s 			page 12


 163 00b2 3146     		mov	r1, r6
 164 00b4 2046     		mov	r0, r4
 165 00b6 FFF7FEFF 		bl	lv_btn_create
 166              	.LVL25:
 167 00ba 0646     		mov	r6, r0
 168              	.LVL26:
  96:lv_examples\lv_tests\lv_test_theme/lv_test_theme.c ****     lv_btn_toggle(btn);
 169              		.loc 1 96 0
 170 00bc FFF7FEFF 		bl	lv_btn_toggle
 171              	.LVL27:
  97:lv_examples\lv_tests\lv_test_theme/lv_test_theme.c ****     btn_label = lv_label_create(btn, NULL);
 172              		.loc 1 97 0
 173 00c0 0021     		movs	r1, #0
 174 00c2 3046     		mov	r0, r6
 175 00c4 FFF7FEFF 		bl	lv_label_create
 176              	.LVL28:
  98:lv_examples\lv_tests\lv_test_theme/lv_test_theme.c ****     lv_label_set_text(btn_label, "Toggled");
 177              		.loc 1 98 0
 178 00c8 8D49     		ldr	r1, .L3+8
 179 00ca FFF7FEFF 		bl	lv_label_set_text
 180              	.LVL29:
  99:lv_examples\lv_tests\lv_test_theme/lv_test_theme.c **** 
 100:lv_examples\lv_tests\lv_test_theme/lv_test_theme.c ****     btn = lv_btn_create(h, btn);
 181              		.loc 1 100 0
 182 00ce 3146     		mov	r1, r6
 183 00d0 2046     		mov	r0, r4
 184 00d2 FFF7FEFF 		bl	lv_btn_create
 185              	.LVL30:
 186 00d6 0646     		mov	r6, r0
 187              	.LVL31:
 101:lv_examples\lv_tests\lv_test_theme/lv_test_theme.c ****     lv_btn_set_state(btn, LV_BTN_STATE_INA);
 188              		.loc 1 101 0
 189 00d8 0421     		movs	r1, #4
 190 00da FFF7FEFF 		bl	lv_btn_set_state
 191              	.LVL32:
 102:lv_examples\lv_tests\lv_test_theme/lv_test_theme.c ****     btn_label = lv_label_create(btn, NULL);
 192              		.loc 1 102 0
 193 00de 0021     		movs	r1, #0
 194 00e0 3046     		mov	r0, r6
 195 00e2 FFF7FEFF 		bl	lv_label_create
 196              	.LVL33:
 103:lv_examples\lv_tests\lv_test_theme/lv_test_theme.c ****     lv_label_set_text(btn_label, "Inactive");
 197              		.loc 1 103 0
 198 00e6 8749     		ldr	r1, .L3+12
 199 00e8 FFF7FEFF 		bl	lv_label_set_text
 200              	.LVL34:
 104:lv_examples\lv_tests\lv_test_theme/lv_test_theme.c **** 
 105:lv_examples\lv_tests\lv_test_theme/lv_test_theme.c ****     lv_obj_t * label = lv_label_create(h, NULL);
 201              		.loc 1 105 0
 202 00ec 0021     		movs	r1, #0
 203 00ee 2046     		mov	r0, r4
 204 00f0 FFF7FEFF 		bl	lv_label_create
 205              	.LVL35:
 206 00f4 0646     		mov	r6, r0
 207              	.LVL36:
 106:lv_examples\lv_tests\lv_test_theme/lv_test_theme.c ****     lv_label_set_text(label, "Primary");
 208              		.loc 1 106 0
ARM GAS  C:\Users\Sava\AppData\Local\Temp\ccs9rGHG.s 			page 13


 209 00f6 8449     		ldr	r1, .L3+16
 210 00f8 FFF7FEFF 		bl	lv_label_set_text
 211              	.LVL37:
 107:lv_examples\lv_tests\lv_test_theme/lv_test_theme.c ****     lv_obj_set_style(label, th->label.prim);
 212              		.loc 1 107 0
 213 00fc 696B     		ldr	r1, [r5, #52]
 214 00fe 3046     		mov	r0, r6
 215 0100 FFF7FEFF 		bl	lv_obj_set_style
 216              	.LVL38:
 108:lv_examples\lv_tests\lv_test_theme/lv_test_theme.c **** 
 109:lv_examples\lv_tests\lv_test_theme/lv_test_theme.c ****     label = lv_label_create(h, NULL);
 217              		.loc 1 109 0
 218 0104 0021     		movs	r1, #0
 219 0106 2046     		mov	r0, r4
 220 0108 FFF7FEFF 		bl	lv_label_create
 221              	.LVL39:
 222 010c 0646     		mov	r6, r0
 223              	.LVL40:
 110:lv_examples\lv_tests\lv_test_theme/lv_test_theme.c ****     lv_label_set_text(label, "Secondary");
 224              		.loc 1 110 0
 225 010e 7F49     		ldr	r1, .L3+20
 226 0110 FFF7FEFF 		bl	lv_label_set_text
 227              	.LVL41:
 111:lv_examples\lv_tests\lv_test_theme/lv_test_theme.c ****     lv_obj_set_style(label, th->label.sec);
 228              		.loc 1 111 0
 229 0114 A96B     		ldr	r1, [r5, #56]
 230 0116 3046     		mov	r0, r6
 231 0118 FFF7FEFF 		bl	lv_obj_set_style
 232              	.LVL42:
 112:lv_examples\lv_tests\lv_test_theme/lv_test_theme.c **** 
 113:lv_examples\lv_tests\lv_test_theme/lv_test_theme.c ****     label = lv_label_create(h, NULL);
 233              		.loc 1 113 0
 234 011c 0021     		movs	r1, #0
 235 011e 2046     		mov	r0, r4
 236 0120 FFF7FEFF 		bl	lv_label_create
 237              	.LVL43:
 238 0124 0646     		mov	r6, r0
 239              	.LVL44:
 114:lv_examples\lv_tests\lv_test_theme/lv_test_theme.c ****     lv_label_set_text(label, "Hint");
 240              		.loc 1 114 0
 241 0126 7A49     		ldr	r1, .L3+24
 242 0128 FFF7FEFF 		bl	lv_label_set_text
 243              	.LVL45:
 115:lv_examples\lv_tests\lv_test_theme/lv_test_theme.c ****     lv_obj_set_style(label, th->label.hint);
 244              		.loc 1 115 0
 245 012c E96B     		ldr	r1, [r5, #60]
 246 012e 3046     		mov	r0, r6
 247 0130 FFF7FEFF 		bl	lv_obj_set_style
 248              	.LVL46:
 116:lv_examples\lv_tests\lv_test_theme/lv_test_theme.c **** 
 117:lv_examples\lv_tests\lv_test_theme/lv_test_theme.c ****     static const char * btnm_str[] = {"1", "2", "3", SYMBOL_OK, SYMBOL_CLOSE, ""};
 118:lv_examples\lv_tests\lv_test_theme/lv_test_theme.c ****     lv_obj_t * btnm = lv_btnm_create(h, NULL);
 249              		.loc 1 118 0
 250 0134 0021     		movs	r1, #0
 251 0136 2046     		mov	r0, r4
 252 0138 FFF7FEFF 		bl	lv_btnm_create
 253              	.LVL47:
ARM GAS  C:\Users\Sava\AppData\Local\Temp\ccs9rGHG.s 			page 14


 254 013c 0646     		mov	r6, r0
 255              	.LVL48:
 119:lv_examples\lv_tests\lv_test_theme/lv_test_theme.c ****     lv_obj_set_size(btnm, LV_HOR_RES / 4, 2 * LV_DPI / 3);
 256              		.loc 1 119 0
 257 013e 4222     		movs	r2, #66
 258 0140 5021     		movs	r1, #80
 259 0142 FFF7FEFF 		bl	lv_obj_set_size
 260              	.LVL49:
 120:lv_examples\lv_tests\lv_test_theme/lv_test_theme.c ****     lv_btnm_set_map(btnm, btnm_str);
 261              		.loc 1 120 0
 262 0146 7349     		ldr	r1, .L3+28
 263 0148 3046     		mov	r0, r6
 264 014a FFF7FEFF 		bl	lv_btnm_set_map
 265              	.LVL50:
 121:lv_examples\lv_tests\lv_test_theme/lv_test_theme.c ****     lv_btnm_set_toggle(btnm, true, 3);
 266              		.loc 1 121 0
 267 014e 0322     		movs	r2, #3
 268 0150 0121     		movs	r1, #1
 269 0152 3046     		mov	r0, r6
 270 0154 FFF7FEFF 		bl	lv_btnm_set_toggle
 271              	.LVL51:
 122:lv_examples\lv_tests\lv_test_theme/lv_test_theme.c **** 
 123:lv_examples\lv_tests\lv_test_theme/lv_test_theme.c ****     h = lv_cont_create(parent, h);
 272              		.loc 1 123 0
 273 0158 2146     		mov	r1, r4
 274 015a 3846     		mov	r0, r7
 275 015c FFF7FEFF 		bl	lv_cont_create
 276              	.LVL52:
 277 0160 0446     		mov	r4, r0
 278              	.LVL53:
 124:lv_examples\lv_tests\lv_test_theme/lv_test_theme.c **** 
 125:lv_examples\lv_tests\lv_test_theme/lv_test_theme.c ****     lv_obj_t * sw_h = lv_cont_create(h, NULL);
 279              		.loc 1 125 0
 280 0162 0021     		movs	r1, #0
 281 0164 FFF7FEFF 		bl	lv_cont_create
 282              	.LVL54:
 283 0168 0646     		mov	r6, r0
 284              	.LVL55:
 285              	.LBB22:
 286              	.LBB23:
 287              		.file 4 "lv_examples\\lv_tests\\lv_test_theme\\../../../lvgl/lv_objx/lv_cont.h"
   1:lv_examples\lv_tests\lv_test_theme\../../../lvgl/lv_objx/lv_cont.h **** /**
   2:lv_examples\lv_tests\lv_test_theme\../../../lvgl/lv_objx/lv_cont.h ****  * @file lv_cont.h
   3:lv_examples\lv_tests\lv_test_theme\../../../lvgl/lv_objx/lv_cont.h ****  *
   4:lv_examples\lv_tests\lv_test_theme\../../../lvgl/lv_objx/lv_cont.h ****  */
   5:lv_examples\lv_tests\lv_test_theme\../../../lvgl/lv_objx/lv_cont.h **** 
   6:lv_examples\lv_tests\lv_test_theme\../../../lvgl/lv_objx/lv_cont.h **** #ifndef LV_CONT_H
   7:lv_examples\lv_tests\lv_test_theme\../../../lvgl/lv_objx/lv_cont.h **** #define LV_CONT_H
   8:lv_examples\lv_tests\lv_test_theme\../../../lvgl/lv_objx/lv_cont.h **** 
   9:lv_examples\lv_tests\lv_test_theme\../../../lvgl/lv_objx/lv_cont.h **** #ifdef __cplusplus
  10:lv_examples\lv_tests\lv_test_theme\../../../lvgl/lv_objx/lv_cont.h **** extern "C" {
  11:lv_examples\lv_tests\lv_test_theme\../../../lvgl/lv_objx/lv_cont.h **** #endif
  12:lv_examples\lv_tests\lv_test_theme\../../../lvgl/lv_objx/lv_cont.h **** 
  13:lv_examples\lv_tests\lv_test_theme\../../../lvgl/lv_objx/lv_cont.h **** /*********************
  14:lv_examples\lv_tests\lv_test_theme\../../../lvgl/lv_objx/lv_cont.h ****  *      INCLUDES
  15:lv_examples\lv_tests\lv_test_theme\../../../lvgl/lv_objx/lv_cont.h ****  *********************/
  16:lv_examples\lv_tests\lv_test_theme\../../../lvgl/lv_objx/lv_cont.h **** #ifdef LV_CONF_INCLUDE_SIMPLE
ARM GAS  C:\Users\Sava\AppData\Local\Temp\ccs9rGHG.s 			page 15


  17:lv_examples\lv_tests\lv_test_theme\../../../lvgl/lv_objx/lv_cont.h **** #include "lv_conf.h"
  18:lv_examples\lv_tests\lv_test_theme\../../../lvgl/lv_objx/lv_cont.h **** #else
  19:lv_examples\lv_tests\lv_test_theme\../../../lvgl/lv_objx/lv_cont.h **** #include "../../lv_conf.h"
  20:lv_examples\lv_tests\lv_test_theme\../../../lvgl/lv_objx/lv_cont.h **** #endif
  21:lv_examples\lv_tests\lv_test_theme\../../../lvgl/lv_objx/lv_cont.h **** 
  22:lv_examples\lv_tests\lv_test_theme\../../../lvgl/lv_objx/lv_cont.h **** #if USE_LV_CONT != 0
  23:lv_examples\lv_tests\lv_test_theme\../../../lvgl/lv_objx/lv_cont.h **** 
  24:lv_examples\lv_tests\lv_test_theme\../../../lvgl/lv_objx/lv_cont.h **** #include "../lv_core/lv_obj.h"
  25:lv_examples\lv_tests\lv_test_theme\../../../lvgl/lv_objx/lv_cont.h **** 
  26:lv_examples\lv_tests\lv_test_theme\../../../lvgl/lv_objx/lv_cont.h **** /*********************
  27:lv_examples\lv_tests\lv_test_theme\../../../lvgl/lv_objx/lv_cont.h ****  *      DEFINES
  28:lv_examples\lv_tests\lv_test_theme\../../../lvgl/lv_objx/lv_cont.h ****  *********************/
  29:lv_examples\lv_tests\lv_test_theme\../../../lvgl/lv_objx/lv_cont.h **** 
  30:lv_examples\lv_tests\lv_test_theme\../../../lvgl/lv_objx/lv_cont.h **** /**********************
  31:lv_examples\lv_tests\lv_test_theme\../../../lvgl/lv_objx/lv_cont.h ****  *      TYPEDEFS
  32:lv_examples\lv_tests\lv_test_theme\../../../lvgl/lv_objx/lv_cont.h ****  **********************/
  33:lv_examples\lv_tests\lv_test_theme\../../../lvgl/lv_objx/lv_cont.h **** 
  34:lv_examples\lv_tests\lv_test_theme\../../../lvgl/lv_objx/lv_cont.h **** /*Layout options*/
  35:lv_examples\lv_tests\lv_test_theme\../../../lvgl/lv_objx/lv_cont.h **** enum
  36:lv_examples\lv_tests\lv_test_theme\../../../lvgl/lv_objx/lv_cont.h **** {
  37:lv_examples\lv_tests\lv_test_theme\../../../lvgl/lv_objx/lv_cont.h ****     LV_LAYOUT_OFF = 0,
  38:lv_examples\lv_tests\lv_test_theme\../../../lvgl/lv_objx/lv_cont.h ****     LV_LAYOUT_CENTER,
  39:lv_examples\lv_tests\lv_test_theme\../../../lvgl/lv_objx/lv_cont.h ****     LV_LAYOUT_COL_L,    /*Column left align*/
  40:lv_examples\lv_tests\lv_test_theme\../../../lvgl/lv_objx/lv_cont.h ****     LV_LAYOUT_COL_M,    /*Column middle align*/
  41:lv_examples\lv_tests\lv_test_theme\../../../lvgl/lv_objx/lv_cont.h ****     LV_LAYOUT_COL_R,    /*Column right align*/
  42:lv_examples\lv_tests\lv_test_theme\../../../lvgl/lv_objx/lv_cont.h ****     LV_LAYOUT_ROW_T,    /*Row top align*/
  43:lv_examples\lv_tests\lv_test_theme\../../../lvgl/lv_objx/lv_cont.h ****     LV_LAYOUT_ROW_M,    /*Row middle align*/
  44:lv_examples\lv_tests\lv_test_theme\../../../lvgl/lv_objx/lv_cont.h ****     LV_LAYOUT_ROW_B,    /*Row bottom align*/
  45:lv_examples\lv_tests\lv_test_theme\../../../lvgl/lv_objx/lv_cont.h ****     LV_LAYOUT_PRETTY,   /*Put as many object as possible in row and begin a new row*/
  46:lv_examples\lv_tests\lv_test_theme\../../../lvgl/lv_objx/lv_cont.h ****     LV_LAYOUT_GRID,     /*Align same-sized object into a grid*/
  47:lv_examples\lv_tests\lv_test_theme\../../../lvgl/lv_objx/lv_cont.h **** };
  48:lv_examples\lv_tests\lv_test_theme\../../../lvgl/lv_objx/lv_cont.h **** typedef uint8_t lv_layout_t;
  49:lv_examples\lv_tests\lv_test_theme\../../../lvgl/lv_objx/lv_cont.h **** 
  50:lv_examples\lv_tests\lv_test_theme\../../../lvgl/lv_objx/lv_cont.h **** typedef struct
  51:lv_examples\lv_tests\lv_test_theme\../../../lvgl/lv_objx/lv_cont.h **** {
  52:lv_examples\lv_tests\lv_test_theme\../../../lvgl/lv_objx/lv_cont.h ****     /*Inherited from 'base_obj' so no inherited ext. */ /*Ext. of ancestor*/
  53:lv_examples\lv_tests\lv_test_theme\../../../lvgl/lv_objx/lv_cont.h ****     /*New data for this type */
  54:lv_examples\lv_tests\lv_test_theme\../../../lvgl/lv_objx/lv_cont.h ****     uint8_t layout  :4;     /*A layout from 'lv_cont_layout_t' enum*/
  55:lv_examples\lv_tests\lv_test_theme\../../../lvgl/lv_objx/lv_cont.h ****     uint8_t hor_fit :1;     /*1: Enable horizontal fit to involve all children*/
  56:lv_examples\lv_tests\lv_test_theme\../../../lvgl/lv_objx/lv_cont.h ****     uint8_t ver_fit :1;     /*1: Enable horizontal fit to involve all children*/
  57:lv_examples\lv_tests\lv_test_theme\../../../lvgl/lv_objx/lv_cont.h **** } lv_cont_ext_t;
  58:lv_examples\lv_tests\lv_test_theme\../../../lvgl/lv_objx/lv_cont.h **** 
  59:lv_examples\lv_tests\lv_test_theme\../../../lvgl/lv_objx/lv_cont.h **** 
  60:lv_examples\lv_tests\lv_test_theme\../../../lvgl/lv_objx/lv_cont.h **** /**********************
  61:lv_examples\lv_tests\lv_test_theme\../../../lvgl/lv_objx/lv_cont.h ****  * GLOBAL PROTOTYPES
  62:lv_examples\lv_tests\lv_test_theme\../../../lvgl/lv_objx/lv_cont.h ****  **********************/
  63:lv_examples\lv_tests\lv_test_theme\../../../lvgl/lv_objx/lv_cont.h **** 
  64:lv_examples\lv_tests\lv_test_theme\../../../lvgl/lv_objx/lv_cont.h **** /**
  65:lv_examples\lv_tests\lv_test_theme\../../../lvgl/lv_objx/lv_cont.h ****  * Create a container objects
  66:lv_examples\lv_tests\lv_test_theme\../../../lvgl/lv_objx/lv_cont.h ****  * @param par pointer to an object, it will be the parent of the new container
  67:lv_examples\lv_tests\lv_test_theme\../../../lvgl/lv_objx/lv_cont.h ****  * @param copy pointer to a container object, if not NULL then the new object will be copied from i
  68:lv_examples\lv_tests\lv_test_theme\../../../lvgl/lv_objx/lv_cont.h ****  * @return pointer to the created container
  69:lv_examples\lv_tests\lv_test_theme\../../../lvgl/lv_objx/lv_cont.h ****  */
  70:lv_examples\lv_tests\lv_test_theme\../../../lvgl/lv_objx/lv_cont.h **** lv_obj_t * lv_cont_create(lv_obj_t * par, const lv_obj_t * copy);
  71:lv_examples\lv_tests\lv_test_theme\../../../lvgl/lv_objx/lv_cont.h **** 
  72:lv_examples\lv_tests\lv_test_theme\../../../lvgl/lv_objx/lv_cont.h **** /*=====================
  73:lv_examples\lv_tests\lv_test_theme\../../../lvgl/lv_objx/lv_cont.h ****  * Setter functions
ARM GAS  C:\Users\Sava\AppData\Local\Temp\ccs9rGHG.s 			page 16


  74:lv_examples\lv_tests\lv_test_theme\../../../lvgl/lv_objx/lv_cont.h ****  *====================*/
  75:lv_examples\lv_tests\lv_test_theme\../../../lvgl/lv_objx/lv_cont.h **** 
  76:lv_examples\lv_tests\lv_test_theme\../../../lvgl/lv_objx/lv_cont.h **** /**
  77:lv_examples\lv_tests\lv_test_theme\../../../lvgl/lv_objx/lv_cont.h ****  * Set a layout on a container
  78:lv_examples\lv_tests\lv_test_theme\../../../lvgl/lv_objx/lv_cont.h ****  * @param cont pointer to a container object
  79:lv_examples\lv_tests\lv_test_theme\../../../lvgl/lv_objx/lv_cont.h ****  * @param layout a layout from 'lv_cont_layout_t'
  80:lv_examples\lv_tests\lv_test_theme\../../../lvgl/lv_objx/lv_cont.h ****  */
  81:lv_examples\lv_tests\lv_test_theme\../../../lvgl/lv_objx/lv_cont.h **** void lv_cont_set_layout(lv_obj_t * cont, lv_layout_t layout);
  82:lv_examples\lv_tests\lv_test_theme\../../../lvgl/lv_objx/lv_cont.h **** 
  83:lv_examples\lv_tests\lv_test_theme\../../../lvgl/lv_objx/lv_cont.h **** 
  84:lv_examples\lv_tests\lv_test_theme\../../../lvgl/lv_objx/lv_cont.h **** /**
  85:lv_examples\lv_tests\lv_test_theme\../../../lvgl/lv_objx/lv_cont.h ****  * Enable the horizontal or vertical fit.
  86:lv_examples\lv_tests\lv_test_theme\../../../lvgl/lv_objx/lv_cont.h ****  * The container size will be set to involve the children horizontally or vertically.
  87:lv_examples\lv_tests\lv_test_theme\../../../lvgl/lv_objx/lv_cont.h ****  * @param cont pointer to a container object
  88:lv_examples\lv_tests\lv_test_theme\../../../lvgl/lv_objx/lv_cont.h ****  * @param hor_en true: enable the horizontal fit
  89:lv_examples\lv_tests\lv_test_theme\../../../lvgl/lv_objx/lv_cont.h ****  * @param ver_en true: enable the vertical fit
  90:lv_examples\lv_tests\lv_test_theme\../../../lvgl/lv_objx/lv_cont.h ****  */
  91:lv_examples\lv_tests\lv_test_theme\../../../lvgl/lv_objx/lv_cont.h **** void lv_cont_set_fit(lv_obj_t * cont, bool hor_en, bool ver_en);
  92:lv_examples\lv_tests\lv_test_theme\../../../lvgl/lv_objx/lv_cont.h **** 
  93:lv_examples\lv_tests\lv_test_theme\../../../lvgl/lv_objx/lv_cont.h **** /**
  94:lv_examples\lv_tests\lv_test_theme\../../../lvgl/lv_objx/lv_cont.h ****  * Set the style of a container
  95:lv_examples\lv_tests\lv_test_theme\../../../lvgl/lv_objx/lv_cont.h ****  * @param cont pointer to a container object
  96:lv_examples\lv_tests\lv_test_theme\../../../lvgl/lv_objx/lv_cont.h ****  * @param style pointer to the new style
  97:lv_examples\lv_tests\lv_test_theme\../../../lvgl/lv_objx/lv_cont.h ****  */
  98:lv_examples\lv_tests\lv_test_theme\../../../lvgl/lv_objx/lv_cont.h **** static inline void lv_cont_set_style(lv_obj_t *cont, lv_style_t * style)
  99:lv_examples\lv_tests\lv_test_theme\../../../lvgl/lv_objx/lv_cont.h **** {
 100:lv_examples\lv_tests\lv_test_theme\../../../lvgl/lv_objx/lv_cont.h ****     lv_obj_set_style(cont, style);
 288              		.loc 4 100 0
 289 016a 4146     		mov	r1, r8
 290 016c FFF7FEFF 		bl	lv_obj_set_style
 291              	.LVL56:
 292              	.LBE23:
 293              	.LBE22:
 126:lv_examples\lv_tests\lv_test_theme/lv_test_theme.c ****     lv_cont_set_style(sw_h, &lv_style_transp);
 127:lv_examples\lv_tests\lv_test_theme/lv_test_theme.c ****     lv_cont_set_fit(sw_h, false, true);
 294              		.loc 1 127 0
 295 0170 0122     		movs	r2, #1
 296 0172 0021     		movs	r1, #0
 297 0174 3046     		mov	r0, r6
 298 0176 FFF7FEFF 		bl	lv_cont_set_fit
 299              	.LVL57:
 128:lv_examples\lv_tests\lv_test_theme/lv_test_theme.c ****     lv_obj_set_width(sw_h, LV_HOR_RES / 4);
 300              		.loc 1 128 0
 301 017a 5021     		movs	r1, #80
 302 017c 3046     		mov	r0, r6
 303 017e FFF7FEFF 		bl	lv_obj_set_width
 304              	.LVL58:
 129:lv_examples\lv_tests\lv_test_theme/lv_test_theme.c ****     lv_cont_set_layout(sw_h, LV_LAYOUT_PRETTY);
 305              		.loc 1 129 0
 306 0182 0821     		movs	r1, #8
 307 0184 3046     		mov	r0, r6
 308 0186 FFF7FEFF 		bl	lv_cont_set_layout
 309              	.LVL59:
 130:lv_examples\lv_tests\lv_test_theme/lv_test_theme.c **** 
 131:lv_examples\lv_tests\lv_test_theme/lv_test_theme.c ****     lv_obj_t * sw = lv_sw_create(sw_h, NULL);
 310              		.loc 1 131 0
 311 018a 0021     		movs	r1, #0
ARM GAS  C:\Users\Sava\AppData\Local\Temp\ccs9rGHG.s 			page 17


 312 018c 3046     		mov	r0, r6
 313 018e FFF7FEFF 		bl	lv_sw_create
 314              	.LVL60:
 132:lv_examples\lv_tests\lv_test_theme/lv_test_theme.c **** 
 133:lv_examples\lv_tests\lv_test_theme/lv_test_theme.c ****     sw = lv_sw_create(sw_h, sw);
 315              		.loc 1 133 0
 316 0192 0146     		mov	r1, r0
 317 0194 3046     		mov	r0, r6
 318              	.LVL61:
 319 0196 FFF7FEFF 		bl	lv_sw_create
 320              	.LVL62:
 134:lv_examples\lv_tests\lv_test_theme/lv_test_theme.c ****     lv_sw_on(sw);
 321              		.loc 1 134 0
 322 019a FFF7FEFF 		bl	lv_sw_on
 323              	.LVL63:
 135:lv_examples\lv_tests\lv_test_theme/lv_test_theme.c **** 
 136:lv_examples\lv_tests\lv_test_theme/lv_test_theme.c ****     lv_obj_t * bar = lv_bar_create(h, NULL);
 324              		.loc 1 136 0
 325 019e 0021     		movs	r1, #0
 326 01a0 2046     		mov	r0, r4
 327 01a2 FFF7FEFF 		bl	lv_bar_create
 328              	.LVL64:
 137:lv_examples\lv_tests\lv_test_theme/lv_test_theme.c ****     lv_bar_set_value(bar, 70);
 329              		.loc 1 137 0
 330 01a6 4621     		movs	r1, #70
 331 01a8 FFF7FEFF 		bl	lv_bar_set_value
 332              	.LVL65:
 138:lv_examples\lv_tests\lv_test_theme/lv_test_theme.c **** 
 139:lv_examples\lv_tests\lv_test_theme/lv_test_theme.c ****     lv_obj_t * slider = lv_slider_create(h, NULL);
 333              		.loc 1 139 0
 334 01ac 0021     		movs	r1, #0
 335 01ae 2046     		mov	r0, r4
 336 01b0 FFF7FEFF 		bl	lv_slider_create
 337              	.LVL66:
 140:lv_examples\lv_tests\lv_test_theme/lv_test_theme.c ****     lv_bar_set_value(slider, 70);
 338              		.loc 1 140 0
 339 01b4 4621     		movs	r1, #70
 340 01b6 FFF7FEFF 		bl	lv_bar_set_value
 341              	.LVL67:
 141:lv_examples\lv_tests\lv_test_theme/lv_test_theme.c **** 
 142:lv_examples\lv_tests\lv_test_theme/lv_test_theme.c ****     lv_obj_t * line = lv_line_create(h, NULL);
 342              		.loc 1 142 0
 343 01ba 0021     		movs	r1, #0
 344 01bc 2046     		mov	r0, r4
 345 01be FFF7FEFF 		bl	lv_line_create
 346              	.LVL68:
 347 01c2 0646     		mov	r6, r0
 348              	.LVL69:
 143:lv_examples\lv_tests\lv_test_theme/lv_test_theme.c ****     static const lv_point_t line_p[] = {{0, 0}, {LV_HOR_RES / 5, 0}};
 144:lv_examples\lv_tests\lv_test_theme/lv_test_theme.c ****     lv_line_set_points(line, line_p, 2);
 349              		.loc 1 144 0
 350 01c4 0222     		movs	r2, #2
 351 01c6 5449     		ldr	r1, .L3+32
 352 01c8 FFF7FEFF 		bl	lv_line_set_points
 353              	.LVL70:
 354              	.LBB24:
 355              	.LBB25:
ARM GAS  C:\Users\Sava\AppData\Local\Temp\ccs9rGHG.s 			page 18


 356              		.file 5 "lv_examples\\lv_tests\\lv_test_theme\\../../../lvgl/lv_objx/lv_line.h"
   1:lv_examples\lv_tests\lv_test_theme\../../../lvgl/lv_objx/lv_line.h **** /**
   2:lv_examples\lv_tests\lv_test_theme\../../../lvgl/lv_objx/lv_line.h ****  * @file lv_line.h
   3:lv_examples\lv_tests\lv_test_theme\../../../lvgl/lv_objx/lv_line.h ****  *
   4:lv_examples\lv_tests\lv_test_theme\../../../lvgl/lv_objx/lv_line.h ****  */
   5:lv_examples\lv_tests\lv_test_theme\../../../lvgl/lv_objx/lv_line.h **** 
   6:lv_examples\lv_tests\lv_test_theme\../../../lvgl/lv_objx/lv_line.h **** #ifndef LV_LINE_H
   7:lv_examples\lv_tests\lv_test_theme\../../../lvgl/lv_objx/lv_line.h **** #define LV_LINE_H
   8:lv_examples\lv_tests\lv_test_theme\../../../lvgl/lv_objx/lv_line.h **** 
   9:lv_examples\lv_tests\lv_test_theme\../../../lvgl/lv_objx/lv_line.h **** #ifdef __cplusplus
  10:lv_examples\lv_tests\lv_test_theme\../../../lvgl/lv_objx/lv_line.h **** extern "C" {
  11:lv_examples\lv_tests\lv_test_theme\../../../lvgl/lv_objx/lv_line.h **** #endif
  12:lv_examples\lv_tests\lv_test_theme\../../../lvgl/lv_objx/lv_line.h **** 
  13:lv_examples\lv_tests\lv_test_theme\../../../lvgl/lv_objx/lv_line.h **** /*********************
  14:lv_examples\lv_tests\lv_test_theme\../../../lvgl/lv_objx/lv_line.h ****  *      INCLUDES
  15:lv_examples\lv_tests\lv_test_theme\../../../lvgl/lv_objx/lv_line.h ****  *********************/
  16:lv_examples\lv_tests\lv_test_theme\../../../lvgl/lv_objx/lv_line.h **** #ifdef LV_CONF_INCLUDE_SIMPLE
  17:lv_examples\lv_tests\lv_test_theme\../../../lvgl/lv_objx/lv_line.h **** #include "lv_conf.h"
  18:lv_examples\lv_tests\lv_test_theme\../../../lvgl/lv_objx/lv_line.h **** #else
  19:lv_examples\lv_tests\lv_test_theme\../../../lvgl/lv_objx/lv_line.h **** #include "../../lv_conf.h"
  20:lv_examples\lv_tests\lv_test_theme\../../../lvgl/lv_objx/lv_line.h **** #endif
  21:lv_examples\lv_tests\lv_test_theme\../../../lvgl/lv_objx/lv_line.h **** 
  22:lv_examples\lv_tests\lv_test_theme\../../../lvgl/lv_objx/lv_line.h **** #if USE_LV_LINE != 0
  23:lv_examples\lv_tests\lv_test_theme\../../../lvgl/lv_objx/lv_line.h **** 
  24:lv_examples\lv_tests\lv_test_theme\../../../lvgl/lv_objx/lv_line.h **** #include "../lv_core/lv_obj.h"
  25:lv_examples\lv_tests\lv_test_theme\../../../lvgl/lv_objx/lv_line.h **** 
  26:lv_examples\lv_tests\lv_test_theme\../../../lvgl/lv_objx/lv_line.h **** /*********************
  27:lv_examples\lv_tests\lv_test_theme\../../../lvgl/lv_objx/lv_line.h ****  *      DEFINES
  28:lv_examples\lv_tests\lv_test_theme\../../../lvgl/lv_objx/lv_line.h ****  *********************/
  29:lv_examples\lv_tests\lv_test_theme\../../../lvgl/lv_objx/lv_line.h **** 
  30:lv_examples\lv_tests\lv_test_theme\../../../lvgl/lv_objx/lv_line.h **** /**********************
  31:lv_examples\lv_tests\lv_test_theme\../../../lvgl/lv_objx/lv_line.h ****  *      TYPEDEFS
  32:lv_examples\lv_tests\lv_test_theme\../../../lvgl/lv_objx/lv_line.h ****  **********************/
  33:lv_examples\lv_tests\lv_test_theme\../../../lvgl/lv_objx/lv_line.h **** 
  34:lv_examples\lv_tests\lv_test_theme\../../../lvgl/lv_objx/lv_line.h **** /*Data of line*/
  35:lv_examples\lv_tests\lv_test_theme\../../../lvgl/lv_objx/lv_line.h **** typedef struct
  36:lv_examples\lv_tests\lv_test_theme\../../../lvgl/lv_objx/lv_line.h **** {
  37:lv_examples\lv_tests\lv_test_theme\../../../lvgl/lv_objx/lv_line.h ****     /*Inherited from 'base_obj' so no inherited ext.*/  /*Ext. of ancestor*/
  38:lv_examples\lv_tests\lv_test_theme\../../../lvgl/lv_objx/lv_line.h ****     const lv_point_t * point_array;    /*Pointer to an array with the points of the line*/
  39:lv_examples\lv_tests\lv_test_theme\../../../lvgl/lv_objx/lv_line.h ****     uint16_t  point_num;            /*Number of points in 'point_array' */
  40:lv_examples\lv_tests\lv_test_theme\../../../lvgl/lv_objx/lv_line.h ****     uint8_t  auto_size  :1;         /*1: set obj. width to x max and obj. height to y max */
  41:lv_examples\lv_tests\lv_test_theme\../../../lvgl/lv_objx/lv_line.h ****     uint8_t  y_inv      :1;         /*1: y == 0 will be on the bottom*/
  42:lv_examples\lv_tests\lv_test_theme\../../../lvgl/lv_objx/lv_line.h **** } lv_line_ext_t;
  43:lv_examples\lv_tests\lv_test_theme\../../../lvgl/lv_objx/lv_line.h **** 
  44:lv_examples\lv_tests\lv_test_theme\../../../lvgl/lv_objx/lv_line.h **** /**********************
  45:lv_examples\lv_tests\lv_test_theme\../../../lvgl/lv_objx/lv_line.h ****  * GLOBAL PROTOTYPES
  46:lv_examples\lv_tests\lv_test_theme\../../../lvgl/lv_objx/lv_line.h ****  **********************/
  47:lv_examples\lv_tests\lv_test_theme\../../../lvgl/lv_objx/lv_line.h **** 
  48:lv_examples\lv_tests\lv_test_theme\../../../lvgl/lv_objx/lv_line.h **** 
  49:lv_examples\lv_tests\lv_test_theme\../../../lvgl/lv_objx/lv_line.h **** /**
  50:lv_examples\lv_tests\lv_test_theme\../../../lvgl/lv_objx/lv_line.h ****  * Create a line objects
  51:lv_examples\lv_tests\lv_test_theme\../../../lvgl/lv_objx/lv_line.h ****  * @param par pointer to an object, it will be the parent of the new line
  52:lv_examples\lv_tests\lv_test_theme\../../../lvgl/lv_objx/lv_line.h ****  * @return pointer to the created line
  53:lv_examples\lv_tests\lv_test_theme\../../../lvgl/lv_objx/lv_line.h ****  */
  54:lv_examples\lv_tests\lv_test_theme\../../../lvgl/lv_objx/lv_line.h **** lv_obj_t * lv_line_create(lv_obj_t * par, const lv_obj_t * copy);
  55:lv_examples\lv_tests\lv_test_theme\../../../lvgl/lv_objx/lv_line.h **** 
  56:lv_examples\lv_tests\lv_test_theme\../../../lvgl/lv_objx/lv_line.h **** /*=====================
ARM GAS  C:\Users\Sava\AppData\Local\Temp\ccs9rGHG.s 			page 19


  57:lv_examples\lv_tests\lv_test_theme\../../../lvgl/lv_objx/lv_line.h ****  * Setter functions
  58:lv_examples\lv_tests\lv_test_theme\../../../lvgl/lv_objx/lv_line.h ****  *====================*/
  59:lv_examples\lv_tests\lv_test_theme\../../../lvgl/lv_objx/lv_line.h **** 
  60:lv_examples\lv_tests\lv_test_theme\../../../lvgl/lv_objx/lv_line.h **** /**
  61:lv_examples\lv_tests\lv_test_theme\../../../lvgl/lv_objx/lv_line.h ****  * Set an array of points. The line object will connect these points.
  62:lv_examples\lv_tests\lv_test_theme\../../../lvgl/lv_objx/lv_line.h ****  * @param line pointer to a line object
  63:lv_examples\lv_tests\lv_test_theme\../../../lvgl/lv_objx/lv_line.h ****  * @param point_a an array of points. Only the address is saved,
  64:lv_examples\lv_tests\lv_test_theme\../../../lvgl/lv_objx/lv_line.h ****  * so the array can NOT be a local variable which will be destroyed
  65:lv_examples\lv_tests\lv_test_theme\../../../lvgl/lv_objx/lv_line.h ****  * @param point_num number of points in 'point_a'
  66:lv_examples\lv_tests\lv_test_theme\../../../lvgl/lv_objx/lv_line.h ****  */
  67:lv_examples\lv_tests\lv_test_theme\../../../lvgl/lv_objx/lv_line.h **** void lv_line_set_points(lv_obj_t * line, const lv_point_t * point_a, uint16_t point_num);
  68:lv_examples\lv_tests\lv_test_theme\../../../lvgl/lv_objx/lv_line.h **** 
  69:lv_examples\lv_tests\lv_test_theme\../../../lvgl/lv_objx/lv_line.h **** /**
  70:lv_examples\lv_tests\lv_test_theme\../../../lvgl/lv_objx/lv_line.h ****  * Enable (or disable) the auto-size option. The size of the object will fit to its points.
  71:lv_examples\lv_tests\lv_test_theme\../../../lvgl/lv_objx/lv_line.h ****  * (set width to x max and height to y max)
  72:lv_examples\lv_tests\lv_test_theme\../../../lvgl/lv_objx/lv_line.h ****  * @param line pointer to a line object
  73:lv_examples\lv_tests\lv_test_theme\../../../lvgl/lv_objx/lv_line.h ****  * @param en true: auto size is enabled, false: auto size is disabled
  74:lv_examples\lv_tests\lv_test_theme\../../../lvgl/lv_objx/lv_line.h ****  */
  75:lv_examples\lv_tests\lv_test_theme\../../../lvgl/lv_objx/lv_line.h **** void lv_line_set_auto_size(lv_obj_t * line, bool en);
  76:lv_examples\lv_tests\lv_test_theme\../../../lvgl/lv_objx/lv_line.h **** 
  77:lv_examples\lv_tests\lv_test_theme\../../../lvgl/lv_objx/lv_line.h **** /**
  78:lv_examples\lv_tests\lv_test_theme\../../../lvgl/lv_objx/lv_line.h ****  * Enable (or disable) the y coordinate inversion.
  79:lv_examples\lv_tests\lv_test_theme\../../../lvgl/lv_objx/lv_line.h ****  * If enabled then y will be subtracted from the height of the object,
  80:lv_examples\lv_tests\lv_test_theme\../../../lvgl/lv_objx/lv_line.h ****  * therefore the y=0 coordinate will be on the bottom.
  81:lv_examples\lv_tests\lv_test_theme\../../../lvgl/lv_objx/lv_line.h ****  * @param line pointer to a line object
  82:lv_examples\lv_tests\lv_test_theme\../../../lvgl/lv_objx/lv_line.h ****  * @param en true: enable the y inversion, false:disable the y inversion
  83:lv_examples\lv_tests\lv_test_theme\../../../lvgl/lv_objx/lv_line.h ****  */
  84:lv_examples\lv_tests\lv_test_theme\../../../lvgl/lv_objx/lv_line.h **** void lv_line_set_y_invert(lv_obj_t * line, bool en);
  85:lv_examples\lv_tests\lv_test_theme\../../../lvgl/lv_objx/lv_line.h **** 
  86:lv_examples\lv_tests\lv_test_theme\../../../lvgl/lv_objx/lv_line.h **** #define lv_line_set_y_inv lv_line_set_y_invert      /*The name was inconsistent. In v.6.0 only `lv_
  87:lv_examples\lv_tests\lv_test_theme\../../../lvgl/lv_objx/lv_line.h **** 
  88:lv_examples\lv_tests\lv_test_theme\../../../lvgl/lv_objx/lv_line.h **** /**
  89:lv_examples\lv_tests\lv_test_theme\../../../lvgl/lv_objx/lv_line.h ****  * Set the style of a line
  90:lv_examples\lv_tests\lv_test_theme\../../../lvgl/lv_objx/lv_line.h ****  * @param line pointer to a line object
  91:lv_examples\lv_tests\lv_test_theme\../../../lvgl/lv_objx/lv_line.h ****  * @param style pointer to a style
  92:lv_examples\lv_tests\lv_test_theme\../../../lvgl/lv_objx/lv_line.h ****  */
  93:lv_examples\lv_tests\lv_test_theme\../../../lvgl/lv_objx/lv_line.h **** static inline void lv_line_set_style(lv_obj_t *line, lv_style_t *style)
  94:lv_examples\lv_tests\lv_test_theme\../../../lvgl/lv_objx/lv_line.h **** {
  95:lv_examples\lv_tests\lv_test_theme\../../../lvgl/lv_objx/lv_line.h ****     lv_obj_set_style(line, style);
 357              		.loc 5 95 0
 358 01cc A96C     		ldr	r1, [r5, #72]
 359 01ce 3046     		mov	r0, r6
 360 01d0 FFF7FEFF 		bl	lv_obj_set_style
 361              	.LVL71:
 362              	.LBE25:
 363              	.LBE24:
 145:lv_examples\lv_tests\lv_test_theme/lv_test_theme.c ****     lv_line_set_style(line, th->line.decor);
 146:lv_examples\lv_tests\lv_test_theme/lv_test_theme.c **** 
 147:lv_examples\lv_tests\lv_test_theme/lv_test_theme.c ****     lv_obj_t * ta = lv_ta_create(h, NULL);
 364              		.loc 1 147 0
 365 01d4 0021     		movs	r1, #0
 366 01d6 2046     		mov	r0, r4
 367 01d8 FFF7FEFF 		bl	lv_ta_create
 368              	.LVL72:
 369 01dc 0646     		mov	r6, r0
 370              	.LVL73:
 148:lv_examples\lv_tests\lv_test_theme/lv_test_theme.c ****     lv_obj_set_style(ta, th->ta.oneline);
ARM GAS  C:\Users\Sava\AppData\Local\Temp\ccs9rGHG.s 			page 20


 371              		.loc 1 148 0
 372 01de D5F81011 		ldr	r1, [r5, #272]
 373 01e2 FFF7FEFF 		bl	lv_obj_set_style
 374              	.LVL74:
 149:lv_examples\lv_tests\lv_test_theme/lv_test_theme.c ****     lv_ta_set_text(ta, "Some text");
 375              		.loc 1 149 0
 376 01e6 4D49     		ldr	r1, .L3+36
 377 01e8 3046     		mov	r0, r6
 378 01ea FFF7FEFF 		bl	lv_ta_set_text
 379              	.LVL75:
 150:lv_examples\lv_tests\lv_test_theme/lv_test_theme.c ****     lv_ta_set_one_line(ta, true);
 380              		.loc 1 150 0
 381 01ee 0121     		movs	r1, #1
 382 01f0 3046     		mov	r0, r6
 383 01f2 FFF7FEFF 		bl	lv_ta_set_one_line
 384              	.LVL76:
 151:lv_examples\lv_tests\lv_test_theme/lv_test_theme.c **** 
 152:lv_examples\lv_tests\lv_test_theme/lv_test_theme.c ****     lv_obj_t * cb = lv_cb_create(h, NULL);
 385              		.loc 1 152 0
 386 01f6 0021     		movs	r1, #0
 387 01f8 2046     		mov	r0, r4
 388 01fa FFF7FEFF 		bl	lv_cb_create
 389              	.LVL77:
 153:lv_examples\lv_tests\lv_test_theme/lv_test_theme.c **** 
 154:lv_examples\lv_tests\lv_test_theme/lv_test_theme.c ****     cb = lv_cb_create(h, cb);
 390              		.loc 1 154 0
 391 01fe 0146     		mov	r1, r0
 392 0200 2046     		mov	r0, r4
 393              	.LVL78:
 394 0202 FFF7FEFF 		bl	lv_cb_create
 395              	.LVL79:
 155:lv_examples\lv_tests\lv_test_theme/lv_test_theme.c ****     lv_btn_set_state(cb, LV_BTN_STATE_TGL_REL);
 396              		.loc 1 155 0
 397 0206 0221     		movs	r1, #2
 398 0208 FFF7FEFF 		bl	lv_btn_set_state
 399              	.LVL80:
 156:lv_examples\lv_tests\lv_test_theme/lv_test_theme.c **** 
 157:lv_examples\lv_tests\lv_test_theme/lv_test_theme.c **** 
 158:lv_examples\lv_tests\lv_test_theme/lv_test_theme.c ****     lv_obj_t * ddlist = lv_ddlist_create(h, NULL);
 400              		.loc 1 158 0
 401 020c 0021     		movs	r1, #0
 402 020e 2046     		mov	r0, r4
 403 0210 FFF7FEFF 		bl	lv_ddlist_create
 404              	.LVL81:
 405 0214 0546     		mov	r5, r0
 406              	.LVL82:
 159:lv_examples\lv_tests\lv_test_theme/lv_test_theme.c ****     lv_ddlist_open(ddlist, false);
 407              		.loc 1 159 0
 408 0216 0021     		movs	r1, #0
 409 0218 FFF7FEFF 		bl	lv_ddlist_open
 410              	.LVL83:
 160:lv_examples\lv_tests\lv_test_theme/lv_test_theme.c ****     lv_ddlist_set_selected(ddlist, 1);
 411              		.loc 1 160 0
 412 021c 0121     		movs	r1, #1
 413 021e 2846     		mov	r0, r5
 414 0220 FFF7FEFF 		bl	lv_ddlist_set_selected
 415              	.LVL84:
ARM GAS  C:\Users\Sava\AppData\Local\Temp\ccs9rGHG.s 			page 21


 161:lv_examples\lv_tests\lv_test_theme/lv_test_theme.c **** 
 162:lv_examples\lv_tests\lv_test_theme/lv_test_theme.c ****     h = lv_cont_create(parent, h);
 416              		.loc 1 162 0
 417 0224 2146     		mov	r1, r4
 418 0226 3846     		mov	r0, r7
 419 0228 FFF7FEFF 		bl	lv_cont_create
 420              	.LVL85:
 421 022c 0746     		mov	r7, r0
 422              	.LVL86:
 163:lv_examples\lv_tests\lv_test_theme/lv_test_theme.c **** 
 164:lv_examples\lv_tests\lv_test_theme/lv_test_theme.c ****     lv_obj_t * list = lv_list_create(h, NULL);
 423              		.loc 1 164 0
 424 022e 0021     		movs	r1, #0
 425 0230 FFF7FEFF 		bl	lv_list_create
 426              	.LVL87:
 427 0234 0446     		mov	r4, r0
 428              	.LVL88:
 165:lv_examples\lv_tests\lv_test_theme/lv_test_theme.c ****     lv_obj_t * list_btn;
 166:lv_examples\lv_tests\lv_test_theme/lv_test_theme.c ****     list_btn = lv_list_add(list, SYMBOL_GPS,  "GPS",  NULL);
 429              		.loc 1 166 0
 430 0236 3A4E     		ldr	r6, .L3+40
 431              	.LVL89:
 432 0238 3A4D     		ldr	r5, .L3+44
 433              	.LVL90:
 434 023a 0023     		movs	r3, #0
 435 023c 3246     		mov	r2, r6
 436 023e 2946     		mov	r1, r5
 437 0240 FFF7FEFF 		bl	lv_list_add
 438              	.LVL91:
 439 0244 8046     		mov	r8, r0
 440              	.LVL92:
 167:lv_examples\lv_tests\lv_test_theme/lv_test_theme.c ****     lv_obj_set_size(list, LV_HOR_RES / 4, LV_VER_RES / 2);
 441              		.loc 1 167 0
 442 0246 7822     		movs	r2, #120
 443 0248 5021     		movs	r1, #80
 444 024a 2046     		mov	r0, r4
 445              	.LVL93:
 446 024c FFF7FEFF 		bl	lv_obj_set_size
 447              	.LVL94:
 168:lv_examples\lv_tests\lv_test_theme/lv_test_theme.c ****     lv_btn_set_toggle(list_btn, true);
 448              		.loc 1 168 0
 449 0250 0121     		movs	r1, #1
 450 0252 4046     		mov	r0, r8
 451 0254 FFF7FEFF 		bl	lv_btn_set_toggle
 452              	.LVL95:
 169:lv_examples\lv_tests\lv_test_theme/lv_test_theme.c ****     lv_list_add(list, SYMBOL_WIFI, "WiFi", NULL);
 453              		.loc 1 169 0
 454 0258 0023     		movs	r3, #0
 455 025a 334A     		ldr	r2, .L3+48
 456 025c 3349     		ldr	r1, .L3+52
 457 025e 2046     		mov	r0, r4
 458 0260 FFF7FEFF 		bl	lv_list_add
 459              	.LVL96:
 170:lv_examples\lv_tests\lv_test_theme/lv_test_theme.c ****     lv_list_add(list, SYMBOL_GPS, "GPS", NULL);
 460              		.loc 1 170 0
 461 0264 0023     		movs	r3, #0
 462 0266 3246     		mov	r2, r6
ARM GAS  C:\Users\Sava\AppData\Local\Temp\ccs9rGHG.s 			page 22


 463 0268 2946     		mov	r1, r5
 464 026a 2046     		mov	r0, r4
 465 026c FFF7FEFF 		bl	lv_list_add
 466              	.LVL97:
 171:lv_examples\lv_tests\lv_test_theme/lv_test_theme.c ****     lv_list_add(list, SYMBOL_AUDIO, "Audio", NULL);
 467              		.loc 1 171 0
 468 0270 0023     		movs	r3, #0
 469 0272 2F4A     		ldr	r2, .L3+56
 470 0274 2F49     		ldr	r1, .L3+60
 471 0276 2046     		mov	r0, r4
 472 0278 FFF7FEFF 		bl	lv_list_add
 473              	.LVL98:
 172:lv_examples\lv_tests\lv_test_theme/lv_test_theme.c ****     lv_list_add(list, SYMBOL_VIDEO, "Video", NULL);
 474              		.loc 1 172 0
 475 027c 0023     		movs	r3, #0
 476 027e 2E4A     		ldr	r2, .L3+64
 477 0280 2E49     		ldr	r1, .L3+68
 478 0282 2046     		mov	r0, r4
 479 0284 FFF7FEFF 		bl	lv_list_add
 480              	.LVL99:
 173:lv_examples\lv_tests\lv_test_theme/lv_test_theme.c ****     lv_list_add(list, SYMBOL_CALL, "Call", NULL);
 481              		.loc 1 173 0
 482 0288 0023     		movs	r3, #0
 483 028a 2D4A     		ldr	r2, .L3+72
 484 028c 2D49     		ldr	r1, .L3+76
 485 028e 2046     		mov	r0, r4
 486 0290 FFF7FEFF 		bl	lv_list_add
 487              	.LVL100:
 174:lv_examples\lv_tests\lv_test_theme/lv_test_theme.c ****     lv_list_add(list, SYMBOL_BELL, "Bell", NULL);
 488              		.loc 1 174 0
 489 0294 0023     		movs	r3, #0
 490 0296 2C4A     		ldr	r2, .L3+80
 491 0298 2C49     		ldr	r1, .L3+84
 492 029a 2046     		mov	r0, r4
 493 029c FFF7FEFF 		bl	lv_list_add
 494              	.LVL101:
 175:lv_examples\lv_tests\lv_test_theme/lv_test_theme.c ****     lv_list_add(list, SYMBOL_FILE, "File", NULL);
 495              		.loc 1 175 0
 496 02a0 0023     		movs	r3, #0
 497 02a2 2B4A     		ldr	r2, .L3+88
 498 02a4 2B49     		ldr	r1, .L3+92
 499 02a6 2046     		mov	r0, r4
 500 02a8 FFF7FEFF 		bl	lv_list_add
 501              	.LVL102:
 176:lv_examples\lv_tests\lv_test_theme/lv_test_theme.c ****     lv_list_add(list, SYMBOL_EDIT, "Edit", NULL);
 502              		.loc 1 176 0
 503 02ac 0023     		movs	r3, #0
 504 02ae 2A4A     		ldr	r2, .L3+96
 505 02b0 2A49     		ldr	r1, .L3+100
 506 02b2 2046     		mov	r0, r4
 507 02b4 FFF7FEFF 		bl	lv_list_add
 508              	.LVL103:
 177:lv_examples\lv_tests\lv_test_theme/lv_test_theme.c ****     lv_list_add(list, SYMBOL_CUT,  "Cut",  NULL);
 509              		.loc 1 177 0
 510 02b8 0023     		movs	r3, #0
 511 02ba 294A     		ldr	r2, .L3+104
 512 02bc 2949     		ldr	r1, .L3+108
ARM GAS  C:\Users\Sava\AppData\Local\Temp\ccs9rGHG.s 			page 23


 513 02be 2046     		mov	r0, r4
 514 02c0 FFF7FEFF 		bl	lv_list_add
 515              	.LVL104:
 178:lv_examples\lv_tests\lv_test_theme/lv_test_theme.c ****     lv_list_add(list, SYMBOL_COPY, "Copy", NULL);
 516              		.loc 1 178 0
 517 02c4 0023     		movs	r3, #0
 518 02c6 284A     		ldr	r2, .L3+112
 519 02c8 2849     		ldr	r1, .L3+116
 520 02ca 2046     		mov	r0, r4
 521 02cc FFF7FEFF 		bl	lv_list_add
 522              	.LVL105:
 179:lv_examples\lv_tests\lv_test_theme/lv_test_theme.c **** 
 180:lv_examples\lv_tests\lv_test_theme/lv_test_theme.c ****     lv_obj_t * roller = lv_roller_create(h, NULL);
 523              		.loc 1 180 0
 524 02d0 0021     		movs	r1, #0
 525 02d2 3846     		mov	r0, r7
 526 02d4 FFF7FEFF 		bl	lv_roller_create
 527              	.LVL106:
 528 02d8 0446     		mov	r4, r0
 529              	.LVL107:
 530              	.LBB26:
 531              	.LBB27:
 532              		.file 6 "lv_examples\\lv_tests\\lv_test_theme\\../../../lvgl/lv_objx/lv_roller.h"
   1:lv_examples\lv_tests\lv_test_theme\../../../lvgl/lv_objx/lv_roller.h **** /**
   2:lv_examples\lv_tests\lv_test_theme\../../../lvgl/lv_objx/lv_roller.h ****  * @file lv_roller.h
   3:lv_examples\lv_tests\lv_test_theme\../../../lvgl/lv_objx/lv_roller.h ****  *
   4:lv_examples\lv_tests\lv_test_theme\../../../lvgl/lv_objx/lv_roller.h ****  */
   5:lv_examples\lv_tests\lv_test_theme\../../../lvgl/lv_objx/lv_roller.h **** 
   6:lv_examples\lv_tests\lv_test_theme\../../../lvgl/lv_objx/lv_roller.h **** #ifndef LV_ROLLER_H
   7:lv_examples\lv_tests\lv_test_theme\../../../lvgl/lv_objx/lv_roller.h **** #define LV_ROLLER_H
   8:lv_examples\lv_tests\lv_test_theme\../../../lvgl/lv_objx/lv_roller.h **** 
   9:lv_examples\lv_tests\lv_test_theme\../../../lvgl/lv_objx/lv_roller.h **** #ifdef __cplusplus
  10:lv_examples\lv_tests\lv_test_theme\../../../lvgl/lv_objx/lv_roller.h **** extern "C" {
  11:lv_examples\lv_tests\lv_test_theme\../../../lvgl/lv_objx/lv_roller.h **** #endif
  12:lv_examples\lv_tests\lv_test_theme\../../../lvgl/lv_objx/lv_roller.h **** 
  13:lv_examples\lv_tests\lv_test_theme\../../../lvgl/lv_objx/lv_roller.h **** /*********************
  14:lv_examples\lv_tests\lv_test_theme\../../../lvgl/lv_objx/lv_roller.h ****  *      INCLUDES
  15:lv_examples\lv_tests\lv_test_theme\../../../lvgl/lv_objx/lv_roller.h ****  *********************/
  16:lv_examples\lv_tests\lv_test_theme\../../../lvgl/lv_objx/lv_roller.h **** #ifdef LV_CONF_INCLUDE_SIMPLE
  17:lv_examples\lv_tests\lv_test_theme\../../../lvgl/lv_objx/lv_roller.h **** #include "lv_conf.h"
  18:lv_examples\lv_tests\lv_test_theme\../../../lvgl/lv_objx/lv_roller.h **** #else
  19:lv_examples\lv_tests\lv_test_theme\../../../lvgl/lv_objx/lv_roller.h **** #include "../../lv_conf.h"
  20:lv_examples\lv_tests\lv_test_theme\../../../lvgl/lv_objx/lv_roller.h **** #endif
  21:lv_examples\lv_tests\lv_test_theme\../../../lvgl/lv_objx/lv_roller.h **** 
  22:lv_examples\lv_tests\lv_test_theme\../../../lvgl/lv_objx/lv_roller.h **** #if USE_LV_ROLLER != 0
  23:lv_examples\lv_tests\lv_test_theme\../../../lvgl/lv_objx/lv_roller.h **** 
  24:lv_examples\lv_tests\lv_test_theme\../../../lvgl/lv_objx/lv_roller.h **** /*Testing of dependencies*/
  25:lv_examples\lv_tests\lv_test_theme\../../../lvgl/lv_objx/lv_roller.h **** #if USE_LV_DDLIST == 0
  26:lv_examples\lv_tests\lv_test_theme\../../../lvgl/lv_objx/lv_roller.h **** #error "lv_roller: lv_ddlist is required. Enable it in lv_conf.h (USE_LV_DDLIST  1) "
  27:lv_examples\lv_tests\lv_test_theme\../../../lvgl/lv_objx/lv_roller.h **** #endif
  28:lv_examples\lv_tests\lv_test_theme\../../../lvgl/lv_objx/lv_roller.h **** 
  29:lv_examples\lv_tests\lv_test_theme\../../../lvgl/lv_objx/lv_roller.h **** #include "../lv_core/lv_obj.h"
  30:lv_examples\lv_tests\lv_test_theme\../../../lvgl/lv_objx/lv_roller.h **** #include "lv_ddlist.h"
  31:lv_examples\lv_tests\lv_test_theme\../../../lvgl/lv_objx/lv_roller.h **** #include "lv_label.h"
  32:lv_examples\lv_tests\lv_test_theme\../../../lvgl/lv_objx/lv_roller.h **** 
  33:lv_examples\lv_tests\lv_test_theme\../../../lvgl/lv_objx/lv_roller.h **** /*********************
  34:lv_examples\lv_tests\lv_test_theme\../../../lvgl/lv_objx/lv_roller.h ****  *      DEFINES
ARM GAS  C:\Users\Sava\AppData\Local\Temp\ccs9rGHG.s 			page 24


  35:lv_examples\lv_tests\lv_test_theme\../../../lvgl/lv_objx/lv_roller.h ****  *********************/
  36:lv_examples\lv_tests\lv_test_theme\../../../lvgl/lv_objx/lv_roller.h **** 
  37:lv_examples\lv_tests\lv_test_theme\../../../lvgl/lv_objx/lv_roller.h **** /**********************
  38:lv_examples\lv_tests\lv_test_theme\../../../lvgl/lv_objx/lv_roller.h ****  *      TYPEDEFS
  39:lv_examples\lv_tests\lv_test_theme\../../../lvgl/lv_objx/lv_roller.h ****  **********************/
  40:lv_examples\lv_tests\lv_test_theme\../../../lvgl/lv_objx/lv_roller.h **** /*Data of roller*/
  41:lv_examples\lv_tests\lv_test_theme\../../../lvgl/lv_objx/lv_roller.h **** typedef struct {
  42:lv_examples\lv_tests\lv_test_theme\../../../lvgl/lv_objx/lv_roller.h ****     lv_ddlist_ext_t ddlist; /*Ext. of ancestor*/
  43:lv_examples\lv_tests\lv_test_theme\../../../lvgl/lv_objx/lv_roller.h ****     /*New data for this type */
  44:lv_examples\lv_tests\lv_test_theme\../../../lvgl/lv_objx/lv_roller.h **** } lv_roller_ext_t;
  45:lv_examples\lv_tests\lv_test_theme\../../../lvgl/lv_objx/lv_roller.h **** 
  46:lv_examples\lv_tests\lv_test_theme\../../../lvgl/lv_objx/lv_roller.h **** enum {
  47:lv_examples\lv_tests\lv_test_theme\../../../lvgl/lv_objx/lv_roller.h ****     LV_ROLLER_STYLE_BG,
  48:lv_examples\lv_tests\lv_test_theme\../../../lvgl/lv_objx/lv_roller.h ****     LV_ROLLER_STYLE_SEL,
  49:lv_examples\lv_tests\lv_test_theme\../../../lvgl/lv_objx/lv_roller.h **** };
  50:lv_examples\lv_tests\lv_test_theme\../../../lvgl/lv_objx/lv_roller.h **** typedef uint8_t lv_roller_style_t;
  51:lv_examples\lv_tests\lv_test_theme\../../../lvgl/lv_objx/lv_roller.h **** 
  52:lv_examples\lv_tests\lv_test_theme\../../../lvgl/lv_objx/lv_roller.h **** /**********************
  53:lv_examples\lv_tests\lv_test_theme\../../../lvgl/lv_objx/lv_roller.h ****  * GLOBAL PROTOTYPES
  54:lv_examples\lv_tests\lv_test_theme\../../../lvgl/lv_objx/lv_roller.h ****  **********************/
  55:lv_examples\lv_tests\lv_test_theme\../../../lvgl/lv_objx/lv_roller.h **** 
  56:lv_examples\lv_tests\lv_test_theme\../../../lvgl/lv_objx/lv_roller.h **** /**
  57:lv_examples\lv_tests\lv_test_theme\../../../lvgl/lv_objx/lv_roller.h ****  * Create a roller object
  58:lv_examples\lv_tests\lv_test_theme\../../../lvgl/lv_objx/lv_roller.h ****  * @param par pointer to an object, it will be the parent of the new roller
  59:lv_examples\lv_tests\lv_test_theme\../../../lvgl/lv_objx/lv_roller.h ****  * @param copy pointer to a roller object, if not NULL then the new object will be copied from it
  60:lv_examples\lv_tests\lv_test_theme\../../../lvgl/lv_objx/lv_roller.h ****  * @return pointer to the created roller
  61:lv_examples\lv_tests\lv_test_theme\../../../lvgl/lv_objx/lv_roller.h ****  */
  62:lv_examples\lv_tests\lv_test_theme\../../../lvgl/lv_objx/lv_roller.h **** lv_obj_t * lv_roller_create(lv_obj_t * par, const lv_obj_t * copy);
  63:lv_examples\lv_tests\lv_test_theme\../../../lvgl/lv_objx/lv_roller.h **** 
  64:lv_examples\lv_tests\lv_test_theme\../../../lvgl/lv_objx/lv_roller.h **** /*=====================
  65:lv_examples\lv_tests\lv_test_theme\../../../lvgl/lv_objx/lv_roller.h ****  * Setter functions
  66:lv_examples\lv_tests\lv_test_theme\../../../lvgl/lv_objx/lv_roller.h ****  *====================*/
  67:lv_examples\lv_tests\lv_test_theme\../../../lvgl/lv_objx/lv_roller.h **** 
  68:lv_examples\lv_tests\lv_test_theme\../../../lvgl/lv_objx/lv_roller.h **** /**
  69:lv_examples\lv_tests\lv_test_theme\../../../lvgl/lv_objx/lv_roller.h ****  * Set the align of the roller's options (left, right or center[default])
  70:lv_examples\lv_tests\lv_test_theme\../../../lvgl/lv_objx/lv_roller.h ****  * @param roller - pointer to a roller object
  71:lv_examples\lv_tests\lv_test_theme\../../../lvgl/lv_objx/lv_roller.h ****  * @param align - one of lv_label_align_t values (left, right, center)
  72:lv_examples\lv_tests\lv_test_theme\../../../lvgl/lv_objx/lv_roller.h ****  */
  73:lv_examples\lv_tests\lv_test_theme\../../../lvgl/lv_objx/lv_roller.h **** void lv_roller_set_align(lv_obj_t * roller, lv_label_align_t align);
  74:lv_examples\lv_tests\lv_test_theme\../../../lvgl/lv_objx/lv_roller.h **** 
  75:lv_examples\lv_tests\lv_test_theme\../../../lvgl/lv_objx/lv_roller.h **** /**
  76:lv_examples\lv_tests\lv_test_theme\../../../lvgl/lv_objx/lv_roller.h ****  * Set the options on a roller
  77:lv_examples\lv_tests\lv_test_theme\../../../lvgl/lv_objx/lv_roller.h ****  * @param roller pointer to roller object
  78:lv_examples\lv_tests\lv_test_theme\../../../lvgl/lv_objx/lv_roller.h ****  * @param options a string with '\n' separated options. E.g. "One\nTwo\nThree"
  79:lv_examples\lv_tests\lv_test_theme\../../../lvgl/lv_objx/lv_roller.h ****  */
  80:lv_examples\lv_tests\lv_test_theme\../../../lvgl/lv_objx/lv_roller.h **** static inline void lv_roller_set_options(lv_obj_t * roller, const char * options)
  81:lv_examples\lv_tests\lv_test_theme\../../../lvgl/lv_objx/lv_roller.h **** {
  82:lv_examples\lv_tests\lv_test_theme\../../../lvgl/lv_objx/lv_roller.h ****     lv_ddlist_set_options(roller, options);
 533              		.loc 6 82 0
 534 02da 2549     		ldr	r1, .L3+120
 535 02dc FFF7FEFF 		bl	lv_ddlist_set_options
 536              	.LVL108:
 537              	.LBE27:
 538              	.LBE26:
 181:lv_examples\lv_tests\lv_test_theme/lv_test_theme.c ****     lv_roller_set_options(roller, "Monday\nTuesday\nWednesday\nThursday\nFriday\nSaturday\nSunday")
 182:lv_examples\lv_tests\lv_test_theme/lv_test_theme.c ****     lv_roller_set_selected(roller, 1, false);
 539              		.loc 1 182 0
ARM GAS  C:\Users\Sava\AppData\Local\Temp\ccs9rGHG.s 			page 25


 540 02e0 0022     		movs	r2, #0
 541 02e2 0121     		movs	r1, #1
 542 02e4 2046     		mov	r0, r4
 543 02e6 FFF7FEFF 		bl	lv_roller_set_selected
 544              	.LVL109:
 183:lv_examples\lv_tests\lv_test_theme/lv_test_theme.c ****     lv_roller_set_visible_row_count(roller, 3);
 545              		.loc 1 183 0
 546 02ea 0321     		movs	r1, #3
 547 02ec 2046     		mov	r0, r4
 548 02ee FFF7FEFF 		bl	lv_roller_set_visible_row_count
 549              	.LVL110:
 550 02f2 BDE8F081 		pop	{r4, r5, r6, r7, r8, pc}
 551              	.LVL111:
 552              	.L4:
 553 02f6 00BF     		.align	2
 554              	.L3:
 555 02f8 00000000 		.word	.LANCHOR0
 556 02fc 00000000 		.word	.LC0
 557 0300 08000000 		.word	.LC1
 558 0304 10000000 		.word	.LC2
 559 0308 1C000000 		.word	.LC3
 560 030c 24000000 		.word	.LC4
 561 0310 30000000 		.word	.LC5
 562 0314 00000000 		.word	.LANCHOR1
 563 0318 00000000 		.word	.LANCHOR2
 564 031c 38000000 		.word	.LC6
 565 0320 44000000 		.word	.LC7
 566 0324 48000000 		.word	.LC8
 567 0328 4C000000 		.word	.LC9
 568 032c 54000000 		.word	.LC10
 569 0330 58000000 		.word	.LC11
 570 0334 60000000 		.word	.LC12
 571 0338 64000000 		.word	.LC13
 572 033c 6C000000 		.word	.LC14
 573 0340 70000000 		.word	.LC15
 574 0344 78000000 		.word	.LC16
 575 0348 7C000000 		.word	.LC17
 576 034c 84000000 		.word	.LC18
 577 0350 88000000 		.word	.LC19
 578 0354 90000000 		.word	.LC20
 579 0358 94000000 		.word	.LC21
 580 035c 9C000000 		.word	.LC22
 581 0360 A0000000 		.word	.LC23
 582 0364 A4000000 		.word	.LC24
 583 0368 A8000000 		.word	.LC25
 584 036c B0000000 		.word	.LC26
 585 0370 B4000000 		.word	.LC27
 586 0374 00000000 		.word	lv_style_transp
 587              		.cfi_endproc
 588              	.LFE108:
 589              		.size	create_tab1, .-create_tab1
 590              		.section	.text.create_tab2,"ax",%progbits
 591              		.align	2
 592              		.thumb
 593              		.thumb_func
 594              		.type	create_tab2, %function
 595              	create_tab2:
ARM GAS  C:\Users\Sava\AppData\Local\Temp\ccs9rGHG.s 			page 26


 596              	.LFB109:
 184:lv_examples\lv_tests\lv_test_theme/lv_test_theme.c **** }
 185:lv_examples\lv_tests\lv_test_theme/lv_test_theme.c **** 
 186:lv_examples\lv_tests\lv_test_theme/lv_test_theme.c **** static void create_tab2(lv_obj_t * parent)
 187:lv_examples\lv_tests\lv_test_theme/lv_test_theme.c **** {
 597              		.loc 1 187 0
 598              		.cfi_startproc
 599              		@ args = 0, pretend = 0, frame = 0
 600              		@ frame_needed = 0, uses_anonymous_args = 0
 601              	.LVL112:
 602 0000 2DE9F041 		push	{r4, r5, r6, r7, r8, lr}
 603              		.cfi_def_cfa_offset 24
 604              		.cfi_offset 4, -24
 605              		.cfi_offset 5, -20
 606              		.cfi_offset 6, -16
 607              		.cfi_offset 7, -12
 608              		.cfi_offset 8, -8
 609              		.cfi_offset 14, -4
 610 0004 82B0     		sub	sp, sp, #8
 611              		.cfi_def_cfa_offset 32
 612 0006 8046     		mov	r8, r0
 613              	.LVL113:
 614              	.LBB28:
 615              	.LBB29:
 218:lv_examples\lv_tests\lv_test_theme\../../../lvgl/lv_objx/lv_page.h **** }
 219:lv_examples\lv_tests\lv_test_theme\../../../lvgl/lv_objx/lv_page.h **** 
 220:lv_examples\lv_tests\lv_test_theme\../../../lvgl/lv_objx/lv_page.h **** /**
 221:lv_examples\lv_tests\lv_test_theme\../../../lvgl/lv_objx/lv_page.h ****  * Set a style of a page
 222:lv_examples\lv_tests\lv_test_theme\../../../lvgl/lv_objx/lv_page.h ****  * @param page pointer to a page object
 223:lv_examples\lv_tests\lv_test_theme\../../../lvgl/lv_objx/lv_page.h ****  * @param type which style should be set
 224:lv_examples\lv_tests\lv_test_theme\../../../lvgl/lv_objx/lv_page.h ****  * @param style pointer to a style
 225:lv_examples\lv_tests\lv_test_theme\../../../lvgl/lv_objx/lv_page.h ****  */
 226:lv_examples\lv_tests\lv_test_theme\../../../lvgl/lv_objx/lv_page.h **** void lv_page_set_style(lv_obj_t *page, lv_page_style_t type, lv_style_t *style);
 227:lv_examples\lv_tests\lv_test_theme\../../../lvgl/lv_objx/lv_page.h **** 
 228:lv_examples\lv_tests\lv_test_theme\../../../lvgl/lv_objx/lv_page.h **** /*=====================
 229:lv_examples\lv_tests\lv_test_theme\../../../lvgl/lv_objx/lv_page.h ****  * Getter functions
 230:lv_examples\lv_tests\lv_test_theme\../../../lvgl/lv_objx/lv_page.h ****  *====================*/
 231:lv_examples\lv_tests\lv_test_theme\../../../lvgl/lv_objx/lv_page.h **** 
 232:lv_examples\lv_tests\lv_test_theme\../../../lvgl/lv_objx/lv_page.h **** /**
 233:lv_examples\lv_tests\lv_test_theme\../../../lvgl/lv_objx/lv_page.h ****  * Set the scroll bar mode on a page
 234:lv_examples\lv_tests\lv_test_theme\../../../lvgl/lv_objx/lv_page.h ****  * @param page pointer to a page object
 235:lv_examples\lv_tests\lv_test_theme\../../../lvgl/lv_objx/lv_page.h ****  * @return the mode from 'lv_page_sb.mode_t' enum
 236:lv_examples\lv_tests\lv_test_theme\../../../lvgl/lv_objx/lv_page.h ****  */
 237:lv_examples\lv_tests\lv_test_theme\../../../lvgl/lv_objx/lv_page.h **** lv_sb_mode_t lv_page_get_sb_mode(const lv_obj_t * page);
 238:lv_examples\lv_tests\lv_test_theme\../../../lvgl/lv_objx/lv_page.h **** 
 239:lv_examples\lv_tests\lv_test_theme\../../../lvgl/lv_objx/lv_page.h **** 
 240:lv_examples\lv_tests\lv_test_theme\../../../lvgl/lv_objx/lv_page.h **** /**
 241:lv_examples\lv_tests\lv_test_theme\../../../lvgl/lv_objx/lv_page.h ****  * Get the the scrolling with arrows (LV_GROUP_KEY_LEFT/RIGHT/UP/DOWN) is enabled or not
 242:lv_examples\lv_tests\lv_test_theme\../../../lvgl/lv_objx/lv_page.h ****  * @param page pointer to a page object
 243:lv_examples\lv_tests\lv_test_theme\../../../lvgl/lv_objx/lv_page.h ****  * @return true: scrolling with arrows is enabled
 244:lv_examples\lv_tests\lv_test_theme\../../../lvgl/lv_objx/lv_page.h ****  */
 245:lv_examples\lv_tests\lv_test_theme\../../../lvgl/lv_objx/lv_page.h **** bool lv_page_get_arrow_scroll(const lv_obj_t * page);
 246:lv_examples\lv_tests\lv_test_theme\../../../lvgl/lv_objx/lv_page.h **** 
 247:lv_examples\lv_tests\lv_test_theme\../../../lvgl/lv_objx/lv_page.h **** /**
 248:lv_examples\lv_tests\lv_test_theme\../../../lvgl/lv_objx/lv_page.h ****  * Get the scroll propagation property
 249:lv_examples\lv_tests\lv_test_theme\../../../lvgl/lv_objx/lv_page.h ****  * @param page pointer to a Page
 250:lv_examples\lv_tests\lv_test_theme\../../../lvgl/lv_objx/lv_page.h ****  * @return true or false
ARM GAS  C:\Users\Sava\AppData\Local\Temp\ccs9rGHG.s 			page 27


 251:lv_examples\lv_tests\lv_test_theme\../../../lvgl/lv_objx/lv_page.h ****  */
 252:lv_examples\lv_tests\lv_test_theme\../../../lvgl/lv_objx/lv_page.h **** bool lv_page_get_scroll_propagation(lv_obj_t * page);
 253:lv_examples\lv_tests\lv_test_theme\../../../lvgl/lv_objx/lv_page.h **** 
 254:lv_examples\lv_tests\lv_test_theme\../../../lvgl/lv_objx/lv_page.h **** /**
 255:lv_examples\lv_tests\lv_test_theme\../../../lvgl/lv_objx/lv_page.h ****  * Get the edge flash effect property.
 256:lv_examples\lv_tests\lv_test_theme\../../../lvgl/lv_objx/lv_page.h ****  * @param page pointer to a Page
 257:lv_examples\lv_tests\lv_test_theme\../../../lvgl/lv_objx/lv_page.h ****  * return true or false
 258:lv_examples\lv_tests\lv_test_theme\../../../lvgl/lv_objx/lv_page.h ****  */
 259:lv_examples\lv_tests\lv_test_theme\../../../lvgl/lv_objx/lv_page.h **** bool lv_page_get_edge_flash(lv_obj_t * page);
 260:lv_examples\lv_tests\lv_test_theme\../../../lvgl/lv_objx/lv_page.h **** 
 261:lv_examples\lv_tests\lv_test_theme\../../../lvgl/lv_objx/lv_page.h **** /**
 262:lv_examples\lv_tests\lv_test_theme\../../../lvgl/lv_objx/lv_page.h ****  * Get that width which can be set to the children to still not cause overflow (show scrollbars)
 263:lv_examples\lv_tests\lv_test_theme\../../../lvgl/lv_objx/lv_page.h ****  * @param page pointer to a page object
 264:lv_examples\lv_tests\lv_test_theme\../../../lvgl/lv_objx/lv_page.h ****  * @return the width which still fits into the page
 265:lv_examples\lv_tests\lv_test_theme\../../../lvgl/lv_objx/lv_page.h ****  */
 266:lv_examples\lv_tests\lv_test_theme\../../../lvgl/lv_objx/lv_page.h **** lv_coord_t lv_page_get_fit_width(lv_obj_t * page);
 267:lv_examples\lv_tests\lv_test_theme\../../../lvgl/lv_objx/lv_page.h **** 
 268:lv_examples\lv_tests\lv_test_theme\../../../lvgl/lv_objx/lv_page.h **** /**
 269:lv_examples\lv_tests\lv_test_theme\../../../lvgl/lv_objx/lv_page.h ****  * Get that height which can be set to the children to still not cause overflow (show scrollbars)
 270:lv_examples\lv_tests\lv_test_theme\../../../lvgl/lv_objx/lv_page.h ****  * @param page pointer to a page object
 271:lv_examples\lv_tests\lv_test_theme\../../../lvgl/lv_objx/lv_page.h ****  * @return the height which still fits into the page
 272:lv_examples\lv_tests\lv_test_theme\../../../lvgl/lv_objx/lv_page.h ****  */
 273:lv_examples\lv_tests\lv_test_theme\../../../lvgl/lv_objx/lv_page.h **** lv_coord_t lv_page_get_fit_height(lv_obj_t * page);
 274:lv_examples\lv_tests\lv_test_theme\../../../lvgl/lv_objx/lv_page.h **** 
 275:lv_examples\lv_tests\lv_test_theme\../../../lvgl/lv_objx/lv_page.h **** /**
 276:lv_examples\lv_tests\lv_test_theme\../../../lvgl/lv_objx/lv_page.h ****  * Get width of the scrollable part of a page
 277:lv_examples\lv_tests\lv_test_theme\../../../lvgl/lv_objx/lv_page.h ****  * @param page pointer to a page object
 278:lv_examples\lv_tests\lv_test_theme\../../../lvgl/lv_objx/lv_page.h ****  * @return the width of the scrollable
 279:lv_examples\lv_tests\lv_test_theme\../../../lvgl/lv_objx/lv_page.h ****  */
 280:lv_examples\lv_tests\lv_test_theme\../../../lvgl/lv_objx/lv_page.h **** static inline lv_coord_t lv_page_get_scrl_width(const lv_obj_t *page)
 281:lv_examples\lv_tests\lv_test_theme\../../../lvgl/lv_objx/lv_page.h **** {
 282:lv_examples\lv_tests\lv_test_theme\../../../lvgl/lv_objx/lv_page.h ****     return lv_obj_get_width(lv_page_get_scrl(page));
 616              		.loc 2 282 0
 617 0008 FFF7FEFF 		bl	lv_page_get_scrl
 618              	.LVL114:
 619 000c FFF7FEFF 		bl	lv_obj_get_width
 620              	.LVL115:
 621 0010 0646     		mov	r6, r0
 622              	.LVL116:
 623              	.LBE29:
 624              	.LBE28:
 188:lv_examples\lv_tests\lv_test_theme/lv_test_theme.c ****     lv_coord_t w = lv_page_get_scrl_width(parent);
 189:lv_examples\lv_tests\lv_test_theme/lv_test_theme.c **** 
 190:lv_examples\lv_tests\lv_test_theme/lv_test_theme.c ****     lv_obj_t * chart = lv_chart_create(parent, NULL);
 625              		.loc 1 190 0
 626 0012 0021     		movs	r1, #0
 627 0014 4046     		mov	r0, r8
 628 0016 FFF7FEFF 		bl	lv_chart_create
 629              	.LVL117:
 630 001a 0446     		mov	r4, r0
 631              	.LVL118:
 191:lv_examples\lv_tests\lv_test_theme/lv_test_theme.c ****     lv_obj_set_size(chart, w / 3, LV_VER_RES / 3);
 632              		.loc 1 191 0
 633 001c 564F     		ldr	r7, .L8
 634 001e 87FB0637 		smull	r3, r7, r7, r6
 635 0022 A7EBE677 		sub	r7, r7, r6, asr #31
 636 0026 3FB2     		sxth	r7, r7
ARM GAS  C:\Users\Sava\AppData\Local\Temp\ccs9rGHG.s 			page 28


 637 0028 5022     		movs	r2, #80
 638 002a 3946     		mov	r1, r7
 639 002c FFF7FEFF 		bl	lv_obj_set_size
 640              	.LVL119:
 192:lv_examples\lv_tests\lv_test_theme/lv_test_theme.c ****     lv_obj_set_pos(chart, LV_DPI / 10, LV_DPI / 10);
 641              		.loc 1 192 0
 642 0030 0A22     		movs	r2, #10
 643 0032 1146     		mov	r1, r2
 644 0034 2046     		mov	r0, r4
 645 0036 FFF7FEFF 		bl	lv_obj_set_pos
 646              	.LVL120:
 193:lv_examples\lv_tests\lv_test_theme/lv_test_theme.c ****     lv_chart_series_t * s1 = lv_chart_add_series(chart, LV_COLOR_RED);
 647              		.loc 1 193 0
 648 003a 4FF60001 		movw	r1, 63488	@ movhi
 649 003e 2046     		mov	r0, r4
 650 0040 FFF7FEFF 		bl	lv_chart_add_series
 651              	.LVL121:
 652 0044 0546     		mov	r5, r0
 653              	.LVL122:
 194:lv_examples\lv_tests\lv_test_theme/lv_test_theme.c ****     lv_chart_set_next(chart, s1, 30);
 654              		.loc 1 194 0
 655 0046 1E22     		movs	r2, #30
 656 0048 0146     		mov	r1, r0
 657 004a 2046     		mov	r0, r4
 658              	.LVL123:
 659 004c FFF7FEFF 		bl	lv_chart_set_next
 660              	.LVL124:
 195:lv_examples\lv_tests\lv_test_theme/lv_test_theme.c ****     lv_chart_set_next(chart, s1, 20);
 661              		.loc 1 195 0
 662 0050 1422     		movs	r2, #20
 663 0052 2946     		mov	r1, r5
 664 0054 2046     		mov	r0, r4
 665 0056 FFF7FEFF 		bl	lv_chart_set_next
 666              	.LVL125:
 196:lv_examples\lv_tests\lv_test_theme/lv_test_theme.c ****     lv_chart_set_next(chart, s1, 10);
 667              		.loc 1 196 0
 668 005a 0A22     		movs	r2, #10
 669 005c 2946     		mov	r1, r5
 670 005e 2046     		mov	r0, r4
 671 0060 FFF7FEFF 		bl	lv_chart_set_next
 672              	.LVL126:
 197:lv_examples\lv_tests\lv_test_theme/lv_test_theme.c ****     lv_chart_set_next(chart, s1, 12);
 673              		.loc 1 197 0
 674 0064 0C22     		movs	r2, #12
 675 0066 2946     		mov	r1, r5
 676 0068 2046     		mov	r0, r4
 677 006a FFF7FEFF 		bl	lv_chart_set_next
 678              	.LVL127:
 198:lv_examples\lv_tests\lv_test_theme/lv_test_theme.c ****     lv_chart_set_next(chart, s1, 20);
 679              		.loc 1 198 0
 680 006e 1422     		movs	r2, #20
 681 0070 2946     		mov	r1, r5
 682 0072 2046     		mov	r0, r4
 683 0074 FFF7FEFF 		bl	lv_chart_set_next
 684              	.LVL128:
 199:lv_examples\lv_tests\lv_test_theme/lv_test_theme.c ****     lv_chart_set_next(chart, s1, 27);
 685              		.loc 1 199 0
ARM GAS  C:\Users\Sava\AppData\Local\Temp\ccs9rGHG.s 			page 29


 686 0078 1B22     		movs	r2, #27
 687 007a 2946     		mov	r1, r5
 688 007c 2046     		mov	r0, r4
 689 007e FFF7FEFF 		bl	lv_chart_set_next
 690              	.LVL129:
 200:lv_examples\lv_tests\lv_test_theme/lv_test_theme.c ****     lv_chart_set_next(chart, s1, 35);
 691              		.loc 1 200 0
 692 0082 2322     		movs	r2, #35
 693 0084 2946     		mov	r1, r5
 694 0086 2046     		mov	r0, r4
 695 0088 FFF7FEFF 		bl	lv_chart_set_next
 696              	.LVL130:
 201:lv_examples\lv_tests\lv_test_theme/lv_test_theme.c ****     lv_chart_set_next(chart, s1, 55);
 697              		.loc 1 201 0
 698 008c 3722     		movs	r2, #55
 699 008e 2946     		mov	r1, r5
 700 0090 2046     		mov	r0, r4
 701 0092 FFF7FEFF 		bl	lv_chart_set_next
 702              	.LVL131:
 202:lv_examples\lv_tests\lv_test_theme/lv_test_theme.c ****     lv_chart_set_next(chart, s1, 70);
 703              		.loc 1 202 0
 704 0096 4622     		movs	r2, #70
 705 0098 2946     		mov	r1, r5
 706 009a 2046     		mov	r0, r4
 707 009c FFF7FEFF 		bl	lv_chart_set_next
 708              	.LVL132:
 203:lv_examples\lv_tests\lv_test_theme/lv_test_theme.c ****     lv_chart_set_next(chart, s1, 75);
 709              		.loc 1 203 0
 710 00a0 4B22     		movs	r2, #75
 711 00a2 2946     		mov	r1, r5
 712 00a4 2046     		mov	r0, r4
 713 00a6 FFF7FEFF 		bl	lv_chart_set_next
 714              	.LVL133:
 204:lv_examples\lv_tests\lv_test_theme/lv_test_theme.c **** 
 205:lv_examples\lv_tests\lv_test_theme/lv_test_theme.c **** 
 206:lv_examples\lv_tests\lv_test_theme/lv_test_theme.c ****     lv_obj_t * gauge = lv_gauge_create(parent, NULL);
 715              		.loc 1 206 0
 716 00aa 0021     		movs	r1, #0
 717 00ac 4046     		mov	r0, r8
 718 00ae FFF7FEFF 		bl	lv_gauge_create
 719              	.LVL134:
 720 00b2 0546     		mov	r5, r0
 721              	.LVL135:
 207:lv_examples\lv_tests\lv_test_theme/lv_test_theme.c ****     lv_gauge_set_value(gauge, 0, 40);
 722              		.loc 1 207 0
 723 00b4 2822     		movs	r2, #40
 724 00b6 0021     		movs	r1, #0
 725 00b8 FFF7FEFF 		bl	lv_gauge_set_value
 726              	.LVL136:
 208:lv_examples\lv_tests\lv_test_theme/lv_test_theme.c ****     lv_obj_set_size(gauge, w / 4, w / 4);
 727              		.loc 1 208 0
 728 00bc 3146     		mov	r1, r6
 729 00be 002E     		cmp	r6, #0
 730 00c0 00DA     		bge	.L6
 731 00c2 F11C     		adds	r1, r6, #3
 732              	.L6:
 733 00c4 41F38F01 		sbfx	r1, r1, #2, #16
ARM GAS  C:\Users\Sava\AppData\Local\Temp\ccs9rGHG.s 			page 30


 734 00c8 0A46     		mov	r2, r1
 735 00ca 2846     		mov	r0, r5
 736 00cc FFF7FEFF 		bl	lv_obj_set_size
 737              	.LVL137:
 209:lv_examples\lv_tests\lv_test_theme/lv_test_theme.c ****     lv_obj_align(gauge, chart, LV_ALIGN_OUT_BOTTOM_LEFT, 0, LV_DPI / 4);
 738              		.loc 1 209 0
 739 00d0 1923     		movs	r3, #25
 740 00d2 0093     		str	r3, [sp]
 741 00d4 0023     		movs	r3, #0
 742 00d6 0C22     		movs	r2, #12
 743 00d8 2146     		mov	r1, r4
 744 00da 2846     		mov	r0, r5
 745 00dc FFF7FEFF 		bl	lv_obj_align
 746              	.LVL138:
 210:lv_examples\lv_tests\lv_test_theme/lv_test_theme.c **** 
 211:lv_examples\lv_tests\lv_test_theme/lv_test_theme.c **** 
 212:lv_examples\lv_tests\lv_test_theme/lv_test_theme.c ****     lv_obj_t * arc = lv_arc_create(parent, NULL);
 747              		.loc 1 212 0
 748 00e0 0021     		movs	r1, #0
 749 00e2 4046     		mov	r0, r8
 750 00e4 FFF7FEFF 		bl	lv_arc_create
 751              	.LVL139:
 213:lv_examples\lv_tests\lv_test_theme/lv_test_theme.c ****     lv_obj_align(arc, gauge, LV_ALIGN_OUT_BOTTOM_MID, 0, LV_DPI / 8);
 752              		.loc 1 213 0
 753 00e8 0C23     		movs	r3, #12
 754 00ea 0093     		str	r3, [sp]
 755 00ec 0023     		movs	r3, #0
 756 00ee 0D22     		movs	r2, #13
 757 00f0 2946     		mov	r1, r5
 758 00f2 FFF7FEFF 		bl	lv_obj_align
 759              	.LVL140:
 214:lv_examples\lv_tests\lv_test_theme/lv_test_theme.c **** 
 215:lv_examples\lv_tests\lv_test_theme/lv_test_theme.c ****     lv_obj_t * ta = lv_ta_create(parent, NULL);
 760              		.loc 1 215 0
 761 00f6 0021     		movs	r1, #0
 762 00f8 4046     		mov	r0, r8
 763 00fa FFF7FEFF 		bl	lv_ta_create
 764              	.LVL141:
 765 00fe 0446     		mov	r4, r0
 766              	.LVL142:
 216:lv_examples\lv_tests\lv_test_theme/lv_test_theme.c ****     lv_obj_set_size(ta, w / 3, LV_VER_RES / 4);
 767              		.loc 1 216 0
 768 0100 3C22     		movs	r2, #60
 769 0102 3946     		mov	r1, r7
 770 0104 FFF7FEFF 		bl	lv_obj_set_size
 771              	.LVL143:
 217:lv_examples\lv_tests\lv_test_theme/lv_test_theme.c ****     lv_obj_align(ta, NULL, LV_ALIGN_IN_TOP_RIGHT, -LV_DPI / 10, LV_DPI / 10);
 772              		.loc 1 217 0
 773 0108 0A23     		movs	r3, #10
 774 010a 0093     		str	r3, [sp]
 775 010c 6FF00903 		mvn	r3, #9
 776 0110 0322     		movs	r2, #3
 777 0112 0021     		movs	r1, #0
 778 0114 2046     		mov	r0, r4
 779 0116 FFF7FEFF 		bl	lv_obj_align
 780              	.LVL144:
 218:lv_examples\lv_tests\lv_test_theme/lv_test_theme.c ****     lv_ta_set_cursor_type(ta, LV_CURSOR_BLOCK);
ARM GAS  C:\Users\Sava\AppData\Local\Temp\ccs9rGHG.s 			page 31


 781              		.loc 1 218 0
 782 011a 0221     		movs	r1, #2
 783 011c 2046     		mov	r0, r4
 784 011e FFF7FEFF 		bl	lv_ta_set_cursor_type
 785              	.LVL145:
 219:lv_examples\lv_tests\lv_test_theme/lv_test_theme.c **** 
 220:lv_examples\lv_tests\lv_test_theme/lv_test_theme.c ****     lv_obj_t * kb = lv_kb_create(parent, NULL);
 786              		.loc 1 220 0
 787 0122 0021     		movs	r1, #0
 788 0124 4046     		mov	r0, r8
 789 0126 FFF7FEFF 		bl	lv_kb_create
 790              	.LVL146:
 791 012a 0546     		mov	r5, r0
 792              	.LVL147:
 221:lv_examples\lv_tests\lv_test_theme/lv_test_theme.c ****     lv_obj_set_size(kb, 2 * w / 3, LV_VER_RES / 3);
 793              		.loc 1 221 0
 794 012c 7600     		lsls	r6, r6, #1
 795 012e 1249     		ldr	r1, .L8
 796 0130 81FB0631 		smull	r3, r1, r1, r6
 797 0134 A1EBE671 		sub	r1, r1, r6, asr #31
 798 0138 5022     		movs	r2, #80
 799 013a 09B2     		sxth	r1, r1
 800 013c FFF7FEFF 		bl	lv_obj_set_size
 801              	.LVL148:
 222:lv_examples\lv_tests\lv_test_theme/lv_test_theme.c ****     lv_obj_align(kb, ta, LV_ALIGN_OUT_BOTTOM_RIGHT, 0, LV_DPI);
 802              		.loc 1 222 0
 803 0140 6423     		movs	r3, #100
 804 0142 0093     		str	r3, [sp]
 805 0144 0023     		movs	r3, #0
 806 0146 0E22     		movs	r2, #14
 807 0148 2146     		mov	r1, r4
 808 014a 2846     		mov	r0, r5
 809 014c FFF7FEFF 		bl	lv_obj_align
 810              	.LVL149:
 223:lv_examples\lv_tests\lv_test_theme/lv_test_theme.c ****     lv_kb_set_ta(kb, ta);
 811              		.loc 1 223 0
 812 0150 2146     		mov	r1, r4
 813 0152 2846     		mov	r0, r5
 814 0154 FFF7FEFF 		bl	lv_kb_set_ta
 815              	.LVL150:
 224:lv_examples\lv_tests\lv_test_theme/lv_test_theme.c **** 
 225:lv_examples\lv_tests\lv_test_theme/lv_test_theme.c **** 
 226:lv_examples\lv_tests\lv_test_theme/lv_test_theme.c ****     lv_obj_t * loader = lv_preload_create(parent, NULL);
 816              		.loc 1 226 0
 817 0158 0021     		movs	r1, #0
 818 015a 4046     		mov	r0, r8
 819 015c FFF7FEFF 		bl	lv_preload_create
 820              	.LVL151:
 227:lv_examples\lv_tests\lv_test_theme/lv_test_theme.c ****     lv_obj_align(loader, NULL, LV_ALIGN_CENTER, 0, - LV_DPI);
 821              		.loc 1 227 0
 822 0160 6FF06303 		mvn	r3, #99
 823 0164 0093     		str	r3, [sp]
 824 0166 0023     		movs	r3, #0
 825 0168 1A46     		mov	r2, r3
 826 016a 1946     		mov	r1, r3
 827 016c FFF7FEFF 		bl	lv_obj_align
 828              	.LVL152:
ARM GAS  C:\Users\Sava\AppData\Local\Temp\ccs9rGHG.s 			page 32


 228:lv_examples\lv_tests\lv_test_theme/lv_test_theme.c **** }
 829              		.loc 1 228 0
 830 0170 02B0     		add	sp, sp, #8
 831              		.cfi_def_cfa_offset 24
 832              		@ sp needed
 833 0172 BDE8F081 		pop	{r4, r5, r6, r7, r8, pc}
 834              	.LVL153:
 835              	.L9:
 836 0176 00BF     		.align	2
 837              	.L8:
 838 0178 56555555 		.word	1431655766
 839              		.cfi_endproc
 840              	.LFE109:
 841              		.size	create_tab2, .-create_tab2
 842              		.section	.text.create_tab3,"ax",%progbits
 843              		.align	2
 844              		.thumb
 845              		.thumb_func
 846              		.type	create_tab3, %function
 847              	create_tab3:
 848              	.LFB110:
 229:lv_examples\lv_tests\lv_test_theme/lv_test_theme.c **** 
 230:lv_examples\lv_tests\lv_test_theme/lv_test_theme.c **** 
 231:lv_examples\lv_tests\lv_test_theme/lv_test_theme.c **** static void create_tab3(lv_obj_t * parent)
 232:lv_examples\lv_tests\lv_test_theme/lv_test_theme.c **** {
 849              		.loc 1 232 0
 850              		.cfi_startproc
 851              		@ args = 0, pretend = 0, frame = 0
 852              		@ frame_needed = 0, uses_anonymous_args = 0
 853              	.LVL154:
 854 0000 2DE9F043 		push	{r4, r5, r6, r7, r8, r9, lr}
 855              		.cfi_def_cfa_offset 28
 856              		.cfi_offset 4, -28
 857              		.cfi_offset 5, -24
 858              		.cfi_offset 6, -20
 859              		.cfi_offset 7, -16
 860              		.cfi_offset 8, -12
 861              		.cfi_offset 9, -8
 862              		.cfi_offset 14, -4
 863 0004 83B0     		sub	sp, sp, #12
 864              		.cfi_def_cfa_offset 40
 865 0006 8046     		mov	r8, r0
 233:lv_examples\lv_tests\lv_test_theme/lv_test_theme.c ****     /*Create a Window*/
 234:lv_examples\lv_tests\lv_test_theme/lv_test_theme.c ****     lv_obj_t * win = lv_win_create(parent, NULL);
 866              		.loc 1 234 0
 867 0008 0021     		movs	r1, #0
 868 000a FFF7FEFF 		bl	lv_win_create
 869              	.LVL155:
 870 000e 0446     		mov	r4, r0
 871              	.LVL156:
 235:lv_examples\lv_tests\lv_test_theme/lv_test_theme.c ****     lv_win_add_btn(win, SYMBOL_CLOSE, lv_win_close_action);
 872              		.loc 1 235 0
 873 0010 5B4A     		ldr	r2, .L12
 874 0012 5C49     		ldr	r1, .L12+4
 875 0014 FFF7FEFF 		bl	lv_win_add_btn
 876              	.LVL157:
 236:lv_examples\lv_tests\lv_test_theme/lv_test_theme.c ****     lv_win_add_btn(win, SYMBOL_DOWN, NULL);
ARM GAS  C:\Users\Sava\AppData\Local\Temp\ccs9rGHG.s 			page 33


 877              		.loc 1 236 0
 878 0018 0022     		movs	r2, #0
 879 001a 5B49     		ldr	r1, .L12+8
 880 001c 2046     		mov	r0, r4
 881 001e FFF7FEFF 		bl	lv_win_add_btn
 882              	.LVL158:
 237:lv_examples\lv_tests\lv_test_theme/lv_test_theme.c ****     lv_obj_set_size(win, LV_HOR_RES / 2, LV_VER_RES / 2);
 883              		.loc 1 237 0
 884 0022 7822     		movs	r2, #120
 885 0024 A021     		movs	r1, #160
 886 0026 2046     		mov	r0, r4
 887 0028 FFF7FEFF 		bl	lv_obj_set_size
 888              	.LVL159:
 238:lv_examples\lv_tests\lv_test_theme/lv_test_theme.c ****     lv_obj_set_pos(win, LV_DPI / 20, LV_DPI / 20);
 889              		.loc 1 238 0
 890 002c 0522     		movs	r2, #5
 891 002e 1146     		mov	r1, r2
 892 0030 2046     		mov	r0, r4
 893 0032 FFF7FEFF 		bl	lv_obj_set_pos
 894              	.LVL160:
 239:lv_examples\lv_tests\lv_test_theme/lv_test_theme.c ****     lv_obj_set_top(win, true);
 895              		.loc 1 239 0
 896 0036 0121     		movs	r1, #1
 897 0038 2046     		mov	r0, r4
 898 003a FFF7FEFF 		bl	lv_obj_set_top
 899              	.LVL161:
 240:lv_examples\lv_tests\lv_test_theme/lv_test_theme.c **** 
 241:lv_examples\lv_tests\lv_test_theme/lv_test_theme.c **** 
 242:lv_examples\lv_tests\lv_test_theme/lv_test_theme.c ****     /*Create a Label in the Window*/
 243:lv_examples\lv_tests\lv_test_theme/lv_test_theme.c ****     lv_obj_t * label = lv_label_create(win, NULL);
 900              		.loc 1 243 0
 901 003e 0021     		movs	r1, #0
 902 0040 2046     		mov	r0, r4
 903 0042 FFF7FEFF 		bl	lv_label_create
 904              	.LVL162:
 905 0046 0546     		mov	r5, r0
 906              	.LVL163:
 244:lv_examples\lv_tests\lv_test_theme/lv_test_theme.c ****     lv_label_set_text(label, "Label in the window");
 907              		.loc 1 244 0
 908 0048 5049     		ldr	r1, .L12+12
 909 004a FFF7FEFF 		bl	lv_label_set_text
 910              	.LVL164:
 245:lv_examples\lv_tests\lv_test_theme/lv_test_theme.c **** 
 246:lv_examples\lv_tests\lv_test_theme/lv_test_theme.c ****     /*Create a  Line meter in the Window*/
 247:lv_examples\lv_tests\lv_test_theme/lv_test_theme.c ****     lv_obj_t * lmeter = lv_lmeter_create(win, NULL);
 911              		.loc 1 247 0
 912 004e 0021     		movs	r1, #0
 913 0050 2046     		mov	r0, r4
 914 0052 FFF7FEFF 		bl	lv_lmeter_create
 915              	.LVL165:
 916 0056 8146     		mov	r9, r0
 917              	.LVL166:
 248:lv_examples\lv_tests\lv_test_theme/lv_test_theme.c ****     lv_obj_align(lmeter, label, LV_ALIGN_OUT_BOTTOM_LEFT, 0, LV_DPI / 2);
 918              		.loc 1 248 0
 919 0058 3226     		movs	r6, #50
 920 005a 0096     		str	r6, [sp]
 921 005c 0023     		movs	r3, #0
ARM GAS  C:\Users\Sava\AppData\Local\Temp\ccs9rGHG.s 			page 34


 922 005e 0C22     		movs	r2, #12
 923 0060 2946     		mov	r1, r5
 924 0062 FFF7FEFF 		bl	lv_obj_align
 925              	.LVL167:
 249:lv_examples\lv_tests\lv_test_theme/lv_test_theme.c ****     lv_lmeter_set_value(lmeter, 70);
 926              		.loc 1 249 0
 927 0066 4621     		movs	r1, #70
 928 0068 4846     		mov	r0, r9
 929 006a FFF7FEFF 		bl	lv_lmeter_set_value
 930              	.LVL168:
 250:lv_examples\lv_tests\lv_test_theme/lv_test_theme.c **** 
 251:lv_examples\lv_tests\lv_test_theme/lv_test_theme.c ****     /*Create a 2 LEDs in the Window*/
 252:lv_examples\lv_tests\lv_test_theme/lv_test_theme.c ****     lv_obj_t * led1 = lv_led_create(win, NULL);
 931              		.loc 1 252 0
 932 006e 0021     		movs	r1, #0
 933 0070 2046     		mov	r0, r4
 934 0072 FFF7FEFF 		bl	lv_led_create
 935              	.LVL169:
 936 0076 0746     		mov	r7, r0
 937              	.LVL170:
 253:lv_examples\lv_tests\lv_test_theme/lv_test_theme.c ****     lv_obj_align(led1, lmeter, LV_ALIGN_OUT_RIGHT_MID, LV_DPI / 2, 0);
 938              		.loc 1 253 0
 939 0078 0025     		movs	r5, #0
 940              	.LVL171:
 941 007a 0095     		str	r5, [sp]
 942 007c 3346     		mov	r3, r6
 943 007e 1322     		movs	r2, #19
 944 0080 4946     		mov	r1, r9
 945 0082 FFF7FEFF 		bl	lv_obj_align
 946              	.LVL172:
 254:lv_examples\lv_tests\lv_test_theme/lv_test_theme.c ****     lv_led_on(led1);
 947              		.loc 1 254 0
 948 0086 3846     		mov	r0, r7
 949 0088 FFF7FEFF 		bl	lv_led_on
 950              	.LVL173:
 255:lv_examples\lv_tests\lv_test_theme/lv_test_theme.c **** 
 256:lv_examples\lv_tests\lv_test_theme/lv_test_theme.c ****     lv_obj_t * led2 = lv_led_create(win, NULL);
 951              		.loc 1 256 0
 952 008c 2946     		mov	r1, r5
 953 008e 2046     		mov	r0, r4
 954 0090 FFF7FEFF 		bl	lv_led_create
 955              	.LVL174:
 956 0094 8146     		mov	r9, r0
 957              	.LVL175:
 257:lv_examples\lv_tests\lv_test_theme/lv_test_theme.c ****     lv_obj_align(led2, led1, LV_ALIGN_OUT_RIGHT_MID, LV_DPI / 2, 0);
 958              		.loc 1 257 0
 959 0096 0095     		str	r5, [sp]
 960 0098 3346     		mov	r3, r6
 961 009a 1322     		movs	r2, #19
 962 009c 3946     		mov	r1, r7
 963 009e FFF7FEFF 		bl	lv_obj_align
 964              	.LVL176:
 258:lv_examples\lv_tests\lv_test_theme/lv_test_theme.c ****     lv_led_off(led2);
 965              		.loc 1 258 0
 966 00a2 4846     		mov	r0, r9
 967 00a4 FFF7FEFF 		bl	lv_led_off
 968              	.LVL177:
ARM GAS  C:\Users\Sava\AppData\Local\Temp\ccs9rGHG.s 			page 35


 259:lv_examples\lv_tests\lv_test_theme/lv_test_theme.c **** 
 260:lv_examples\lv_tests\lv_test_theme/lv_test_theme.c ****     /*Create a Page*/
 261:lv_examples\lv_tests\lv_test_theme/lv_test_theme.c ****     lv_obj_t * page = lv_page_create(parent, NULL);
 969              		.loc 1 261 0
 970 00a8 2946     		mov	r1, r5
 971 00aa 4046     		mov	r0, r8
 972 00ac FFF7FEFF 		bl	lv_page_create
 973              	.LVL178:
 974 00b0 0746     		mov	r7, r0
 975              	.LVL179:
 262:lv_examples\lv_tests\lv_test_theme/lv_test_theme.c ****     lv_obj_set_size(page, LV_HOR_RES / 3, LV_VER_RES / 2);
 976              		.loc 1 262 0
 977 00b2 7822     		movs	r2, #120
 978 00b4 6A21     		movs	r1, #106
 979 00b6 FFF7FEFF 		bl	lv_obj_set_size
 980              	.LVL180:
 263:lv_examples\lv_tests\lv_test_theme/lv_test_theme.c ****     lv_obj_set_top(page, true);
 981              		.loc 1 263 0
 982 00ba 0121     		movs	r1, #1
 983 00bc 3846     		mov	r0, r7
 984 00be FFF7FEFF 		bl	lv_obj_set_top
 985              	.LVL181:
 264:lv_examples\lv_tests\lv_test_theme/lv_test_theme.c ****     lv_obj_align(page, win, LV_ALIGN_IN_TOP_RIGHT,  LV_DPI, LV_DPI);
 986              		.loc 1 264 0
 987 00c2 6423     		movs	r3, #100
 988 00c4 0093     		str	r3, [sp]
 989 00c6 0322     		movs	r2, #3
 990 00c8 2146     		mov	r1, r4
 991 00ca 3846     		mov	r0, r7
 992 00cc FFF7FEFF 		bl	lv_obj_align
 993              	.LVL182:
 265:lv_examples\lv_tests\lv_test_theme/lv_test_theme.c **** 
 266:lv_examples\lv_tests\lv_test_theme/lv_test_theme.c ****     label = lv_label_create(page, NULL);
 994              		.loc 1 266 0
 995 00d0 2946     		mov	r1, r5
 996 00d2 3846     		mov	r0, r7
 997 00d4 FFF7FEFF 		bl	lv_label_create
 998              	.LVL183:
 267:lv_examples\lv_tests\lv_test_theme/lv_test_theme.c ****     lv_label_set_text(label, "Lorem ipsum dolor sit amet, repudiare voluptatibus pri cu.\n"
 999              		.loc 1 267 0
 1000 00d8 2D49     		ldr	r1, .L12+16
 1001 00da FFF7FEFF 		bl	lv_label_set_text
 1002              	.LVL184:
 1003              	.LBB30:
 1004              	.LBB31:
 186:lv_examples\lv_tests\lv_test_theme\../../../lvgl/lv_objx/lv_page.h **** }
 1005              		.loc 2 186 0
 1006 00de 3846     		mov	r0, r7
 1007 00e0 FFF7FEFF 		bl	lv_page_get_scrl
 1008              	.LVL185:
 1009 00e4 0122     		movs	r2, #1
 1010 00e6 1146     		mov	r1, r2
 1011 00e8 FFF7FEFF 		bl	lv_cont_set_fit
 1012              	.LVL186:
 1013              	.LBE31:
 1014              	.LBE30:
 268:lv_examples\lv_tests\lv_test_theme/lv_test_theme.c ****                       "Ei mundi pertinax posidonium eum, cum tempor maiorum at,\n"
ARM GAS  C:\Users\Sava\AppData\Local\Temp\ccs9rGHG.s 			page 36


 269:lv_examples\lv_tests\lv_test_theme/lv_test_theme.c ****                       "mea fuisset assentior ad. Usu cu suas civibus iudicabit.\n"
 270:lv_examples\lv_tests\lv_test_theme/lv_test_theme.c ****                       "Eum eu congue tempor facilisi. Tale hinc unum te vim.\n"
 271:lv_examples\lv_tests\lv_test_theme/lv_test_theme.c ****                       "Te cum populo animal eruditi, labitur inciderint at nec.\n\n"
 272:lv_examples\lv_tests\lv_test_theme/lv_test_theme.c ****                       "Eius corpora et quo. Everti voluptaria instructior est id,\n"
 273:lv_examples\lv_tests\lv_test_theme/lv_test_theme.c ****                       "vel in falli primis. Mea ei porro essent admodum,\n"
 274:lv_examples\lv_tests\lv_test_theme/lv_test_theme.c ****                       "his ei malis quodsi, te quis aeterno his.\n"
 275:lv_examples\lv_tests\lv_test_theme/lv_test_theme.c ****                       "Qui tritani recusabo reprehendunt ne,\n"
 276:lv_examples\lv_tests\lv_test_theme/lv_test_theme.c ****                       "per duis explicari at. Simul mediocritatem mei et.");
 277:lv_examples\lv_tests\lv_test_theme/lv_test_theme.c ****     lv_page_set_scrl_fit(page, true, true);
 278:lv_examples\lv_tests\lv_test_theme/lv_test_theme.c **** 
 279:lv_examples\lv_tests\lv_test_theme/lv_test_theme.c **** 
 280:lv_examples\lv_tests\lv_test_theme/lv_test_theme.c ****     /*Create a Calendar*/
 281:lv_examples\lv_tests\lv_test_theme/lv_test_theme.c ****     lv_obj_t * cal = lv_calendar_create(parent, NULL);
 1015              		.loc 1 281 0
 1016 00ec 2946     		mov	r1, r5
 1017 00ee 4046     		mov	r0, r8
 1018 00f0 FFF7FEFF 		bl	lv_calendar_create
 1019              	.LVL187:
 1020 00f4 0646     		mov	r6, r0
 1021              	.LVL188:
 282:lv_examples\lv_tests\lv_test_theme/lv_test_theme.c ****     lv_obj_set_size(cal, 5 * LV_DPI / 2, 5 * LV_DPI / 2);
 1022              		.loc 1 282 0
 1023 00f6 FA22     		movs	r2, #250
 1024 00f8 1146     		mov	r1, r2
 1025 00fa FFF7FEFF 		bl	lv_obj_set_size
 1026              	.LVL189:
 283:lv_examples\lv_tests\lv_test_theme/lv_test_theme.c ****     lv_obj_align(cal, page, LV_ALIGN_OUT_RIGHT_TOP, -LV_DPI / 2, LV_DPI / 3);
 1027              		.loc 1 283 0
 1028 00fe 2123     		movs	r3, #33
 1029 0100 0093     		str	r3, [sp]
 1030 0102 6FF03103 		mvn	r3, #49
 1031 0106 1222     		movs	r2, #18
 1032 0108 3946     		mov	r1, r7
 1033 010a 3046     		mov	r0, r6
 1034 010c FFF7FEFF 		bl	lv_obj_align
 1035              	.LVL190:
 284:lv_examples\lv_tests\lv_test_theme/lv_test_theme.c ****     lv_obj_set_top(cal, true);
 1036              		.loc 1 284 0
 1037 0110 0121     		movs	r1, #1
 1038 0112 3046     		mov	r0, r6
 1039 0114 FFF7FEFF 		bl	lv_obj_set_top
 1040              	.LVL191:
 285:lv_examples\lv_tests\lv_test_theme/lv_test_theme.c **** 
 286:lv_examples\lv_tests\lv_test_theme/lv_test_theme.c ****     static lv_calendar_date_t highlighted_days[2];
 287:lv_examples\lv_tests\lv_test_theme/lv_test_theme.c ****     highlighted_days[0].day = 5;
 1041              		.loc 1 287 0
 1042 0118 1E49     		ldr	r1, .L12+20
 1043 011a 0523     		movs	r3, #5
 1044 011c 81F83F30 		strb	r3, [r1, #63]
 288:lv_examples\lv_tests\lv_test_theme/lv_test_theme.c ****     highlighted_days[0].month = 5;
 1045              		.loc 1 288 0
 1046 0120 81F83E30 		strb	r3, [r1, #62]
 289:lv_examples\lv_tests\lv_test_theme/lv_test_theme.c ****     highlighted_days[0].year = 2018;
 1047              		.loc 1 289 0
 1048 0124 40F2E272 		movw	r2, #2018
 1049 0128 8A87     		strh	r2, [r1, #60]	@ movhi
 290:lv_examples\lv_tests\lv_test_theme/lv_test_theme.c **** 
ARM GAS  C:\Users\Sava\AppData\Local\Temp\ccs9rGHG.s 			page 37


 291:lv_examples\lv_tests\lv_test_theme/lv_test_theme.c ****     highlighted_days[1].day = 8;
 1050              		.loc 1 291 0
 1051 012a 0820     		movs	r0, #8
 1052 012c 81F84300 		strb	r0, [r1, #67]
 292:lv_examples\lv_tests\lv_test_theme/lv_test_theme.c ****     highlighted_days[1].month = 5;
 1053              		.loc 1 292 0
 1054 0130 81F84230 		strb	r3, [r1, #66]
 293:lv_examples\lv_tests\lv_test_theme/lv_test_theme.c ****     highlighted_days[1].year = 2018;
 1055              		.loc 1 293 0
 1056 0134 A1F84020 		strh	r2, [r1, #64]	@ movhi
 294:lv_examples\lv_tests\lv_test_theme/lv_test_theme.c **** 
 295:lv_examples\lv_tests\lv_test_theme/lv_test_theme.c ****     lv_calendar_set_highlighted_dates(cal, highlighted_days, 2);
 1057              		.loc 1 295 0
 1058 0138 01F13C04 		add	r4, r1, #60
 1059              	.LVL192:
 1060 013c 0222     		movs	r2, #2
 1061 013e 2146     		mov	r1, r4
 1062 0140 3046     		mov	r0, r6
 1063 0142 FFF7FEFF 		bl	lv_calendar_set_highlighted_dates
 1064              	.LVL193:
 296:lv_examples\lv_tests\lv_test_theme/lv_test_theme.c ****     lv_calendar_set_today_date(cal, &highlighted_days[0]);
 1065              		.loc 1 296 0
 1066 0146 2146     		mov	r1, r4
 1067 0148 3046     		mov	r0, r6
 1068 014a FFF7FEFF 		bl	lv_calendar_set_today_date
 1069              	.LVL194:
 297:lv_examples\lv_tests\lv_test_theme/lv_test_theme.c ****     lv_calendar_set_showed_date(cal, &highlighted_days[0]);
 1070              		.loc 1 297 0
 1071 014e 2146     		mov	r1, r4
 1072 0150 3046     		mov	r0, r6
 1073 0152 FFF7FEFF 		bl	lv_calendar_set_showed_date
 1074              	.LVL195:
 298:lv_examples\lv_tests\lv_test_theme/lv_test_theme.c **** 
 299:lv_examples\lv_tests\lv_test_theme/lv_test_theme.c ****     /*Create a Message box*/
 300:lv_examples\lv_tests\lv_test_theme/lv_test_theme.c ****     static const char * mbox_btn_map[] = {"\211", "\222Got it!", "\211", ""};
 301:lv_examples\lv_tests\lv_test_theme/lv_test_theme.c ****     lv_obj_t * mbox = lv_mbox_create(parent, NULL);
 1075              		.loc 1 301 0
 1076 0156 2946     		mov	r1, r5
 1077 0158 4046     		mov	r0, r8
 1078 015a FFF7FEFF 		bl	lv_mbox_create
 1079              	.LVL196:
 1080 015e 0446     		mov	r4, r0
 1081              	.LVL197:
 302:lv_examples\lv_tests\lv_test_theme/lv_test_theme.c ****     lv_mbox_set_text(mbox, "Click on the window or the page to bring it to the foreground");
 1082              		.loc 1 302 0
 1083 0160 0D49     		ldr	r1, .L12+24
 1084 0162 FFF7FEFF 		bl	lv_mbox_set_text
 1085              	.LVL198:
 303:lv_examples\lv_tests\lv_test_theme/lv_test_theme.c ****     lv_mbox_add_btns(mbox, mbox_btn_map, NULL);
 1086              		.loc 1 303 0
 1087 0166 2A46     		mov	r2, r5
 1088 0168 0C49     		ldr	r1, .L12+28
 1089 016a 2046     		mov	r0, r4
 1090 016c FFF7FEFF 		bl	lv_mbox_add_btns
 1091              	.LVL199:
 304:lv_examples\lv_tests\lv_test_theme/lv_test_theme.c ****     lv_obj_set_top(mbox, true);
 1092              		.loc 1 304 0
ARM GAS  C:\Users\Sava\AppData\Local\Temp\ccs9rGHG.s 			page 38


 1093 0170 0121     		movs	r1, #1
 1094 0172 2046     		mov	r0, r4
 1095 0174 FFF7FEFF 		bl	lv_obj_set_top
 1096              	.LVL200:
 305:lv_examples\lv_tests\lv_test_theme/lv_test_theme.c **** 
 306:lv_examples\lv_tests\lv_test_theme/lv_test_theme.c **** 
 307:lv_examples\lv_tests\lv_test_theme/lv_test_theme.c **** }
 1097              		.loc 1 307 0
 1098 0178 03B0     		add	sp, sp, #12
 1099              		.cfi_def_cfa_offset 28
 1100              		@ sp needed
 1101 017a BDE8F083 		pop	{r4, r5, r6, r7, r8, r9, pc}
 1102              	.LVL201:
 1103              	.L13:
 1104 017e 00BF     		.align	2
 1105              	.L12:
 1106 0180 00000000 		.word	lv_win_close_action
 1107 0184 F0000000 		.word	.LC28
 1108 0188 F4000000 		.word	.LC29
 1109 018c F8000000 		.word	.LC30
 1110 0190 0C010000 		.word	.LC31
 1111 0194 00000000 		.word	.LANCHOR0
 1112 0198 1C030000 		.word	.LC32
 1113 019c 18000000 		.word	.LANCHOR1+24
 1114              		.cfi_endproc
 1115              	.LFE110:
 1116              		.size	create_tab3, .-create_tab3
 1117              		.section	.text.lv_test_theme,"ax",%progbits
 1118              		.align	2
 1119              		.global	lv_test_theme
 1120              		.thumb
 1121              		.thumb_func
 1122              		.type	lv_test_theme, %function
 1123              	lv_test_theme:
 1124              	.LFB107:
  44:lv_examples\lv_tests\lv_test_theme/lv_test_theme.c ****     lv_theme_set_current(th);
 1125              		.loc 1 44 0
 1126              		.cfi_startproc
 1127              		@ args = 0, pretend = 0, frame = 0
 1128              		@ frame_needed = 0, uses_anonymous_args = 0
 1129              	.LVL202:
 1130 0000 70B5     		push	{r4, r5, r6, lr}
 1131              		.cfi_def_cfa_offset 16
 1132              		.cfi_offset 4, -16
 1133              		.cfi_offset 5, -12
 1134              		.cfi_offset 6, -8
 1135              		.cfi_offset 14, -4
  45:lv_examples\lv_tests\lv_test_theme/lv_test_theme.c ****     th = lv_theme_get_current();    /*If `LV_THEME_LIVE_UPDATE  1` `th` is not used directly so get
 1136              		.loc 1 45 0
 1137 0002 FFF7FEFF 		bl	lv_theme_set_current
 1138              	.LVL203:
  46:lv_examples\lv_tests\lv_test_theme/lv_test_theme.c ****     lv_obj_t * scr = lv_cont_create(NULL, NULL);
 1139              		.loc 1 46 0
 1140 0006 FFF7FEFF 		bl	lv_theme_get_current
 1141              	.LVL204:
 1142 000a 0546     		mov	r5, r0
 1143              	.LVL205:
ARM GAS  C:\Users\Sava\AppData\Local\Temp\ccs9rGHG.s 			page 39


  47:lv_examples\lv_tests\lv_test_theme/lv_test_theme.c ****     lv_scr_load(scr);
 1144              		.loc 1 47 0
 1145 000c 0021     		movs	r1, #0
 1146 000e 0846     		mov	r0, r1
 1147              	.LVL206:
 1148 0010 FFF7FEFF 		bl	lv_cont_create
 1149              	.LVL207:
 1150 0014 0446     		mov	r4, r0
 1151              	.LVL208:
  48:lv_examples\lv_tests\lv_test_theme/lv_test_theme.c ****     lv_cont_set_style(scr, th->bg);
 1152              		.loc 1 48 0
 1153 0016 FFF7FEFF 		bl	lv_scr_load
 1154              	.LVL209:
 1155              	.LBB32:
 1156              	.LBB33:
 1157              		.loc 4 100 0
 1158 001a 2968     		ldr	r1, [r5]
 1159 001c 2046     		mov	r0, r4
 1160 001e FFF7FEFF 		bl	lv_obj_set_style
 1161              	.LVL210:
 1162              	.LBE33:
 1163              	.LBE32:
  52:lv_examples\lv_tests\lv_test_theme/lv_test_theme.c ****     lv_obj_set_size(tv, LV_HOR_RES, LV_VER_RES);
 1164              		.loc 1 52 0
 1165 0022 0021     		movs	r1, #0
 1166 0024 2046     		mov	r0, r4
 1167 0026 FFF7FEFF 		bl	lv_tabview_create
 1168              	.LVL211:
 1169 002a 0446     		mov	r4, r0
 1170              	.LVL212:
  53:lv_examples\lv_tests\lv_test_theme/lv_test_theme.c ****     lv_obj_t * tab1 = lv_tabview_add_tab(tv, "Tab 1");
 1171              		.loc 1 53 0
 1172 002c F022     		movs	r2, #240
 1173 002e 4FF4A071 		mov	r1, #320
 1174 0032 FFF7FEFF 		bl	lv_obj_set_size
 1175              	.LVL213:
  54:lv_examples\lv_tests\lv_test_theme/lv_test_theme.c ****     lv_obj_t * tab2 = lv_tabview_add_tab(tv, "Tab 2");
 1176              		.loc 1 54 0
 1177 0036 0C49     		ldr	r1, .L16
 1178 0038 2046     		mov	r0, r4
 1179 003a FFF7FEFF 		bl	lv_tabview_add_tab
 1180              	.LVL214:
 1181 003e 0646     		mov	r6, r0
 1182              	.LVL215:
  55:lv_examples\lv_tests\lv_test_theme/lv_test_theme.c ****     lv_obj_t * tab3 = lv_tabview_add_tab(tv, "Tab 3");
 1183              		.loc 1 55 0
 1184 0040 0A49     		ldr	r1, .L16+4
 1185 0042 2046     		mov	r0, r4
 1186              	.LVL216:
 1187 0044 FFF7FEFF 		bl	lv_tabview_add_tab
 1188              	.LVL217:
 1189 0048 0546     		mov	r5, r0
 1190              	.LVL218:
  56:lv_examples\lv_tests\lv_test_theme/lv_test_theme.c **** 
 1191              		.loc 1 56 0
 1192 004a 0949     		ldr	r1, .L16+8
 1193 004c 2046     		mov	r0, r4
ARM GAS  C:\Users\Sava\AppData\Local\Temp\ccs9rGHG.s 			page 40


 1194              	.LVL219:
 1195 004e FFF7FEFF 		bl	lv_tabview_add_tab
 1196              	.LVL220:
 1197 0052 0446     		mov	r4, r0
 1198              	.LVL221:
  58:lv_examples\lv_tests\lv_test_theme/lv_test_theme.c ****     create_tab2(tab2);
 1199              		.loc 1 58 0
 1200 0054 3046     		mov	r0, r6
 1201              	.LVL222:
 1202 0056 FFF7FEFF 		bl	create_tab1
 1203              	.LVL223:
  59:lv_examples\lv_tests\lv_test_theme/lv_test_theme.c ****     create_tab3(tab3);
 1204              		.loc 1 59 0
 1205 005a 2846     		mov	r0, r5
 1206 005c FFF7FEFF 		bl	create_tab2
 1207              	.LVL224:
  60:lv_examples\lv_tests\lv_test_theme/lv_test_theme.c **** }
 1208              		.loc 1 60 0
 1209 0060 2046     		mov	r0, r4
 1210 0062 FFF7FEFF 		bl	create_tab3
 1211              	.LVL225:
 1212 0066 70BD     		pop	{r4, r5, r6, pc}
 1213              	.LVL226:
 1214              	.L17:
 1215              		.align	2
 1216              	.L16:
 1217 0068 5C030000 		.word	.LC33
 1218 006c 64030000 		.word	.LC34
 1219 0070 6C030000 		.word	.LC35
 1220              		.cfi_endproc
 1221              	.LFE107:
 1222              		.size	lv_test_theme, .-lv_test_theme
 1223              		.section	.rodata
 1224              		.align	2
 1225              		.set	.LANCHOR2,. + 0
 1226              		.type	line_p.8337, %object
 1227              		.size	line_p.8337, 8
 1228              	line_p.8337:
 1229 0000 0000     		.short	0
 1230 0002 0000     		.short	0
 1231 0004 4000     		.short	64
 1232 0006 0000     		.short	0
 1233              		.data
 1234              		.align	2
 1235              		.set	.LANCHOR1,. + 0
 1236              		.type	btnm_str.8330, %object
 1237              		.size	btnm_str.8330, 24
 1238              	btnm_str.8330:
 1239 0000 88030000 		.word	.LC39
 1240 0004 8C030000 		.word	.LC40
 1241 0008 90030000 		.word	.LC41
 1242 000c 94030000 		.word	.LC42
 1243 0010 F0000000 		.word	.LC28
 1244 0014 84030000 		.word	.LC38
 1245              		.type	mbox_btn_map.8367, %object
 1246              		.size	mbox_btn_map.8367, 16
 1247              	mbox_btn_map.8367:
ARM GAS  C:\Users\Sava\AppData\Local\Temp\ccs9rGHG.s 			page 41


 1248 0018 74030000 		.word	.LC36
 1249 001c 78030000 		.word	.LC37
 1250 0020 74030000 		.word	.LC36
 1251 0024 84030000 		.word	.LC38
 1252              		.section	.rodata.str1.4,"aMS",%progbits,1
 1253              		.align	2
 1254              	.LC0:
 1255 0000 42757474 		.ascii	"Button\000"
 1255      6F6E00
 1256 0007 00       		.space	1
 1257              	.LC1:
 1258 0008 546F6767 		.ascii	"Toggled\000"
 1258      6C656400 
 1259              	.LC2:
 1260 0010 496E6163 		.ascii	"Inactive\000"
 1260      74697665 
 1260      00
 1261 0019 000000   		.space	3
 1262              	.LC3:
 1263 001c 5072696D 		.ascii	"Primary\000"
 1263      61727900 
 1264              	.LC4:
 1265 0024 5365636F 		.ascii	"Secondary\000"
 1265      6E646172 
 1265      7900
 1266 002e 0000     		.space	2
 1267              	.LC5:
 1268 0030 48696E74 		.ascii	"Hint\000"
 1268      00
 1269 0035 000000   		.space	3
 1270              	.LC6:
 1271 0038 536F6D65 		.ascii	"Some text\000"
 1271      20746578 
 1271      7400
 1272 0042 0000     		.space	2
 1273              	.LC7:
 1274 0044 47505300 		.ascii	"GPS\000"
 1275              	.LC8:
 1276 0048 EFA0A900 		.ascii	"\357\240\251\000"
 1277              	.LC9:
 1278 004c 57694669 		.ascii	"WiFi\000"
 1278      00
 1279 0051 000000   		.space	3
 1280              	.LC10:
 1281 0054 EFA0AB00 		.ascii	"\357\240\253\000"
 1282              	.LC11:
 1283 0058 41756469 		.ascii	"Audio\000"
 1283      6F00
 1284 005e 0000     		.space	2
 1285              	.LC12:
 1286 0060 EFA08000 		.ascii	"\357\240\200\000"
 1287              	.LC13:
 1288 0064 56696465 		.ascii	"Video\000"
 1288      6F00
 1289 006a 0000     		.space	2
 1290              	.LC14:
 1291 006c EFA08100 		.ascii	"\357\240\201\000"
ARM GAS  C:\Users\Sava\AppData\Local\Temp\ccs9rGHG.s 			page 42


 1292              	.LC15:
 1293 0070 43616C6C 		.ascii	"Call\000"
 1293      00
 1294 0075 000000   		.space	3
 1295              	.LC16:
 1296 0078 EFA0A200 		.ascii	"\357\240\242\000"
 1297              	.LC17:
 1298 007c 42656C6C 		.ascii	"Bell\000"
 1298      00
 1299 0081 000000   		.space	3
 1300              	.LC18:
 1301 0084 EFA0A700 		.ascii	"\357\240\247\000"
 1302              	.LC19:
 1303 0088 46696C65 		.ascii	"File\000"
 1303      00
 1304 008d 000000   		.space	3
 1305              	.LC20:
 1306 0090 EFA0AA00 		.ascii	"\357\240\252\000"
 1307              	.LC21:
 1308 0094 45646974 		.ascii	"Edit\000"
 1308      00
 1309 0099 000000   		.space	3
 1310              	.LC22:
 1311 009c EFA09000 		.ascii	"\357\240\220\000"
 1312              	.LC23:
 1313 00a0 43757400 		.ascii	"Cut\000"
 1314              	.LC24:
 1315 00a4 EFA0A300 		.ascii	"\357\240\243\000"
 1316              	.LC25:
 1317 00a8 436F7079 		.ascii	"Copy\000"
 1317      00
 1318 00ad 000000   		.space	3
 1319              	.LC26:
 1320 00b0 EFA0A400 		.ascii	"\357\240\244\000"
 1321              	.LC27:
 1322 00b4 4D6F6E64 		.ascii	"Monday\012Tuesday\012Wednesday\012Thursday\012Frida"
 1322      61790A54 
 1322      75657364 
 1322      61790A57 
 1322      65646E65 
 1323 00db 790A5361 		.ascii	"y\012Saturday\012Sunday\000"
 1323      74757264 
 1323      61790A53 
 1323      756E6461 
 1323      7900
 1324 00ed 000000   		.space	3
 1325              	.LC28:
 1326 00f0 EFA08400 		.ascii	"\357\240\204\000"
 1327              	.LC29:
 1328 00f4 EFA09E00 		.ascii	"\357\240\236\000"
 1329              	.LC30:
 1330 00f8 4C616265 		.ascii	"Label in the window\000"
 1330      6C20696E 
 1330      20746865 
 1330      2077696E 
 1330      646F7700 
 1331              	.LC31:
ARM GAS  C:\Users\Sava\AppData\Local\Temp\ccs9rGHG.s 			page 43


 1332 010c 4C6F7265 		.ascii	"Lorem ipsum dolor sit amet, repudiare voluptatibus "
 1332      6D206970 
 1332      73756D20 
 1332      646F6C6F 
 1332      72207369 
 1333 013f 70726920 		.ascii	"pri cu.\012Ei mundi pertinax posidonium eum, cum te"
 1333      63752E0A 
 1333      4569206D 
 1333      756E6469 
 1333      20706572 
 1334 016f 6D706F72 		.ascii	"mpor maiorum at,\012mea fuisset assentior ad. Usu c"
 1334      206D6169 
 1334      6F72756D 
 1334      2061742C 
 1334      0A6D6561 
 1335 019f 75207375 		.ascii	"u suas civibus iudicabit.\012Eum eu congue tempor f"
 1335      61732063 
 1335      69766962 
 1335      75732069 
 1335      75646963 
 1336 01cf 6163696C 		.ascii	"acilisi. Tale hinc unum te vim.\012Te cum populo an"
 1336      6973692E 
 1336      2054616C 
 1336      65206869 
 1336      6E632075 
 1337 01ff 696D616C 		.ascii	"imal eruditi, labitur inciderint at nec.\012\012Eiu"
 1337      20657275 
 1337      64697469 
 1337      2C206C61 
 1337      62697475 
 1338 022c 7320636F 		.ascii	"s corpora et quo. Everti voluptaria instructior est"
 1338      72706F72 
 1338      61206574 
 1338      2071756F 
 1338      2E204576 
 1339 025f 2069642C 		.ascii	" id,\012vel in falli primis. Mea ei porro essent ad"
 1339      0A76656C 
 1339      20696E20 
 1339      66616C6C 
 1339      69207072 
 1340 028f 6D6F6475 		.ascii	"modum,\012his ei malis quodsi, te quis aeterno his."
 1340      6D2C0A68 
 1340      69732065 
 1340      69206D61 
 1340      6C697320 
 1341 02bf 0A517569 		.ascii	"\012Qui tritani recusabo reprehendunt ne,\012per du"
 1341      20747269 
 1341      74616E69 
 1341      20726563 
 1341      75736162 
 1342 02ec 69732065 		.ascii	"is explicari at. Simul mediocritatem mei et.\000"
 1342      78706C69 
 1342      63617269 
 1342      2061742E 
 1342      2053696D 
 1343 0319 000000   		.space	3
 1344              	.LC32:
ARM GAS  C:\Users\Sava\AppData\Local\Temp\ccs9rGHG.s 			page 44


 1345 031c 436C6963 		.ascii	"Click on the window or the page to bring it to the "
 1345      6B206F6E 
 1345      20746865 
 1345      2077696E 
 1345      646F7720 
 1346 034f 666F7265 		.ascii	"foreground\000"
 1346      67726F75 
 1346      6E6400
 1347 035a 0000     		.space	2
 1348              	.LC33:
 1349 035c 54616220 		.ascii	"Tab 1\000"
 1349      3100
 1350 0362 0000     		.space	2
 1351              	.LC34:
 1352 0364 54616220 		.ascii	"Tab 2\000"
 1352      3200
 1353 036a 0000     		.space	2
 1354              	.LC35:
 1355 036c 54616220 		.ascii	"Tab 3\000"
 1355      3300
 1356 0372 0000     		.space	2
 1357              	.LC36:
 1358 0374 8900     		.ascii	"\211\000"
 1359 0376 0000     		.space	2
 1360              	.LC37:
 1361 0378 92476F74 		.ascii	"\222Got it!\000"
 1361      20697421 
 1361      00
 1362 0381 000000   		.space	3
 1363              	.LC38:
 1364 0384 00       		.ascii	"\000"
 1365 0385 000000   		.space	3
 1366              	.LC39:
 1367 0388 3100     		.ascii	"1\000"
 1368 038a 0000     		.space	2
 1369              	.LC40:
 1370 038c 3200     		.ascii	"2\000"
 1371 038e 0000     		.space	2
 1372              	.LC41:
 1373 0390 3300     		.ascii	"3\000"
 1374 0392 0000     		.space	2
 1375              	.LC42:
 1376 0394 EFA08300 		.ascii	"\357\240\203\000"
 1377              		.bss
 1378              		.align	2
 1379              		.set	.LANCHOR0,. + 0
 1380              		.type	h_style.8325, %object
 1381              		.size	h_style.8325, 60
 1382              	h_style.8325:
 1383 0000 00000000 		.space	60
 1383      00000000 
 1383      00000000 
 1383      00000000 
 1383      00000000 
 1384              		.type	highlighted_days.8366, %object
 1385              		.size	highlighted_days.8366, 8
 1386              	highlighted_days.8366:
ARM GAS  C:\Users\Sava\AppData\Local\Temp\ccs9rGHG.s 			page 45


 1387 003c 00000000 		.space	8
 1387      00000000 
 1388              		.text
 1389              	.Letext0:
 1390              		.file 7 "c:\\program files (x86)\\cypress\\psoc creator\\4.2\\psoc creator\\import\\gnu\\arm\\5.4.
 1391              		.file 8 "c:\\program files (x86)\\cypress\\psoc creator\\4.2\\psoc creator\\import\\gnu\\arm\\5.4.
 1392              		.file 9 "lv_examples\\lv_tests\\lv_test_theme\\../../../lvgl/lv_misc/lv_ll.h"
 1393              		.file 10 "lv_examples\\lv_tests\\lv_test_theme\\../../../lvgl/lv_hal/../lv_misc/lv_color.h"
 1394              		.file 11 "lv_examples\\lv_tests\\lv_test_theme\\../../../lvgl/lv_hal/../lv_misc/lv_area.h"
 1395              		.file 12 "lv_examples\\lv_tests\\lv_test_theme\\../../../lvgl/lv_hal/../lv_core/../lv_misc/lv_font
 1396              		.file 13 "lv_examples\\lv_tests\\lv_test_theme\\../../../lvgl/lv_hal/../lv_core/lv_style.h"
 1397              		.file 14 "lv_examples\\lv_tests\\lv_test_theme\\../../../lvgl/lv_hal/../lv_core/lv_obj.h"
 1398              		.file 15 "lv_examples\\lv_tests\\lv_test_theme\\../../../lvgl/lv_themes/lv_theme.h"
 1399              		.file 16 "lv_examples\\lv_tests\\lv_test_theme\\../../../lvgl/lv_objx/lv_chart.h"
 1400              		.file 17 "lv_examples\\lv_tests\\lv_test_theme\\../../../lvgl/lv_objx/lv_ta.h"
 1401              		.file 18 "lv_examples\\lv_tests\\lv_test_theme\\../../../lvgl/lv_objx/lv_calendar.h"
 1402              		.file 19 "lv_examples\\lv_tests\\lv_test_theme\\../../../lvgl/lv_objx/lv_ddlist.h"
 1403              		.file 20 "lv_examples\\lv_tests\\lv_test_theme\\../../../lvgl/lv_objx/lv_label.h"
 1404              		.file 21 "lv_examples\\lv_tests\\lv_test_theme\\../../../lvgl/lv_objx/lv_btnm.h"
 1405              		.file 22 "lv_examples\\lv_tests\\lv_test_theme\\../../../lvgl/lv_objx/lv_sw.h"
 1406              		.file 23 "lv_examples\\lv_tests\\lv_test_theme\\../../../lvgl/lv_objx/lv_bar.h"
 1407              		.file 24 "lv_examples\\lv_tests\\lv_test_theme\\../../../lvgl/lv_objx/lv_slider.h"
 1408              		.file 25 "lv_examples\\lv_tests\\lv_test_theme\\../../../lvgl/lv_objx/lv_cb.h"
 1409              		.file 26 "lv_examples\\lv_tests\\lv_test_theme\\../../../lvgl/lv_objx/lv_list.h"
 1410              		.file 27 "lv_examples\\lv_tests\\lv_test_theme\\../../../lvgl/lv_objx/lv_gauge.h"
 1411              		.file 28 "lv_examples\\lv_tests\\lv_test_theme\\../../../lvgl/lv_objx/lv_arc.h"
 1412              		.file 29 "lv_examples\\lv_tests\\lv_test_theme\\../../../lvgl/lv_objx/lv_kb.h"
 1413              		.file 30 "lv_examples\\lv_tests\\lv_test_theme\\../../../lvgl/lv_objx/lv_preload.h"
 1414              		.file 31 "lv_examples\\lv_tests\\lv_test_theme\\../../../lvgl/lv_objx/lv_win.h"
 1415              		.file 32 "lv_examples\\lv_tests\\lv_test_theme\\../../../lvgl/lv_objx/lv_lmeter.h"
 1416              		.file 33 "lv_examples\\lv_tests\\lv_test_theme\\../../../lvgl/lv_objx/lv_led.h"
 1417              		.file 34 "lv_examples\\lv_tests\\lv_test_theme\\../../../lvgl/lv_objx/lv_mbox.h"
 1418              		.file 35 "lv_examples\\lv_tests\\lv_test_theme\\../../../lvgl/lv_objx/lv_tabview.h"
 1419              		.section	.debug_info,"",%progbits
 1420              	.Ldebug_info0:
 1421 0000 FB2B0000 		.4byte	0x2bfb
 1422 0004 0400     		.2byte	0x4
 1423 0006 00000000 		.4byte	.Ldebug_abbrev0
 1424 000a 04       		.byte	0x4
 1425 000b 01       		.uleb128 0x1
 1426 000c E9060000 		.4byte	.LASF312
 1427 0010 0C       		.byte	0xc
 1428 0011 D20F0000 		.4byte	.LASF313
 1429 0015 AB010000 		.4byte	.LASF314
 1430 0019 00000000 		.4byte	.Ldebug_ranges0+0
 1431 001d 00000000 		.4byte	0
 1432 0021 00000000 		.4byte	.Ldebug_line0
 1433 0025 02       		.uleb128 0x2
 1434 0026 08       		.byte	0x8
 1435 0027 07       		.byte	0x7
 1436 0028 B30B0000 		.4byte	.LASF0
 1437 002c 02       		.uleb128 0x2
 1438 002d 04       		.byte	0x4
 1439 002e 07       		.byte	0x7
 1440 002f 9A090000 		.4byte	.LASF1
 1441 0033 03       		.uleb128 0x3
 1442 0034 04       		.byte	0x4
ARM GAS  C:\Users\Sava\AppData\Local\Temp\ccs9rGHG.s 			page 46


 1443 0035 05       		.byte	0x5
 1444 0036 696E7400 		.ascii	"int\000"
 1445 003a 04       		.uleb128 0x4
 1446 003b 700B0000 		.4byte	.LASF3
 1447 003f 07       		.byte	0x7
 1448 0040 1B       		.byte	0x1b
 1449 0041 45000000 		.4byte	0x45
 1450 0045 02       		.uleb128 0x2
 1451 0046 01       		.byte	0x1
 1452 0047 06       		.byte	0x6
 1453 0048 41030000 		.4byte	.LASF2
 1454 004c 04       		.uleb128 0x4
 1455 004d A1010000 		.4byte	.LASF4
 1456 0051 07       		.byte	0x7
 1457 0052 1D       		.byte	0x1d
 1458 0053 57000000 		.4byte	0x57
 1459 0057 02       		.uleb128 0x2
 1460 0058 01       		.byte	0x1
 1461 0059 08       		.byte	0x8
 1462 005a 91030000 		.4byte	.LASF5
 1463 005e 04       		.uleb128 0x4
 1464 005f 9F0C0000 		.4byte	.LASF6
 1465 0063 07       		.byte	0x7
 1466 0064 29       		.byte	0x29
 1467 0065 69000000 		.4byte	0x69
 1468 0069 02       		.uleb128 0x2
 1469 006a 02       		.byte	0x2
 1470 006b 05       		.byte	0x5
 1471 006c BB0D0000 		.4byte	.LASF7
 1472 0070 04       		.uleb128 0x4
 1473 0071 4E040000 		.4byte	.LASF8
 1474 0075 07       		.byte	0x7
 1475 0076 2B       		.byte	0x2b
 1476 0077 7B000000 		.4byte	0x7b
 1477 007b 02       		.uleb128 0x2
 1478 007c 02       		.byte	0x2
 1479 007d 07       		.byte	0x7
 1480 007e 9C0F0000 		.4byte	.LASF9
 1481 0082 02       		.uleb128 0x2
 1482 0083 04       		.byte	0x4
 1483 0084 05       		.byte	0x5
 1484 0085 34020000 		.4byte	.LASF10
 1485 0089 04       		.uleb128 0x4
 1486 008a 8B080000 		.4byte	.LASF11
 1487 008e 07       		.byte	0x7
 1488 008f 41       		.byte	0x41
 1489 0090 94000000 		.4byte	0x94
 1490 0094 02       		.uleb128 0x2
 1491 0095 04       		.byte	0x4
 1492 0096 07       		.byte	0x7
 1493 0097 C0060000 		.4byte	.LASF12
 1494 009b 02       		.uleb128 0x2
 1495 009c 08       		.byte	0x8
 1496 009d 05       		.byte	0x5
 1497 009e 9E080000 		.4byte	.LASF13
 1498 00a2 04       		.uleb128 0x4
 1499 00a3 00000000 		.4byte	.LASF14
ARM GAS  C:\Users\Sava\AppData\Local\Temp\ccs9rGHG.s 			page 47


 1500 00a7 08       		.byte	0x8
 1501 00a8 14       		.byte	0x14
 1502 00a9 3A000000 		.4byte	0x3a
 1503 00ad 04       		.uleb128 0x4
 1504 00ae 4D030000 		.4byte	.LASF15
 1505 00b2 08       		.byte	0x8
 1506 00b3 18       		.byte	0x18
 1507 00b4 4C000000 		.4byte	0x4c
 1508 00b8 04       		.uleb128 0x4
 1509 00b9 130E0000 		.4byte	.LASF16
 1510 00bd 08       		.byte	0x8
 1511 00be 20       		.byte	0x20
 1512 00bf 5E000000 		.4byte	0x5e
 1513 00c3 04       		.uleb128 0x4
 1514 00c4 0B0C0000 		.4byte	.LASF17
 1515 00c8 08       		.byte	0x8
 1516 00c9 24       		.byte	0x24
 1517 00ca 70000000 		.4byte	0x70
 1518 00ce 04       		.uleb128 0x4
 1519 00cf 300F0000 		.4byte	.LASF18
 1520 00d3 08       		.byte	0x8
 1521 00d4 30       		.byte	0x30
 1522 00d5 89000000 		.4byte	0x89
 1523 00d9 02       		.uleb128 0x2
 1524 00da 08       		.byte	0x8
 1525 00db 04       		.byte	0x4
 1526 00dc D90A0000 		.4byte	.LASF19
 1527 00e0 04       		.uleb128 0x4
 1528 00e1 07000000 		.4byte	.LASF20
 1529 00e5 09       		.byte	0x9
 1530 00e6 1E       		.byte	0x1e
 1531 00e7 AD000000 		.4byte	0xad
 1532 00eb 05       		.uleb128 0x5
 1533 00ec 0C       		.byte	0xc
 1534 00ed 09       		.byte	0x9
 1535 00ee 21       		.byte	0x21
 1536 00ef 18010000 		.4byte	0x118
 1537 00f3 06       		.uleb128 0x6
 1538 00f4 98100000 		.4byte	.LASF21
 1539 00f8 09       		.byte	0x9
 1540 00f9 23       		.byte	0x23
 1541 00fa CE000000 		.4byte	0xce
 1542 00fe 00       		.byte	0
 1543 00ff 06       		.uleb128 0x6
 1544 0100 E0020000 		.4byte	.LASF22
 1545 0104 09       		.byte	0x9
 1546 0105 24       		.byte	0x24
 1547 0106 18010000 		.4byte	0x118
 1548 010a 04       		.byte	0x4
 1549 010b 06       		.uleb128 0x6
 1550 010c 50000000 		.4byte	.LASF23
 1551 0110 09       		.byte	0x9
 1552 0111 25       		.byte	0x25
 1553 0112 18010000 		.4byte	0x118
 1554 0116 08       		.byte	0x8
 1555 0117 00       		.byte	0
 1556 0118 07       		.uleb128 0x7
ARM GAS  C:\Users\Sava\AppData\Local\Temp\ccs9rGHG.s 			page 48


 1557 0119 04       		.byte	0x4
 1558 011a E0000000 		.4byte	0xe0
 1559 011e 04       		.uleb128 0x4
 1560 011f CE0D0000 		.4byte	.LASF24
 1561 0123 09       		.byte	0x9
 1562 0124 26       		.byte	0x26
 1563 0125 EB000000 		.4byte	0xeb
 1564 0129 08       		.uleb128 0x8
 1565 012a 04       		.byte	0x4
 1566 012b 05       		.uleb128 0x5
 1567 012c 02       		.byte	0x2
 1568 012d 0A       		.byte	0xa
 1569 012e 74       		.byte	0x74
 1570 012f 61010000 		.4byte	0x161
 1571 0133 09       		.uleb128 0x9
 1572 0134 8C030000 		.4byte	.LASF25
 1573 0138 0A       		.byte	0xa
 1574 0139 77       		.byte	0x77
 1575 013a C3000000 		.4byte	0xc3
 1576 013e 02       		.byte	0x2
 1577 013f 05       		.byte	0x5
 1578 0140 0B       		.byte	0xb
 1579 0141 00       		.byte	0
 1580 0142 09       		.uleb128 0x9
 1581 0143 8C0F0000 		.4byte	.LASF26
 1582 0147 0A       		.byte	0xa
 1583 0148 78       		.byte	0x78
 1584 0149 C3000000 		.4byte	0xc3
 1585 014d 02       		.byte	0x2
 1586 014e 06       		.byte	0x6
 1587 014f 05       		.byte	0x5
 1588 0150 00       		.byte	0
 1589 0151 0A       		.uleb128 0xa
 1590 0152 72656400 		.ascii	"red\000"
 1591 0156 0A       		.byte	0xa
 1592 0157 79       		.byte	0x79
 1593 0158 C3000000 		.4byte	0xc3
 1594 015c 02       		.byte	0x2
 1595 015d 05       		.byte	0x5
 1596 015e 00       		.byte	0
 1597 015f 00       		.byte	0
 1598 0160 00       		.byte	0
 1599 0161 0B       		.uleb128 0xb
 1600 0162 02       		.byte	0x2
 1601 0163 0A       		.byte	0xa
 1602 0164 72       		.byte	0x72
 1603 0165 7A010000 		.4byte	0x17a
 1604 0169 0C       		.uleb128 0xc
 1605 016a 2B010000 		.4byte	0x12b
 1606 016e 0D       		.uleb128 0xd
 1607 016f AF0C0000 		.4byte	.LASF315
 1608 0173 0A       		.byte	0xa
 1609 0174 81       		.byte	0x81
 1610 0175 C3000000 		.4byte	0xc3
 1611 0179 00       		.byte	0
 1612 017a 04       		.uleb128 0x4
 1613 017b AE0D0000 		.4byte	.LASF27
ARM GAS  C:\Users\Sava\AppData\Local\Temp\ccs9rGHG.s 			page 49


 1614 017f 0A       		.byte	0xa
 1615 0180 82       		.byte	0x82
 1616 0181 61010000 		.4byte	0x161
 1617 0185 04       		.uleb128 0x4
 1618 0186 140C0000 		.4byte	.LASF28
 1619 018a 0A       		.byte	0xa
 1620 018b 98       		.byte	0x98
 1621 018c 7A010000 		.4byte	0x17a
 1622 0190 04       		.uleb128 0x4
 1623 0191 55000000 		.4byte	.LASF29
 1624 0195 0A       		.byte	0xa
 1625 0196 A0       		.byte	0xa0
 1626 0197 AD000000 		.4byte	0xad
 1627 019b 02       		.uleb128 0x2
 1628 019c 04       		.byte	0x4
 1629 019d 07       		.byte	0x7
 1630 019e 39000000 		.4byte	.LASF30
 1631 01a2 02       		.uleb128 0x2
 1632 01a3 01       		.byte	0x1
 1633 01a4 08       		.byte	0x8
 1634 01a5 0B040000 		.4byte	.LASF31
 1635 01a9 07       		.uleb128 0x7
 1636 01aa 04       		.byte	0x4
 1637 01ab AF010000 		.4byte	0x1af
 1638 01af 0E       		.uleb128 0xe
 1639 01b0 A2010000 		.4byte	0x1a2
 1640 01b4 04       		.uleb128 0x4
 1641 01b5 AF0F0000 		.4byte	.LASF32
 1642 01b9 0B       		.byte	0xb
 1643 01ba 1E       		.byte	0x1e
 1644 01bb B8000000 		.4byte	0xb8
 1645 01bf 05       		.uleb128 0x5
 1646 01c0 04       		.byte	0x4
 1647 01c1 0B       		.byte	0xb
 1648 01c2 20       		.byte	0x20
 1649 01c3 DC010000 		.4byte	0x1dc
 1650 01c7 0F       		.uleb128 0xf
 1651 01c8 7800     		.ascii	"x\000"
 1652 01ca 0B       		.byte	0xb
 1653 01cb 22       		.byte	0x22
 1654 01cc B4010000 		.4byte	0x1b4
 1655 01d0 00       		.byte	0
 1656 01d1 0F       		.uleb128 0xf
 1657 01d2 7900     		.ascii	"y\000"
 1658 01d4 0B       		.byte	0xb
 1659 01d5 23       		.byte	0x23
 1660 01d6 B4010000 		.4byte	0x1b4
 1661 01da 02       		.byte	0x2
 1662 01db 00       		.byte	0
 1663 01dc 04       		.uleb128 0x4
 1664 01dd 66000000 		.4byte	.LASF33
 1665 01e1 0B       		.byte	0xb
 1666 01e2 24       		.byte	0x24
 1667 01e3 BF010000 		.4byte	0x1bf
 1668 01e7 05       		.uleb128 0x5
 1669 01e8 08       		.byte	0x8
 1670 01e9 0B       		.byte	0xb
ARM GAS  C:\Users\Sava\AppData\Local\Temp\ccs9rGHG.s 			page 50


 1671 01ea 26       		.byte	0x26
 1672 01eb 1C020000 		.4byte	0x21c
 1673 01ef 0F       		.uleb128 0xf
 1674 01f0 783100   		.ascii	"x1\000"
 1675 01f3 0B       		.byte	0xb
 1676 01f4 28       		.byte	0x28
 1677 01f5 B4010000 		.4byte	0x1b4
 1678 01f9 00       		.byte	0
 1679 01fa 0F       		.uleb128 0xf
 1680 01fb 793100   		.ascii	"y1\000"
 1681 01fe 0B       		.byte	0xb
 1682 01ff 29       		.byte	0x29
 1683 0200 B4010000 		.4byte	0x1b4
 1684 0204 02       		.byte	0x2
 1685 0205 0F       		.uleb128 0xf
 1686 0206 783200   		.ascii	"x2\000"
 1687 0209 0B       		.byte	0xb
 1688 020a 2A       		.byte	0x2a
 1689 020b B4010000 		.4byte	0x1b4
 1690 020f 04       		.byte	0x4
 1691 0210 0F       		.uleb128 0xf
 1692 0211 793200   		.ascii	"y2\000"
 1693 0214 0B       		.byte	0xb
 1694 0215 2B       		.byte	0x2b
 1695 0216 B4010000 		.4byte	0x1b4
 1696 021a 06       		.byte	0x6
 1697 021b 00       		.byte	0
 1698 021c 04       		.uleb128 0x4
 1699 021d A5050000 		.4byte	.LASF34
 1700 0221 0B       		.byte	0xb
 1701 0222 2C       		.byte	0x2c
 1702 0223 E7010000 		.4byte	0x1e7
 1703 0227 05       		.uleb128 0x5
 1704 0228 04       		.byte	0x4
 1705 0229 0C       		.byte	0xc
 1706 022a 25       		.byte	0x25
 1707 022b 4E020000 		.4byte	0x24e
 1708 022f 09       		.uleb128 0x9
 1709 0230 C0050000 		.4byte	.LASF35
 1710 0234 0C       		.byte	0xc
 1711 0235 27       		.byte	0x27
 1712 0236 CE000000 		.4byte	0xce
 1713 023a 04       		.byte	0x4
 1714 023b 08       		.byte	0x8
 1715 023c 18       		.byte	0x18
 1716 023d 00       		.byte	0
 1717 023e 09       		.uleb128 0x9
 1718 023f 04030000 		.4byte	.LASF36
 1719 0243 0C       		.byte	0xc
 1720 0244 28       		.byte	0x28
 1721 0245 CE000000 		.4byte	0xce
 1722 0249 04       		.byte	0x4
 1723 024a 18       		.byte	0x18
 1724 024b 00       		.byte	0
 1725 024c 00       		.byte	0
 1726 024d 00       		.byte	0
 1727 024e 04       		.uleb128 0x4
ARM GAS  C:\Users\Sava\AppData\Local\Temp\ccs9rGHG.s 			page 51


 1728 024f 1B0A0000 		.4byte	.LASF37
 1729 0253 0C       		.byte	0xc
 1730 0254 29       		.byte	0x29
 1731 0255 27020000 		.4byte	0x227
 1732 0259 10       		.uleb128 0x10
 1733 025a 83100000 		.4byte	.LASF78
 1734 025e 28       		.byte	0x28
 1735 025f 0C       		.byte	0xc
 1736 0260 31       		.byte	0x31
 1737 0261 FF020000 		.4byte	0x2ff
 1738 0265 06       		.uleb128 0x6
 1739 0266 1E000000 		.4byte	.LASF38
 1740 026a 0C       		.byte	0xc
 1741 026b 33       		.byte	0x33
 1742 026c CE000000 		.4byte	0xce
 1743 0270 00       		.byte	0
 1744 0271 06       		.uleb128 0x6
 1745 0272 AD100000 		.4byte	.LASF39
 1746 0276 0C       		.byte	0xc
 1747 0277 34       		.byte	0x34
 1748 0278 CE000000 		.4byte	0xce
 1749 027c 04       		.byte	0x4
 1750 027d 06       		.uleb128 0x6
 1751 027e 39010000 		.4byte	.LASF40
 1752 0282 0C       		.byte	0xc
 1753 0283 35       		.byte	0x35
 1754 0284 FF020000 		.4byte	0x2ff
 1755 0288 08       		.byte	0x8
 1756 0289 06       		.uleb128 0x6
 1757 028a 8E0D0000 		.4byte	.LASF41
 1758 028e 0C       		.byte	0xc
 1759 028f 36       		.byte	0x36
 1760 0290 0A030000 		.4byte	0x30a
 1761 0294 0C       		.byte	0xc
 1762 0295 06       		.uleb128 0x6
 1763 0296 0E0A0000 		.4byte	.LASF42
 1764 029a 0C       		.byte	0xc
 1765 029b 37       		.byte	0x37
 1766 029c 15030000 		.4byte	0x315
 1767 02a0 10       		.byte	0x10
 1768 02a1 06       		.uleb128 0x6
 1769 02a2 6C0C0000 		.4byte	.LASF43
 1770 02a6 0C       		.byte	0xc
 1771 02a7 38       		.byte	0x38
 1772 02a8 3F030000 		.4byte	0x33f
 1773 02ac 14       		.byte	0x14
 1774 02ad 06       		.uleb128 0x6
 1775 02ae 04080000 		.4byte	.LASF44
 1776 02b2 0C       		.byte	0xc
 1777 02b3 39       		.byte	0x39
 1778 02b4 59030000 		.4byte	0x359
 1779 02b8 18       		.byte	0x18
 1780 02b9 06       		.uleb128 0x6
 1781 02ba C8040000 		.4byte	.LASF45
 1782 02be 0C       		.byte	0xc
 1783 02bf 3A       		.byte	0x3a
 1784 02c0 5F030000 		.4byte	0x35f
ARM GAS  C:\Users\Sava\AppData\Local\Temp\ccs9rGHG.s 			page 52


 1785 02c4 1C       		.byte	0x1c
 1786 02c5 09       		.uleb128 0x9
 1787 02c6 38080000 		.4byte	.LASF46
 1788 02ca 0C       		.byte	0xc
 1789 02cb 3B       		.byte	0x3b
 1790 02cc CE000000 		.4byte	0xce
 1791 02d0 04       		.byte	0x4
 1792 02d1 08       		.byte	0x8
 1793 02d2 18       		.byte	0x18
 1794 02d3 20       		.byte	0x20
 1795 02d4 0A       		.uleb128 0xa
 1796 02d5 62707000 		.ascii	"bpp\000"
 1797 02d9 0C       		.byte	0xc
 1798 02da 3C       		.byte	0x3c
 1799 02db CE000000 		.4byte	0xce
 1800 02df 04       		.byte	0x4
 1801 02e0 04       		.byte	0x4
 1802 02e1 14       		.byte	0x14
 1803 02e2 20       		.byte	0x20
 1804 02e3 09       		.uleb128 0x9
 1805 02e4 0C050000 		.4byte	.LASF47
 1806 02e8 0C       		.byte	0xc
 1807 02e9 3D       		.byte	0x3d
 1808 02ea CE000000 		.4byte	0xce
 1809 02ee 04       		.byte	0x4
 1810 02ef 08       		.byte	0x8
 1811 02f0 0C       		.byte	0xc
 1812 02f1 20       		.byte	0x20
 1813 02f2 06       		.uleb128 0x6
 1814 02f3 FA070000 		.4byte	.LASF48
 1815 02f7 0C       		.byte	0xc
 1816 02f8 3E       		.byte	0x3e
 1817 02f9 C3000000 		.4byte	0xc3
 1818 02fd 24       		.byte	0x24
 1819 02fe 00       		.byte	0
 1820 02ff 07       		.uleb128 0x7
 1821 0300 04       		.byte	0x4
 1822 0301 05030000 		.4byte	0x305
 1823 0305 0E       		.uleb128 0xe
 1824 0306 AD000000 		.4byte	0xad
 1825 030a 07       		.uleb128 0x7
 1826 030b 04       		.byte	0x4
 1827 030c 10030000 		.4byte	0x310
 1828 0310 0E       		.uleb128 0xe
 1829 0311 4E020000 		.4byte	0x24e
 1830 0315 07       		.uleb128 0x7
 1831 0316 04       		.byte	0x4
 1832 0317 1B030000 		.4byte	0x31b
 1833 031b 0E       		.uleb128 0xe
 1834 031c CE000000 		.4byte	0xce
 1835 0320 11       		.uleb128 0x11
 1836 0321 FF020000 		.4byte	0x2ff
 1837 0325 34030000 		.4byte	0x334
 1838 0329 12       		.uleb128 0x12
 1839 032a 34030000 		.4byte	0x334
 1840 032e 12       		.uleb128 0x12
 1841 032f CE000000 		.4byte	0xce
ARM GAS  C:\Users\Sava\AppData\Local\Temp\ccs9rGHG.s 			page 53


 1842 0333 00       		.byte	0
 1843 0334 07       		.uleb128 0x7
 1844 0335 04       		.byte	0x4
 1845 0336 3A030000 		.4byte	0x33a
 1846 033a 0E       		.uleb128 0xe
 1847 033b 59020000 		.4byte	0x259
 1848 033f 07       		.uleb128 0x7
 1849 0340 04       		.byte	0x4
 1850 0341 20030000 		.4byte	0x320
 1851 0345 11       		.uleb128 0x11
 1852 0346 B8000000 		.4byte	0xb8
 1853 034a 59030000 		.4byte	0x359
 1854 034e 12       		.uleb128 0x12
 1855 034f 34030000 		.4byte	0x334
 1856 0353 12       		.uleb128 0x12
 1857 0354 CE000000 		.4byte	0xce
 1858 0358 00       		.byte	0
 1859 0359 07       		.uleb128 0x7
 1860 035a 04       		.byte	0x4
 1861 035b 45030000 		.4byte	0x345
 1862 035f 07       		.uleb128 0x7
 1863 0360 04       		.byte	0x4
 1864 0361 59020000 		.4byte	0x259
 1865 0365 04       		.uleb128 0x4
 1866 0366 920F0000 		.4byte	.LASF49
 1867 036a 0C       		.byte	0xc
 1868 036b 3F       		.byte	0x3f
 1869 036c 59020000 		.4byte	0x259
 1870 0370 04       		.uleb128 0x4
 1871 0371 1F100000 		.4byte	.LASF50
 1872 0375 0D       		.byte	0xd
 1873 0376 2A       		.byte	0x2a
 1874 0377 AD000000 		.4byte	0xad
 1875 037b 04       		.uleb128 0x4
 1876 037c 2D0D0000 		.4byte	.LASF51
 1877 0380 0D       		.byte	0xd
 1878 0381 32       		.byte	0x32
 1879 0382 AD000000 		.4byte	0xad
 1880 0386 05       		.uleb128 0x5
 1881 0387 06       		.byte	0x6
 1882 0388 0D       		.byte	0xd
 1883 0389 3E       		.byte	0x3e
 1884 038a BF030000 		.4byte	0x3bf
 1885 038e 06       		.uleb128 0x6
 1886 038f DE0C0000 		.4byte	.LASF52
 1887 0393 0D       		.byte	0xd
 1888 0394 3F       		.byte	0x3f
 1889 0395 85010000 		.4byte	0x185
 1890 0399 00       		.byte	0
 1891 039a 06       		.uleb128 0x6
 1892 039b C5080000 		.4byte	.LASF53
 1893 039f 0D       		.byte	0xd
 1894 03a0 40       		.byte	0x40
 1895 03a1 B4010000 		.4byte	0x1b4
 1896 03a5 02       		.byte	0x2
 1897 03a6 06       		.uleb128 0x6
 1898 03a7 93100000 		.4byte	.LASF54
ARM GAS  C:\Users\Sava\AppData\Local\Temp\ccs9rGHG.s 			page 54


 1899 03ab 0D       		.byte	0xd
 1900 03ac 41       		.byte	0x41
 1901 03ad 70030000 		.4byte	0x370
 1902 03b1 04       		.byte	0x4
 1903 03b2 0F       		.uleb128 0xf
 1904 03b3 6F706100 		.ascii	"opa\000"
 1905 03b7 0D       		.byte	0xd
 1906 03b8 42       		.byte	0x42
 1907 03b9 90010000 		.4byte	0x190
 1908 03bd 05       		.byte	0x5
 1909 03be 00       		.byte	0
 1910 03bf 05       		.uleb128 0x5
 1911 03c0 06       		.byte	0x6
 1912 03c1 0D       		.byte	0xd
 1913 03c2 45       		.byte	0x45
 1914 03c3 EC030000 		.4byte	0x3ec
 1915 03c7 06       		.uleb128 0x6
 1916 03c8 DE0C0000 		.4byte	.LASF52
 1917 03cc 0D       		.byte	0xd
 1918 03cd 46       		.byte	0x46
 1919 03ce 85010000 		.4byte	0x185
 1920 03d2 00       		.byte	0
 1921 03d3 06       		.uleb128 0x6
 1922 03d4 C5080000 		.4byte	.LASF53
 1923 03d8 0D       		.byte	0xd
 1924 03d9 47       		.byte	0x47
 1925 03da B4010000 		.4byte	0x1b4
 1926 03de 02       		.byte	0x2
 1927 03df 06       		.uleb128 0x6
 1928 03e0 34010000 		.4byte	.LASF55
 1929 03e4 0D       		.byte	0xd
 1930 03e5 48       		.byte	0x48
 1931 03e6 7B030000 		.4byte	0x37b
 1932 03ea 04       		.byte	0x4
 1933 03eb 00       		.byte	0
 1934 03ec 05       		.uleb128 0x5
 1935 03ed 06       		.byte	0x6
 1936 03ee 0D       		.byte	0xd
 1937 03ef 4B       		.byte	0x4b
 1938 03f0 19040000 		.4byte	0x419
 1939 03f4 0F       		.uleb128 0xf
 1940 03f5 76657200 		.ascii	"ver\000"
 1941 03f9 0D       		.byte	0xd
 1942 03fa 4C       		.byte	0x4c
 1943 03fb B4010000 		.4byte	0x1b4
 1944 03ff 00       		.byte	0
 1945 0400 0F       		.uleb128 0xf
 1946 0401 686F7200 		.ascii	"hor\000"
 1947 0405 0D       		.byte	0xd
 1948 0406 4D       		.byte	0x4d
 1949 0407 B4010000 		.4byte	0x1b4
 1950 040b 02       		.byte	0x2
 1951 040c 06       		.uleb128 0x6
 1952 040d 83060000 		.4byte	.LASF56
 1953 0411 0D       		.byte	0xd
 1954 0412 4E       		.byte	0x4e
 1955 0413 B4010000 		.4byte	0x1b4
ARM GAS  C:\Users\Sava\AppData\Local\Temp\ccs9rGHG.s 			page 55


 1956 0417 04       		.byte	0x4
 1957 0418 00       		.byte	0
 1958 0419 05       		.uleb128 0x5
 1959 041a 1C       		.byte	0x1c
 1960 041b 0D       		.byte	0xd
 1961 041c 38       		.byte	0x38
 1962 041d 85040000 		.4byte	0x485
 1963 0421 06       		.uleb128 0x6
 1964 0422 510B0000 		.4byte	.LASF57
 1965 0426 0D       		.byte	0xd
 1966 0427 39       		.byte	0x39
 1967 0428 85010000 		.4byte	0x185
 1968 042c 00       		.byte	0
 1969 042d 06       		.uleb128 0x6
 1970 042e 410A0000 		.4byte	.LASF58
 1971 0432 0D       		.byte	0xd
 1972 0433 3A       		.byte	0x3a
 1973 0434 85010000 		.4byte	0x185
 1974 0438 02       		.byte	0x2
 1975 0439 06       		.uleb128 0x6
 1976 043a 8B000000 		.4byte	.LASF59
 1977 043e 0D       		.byte	0xd
 1978 043f 3B       		.byte	0x3b
 1979 0440 B4010000 		.4byte	0x1b4
 1980 0444 04       		.byte	0x4
 1981 0445 0F       		.uleb128 0xf
 1982 0446 6F706100 		.ascii	"opa\000"
 1983 044a 0D       		.byte	0xd
 1984 044b 3C       		.byte	0x3c
 1985 044c 90010000 		.4byte	0x190
 1986 0450 06       		.byte	0x6
 1987 0451 06       		.uleb128 0x6
 1988 0452 CB0F0000 		.4byte	.LASF60
 1989 0456 0D       		.byte	0xd
 1990 0457 43       		.byte	0x43
 1991 0458 86030000 		.4byte	0x386
 1992 045c 08       		.byte	0x8
 1993 045d 06       		.uleb128 0x6
 1994 045e 810E0000 		.4byte	.LASF61
 1995 0462 0D       		.byte	0xd
 1996 0463 49       		.byte	0x49
 1997 0464 BF030000 		.4byte	0x3bf
 1998 0468 0E       		.byte	0xe
 1999 0469 06       		.uleb128 0x6
 2000 046a 170F0000 		.4byte	.LASF62
 2001 046e 0D       		.byte	0xd
 2002 046f 4F       		.byte	0x4f
 2003 0470 EC030000 		.4byte	0x3ec
 2004 0474 14       		.byte	0x14
 2005 0475 09       		.uleb128 0x9
 2006 0476 E3060000 		.4byte	.LASF63
 2007 047a 0D       		.byte	0xd
 2008 047b 51       		.byte	0x51
 2009 047c AD000000 		.4byte	0xad
 2010 0480 01       		.byte	0x1
 2011 0481 01       		.byte	0x1
 2012 0482 07       		.byte	0x7
ARM GAS  C:\Users\Sava\AppData\Local\Temp\ccs9rGHG.s 			page 56


 2013 0483 1A       		.byte	0x1a
 2014 0484 00       		.byte	0
 2015 0485 05       		.uleb128 0x5
 2016 0486 10       		.byte	0x10
 2017 0487 0D       		.byte	0xd
 2018 0488 55       		.byte	0x55
 2019 0489 CA040000 		.4byte	0x4ca
 2020 048d 06       		.uleb128 0x6
 2021 048e DE0C0000 		.4byte	.LASF52
 2022 0492 0D       		.byte	0xd
 2023 0493 56       		.byte	0x56
 2024 0494 85010000 		.4byte	0x185
 2025 0498 00       		.byte	0
 2026 0499 06       		.uleb128 0x6
 2027 049a 620D0000 		.4byte	.LASF64
 2028 049e 0D       		.byte	0xd
 2029 049f 57       		.byte	0x57
 2030 04a0 CA040000 		.4byte	0x4ca
 2031 04a4 04       		.byte	0x4
 2032 04a5 06       		.uleb128 0x6
 2033 04a6 670D0000 		.4byte	.LASF65
 2034 04aa 0D       		.byte	0xd
 2035 04ab 58       		.byte	0x58
 2036 04ac B4010000 		.4byte	0x1b4
 2037 04b0 08       		.byte	0x8
 2038 04b1 06       		.uleb128 0x6
 2039 04b2 FF0C0000 		.4byte	.LASF66
 2040 04b6 0D       		.byte	0xd
 2041 04b7 59       		.byte	0x59
 2042 04b8 B4010000 		.4byte	0x1b4
 2043 04bc 0A       		.byte	0xa
 2044 04bd 0F       		.uleb128 0xf
 2045 04be 6F706100 		.ascii	"opa\000"
 2046 04c2 0D       		.byte	0xd
 2047 04c3 5A       		.byte	0x5a
 2048 04c4 90010000 		.4byte	0x190
 2049 04c8 0C       		.byte	0xc
 2050 04c9 00       		.byte	0
 2051 04ca 07       		.uleb128 0x7
 2052 04cb 04       		.byte	0x4
 2053 04cc D0040000 		.4byte	0x4d0
 2054 04d0 0E       		.uleb128 0xe
 2055 04d1 65030000 		.4byte	0x365
 2056 04d5 05       		.uleb128 0x5
 2057 04d6 04       		.byte	0x4
 2058 04d7 0D       		.byte	0xd
 2059 04d8 5D       		.byte	0x5d
 2060 04d9 02050000 		.4byte	0x502
 2061 04dd 06       		.uleb128 0x6
 2062 04de DE0C0000 		.4byte	.LASF52
 2063 04e2 0D       		.byte	0xd
 2064 04e3 5E       		.byte	0x5e
 2065 04e4 85010000 		.4byte	0x185
 2066 04e8 00       		.byte	0
 2067 04e9 06       		.uleb128 0x6
 2068 04ea 5E000000 		.4byte	.LASF67
 2069 04ee 0D       		.byte	0xd
ARM GAS  C:\Users\Sava\AppData\Local\Temp\ccs9rGHG.s 			page 57


 2070 04ef 5F       		.byte	0x5f
 2071 04f0 90010000 		.4byte	0x190
 2072 04f4 02       		.byte	0x2
 2073 04f5 0F       		.uleb128 0xf
 2074 04f6 6F706100 		.ascii	"opa\000"
 2075 04fa 0D       		.byte	0xd
 2076 04fb 60       		.byte	0x60
 2077 04fc 90010000 		.4byte	0x190
 2078 0500 03       		.byte	0x3
 2079 0501 00       		.byte	0
 2080 0502 05       		.uleb128 0x5
 2081 0503 06       		.byte	0x6
 2082 0504 0D       		.byte	0xd
 2083 0505 63       		.byte	0x63
 2084 0506 3E050000 		.4byte	0x53e
 2085 050a 06       		.uleb128 0x6
 2086 050b DE0C0000 		.4byte	.LASF52
 2087 050f 0D       		.byte	0xd
 2088 0510 64       		.byte	0x64
 2089 0511 85010000 		.4byte	0x185
 2090 0515 00       		.byte	0
 2091 0516 06       		.uleb128 0x6
 2092 0517 C5080000 		.4byte	.LASF53
 2093 051b 0D       		.byte	0xd
 2094 051c 65       		.byte	0x65
 2095 051d B4010000 		.4byte	0x1b4
 2096 0521 02       		.byte	0x2
 2097 0522 0F       		.uleb128 0xf
 2098 0523 6F706100 		.ascii	"opa\000"
 2099 0527 0D       		.byte	0xd
 2100 0528 66       		.byte	0x66
 2101 0529 90010000 		.4byte	0x190
 2102 052d 04       		.byte	0x4
 2103 052e 09       		.uleb128 0x9
 2104 052f 60050000 		.4byte	.LASF68
 2105 0533 0D       		.byte	0xd
 2106 0534 67       		.byte	0x67
 2107 0535 AD000000 		.4byte	0xad
 2108 0539 01       		.byte	0x1
 2109 053a 01       		.byte	0x1
 2110 053b 07       		.byte	0x7
 2111 053c 05       		.byte	0x5
 2112 053d 00       		.byte	0
 2113 053e 05       		.uleb128 0x5
 2114 053f 3C       		.byte	0x3c
 2115 0540 0D       		.byte	0xd
 2116 0541 34       		.byte	0x34
 2117 0542 86050000 		.4byte	0x586
 2118 0546 09       		.uleb128 0x9
 2119 0547 94090000 		.4byte	.LASF69
 2120 054b 0D       		.byte	0xd
 2121 054c 36       		.byte	0x36
 2122 054d AD000000 		.4byte	0xad
 2123 0551 01       		.byte	0x1
 2124 0552 01       		.byte	0x1
 2125 0553 07       		.byte	0x7
 2126 0554 00       		.byte	0
ARM GAS  C:\Users\Sava\AppData\Local\Temp\ccs9rGHG.s 			page 58


 2127 0555 06       		.uleb128 0x6
 2128 0556 10040000 		.4byte	.LASF70
 2129 055a 0D       		.byte	0xd
 2130 055b 52       		.byte	0x52
 2131 055c 19040000 		.4byte	0x419
 2132 0560 02       		.byte	0x2
 2133 0561 06       		.uleb128 0x6
 2134 0562 3F050000 		.4byte	.LASF71
 2135 0566 0D       		.byte	0xd
 2136 0567 5B       		.byte	0x5b
 2137 0568 85040000 		.4byte	0x485
 2138 056c 20       		.byte	0x20
 2139 056d 06       		.uleb128 0x6
 2140 056e 5A050000 		.4byte	.LASF72
 2141 0572 0D       		.byte	0xd
 2142 0573 61       		.byte	0x61
 2143 0574 D5040000 		.4byte	0x4d5
 2144 0578 30       		.byte	0x30
 2145 0579 06       		.uleb128 0x6
 2146 057a D0070000 		.4byte	.LASF73
 2147 057e 0D       		.byte	0xd
 2148 057f 68       		.byte	0x68
 2149 0580 02050000 		.4byte	0x502
 2150 0584 34       		.byte	0x34
 2151 0585 00       		.byte	0
 2152 0586 04       		.uleb128 0x4
 2153 0587 78060000 		.4byte	.LASF74
 2154 058b 0D       		.byte	0xd
 2155 058c 69       		.byte	0x69
 2156 058d 3E050000 		.4byte	0x53e
 2157 0591 07       		.uleb128 0x7
 2158 0592 04       		.byte	0x4
 2159 0593 86050000 		.4byte	0x586
 2160 0597 04       		.uleb128 0x4
 2161 0598 1B0B0000 		.4byte	.LASF75
 2162 059c 0E       		.byte	0xe
 2163 059d 4B       		.byte	0x4b
 2164 059e AD000000 		.4byte	0xad
 2165 05a2 04       		.uleb128 0x4
 2166 05a3 D2060000 		.4byte	.LASF76
 2167 05a7 0E       		.byte	0xe
 2168 05a8 4D       		.byte	0x4d
 2169 05a9 AD050000 		.4byte	0x5ad
 2170 05ad 07       		.uleb128 0x7
 2171 05ae 04       		.byte	0x4
 2172 05af B3050000 		.4byte	0x5b3
 2173 05b3 11       		.uleb128 0x11
 2174 05b4 CC050000 		.4byte	0x5cc
 2175 05b8 CC050000 		.4byte	0x5cc
 2176 05bc 12       		.uleb128 0x12
 2177 05bd D3050000 		.4byte	0x5d3
 2178 05c1 12       		.uleb128 0x12
 2179 05c2 F7060000 		.4byte	0x6f7
 2180 05c6 12       		.uleb128 0x12
 2181 05c7 97050000 		.4byte	0x597
 2182 05cb 00       		.byte	0
 2183 05cc 02       		.uleb128 0x2
ARM GAS  C:\Users\Sava\AppData\Local\Temp\ccs9rGHG.s 			page 59


 2184 05cd 01       		.byte	0x1
 2185 05ce 02       		.byte	0x2
 2186 05cf D6030000 		.4byte	.LASF77
 2187 05d3 07       		.uleb128 0x7
 2188 05d4 04       		.byte	0x4
 2189 05d5 D9050000 		.4byte	0x5d9
 2190 05d9 10       		.uleb128 0x10
 2191 05da 430D0000 		.4byte	.LASF79
 2192 05de 48       		.byte	0x48
 2193 05df 0E       		.byte	0xe
 2194 05e0 9D       		.byte	0x9d
 2195 05e1 F7060000 		.4byte	0x6f7
 2196 05e5 0F       		.uleb128 0xf
 2197 05e6 70617200 		.ascii	"par\000"
 2198 05ea 0E       		.byte	0xe
 2199 05eb 9F       		.byte	0x9f
 2200 05ec D3050000 		.4byte	0x5d3
 2201 05f0 00       		.byte	0
 2202 05f1 06       		.uleb128 0x6
 2203 05f2 F8080000 		.4byte	.LASF80
 2204 05f6 0E       		.byte	0xe
 2205 05f7 A0       		.byte	0xa0
 2206 05f8 1E010000 		.4byte	0x11e
 2207 05fc 04       		.byte	0x4
 2208 05fd 06       		.uleb128 0x6
 2209 05fe 1B0E0000 		.4byte	.LASF81
 2210 0602 0E       		.byte	0xe
 2211 0603 A2       		.byte	0xa2
 2212 0604 1C020000 		.4byte	0x21c
 2213 0608 10       		.byte	0x10
 2214 0609 06       		.uleb128 0x6
 2215 060a D80B0000 		.4byte	.LASF82
 2216 060e 0E       		.byte	0xe
 2217 060f A4       		.byte	0xa4
 2218 0610 18070000 		.4byte	0x718
 2219 0614 18       		.byte	0x18
 2220 0615 06       		.uleb128 0x6
 2221 0616 A4070000 		.4byte	.LASF83
 2222 061a 0E       		.byte	0xe
 2223 061b A5       		.byte	0xa5
 2224 061c A2050000 		.4byte	0x5a2
 2225 0620 1C       		.byte	0x1c
 2226 0621 06       		.uleb128 0x6
 2227 0622 FC0A0000 		.4byte	.LASF84
 2228 0626 0E       		.byte	0xe
 2229 0627 A7       		.byte	0xa7
 2230 0628 29010000 		.4byte	0x129
 2231 062c 20       		.byte	0x20
 2232 062d 06       		.uleb128 0x6
 2233 062e 96080000 		.4byte	.LASF85
 2234 0632 0E       		.byte	0xe
 2235 0633 A8       		.byte	0xa8
 2236 0634 91050000 		.4byte	0x591
 2237 0638 24       		.byte	0x24
 2238 0639 06       		.uleb128 0x6
 2239 063a 19060000 		.4byte	.LASF86
 2240 063e 0E       		.byte	0xe
ARM GAS  C:\Users\Sava\AppData\Local\Temp\ccs9rGHG.s 			page 60


 2241 063f AB       		.byte	0xab
 2242 0640 29010000 		.4byte	0x129
 2243 0644 28       		.byte	0x28
 2244 0645 06       		.uleb128 0x6
 2245 0646 52050000 		.4byte	.LASF87
 2246 064a 0E       		.byte	0xe
 2247 064b AF       		.byte	0xaf
 2248 064c 29010000 		.4byte	0x129
 2249 0650 2C       		.byte	0x2c
 2250 0651 09       		.uleb128 0x9
 2251 0652 C9030000 		.4byte	.LASF88
 2252 0656 0E       		.byte	0xe
 2253 0657 B2       		.byte	0xb2
 2254 0658 AD000000 		.4byte	0xad
 2255 065c 01       		.byte	0x1
 2256 065d 01       		.byte	0x1
 2257 065e 07       		.byte	0x7
 2258 065f 30       		.byte	0x30
 2259 0660 09       		.uleb128 0x9
 2260 0661 3E0D0000 		.4byte	.LASF89
 2261 0665 0E       		.byte	0xe
 2262 0666 B3       		.byte	0xb3
 2263 0667 AD000000 		.4byte	0xad
 2264 066b 01       		.byte	0x1
 2265 066c 01       		.byte	0x1
 2266 066d 06       		.byte	0x6
 2267 066e 30       		.byte	0x30
 2268 066f 09       		.uleb128 0x9
 2269 0670 68050000 		.4byte	.LASF90
 2270 0674 0E       		.byte	0xe
 2271 0675 B4       		.byte	0xb4
 2272 0676 AD000000 		.4byte	0xad
 2273 067a 01       		.byte	0x1
 2274 067b 01       		.byte	0x1
 2275 067c 05       		.byte	0x5
 2276 067d 30       		.byte	0x30
 2277 067e 09       		.uleb128 0x9
 2278 067f CC0E0000 		.4byte	.LASF91
 2279 0683 0E       		.byte	0xe
 2280 0684 B5       		.byte	0xb5
 2281 0685 AD000000 		.4byte	0xad
 2282 0689 01       		.byte	0x1
 2283 068a 01       		.byte	0x1
 2284 068b 04       		.byte	0x4
 2285 068c 30       		.byte	0x30
 2286 068d 09       		.uleb128 0x9
 2287 068e 2D020000 		.4byte	.LASF92
 2288 0692 0E       		.byte	0xe
 2289 0693 B6       		.byte	0xb6
 2290 0694 AD000000 		.4byte	0xad
 2291 0698 01       		.byte	0x1
 2292 0699 01       		.byte	0x1
 2293 069a 03       		.byte	0x3
 2294 069b 30       		.byte	0x30
 2295 069c 0A       		.uleb128 0xa
 2296 069d 746F7000 		.ascii	"top\000"
 2297 06a1 0E       		.byte	0xe
ARM GAS  C:\Users\Sava\AppData\Local\Temp\ccs9rGHG.s 			page 61


 2298 06a2 B7       		.byte	0xb7
 2299 06a3 AD000000 		.4byte	0xad
 2300 06a7 01       		.byte	0x1
 2301 06a8 01       		.byte	0x1
 2302 06a9 02       		.byte	0x2
 2303 06aa 30       		.byte	0x30
 2304 06ab 09       		.uleb128 0x9
 2305 06ac 4A0E0000 		.4byte	.LASF93
 2306 06b0 0E       		.byte	0xe
 2307 06b1 B8       		.byte	0xb8
 2308 06b2 AD000000 		.4byte	0xad
 2309 06b6 01       		.byte	0x1
 2310 06b7 01       		.byte	0x1
 2311 06b8 01       		.byte	0x1
 2312 06b9 30       		.byte	0x30
 2313 06ba 06       		.uleb128 0x6
 2314 06bb 07090000 		.4byte	.LASF94
 2315 06bf 0E       		.byte	0xe
 2316 06c0 B9       		.byte	0xb9
 2317 06c1 AD000000 		.4byte	0xad
 2318 06c5 31       		.byte	0x31
 2319 06c6 06       		.uleb128 0x6
 2320 06c7 CF100000 		.4byte	.LASF95
 2321 06cb 0E       		.byte	0xe
 2322 06cc BA       		.byte	0xba
 2323 06cd 90010000 		.4byte	0x190
 2324 06d1 32       		.byte	0x32
 2325 06d2 06       		.uleb128 0x6
 2326 06d3 2E0C0000 		.4byte	.LASF96
 2327 06d7 0E       		.byte	0xe
 2328 06d8 BC       		.byte	0xbc
 2329 06d9 B4010000 		.4byte	0x1b4
 2330 06dd 34       		.byte	0x34
 2331 06de 06       		.uleb128 0x6
 2332 06df E4050000 		.4byte	.LASF97
 2333 06e3 0E       		.byte	0xe
 2334 06e4 BE       		.byte	0xbe
 2335 06e5 3A080000 		.4byte	0x83a
 2336 06e9 38       		.byte	0x38
 2337 06ea 06       		.uleb128 0x6
 2338 06eb 42000000 		.4byte	.LASF98
 2339 06ef 0E       		.byte	0xe
 2340 06f0 C2       		.byte	0xc2
 2341 06f1 CE000000 		.4byte	0xce
 2342 06f5 44       		.byte	0x44
 2343 06f6 00       		.byte	0
 2344 06f7 07       		.uleb128 0x7
 2345 06f8 04       		.byte	0x4
 2346 06f9 FD060000 		.4byte	0x6fd
 2347 06fd 0E       		.uleb128 0xe
 2348 06fe 1C020000 		.4byte	0x21c
 2349 0702 04       		.uleb128 0x4
 2350 0703 A70A0000 		.4byte	.LASF99
 2351 0707 0E       		.byte	0xe
 2352 0708 54       		.byte	0x54
 2353 0709 AD000000 		.4byte	0xad
 2354 070d 04       		.uleb128 0x4
ARM GAS  C:\Users\Sava\AppData\Local\Temp\ccs9rGHG.s 			page 62


 2355 070e 850B0000 		.4byte	.LASF100
 2356 0712 0E       		.byte	0xe
 2357 0713 73       		.byte	0x73
 2358 0714 AD000000 		.4byte	0xad
 2359 0718 04       		.uleb128 0x4
 2360 0719 5E020000 		.4byte	.LASF101
 2361 071d 0E       		.byte	0xe
 2362 071e 75       		.byte	0x75
 2363 071f 23070000 		.4byte	0x723
 2364 0723 07       		.uleb128 0x7
 2365 0724 04       		.byte	0x4
 2366 0725 29070000 		.4byte	0x729
 2367 0729 11       		.uleb128 0x11
 2368 072a 02070000 		.4byte	0x702
 2369 072e 42070000 		.4byte	0x742
 2370 0732 12       		.uleb128 0x12
 2371 0733 D3050000 		.4byte	0x5d3
 2372 0737 12       		.uleb128 0x12
 2373 0738 0D070000 		.4byte	0x70d
 2374 073c 12       		.uleb128 0x12
 2375 073d 29010000 		.4byte	0x129
 2376 0741 00       		.byte	0
 2377 0742 13       		.uleb128 0x13
 2378 0743 01       		.byte	0x1
 2379 0744 57000000 		.4byte	0x57
 2380 0748 0E       		.byte	0xe
 2381 0749 78       		.byte	0x78
 2382 074a CD070000 		.4byte	0x7cd
 2383 074e 14       		.uleb128 0x14
 2384 074f AC090000 		.4byte	.LASF102
 2385 0753 00       		.byte	0
 2386 0754 14       		.uleb128 0x14
 2387 0755 4D0D0000 		.4byte	.LASF103
 2388 0759 01       		.byte	0x1
 2389 075a 14       		.uleb128 0x14
 2390 075b 5C0B0000 		.4byte	.LASF104
 2391 075f 02       		.byte	0x2
 2392 0760 14       		.uleb128 0x14
 2393 0761 DA080000 		.4byte	.LASF105
 2394 0765 03       		.byte	0x3
 2395 0766 14       		.uleb128 0x14
 2396 0767 6B090000 		.4byte	.LASF106
 2397 076b 04       		.byte	0x4
 2398 076c 14       		.uleb128 0x14
 2399 076d 99020000 		.4byte	.LASF107
 2400 0771 05       		.byte	0x5
 2401 0772 14       		.uleb128 0x14
 2402 0773 00060000 		.4byte	.LASF108
 2403 0777 06       		.byte	0x6
 2404 0778 14       		.uleb128 0x14
 2405 0779 B70E0000 		.4byte	.LASF109
 2406 077d 07       		.byte	0x7
 2407 077e 14       		.uleb128 0x14
 2408 077f C80C0000 		.4byte	.LASF110
 2409 0783 08       		.byte	0x8
 2410 0784 14       		.uleb128 0x14
 2411 0785 050B0000 		.4byte	.LASF111
ARM GAS  C:\Users\Sava\AppData\Local\Temp\ccs9rGHG.s 			page 63


 2412 0789 09       		.byte	0x9
 2413 078a 14       		.uleb128 0x14
 2414 078b D80E0000 		.4byte	.LASF112
 2415 078f 0A       		.byte	0xa
 2416 0790 14       		.uleb128 0x14
 2417 0791 FC0D0000 		.4byte	.LASF113
 2418 0795 0B       		.byte	0xb
 2419 0796 14       		.uleb128 0x14
 2420 0797 72080000 		.4byte	.LASF114
 2421 079b 0C       		.byte	0xc
 2422 079c 14       		.uleb128 0x14
 2423 079d A8060000 		.4byte	.LASF115
 2424 07a1 0D       		.byte	0xd
 2425 07a2 14       		.uleb128 0x14
 2426 07a3 39060000 		.4byte	.LASF116
 2427 07a7 0E       		.byte	0xe
 2428 07a8 14       		.uleb128 0x14
 2429 07a9 500F0000 		.4byte	.LASF117
 2430 07ad 0F       		.byte	0xf
 2431 07ae 14       		.uleb128 0x14
 2432 07af A2040000 		.4byte	.LASF118
 2433 07b3 10       		.byte	0x10
 2434 07b4 14       		.uleb128 0x14
 2435 07b5 AC080000 		.4byte	.LASF119
 2436 07b9 11       		.byte	0x11
 2437 07ba 14       		.uleb128 0x14
 2438 07bb F40B0000 		.4byte	.LASF120
 2439 07bf 12       		.byte	0x12
 2440 07c0 14       		.uleb128 0x14
 2441 07c1 0C010000 		.4byte	.LASF121
 2442 07c5 13       		.byte	0x13
 2443 07c6 14       		.uleb128 0x14
 2444 07c7 B00A0000 		.4byte	.LASF122
 2445 07cb 14       		.byte	0x14
 2446 07cc 00       		.byte	0
 2447 07cd 04       		.uleb128 0x4
 2448 07ce AC000000 		.4byte	.LASF123
 2449 07d2 0E       		.byte	0xe
 2450 07d3 8F       		.byte	0x8f
 2451 07d4 AD000000 		.4byte	0xad
 2452 07d8 05       		.uleb128 0x5
 2453 07d9 0C       		.byte	0xc
 2454 07da 0E       		.byte	0xe
 2455 07db 92       		.byte	0x92
 2456 07dc 2F080000 		.4byte	0x82f
 2457 07e0 06       		.uleb128 0x6
 2458 07e1 A90D0000 		.4byte	.LASF124
 2459 07e5 0E       		.byte	0xe
 2460 07e6 93       		.byte	0x93
 2461 07e7 2F080000 		.4byte	0x82f
 2462 07eb 00       		.byte	0
 2463 07ec 06       		.uleb128 0x6
 2464 07ed 0A0D0000 		.4byte	.LASF125
 2465 07f1 0E       		.byte	0xe
 2466 07f2 94       		.byte	0x94
 2467 07f3 B4010000 		.4byte	0x1b4
 2468 07f7 04       		.byte	0x4
ARM GAS  C:\Users\Sava\AppData\Local\Temp\ccs9rGHG.s 			page 64


 2469 07f8 06       		.uleb128 0x6
 2470 07f9 1F040000 		.4byte	.LASF126
 2471 07fd 0E       		.byte	0xe
 2472 07fe 95       		.byte	0x95
 2473 07ff B4010000 		.4byte	0x1b4
 2474 0803 06       		.byte	0x6
 2475 0804 06       		.uleb128 0x6
 2476 0805 65090000 		.4byte	.LASF127
 2477 0809 0E       		.byte	0xe
 2478 080a 96       		.byte	0x96
 2479 080b CD070000 		.4byte	0x7cd
 2480 080f 08       		.byte	0x8
 2481 0810 09       		.uleb128 0x9
 2482 0811 DE090000 		.4byte	.LASF128
 2483 0815 0E       		.byte	0xe
 2484 0816 97       		.byte	0x97
 2485 0817 AD000000 		.4byte	0xad
 2486 081b 01       		.byte	0x1
 2487 081c 01       		.byte	0x1
 2488 081d 07       		.byte	0x7
 2489 081e 09       		.byte	0x9
 2490 081f 09       		.uleb128 0x9
 2491 0820 5D100000 		.4byte	.LASF129
 2492 0824 0E       		.byte	0xe
 2493 0825 98       		.byte	0x98
 2494 0826 AD000000 		.4byte	0xad
 2495 082a 01       		.byte	0x1
 2496 082b 01       		.byte	0x1
 2497 082c 06       		.byte	0x6
 2498 082d 09       		.byte	0x9
 2499 082e 00       		.byte	0
 2500 082f 07       		.uleb128 0x7
 2501 0830 04       		.byte	0x4
 2502 0831 35080000 		.4byte	0x835
 2503 0835 0E       		.uleb128 0xe
 2504 0836 D9050000 		.4byte	0x5d9
 2505 083a 04       		.uleb128 0x4
 2506 083b 92000000 		.4byte	.LASF130
 2507 083f 0E       		.byte	0xe
 2508 0840 99       		.byte	0x99
 2509 0841 D8070000 		.4byte	0x7d8
 2510 0845 04       		.uleb128 0x4
 2511 0846 0F0D0000 		.4byte	.LASF131
 2512 084a 0E       		.byte	0xe
 2513 084b C4       		.byte	0xc4
 2514 084c D9050000 		.4byte	0x5d9
 2515 0850 0E       		.uleb128 0xe
 2516 0851 DC010000 		.4byte	0x1dc
 2517 0855 07       		.uleb128 0x7
 2518 0856 04       		.byte	0x4
 2519 0857 45080000 		.4byte	0x845
 2520 085b 05       		.uleb128 0x5
 2521 085c 14       		.byte	0x14
 2522 085d 0F       		.byte	0xf
 2523 085e 29       		.byte	0x29
 2524 085f 9F080000 		.4byte	0x89f
 2525 0863 0F       		.uleb128 0xf
ARM GAS  C:\Users\Sava\AppData\Local\Temp\ccs9rGHG.s 			page 65


 2526 0864 72656C00 		.ascii	"rel\000"
 2527 0868 0F       		.byte	0xf
 2528 0869 2A       		.byte	0x2a
 2529 086a 91050000 		.4byte	0x591
 2530 086e 00       		.byte	0
 2531 086f 0F       		.uleb128 0xf
 2532 0870 707200   		.ascii	"pr\000"
 2533 0873 0F       		.byte	0xf
 2534 0874 2B       		.byte	0x2b
 2535 0875 91050000 		.4byte	0x591
 2536 0879 04       		.byte	0x4
 2537 087a 06       		.uleb128 0x6
 2538 087b F0080000 		.4byte	.LASF132
 2539 087f 0F       		.byte	0xf
 2540 0880 2C       		.byte	0x2c
 2541 0881 91050000 		.4byte	0x591
 2542 0885 08       		.byte	0x8
 2543 0886 06       		.uleb128 0x6
 2544 0887 6E030000 		.4byte	.LASF133
 2545 088b 0F       		.byte	0xf
 2546 088c 2D       		.byte	0x2d
 2547 088d 91050000 		.4byte	0x591
 2548 0891 0C       		.byte	0xc
 2549 0892 0F       		.uleb128 0xf
 2550 0893 696E6100 		.ascii	"ina\000"
 2551 0897 0F       		.byte	0xf
 2552 0898 2E       		.byte	0x2e
 2553 0899 91050000 		.4byte	0x591
 2554 089d 10       		.byte	0x10
 2555 089e 00       		.byte	0
 2556 089f 05       		.uleb128 0x5
 2557 08a0 14       		.byte	0x14
 2558 08a1 0F       		.byte	0xf
 2559 08a2 34       		.byte	0x34
 2560 08a3 E3080000 		.4byte	0x8e3
 2561 08a7 0F       		.uleb128 0xf
 2562 08a8 72656C00 		.ascii	"rel\000"
 2563 08ac 0F       		.byte	0xf
 2564 08ad 35       		.byte	0x35
 2565 08ae 91050000 		.4byte	0x591
 2566 08b2 00       		.byte	0
 2567 08b3 0F       		.uleb128 0xf
 2568 08b4 707200   		.ascii	"pr\000"
 2569 08b7 0F       		.byte	0xf
 2570 08b8 36       		.byte	0x36
 2571 08b9 91050000 		.4byte	0x591
 2572 08bd 04       		.byte	0x4
 2573 08be 06       		.uleb128 0x6
 2574 08bf F0080000 		.4byte	.LASF132
 2575 08c3 0F       		.byte	0xf
 2576 08c4 37       		.byte	0x37
 2577 08c5 91050000 		.4byte	0x591
 2578 08c9 08       		.byte	0x8
 2579 08ca 06       		.uleb128 0x6
 2580 08cb 6E030000 		.4byte	.LASF133
 2581 08cf 0F       		.byte	0xf
 2582 08d0 38       		.byte	0x38
ARM GAS  C:\Users\Sava\AppData\Local\Temp\ccs9rGHG.s 			page 66


 2583 08d1 91050000 		.4byte	0x591
 2584 08d5 0C       		.byte	0xc
 2585 08d6 0F       		.uleb128 0xf
 2586 08d7 696E6100 		.ascii	"ina\000"
 2587 08db 0F       		.byte	0xf
 2588 08dc 39       		.byte	0x39
 2589 08dd 91050000 		.4byte	0x591
 2590 08e1 10       		.byte	0x10
 2591 08e2 00       		.byte	0
 2592 08e3 05       		.uleb128 0x5
 2593 08e4 0C       		.byte	0xc
 2594 08e5 0F       		.byte	0xf
 2595 08e6 3E       		.byte	0x3e
 2596 08e7 10090000 		.4byte	0x910
 2597 08eb 06       		.uleb128 0x6
 2598 08ec 72010000 		.4byte	.LASF134
 2599 08f0 0F       		.byte	0xf
 2600 08f1 3F       		.byte	0x3f
 2601 08f2 91050000 		.4byte	0x591
 2602 08f6 00       		.byte	0
 2603 08f7 0F       		.uleb128 0xf
 2604 08f8 73656300 		.ascii	"sec\000"
 2605 08fc 0F       		.byte	0xf
 2606 08fd 40       		.byte	0x40
 2607 08fe 91050000 		.4byte	0x591
 2608 0902 04       		.byte	0x4
 2609 0903 06       		.uleb128 0x6
 2610 0904 8A070000 		.4byte	.LASF135
 2611 0908 0F       		.byte	0xf
 2612 0909 41       		.byte	0x41
 2613 090a 91050000 		.4byte	0x591
 2614 090e 08       		.byte	0x8
 2615 090f 00       		.byte	0
 2616 0910 05       		.uleb128 0x5
 2617 0911 08       		.byte	0x8
 2618 0912 0F       		.byte	0xf
 2619 0913 46       		.byte	0x46
 2620 0914 31090000 		.4byte	0x931
 2621 0918 06       		.uleb128 0x6
 2622 0919 67010000 		.4byte	.LASF136
 2623 091d 0F       		.byte	0xf
 2624 091e 47       		.byte	0x47
 2625 091f 91050000 		.4byte	0x591
 2626 0923 00       		.byte	0
 2627 0924 06       		.uleb128 0x6
 2628 0925 870F0000 		.4byte	.LASF137
 2629 0929 0F       		.byte	0xf
 2630 092a 48       		.byte	0x48
 2631 092b 91050000 		.4byte	0x591
 2632 092f 04       		.byte	0x4
 2633 0930 00       		.byte	0
 2634 0931 05       		.uleb128 0x5
 2635 0932 04       		.byte	0x4
 2636 0933 0F       		.byte	0xf
 2637 0934 4D       		.byte	0x4d
 2638 0935 46090000 		.4byte	0x946
 2639 0939 06       		.uleb128 0x6
ARM GAS  C:\Users\Sava\AppData\Local\Temp\ccs9rGHG.s 			page 67


 2640 093a 920C0000 		.4byte	.LASF138
 2641 093e 0F       		.byte	0xf
 2642 093f 4E       		.byte	0x4e
 2643 0940 91050000 		.4byte	0x591
 2644 0944 00       		.byte	0
 2645 0945 00       		.byte	0
 2646 0946 05       		.uleb128 0x5
 2647 0947 08       		.byte	0x8
 2648 0948 0F       		.byte	0xf
 2649 0949 57       		.byte	0x57
 2650 094a 66090000 		.4byte	0x966
 2651 094e 0F       		.uleb128 0xf
 2652 094f 626700   		.ascii	"bg\000"
 2653 0952 0F       		.byte	0xf
 2654 0953 58       		.byte	0x58
 2655 0954 91050000 		.4byte	0x591
 2656 0958 00       		.byte	0
 2657 0959 06       		.uleb128 0x6
 2658 095a 01090000 		.4byte	.LASF139
 2659 095e 0F       		.byte	0xf
 2660 095f 59       		.byte	0x59
 2661 0960 91050000 		.4byte	0x591
 2662 0964 04       		.byte	0x4
 2663 0965 00       		.byte	0
 2664 0966 05       		.uleb128 0x5
 2665 0967 0C       		.byte	0xc
 2666 0968 0F       		.byte	0xf
 2667 0969 5E       		.byte	0x5e
 2668 096a 92090000 		.4byte	0x992
 2669 096e 0F       		.uleb128 0xf
 2670 096f 626700   		.ascii	"bg\000"
 2671 0972 0F       		.byte	0xf
 2672 0973 5F       		.byte	0x5f
 2673 0974 91050000 		.4byte	0x591
 2674 0978 00       		.byte	0
 2675 0979 06       		.uleb128 0x6
 2676 097a 01090000 		.4byte	.LASF139
 2677 097e 0F       		.byte	0xf
 2678 097f 60       		.byte	0x60
 2679 0980 91050000 		.4byte	0x591
 2680 0984 04       		.byte	0x4
 2681 0985 06       		.uleb128 0x6
 2682 0986 7E100000 		.4byte	.LASF140
 2683 098a 0F       		.byte	0xf
 2684 098b 61       		.byte	0x61
 2685 098c 91050000 		.4byte	0x591
 2686 0990 08       		.byte	0x8
 2687 0991 00       		.byte	0
 2688 0992 05       		.uleb128 0x5
 2689 0993 10       		.byte	0x10
 2690 0994 0F       		.byte	0xf
 2691 0995 76       		.byte	0x76
 2692 0996 CA090000 		.4byte	0x9ca
 2693 099a 0F       		.uleb128 0xf
 2694 099b 626700   		.ascii	"bg\000"
 2695 099e 0F       		.byte	0xf
 2696 099f 77       		.byte	0x77
ARM GAS  C:\Users\Sava\AppData\Local\Temp\ccs9rGHG.s 			page 68


 2697 09a0 91050000 		.4byte	0x591
 2698 09a4 00       		.byte	0
 2699 09a5 06       		.uleb128 0x6
 2700 09a6 01090000 		.4byte	.LASF139
 2701 09aa 0F       		.byte	0xf
 2702 09ab 78       		.byte	0x78
 2703 09ac 91050000 		.4byte	0x591
 2704 09b0 04       		.byte	0x4
 2705 09b1 06       		.uleb128 0x6
 2706 09b2 5E0A0000 		.4byte	.LASF141
 2707 09b6 0F       		.byte	0xf
 2708 09b7 79       		.byte	0x79
 2709 09b8 91050000 		.4byte	0x591
 2710 09bc 08       		.byte	0x8
 2711 09bd 06       		.uleb128 0x6
 2712 09be C1030000 		.4byte	.LASF142
 2713 09c2 0F       		.byte	0xf
 2714 09c3 7A       		.byte	0x7a
 2715 09c4 91050000 		.4byte	0x591
 2716 09c8 0C       		.byte	0xc
 2717 09c9 00       		.byte	0
 2718 09ca 05       		.uleb128 0x5
 2719 09cb 20       		.byte	0x20
 2720 09cc 0F       		.byte	0xf
 2721 09cd 83       		.byte	0x83
 2722 09ce 320A0000 		.4byte	0xa32
 2723 09d2 0F       		.uleb128 0xf
 2724 09d3 626700   		.ascii	"bg\000"
 2725 09d6 0F       		.byte	0xf
 2726 09d7 84       		.byte	0x84
 2727 09d8 91050000 		.4byte	0x591
 2728 09dc 00       		.byte	0
 2729 09dd 06       		.uleb128 0x6
 2730 09de CF030000 		.4byte	.LASF143
 2731 09e2 0F       		.byte	0xf
 2732 09e3 85       		.byte	0x85
 2733 09e4 91050000 		.4byte	0x591
 2734 09e8 04       		.byte	0x4
 2735 09e9 06       		.uleb128 0x6
 2736 09ea 14000000 		.4byte	.LASF144
 2737 09ee 0F       		.byte	0xf
 2738 09ef 86       		.byte	0x86
 2739 09f0 91050000 		.4byte	0x591
 2740 09f4 08       		.byte	0x8
 2741 09f5 06       		.uleb128 0x6
 2742 09f6 570E0000 		.4byte	.LASF145
 2743 09fa 0F       		.byte	0xf
 2744 09fb 87       		.byte	0x87
 2745 09fc 91050000 		.4byte	0x591
 2746 0a00 0C       		.byte	0xc
 2747 0a01 06       		.uleb128 0x6
 2748 0a02 CA000000 		.4byte	.LASF146
 2749 0a06 0F       		.byte	0xf
 2750 0a07 88       		.byte	0x88
 2751 0a08 91050000 		.4byte	0x591
 2752 0a0c 10       		.byte	0x10
 2753 0a0d 06       		.uleb128 0x6
ARM GAS  C:\Users\Sava\AppData\Local\Temp\ccs9rGHG.s 			page 69


 2754 0a0e 73050000 		.4byte	.LASF147
 2755 0a12 0F       		.byte	0xf
 2756 0a13 89       		.byte	0x89
 2757 0a14 91050000 		.4byte	0x591
 2758 0a18 14       		.byte	0x14
 2759 0a19 06       		.uleb128 0x6
 2760 0a1a 59040000 		.4byte	.LASF148
 2761 0a1e 0F       		.byte	0xf
 2762 0a1f 8A       		.byte	0x8a
 2763 0a20 91050000 		.4byte	0x591
 2764 0a24 18       		.byte	0x18
 2765 0a25 06       		.uleb128 0x6
 2766 0a26 55030000 		.4byte	.LASF149
 2767 0a2a 0F       		.byte	0xf
 2768 0a2b 8B       		.byte	0x8b
 2769 0a2c 91050000 		.4byte	0x591
 2770 0a30 1C       		.byte	0x1c
 2771 0a31 00       		.byte	0
 2772 0a32 05       		.uleb128 0x5
 2773 0a33 14       		.byte	0x14
 2774 0a34 0F       		.byte	0xf
 2775 0a35 92       		.byte	0x92
 2776 0a36 760A0000 		.4byte	0xa76
 2777 0a3a 0F       		.uleb128 0xf
 2778 0a3b 72656C00 		.ascii	"rel\000"
 2779 0a3f 0F       		.byte	0xf
 2780 0a40 93       		.byte	0x93
 2781 0a41 91050000 		.4byte	0x591
 2782 0a45 00       		.byte	0
 2783 0a46 0F       		.uleb128 0xf
 2784 0a47 707200   		.ascii	"pr\000"
 2785 0a4a 0F       		.byte	0xf
 2786 0a4b 94       		.byte	0x94
 2787 0a4c 91050000 		.4byte	0x591
 2788 0a50 04       		.byte	0x4
 2789 0a51 06       		.uleb128 0x6
 2790 0a52 F0080000 		.4byte	.LASF132
 2791 0a56 0F       		.byte	0xf
 2792 0a57 95       		.byte	0x95
 2793 0a58 91050000 		.4byte	0x591
 2794 0a5c 08       		.byte	0x8
 2795 0a5d 06       		.uleb128 0x6
 2796 0a5e 6E030000 		.4byte	.LASF133
 2797 0a62 0F       		.byte	0xf
 2798 0a63 96       		.byte	0x96
 2799 0a64 91050000 		.4byte	0x591
 2800 0a68 0C       		.byte	0xc
 2801 0a69 0F       		.uleb128 0xf
 2802 0a6a 696E6100 		.ascii	"ina\000"
 2803 0a6e 0F       		.byte	0xf
 2804 0a6f 97       		.byte	0x97
 2805 0a70 91050000 		.4byte	0x591
 2806 0a74 10       		.byte	0x10
 2807 0a75 00       		.byte	0
 2808 0a76 05       		.uleb128 0x5
 2809 0a77 18       		.byte	0x18
 2810 0a78 0F       		.byte	0xf
ARM GAS  C:\Users\Sava\AppData\Local\Temp\ccs9rGHG.s 			page 70


 2811 0a79 90       		.byte	0x90
 2812 0a7a 960A0000 		.4byte	0xa96
 2813 0a7e 0F       		.uleb128 0xf
 2814 0a7f 626700   		.ascii	"bg\000"
 2815 0a82 0F       		.byte	0xf
 2816 0a83 91       		.byte	0x91
 2817 0a84 91050000 		.4byte	0x591
 2818 0a88 00       		.byte	0
 2819 0a89 0F       		.uleb128 0xf
 2820 0a8a 626F7800 		.ascii	"box\000"
 2821 0a8e 0F       		.byte	0xf
 2822 0a8f 98       		.byte	0x98
 2823 0a90 320A0000 		.4byte	0xa32
 2824 0a94 04       		.byte	0x4
 2825 0a95 00       		.byte	0
 2826 0a96 05       		.uleb128 0x5
 2827 0a97 14       		.byte	0x14
 2828 0a98 0F       		.byte	0xf
 2829 0a99 9F       		.byte	0x9f
 2830 0a9a DA0A0000 		.4byte	0xada
 2831 0a9e 0F       		.uleb128 0xf
 2832 0a9f 72656C00 		.ascii	"rel\000"
 2833 0aa3 0F       		.byte	0xf
 2834 0aa4 A0       		.byte	0xa0
 2835 0aa5 91050000 		.4byte	0x591
 2836 0aa9 00       		.byte	0
 2837 0aaa 0F       		.uleb128 0xf
 2838 0aab 707200   		.ascii	"pr\000"
 2839 0aae 0F       		.byte	0xf
 2840 0aaf A1       		.byte	0xa1
 2841 0ab0 91050000 		.4byte	0x591
 2842 0ab4 04       		.byte	0x4
 2843 0ab5 06       		.uleb128 0x6
 2844 0ab6 F0080000 		.4byte	.LASF132
 2845 0aba 0F       		.byte	0xf
 2846 0abb A2       		.byte	0xa2
 2847 0abc 91050000 		.4byte	0x591
 2848 0ac0 08       		.byte	0x8
 2849 0ac1 06       		.uleb128 0x6
 2850 0ac2 6E030000 		.4byte	.LASF133
 2851 0ac6 0F       		.byte	0xf
 2852 0ac7 A3       		.byte	0xa3
 2853 0ac8 91050000 		.4byte	0x591
 2854 0acc 0C       		.byte	0xc
 2855 0acd 0F       		.uleb128 0xf
 2856 0ace 696E6100 		.ascii	"ina\000"
 2857 0ad2 0F       		.byte	0xf
 2858 0ad3 A4       		.byte	0xa4
 2859 0ad4 91050000 		.4byte	0x591
 2860 0ad8 10       		.byte	0x10
 2861 0ad9 00       		.byte	0
 2862 0ada 05       		.uleb128 0x5
 2863 0adb 18       		.byte	0x18
 2864 0adc 0F       		.byte	0xf
 2865 0add 9D       		.byte	0x9d
 2866 0ade FA0A0000 		.4byte	0xafa
 2867 0ae2 0F       		.uleb128 0xf
ARM GAS  C:\Users\Sava\AppData\Local\Temp\ccs9rGHG.s 			page 71


 2868 0ae3 626700   		.ascii	"bg\000"
 2869 0ae6 0F       		.byte	0xf
 2870 0ae7 9E       		.byte	0x9e
 2871 0ae8 91050000 		.4byte	0x591
 2872 0aec 00       		.byte	0
 2873 0aed 0F       		.uleb128 0xf
 2874 0aee 62746E00 		.ascii	"btn\000"
 2875 0af2 0F       		.byte	0xf
 2876 0af3 A5       		.byte	0xa5
 2877 0af4 960A0000 		.4byte	0xa96
 2878 0af8 04       		.byte	0x4
 2879 0af9 00       		.byte	0
 2880 0afa 05       		.uleb128 0x5
 2881 0afb 14       		.byte	0x14
 2882 0afc 0F       		.byte	0xf
 2883 0afd AC       		.byte	0xac
 2884 0afe 3E0B0000 		.4byte	0xb3e
 2885 0b02 0F       		.uleb128 0xf
 2886 0b03 72656C00 		.ascii	"rel\000"
 2887 0b07 0F       		.byte	0xf
 2888 0b08 AD       		.byte	0xad
 2889 0b09 91050000 		.4byte	0x591
 2890 0b0d 00       		.byte	0
 2891 0b0e 0F       		.uleb128 0xf
 2892 0b0f 707200   		.ascii	"pr\000"
 2893 0b12 0F       		.byte	0xf
 2894 0b13 AE       		.byte	0xae
 2895 0b14 91050000 		.4byte	0x591
 2896 0b18 04       		.byte	0x4
 2897 0b19 06       		.uleb128 0x6
 2898 0b1a F0080000 		.4byte	.LASF132
 2899 0b1e 0F       		.byte	0xf
 2900 0b1f AF       		.byte	0xaf
 2901 0b20 91050000 		.4byte	0x591
 2902 0b24 08       		.byte	0x8
 2903 0b25 06       		.uleb128 0x6
 2904 0b26 6E030000 		.4byte	.LASF133
 2905 0b2a 0F       		.byte	0xf
 2906 0b2b B0       		.byte	0xb0
 2907 0b2c 91050000 		.4byte	0x591
 2908 0b30 0C       		.byte	0xc
 2909 0b31 0F       		.uleb128 0xf
 2910 0b32 696E6100 		.ascii	"ina\000"
 2911 0b36 0F       		.byte	0xf
 2912 0b37 B1       		.byte	0xb1
 2913 0b38 91050000 		.4byte	0x591
 2914 0b3c 10       		.byte	0x10
 2915 0b3d 00       		.byte	0
 2916 0b3e 05       		.uleb128 0x5
 2917 0b3f 18       		.byte	0x18
 2918 0b40 0F       		.byte	0xf
 2919 0b41 AA       		.byte	0xaa
 2920 0b42 5E0B0000 		.4byte	0xb5e
 2921 0b46 0F       		.uleb128 0xf
 2922 0b47 626700   		.ascii	"bg\000"
 2923 0b4a 0F       		.byte	0xf
 2924 0b4b AB       		.byte	0xab
ARM GAS  C:\Users\Sava\AppData\Local\Temp\ccs9rGHG.s 			page 72


 2925 0b4c 91050000 		.4byte	0x591
 2926 0b50 00       		.byte	0
 2927 0b51 0F       		.uleb128 0xf
 2928 0b52 62746E00 		.ascii	"btn\000"
 2929 0b56 0F       		.byte	0xf
 2930 0b57 B2       		.byte	0xb2
 2931 0b58 FA0A0000 		.4byte	0xafa
 2932 0b5c 04       		.byte	0x4
 2933 0b5d 00       		.byte	0
 2934 0b5e 05       		.uleb128 0x5
 2935 0b5f 0C       		.byte	0xc
 2936 0b60 0F       		.byte	0xf
 2937 0b61 B9       		.byte	0xb9
 2938 0b62 890B0000 		.4byte	0xb89
 2939 0b66 0F       		.uleb128 0xf
 2940 0b67 626700   		.ascii	"bg\000"
 2941 0b6a 0F       		.byte	0xf
 2942 0b6b BA       		.byte	0xba
 2943 0b6c 91050000 		.4byte	0x591
 2944 0b70 00       		.byte	0
 2945 0b71 0F       		.uleb128 0xf
 2946 0b72 72656C00 		.ascii	"rel\000"
 2947 0b76 0F       		.byte	0xf
 2948 0b77 BB       		.byte	0xbb
 2949 0b78 91050000 		.4byte	0x591
 2950 0b7c 04       		.byte	0x4
 2951 0b7d 0F       		.uleb128 0xf
 2952 0b7e 707200   		.ascii	"pr\000"
 2953 0b81 0F       		.byte	0xf
 2954 0b82 BC       		.byte	0xbc
 2955 0b83 91050000 		.4byte	0x591
 2956 0b87 08       		.byte	0x8
 2957 0b88 00       		.byte	0
 2958 0b89 05       		.uleb128 0x5
 2959 0b8a 10       		.byte	0x10
 2960 0b8b 0F       		.byte	0xf
 2961 0b8c B7       		.byte	0xb7
 2962 0b8d A90B0000 		.4byte	0xba9
 2963 0b91 0F       		.uleb128 0xf
 2964 0b92 626700   		.ascii	"bg\000"
 2965 0b95 0F       		.byte	0xf
 2966 0b96 B8       		.byte	0xb8
 2967 0b97 91050000 		.4byte	0x591
 2968 0b9b 00       		.byte	0
 2969 0b9c 0F       		.uleb128 0xf
 2970 0b9d 62746E00 		.ascii	"btn\000"
 2971 0ba1 0F       		.byte	0xf
 2972 0ba2 BD       		.byte	0xbd
 2973 0ba3 5E0B0000 		.4byte	0xb5e
 2974 0ba7 04       		.byte	0x4
 2975 0ba8 00       		.byte	0
 2976 0ba9 05       		.uleb128 0x5
 2977 0baa 0C       		.byte	0xc
 2978 0bab 0F       		.byte	0xf
 2979 0bac C2       		.byte	0xc2
 2980 0bad D40B0000 		.4byte	0xbd4
 2981 0bb1 0F       		.uleb128 0xf
ARM GAS  C:\Users\Sava\AppData\Local\Temp\ccs9rGHG.s 			page 73


 2982 0bb2 626700   		.ascii	"bg\000"
 2983 0bb5 0F       		.byte	0xf
 2984 0bb6 C3       		.byte	0xc3
 2985 0bb7 91050000 		.4byte	0x591
 2986 0bbb 00       		.byte	0
 2987 0bbc 06       		.uleb128 0x6
 2988 0bbd 87030000 		.4byte	.LASF150
 2989 0bc1 0F       		.byte	0xf
 2990 0bc2 C4       		.byte	0xc4
 2991 0bc3 91050000 		.4byte	0x591
 2992 0bc7 04       		.byte	0x4
 2993 0bc8 0F       		.uleb128 0xf
 2994 0bc9 736200   		.ascii	"sb\000"
 2995 0bcc 0F       		.byte	0xf
 2996 0bcd C5       		.byte	0xc5
 2997 0bce 91050000 		.4byte	0x591
 2998 0bd2 08       		.byte	0x8
 2999 0bd3 00       		.byte	0
 3000 0bd4 05       		.uleb128 0x5
 3001 0bd5 10       		.byte	0x10
 3002 0bd6 0F       		.byte	0xf
 3003 0bd7 CA       		.byte	0xca
 3004 0bd8 0C0C0000 		.4byte	0xc0c
 3005 0bdc 06       		.uleb128 0x6
 3006 0bdd 53060000 		.4byte	.LASF151
 3007 0be1 0F       		.byte	0xf
 3008 0be2 CB       		.byte	0xcb
 3009 0be3 91050000 		.4byte	0x591
 3010 0be7 00       		.byte	0
 3011 0be8 06       		.uleb128 0x6
 3012 0be9 3D080000 		.4byte	.LASF152
 3013 0bed 0F       		.byte	0xf
 3014 0bee CC       		.byte	0xcc
 3015 0bef 91050000 		.4byte	0x591
 3016 0bf3 04       		.byte	0x4
 3017 0bf4 06       		.uleb128 0x6
 3018 0bf5 9F100000 		.4byte	.LASF153
 3019 0bf9 0F       		.byte	0xf
 3020 0bfa CD       		.byte	0xcd
 3021 0bfb 91050000 		.4byte	0x591
 3022 0bff 08       		.byte	0x8
 3023 0c00 0F       		.uleb128 0xf
 3024 0c01 736200   		.ascii	"sb\000"
 3025 0c04 0F       		.byte	0xf
 3026 0c05 CE       		.byte	0xce
 3027 0c06 91050000 		.4byte	0x591
 3028 0c0a 0C       		.byte	0xc
 3029 0c0b 00       		.byte	0
 3030 0c0c 05       		.uleb128 0x5
 3031 0c0d 0C       		.byte	0xc
 3032 0c0e 0F       		.byte	0xf
 3033 0c0f D3       		.byte	0xd3
 3034 0c10 370C0000 		.4byte	0xc37
 3035 0c14 0F       		.uleb128 0xf
 3036 0c15 626700   		.ascii	"bg\000"
 3037 0c18 0F       		.byte	0xf
 3038 0c19 D4       		.byte	0xd4
ARM GAS  C:\Users\Sava\AppData\Local\Temp\ccs9rGHG.s 			page 74


 3039 0c1a 91050000 		.4byte	0x591
 3040 0c1e 00       		.byte	0
 3041 0c1f 06       		.uleb128 0x6
 3042 0c20 9F100000 		.4byte	.LASF153
 3043 0c24 0F       		.byte	0xf
 3044 0c25 D5       		.byte	0xd5
 3045 0c26 91050000 		.4byte	0x591
 3046 0c2a 04       		.byte	0x4
 3047 0c2b 0F       		.uleb128 0xf
 3048 0c2c 736200   		.ascii	"sb\000"
 3049 0c2f 0F       		.byte	0xf
 3050 0c30 D6       		.byte	0xd6
 3051 0c31 91050000 		.4byte	0x591
 3052 0c35 08       		.byte	0x8
 3053 0c36 00       		.byte	0
 3054 0c37 05       		.uleb128 0x5
 3055 0c38 14       		.byte	0x14
 3056 0c39 0F       		.byte	0xf
 3057 0c3a DF       		.byte	0xdf
 3058 0c3b 7B0C0000 		.4byte	0xc7b
 3059 0c3f 0F       		.uleb128 0xf
 3060 0c40 72656C00 		.ascii	"rel\000"
 3061 0c44 0F       		.byte	0xf
 3062 0c45 E0       		.byte	0xe0
 3063 0c46 91050000 		.4byte	0x591
 3064 0c4a 00       		.byte	0
 3065 0c4b 0F       		.uleb128 0xf
 3066 0c4c 707200   		.ascii	"pr\000"
 3067 0c4f 0F       		.byte	0xf
 3068 0c50 E1       		.byte	0xe1
 3069 0c51 91050000 		.4byte	0x591
 3070 0c55 04       		.byte	0x4
 3071 0c56 06       		.uleb128 0x6
 3072 0c57 F0080000 		.4byte	.LASF132
 3073 0c5b 0F       		.byte	0xf
 3074 0c5c E2       		.byte	0xe2
 3075 0c5d 91050000 		.4byte	0x591
 3076 0c61 08       		.byte	0x8
 3077 0c62 06       		.uleb128 0x6
 3078 0c63 6E030000 		.4byte	.LASF133
 3079 0c67 0F       		.byte	0xf
 3080 0c68 E3       		.byte	0xe3
 3081 0c69 91050000 		.4byte	0x591
 3082 0c6d 0C       		.byte	0xc
 3083 0c6e 0F       		.uleb128 0xf
 3084 0c6f 696E6100 		.ascii	"ina\000"
 3085 0c73 0F       		.byte	0xf
 3086 0c74 E4       		.byte	0xe4
 3087 0c75 91050000 		.4byte	0x591
 3088 0c79 10       		.byte	0x10
 3089 0c7a 00       		.byte	0
 3090 0c7b 05       		.uleb128 0x5
 3091 0c7c 20       		.byte	0x20
 3092 0c7d 0F       		.byte	0xf
 3093 0c7e DB       		.byte	0xdb
 3094 0c7f B20C0000 		.4byte	0xcb2
 3095 0c83 0F       		.uleb128 0xf
ARM GAS  C:\Users\Sava\AppData\Local\Temp\ccs9rGHG.s 			page 75


 3096 0c84 626700   		.ascii	"bg\000"
 3097 0c87 0F       		.byte	0xf
 3098 0c88 DC       		.byte	0xdc
 3099 0c89 91050000 		.4byte	0x591
 3100 0c8d 00       		.byte	0
 3101 0c8e 06       		.uleb128 0x6
 3102 0c8f 87030000 		.4byte	.LASF150
 3103 0c93 0F       		.byte	0xf
 3104 0c94 DD       		.byte	0xdd
 3105 0c95 91050000 		.4byte	0x591
 3106 0c99 04       		.byte	0x4
 3107 0c9a 0F       		.uleb128 0xf
 3108 0c9b 736200   		.ascii	"sb\000"
 3109 0c9e 0F       		.byte	0xf
 3110 0c9f DE       		.byte	0xde
 3111 0ca0 91050000 		.4byte	0x591
 3112 0ca4 08       		.byte	0x8
 3113 0ca5 0F       		.uleb128 0xf
 3114 0ca6 62746E00 		.ascii	"btn\000"
 3115 0caa 0F       		.byte	0xf
 3116 0cab E5       		.byte	0xe5
 3117 0cac 370C0000 		.4byte	0xc37
 3118 0cb0 0C       		.byte	0xc
 3119 0cb1 00       		.byte	0
 3120 0cb2 05       		.uleb128 0x5
 3121 0cb3 0C       		.byte	0xc
 3122 0cb4 0F       		.byte	0xf
 3123 0cb5 EA       		.byte	0xea
 3124 0cb6 DD0C0000 		.4byte	0xcdd
 3125 0cba 0F       		.uleb128 0xf
 3126 0cbb 626700   		.ascii	"bg\000"
 3127 0cbe 0F       		.byte	0xf
 3128 0cbf EB       		.byte	0xeb
 3129 0cc0 91050000 		.4byte	0x591
 3130 0cc4 00       		.byte	0
 3131 0cc5 0F       		.uleb128 0xf
 3132 0cc6 73656C00 		.ascii	"sel\000"
 3133 0cca 0F       		.byte	0xf
 3134 0ccb EC       		.byte	0xec
 3135 0ccc 91050000 		.4byte	0x591
 3136 0cd0 04       		.byte	0x4
 3137 0cd1 0F       		.uleb128 0xf
 3138 0cd2 736200   		.ascii	"sb\000"
 3139 0cd5 0F       		.byte	0xf
 3140 0cd6 ED       		.byte	0xed
 3141 0cd7 91050000 		.4byte	0x591
 3142 0cdb 08       		.byte	0x8
 3143 0cdc 00       		.byte	0
 3144 0cdd 05       		.uleb128 0x5
 3145 0cde 08       		.byte	0x8
 3146 0cdf 0F       		.byte	0xf
 3147 0ce0 F2       		.byte	0xf2
 3148 0ce1 FD0C0000 		.4byte	0xcfd
 3149 0ce5 0F       		.uleb128 0xf
 3150 0ce6 626700   		.ascii	"bg\000"
 3151 0ce9 0F       		.byte	0xf
 3152 0cea F3       		.byte	0xf3
ARM GAS  C:\Users\Sava\AppData\Local\Temp\ccs9rGHG.s 			page 76


 3153 0ceb 91050000 		.4byte	0x591
 3154 0cef 00       		.byte	0
 3155 0cf0 0F       		.uleb128 0xf
 3156 0cf1 73656C00 		.ascii	"sel\000"
 3157 0cf5 0F       		.byte	0xf
 3158 0cf6 F4       		.byte	0xf4
 3159 0cf7 91050000 		.4byte	0x591
 3160 0cfb 04       		.byte	0x4
 3161 0cfc 00       		.byte	0
 3162 0cfd 05       		.uleb128 0x5
 3163 0cfe 14       		.byte	0x14
 3164 0cff 0F       		.byte	0xf
 3165 0d00 FC       		.byte	0xfc
 3166 0d01 420D0000 		.4byte	0xd42
 3167 0d05 0F       		.uleb128 0xf
 3168 0d06 626700   		.ascii	"bg\000"
 3169 0d09 0F       		.byte	0xf
 3170 0d0a FD       		.byte	0xfd
 3171 0d0b 91050000 		.4byte	0x591
 3172 0d0f 00       		.byte	0
 3173 0d10 0F       		.uleb128 0xf
 3174 0d11 72656C00 		.ascii	"rel\000"
 3175 0d15 0F       		.byte	0xf
 3176 0d16 FE       		.byte	0xfe
 3177 0d17 91050000 		.4byte	0x591
 3178 0d1b 04       		.byte	0x4
 3179 0d1c 0F       		.uleb128 0xf
 3180 0d1d 707200   		.ascii	"pr\000"
 3181 0d20 0F       		.byte	0xf
 3182 0d21 FF       		.byte	0xff
 3183 0d22 91050000 		.4byte	0x591
 3184 0d26 08       		.byte	0x8
 3185 0d27 15       		.uleb128 0x15
 3186 0d28 F0080000 		.4byte	.LASF132
 3187 0d2c 0F       		.byte	0xf
 3188 0d2d 0001     		.2byte	0x100
 3189 0d2f 91050000 		.4byte	0x591
 3190 0d33 0C       		.byte	0xc
 3191 0d34 15       		.uleb128 0x15
 3192 0d35 6E030000 		.4byte	.LASF133
 3193 0d39 0F       		.byte	0xf
 3194 0d3a 0101     		.2byte	0x101
 3195 0d3c 91050000 		.4byte	0x591
 3196 0d40 10       		.byte	0x10
 3197 0d41 00       		.byte	0
 3198 0d42 05       		.uleb128 0x5
 3199 0d43 1C       		.byte	0x1c
 3200 0d44 0F       		.byte	0xf
 3201 0d45 F9       		.byte	0xf9
 3202 0d46 6F0D0000 		.4byte	0xd6f
 3203 0d4a 0F       		.uleb128 0xf
 3204 0d4b 626700   		.ascii	"bg\000"
 3205 0d4e 0F       		.byte	0xf
 3206 0d4f FA       		.byte	0xfa
 3207 0d50 91050000 		.4byte	0x591
 3208 0d54 00       		.byte	0
 3209 0d55 06       		.uleb128 0x6
ARM GAS  C:\Users\Sava\AppData\Local\Temp\ccs9rGHG.s 			page 77


 3210 0d56 01090000 		.4byte	.LASF139
 3211 0d5a 0F       		.byte	0xf
 3212 0d5b FB       		.byte	0xfb
 3213 0d5c 91050000 		.4byte	0x591
 3214 0d60 04       		.byte	0x4
 3215 0d61 16       		.uleb128 0x16
 3216 0d62 62746E00 		.ascii	"btn\000"
 3217 0d66 0F       		.byte	0xf
 3218 0d67 0201     		.2byte	0x102
 3219 0d69 FD0C0000 		.4byte	0xcfd
 3220 0d6d 08       		.byte	0x8
 3221 0d6e 00       		.byte	0
 3222 0d6f 17       		.uleb128 0x17
 3223 0d70 0C       		.byte	0xc
 3224 0d71 0F       		.byte	0xf
 3225 0d72 0701     		.2byte	0x107
 3226 0d74 9E0D0000 		.4byte	0xd9e
 3227 0d78 16       		.uleb128 0x16
 3228 0d79 626700   		.ascii	"bg\000"
 3229 0d7c 0F       		.byte	0xf
 3230 0d7d 0801     		.2byte	0x108
 3231 0d7f 91050000 		.4byte	0x591
 3232 0d83 00       		.byte	0
 3233 0d84 15       		.uleb128 0x15
 3234 0d85 87030000 		.4byte	.LASF150
 3235 0d89 0F       		.byte	0xf
 3236 0d8a 0901     		.2byte	0x109
 3237 0d8c 91050000 		.4byte	0x591
 3238 0d90 04       		.byte	0x4
 3239 0d91 16       		.uleb128 0x16
 3240 0d92 736200   		.ascii	"sb\000"
 3241 0d95 0F       		.byte	0xf
 3242 0d96 0A01     		.2byte	0x10a
 3243 0d98 91050000 		.4byte	0x591
 3244 0d9c 08       		.byte	0x8
 3245 0d9d 00       		.byte	0
 3246 0d9e 17       		.uleb128 0x17
 3247 0d9f 08       		.byte	0x8
 3248 0da0 0F       		.byte	0xf
 3249 0da1 0F01     		.2byte	0x10f
 3250 0da3 C10D0000 		.4byte	0xdc1
 3251 0da7 16       		.uleb128 0x16
 3252 0da8 626700   		.ascii	"bg\000"
 3253 0dab 0F       		.byte	0xf
 3254 0dac 1001     		.2byte	0x110
 3255 0dae 91050000 		.4byte	0x591
 3256 0db2 00       		.byte	0
 3257 0db3 15       		.uleb128 0x15
 3258 0db4 4B000000 		.4byte	.LASF154
 3259 0db8 0F       		.byte	0xf
 3260 0db9 1101     		.2byte	0x111
 3261 0dbb 91050000 		.4byte	0x591
 3262 0dbf 04       		.byte	0x4
 3263 0dc0 00       		.byte	0
 3264 0dc1 17       		.uleb128 0x17
 3265 0dc2 08       		.byte	0x8
 3266 0dc3 0F       		.byte	0xf
ARM GAS  C:\Users\Sava\AppData\Local\Temp\ccs9rGHG.s 			page 78


 3267 0dc4 1A01     		.2byte	0x11a
 3268 0dc6 E40D0000 		.4byte	0xde4
 3269 0dca 16       		.uleb128 0x16
 3270 0dcb 626700   		.ascii	"bg\000"
 3271 0dce 0F       		.byte	0xf
 3272 0dcf 1B01     		.2byte	0x11b
 3273 0dd1 91050000 		.4byte	0x591
 3274 0dd5 00       		.byte	0
 3275 0dd6 15       		.uleb128 0x15
 3276 0dd7 87030000 		.4byte	.LASF150
 3277 0ddb 0F       		.byte	0xf
 3278 0ddc 1C01     		.2byte	0x11c
 3279 0dde 91050000 		.4byte	0x591
 3280 0de2 04       		.byte	0x4
 3281 0de3 00       		.byte	0
 3282 0de4 17       		.uleb128 0x17
 3283 0de5 08       		.byte	0x8
 3284 0de6 0F       		.byte	0xf
 3285 0de7 1E01     		.2byte	0x11e
 3286 0de9 070E0000 		.4byte	0xe07
 3287 0ded 16       		.uleb128 0x16
 3288 0dee 72656C00 		.ascii	"rel\000"
 3289 0df2 0F       		.byte	0xf
 3290 0df3 1F01     		.2byte	0x11f
 3291 0df5 91050000 		.4byte	0x591
 3292 0df9 00       		.byte	0
 3293 0dfa 16       		.uleb128 0x16
 3294 0dfb 707200   		.ascii	"pr\000"
 3295 0dfe 0F       		.byte	0xf
 3296 0dff 2001     		.2byte	0x120
 3297 0e01 91050000 		.4byte	0x591
 3298 0e05 04       		.byte	0x4
 3299 0e06 00       		.byte	0
 3300 0e07 17       		.uleb128 0x17
 3301 0e08 1C       		.byte	0x1c
 3302 0e09 0F       		.byte	0xf
 3303 0e0a 1601     		.2byte	0x116
 3304 0e0c 500E0000 		.4byte	0xe50
 3305 0e10 16       		.uleb128 0x16
 3306 0e11 626700   		.ascii	"bg\000"
 3307 0e14 0F       		.byte	0xf
 3308 0e15 1701     		.2byte	0x117
 3309 0e17 91050000 		.4byte	0x591
 3310 0e1b 00       		.byte	0
 3311 0e1c 16       		.uleb128 0x16
 3312 0e1d 736200   		.ascii	"sb\000"
 3313 0e20 0F       		.byte	0xf
 3314 0e21 1801     		.2byte	0x118
 3315 0e23 91050000 		.4byte	0x591
 3316 0e27 04       		.byte	0x4
 3317 0e28 15       		.uleb128 0x15
 3318 0e29 CF030000 		.4byte	.LASF143
 3319 0e2d 0F       		.byte	0xf
 3320 0e2e 1901     		.2byte	0x119
 3321 0e30 91050000 		.4byte	0x591
 3322 0e34 08       		.byte	0x8
 3323 0e35 15       		.uleb128 0x15
ARM GAS  C:\Users\Sava\AppData\Local\Temp\ccs9rGHG.s 			page 79


 3324 0e36 0F0F0000 		.4byte	.LASF155
 3325 0e3a 0F       		.byte	0xf
 3326 0e3b 1D01     		.2byte	0x11d
 3327 0e3d C10D0000 		.4byte	0xdc1
 3328 0e41 0C       		.byte	0xc
 3329 0e42 16       		.uleb128 0x16
 3330 0e43 62746E00 		.ascii	"btn\000"
 3331 0e47 0F       		.byte	0xf
 3332 0e48 2101     		.2byte	0x121
 3333 0e4a E40D0000 		.4byte	0xde4
 3334 0e4e 14       		.byte	0x14
 3335 0e4f 00       		.byte	0
 3336 0e50 18       		.uleb128 0x18
 3337 0e51 A801     		.2byte	0x1a8
 3338 0e53 0F       		.byte	0xf
 3339 0e54 20       		.byte	0x20
 3340 0e55 E30F0000 		.4byte	0xfe3
 3341 0e59 0F       		.uleb128 0xf
 3342 0e5a 626700   		.ascii	"bg\000"
 3343 0e5d 0F       		.byte	0xf
 3344 0e5e 21       		.byte	0x21
 3345 0e5f 91050000 		.4byte	0x591
 3346 0e63 00       		.byte	0
 3347 0e64 06       		.uleb128 0x6
 3348 0e65 A90C0000 		.4byte	.LASF156
 3349 0e69 0F       		.byte	0xf
 3350 0e6a 22       		.byte	0x22
 3351 0e6b 91050000 		.4byte	0x591
 3352 0e6f 04       		.byte	0x4
 3353 0e70 06       		.uleb128 0x6
 3354 0e71 6D010000 		.4byte	.LASF157
 3355 0e75 0F       		.byte	0xf
 3356 0e76 25       		.byte	0x25
 3357 0e77 91050000 		.4byte	0x591
 3358 0e7b 08       		.byte	0x8
 3359 0e7c 0F       		.uleb128 0xf
 3360 0e7d 62746E00 		.ascii	"btn\000"
 3361 0e81 0F       		.byte	0xf
 3362 0e82 2F       		.byte	0x2f
 3363 0e83 5B080000 		.4byte	0x85b
 3364 0e87 0C       		.byte	0xc
 3365 0e88 06       		.uleb128 0x6
 3366 0e89 980C0000 		.4byte	.LASF158
 3367 0e8d 0F       		.byte	0xf
 3368 0e8e 3A       		.byte	0x3a
 3369 0e8f 9F080000 		.4byte	0x89f
 3370 0e93 20       		.byte	0x20
 3371 0e94 06       		.uleb128 0x6
 3372 0e95 05100000 		.4byte	.LASF159
 3373 0e99 0F       		.byte	0xf
 3374 0e9a 42       		.byte	0x42
 3375 0e9b E3080000 		.4byte	0x8e3
 3376 0e9f 34       		.byte	0x34
 3377 0ea0 0F       		.uleb128 0xf
 3378 0ea1 696D6700 		.ascii	"img\000"
 3379 0ea5 0F       		.byte	0xf
 3380 0ea6 49       		.byte	0x49
ARM GAS  C:\Users\Sava\AppData\Local\Temp\ccs9rGHG.s 			page 80


 3381 0ea7 10090000 		.4byte	0x910
 3382 0eab 40       		.byte	0x40
 3383 0eac 06       		.uleb128 0x6
 3384 0ead D0070000 		.4byte	.LASF73
 3385 0eb1 0F       		.byte	0xf
 3386 0eb2 4F       		.byte	0x4f
 3387 0eb3 31090000 		.4byte	0x931
 3388 0eb7 48       		.byte	0x48
 3389 0eb8 0F       		.uleb128 0xf
 3390 0eb9 6C656400 		.ascii	"led\000"
 3391 0ebd 0F       		.byte	0xf
 3392 0ebe 53       		.byte	0x53
 3393 0ebf 91050000 		.4byte	0x591
 3394 0ec3 4C       		.byte	0x4c
 3395 0ec4 0F       		.uleb128 0xf
 3396 0ec5 62617200 		.ascii	"bar\000"
 3397 0ec9 0F       		.byte	0xf
 3398 0eca 5A       		.byte	0x5a
 3399 0ecb 46090000 		.4byte	0x946
 3400 0ecf 50       		.byte	0x50
 3401 0ed0 06       		.uleb128 0x6
 3402 0ed1 18100000 		.4byte	.LASF160
 3403 0ed5 0F       		.byte	0xf
 3404 0ed6 62       		.byte	0x62
 3405 0ed7 66090000 		.4byte	0x966
 3406 0edb 58       		.byte	0x58
 3407 0edc 06       		.uleb128 0x6
 3408 0edd 71000000 		.4byte	.LASF161
 3409 0ee1 0F       		.byte	0xf
 3410 0ee2 66       		.byte	0x66
 3411 0ee3 91050000 		.4byte	0x591
 3412 0ee7 64       		.byte	0x64
 3413 0ee8 06       		.uleb128 0x6
 3414 0ee9 670A0000 		.4byte	.LASF162
 3415 0eed 0F       		.byte	0xf
 3416 0eee 6A       		.byte	0x6a
 3417 0eef 91050000 		.4byte	0x591
 3418 0ef3 68       		.byte	0x68
 3419 0ef4 0F       		.uleb128 0xf
 3420 0ef5 61726300 		.ascii	"arc\000"
 3421 0ef9 0F       		.byte	0xf
 3422 0efa 6E       		.byte	0x6e
 3423 0efb 91050000 		.4byte	0x591
 3424 0eff 6C       		.byte	0x6c
 3425 0f00 06       		.uleb128 0x6
 3426 0f01 46100000 		.4byte	.LASF163
 3427 0f05 0F       		.byte	0xf
 3428 0f06 72       		.byte	0x72
 3429 0f07 91050000 		.4byte	0x591
 3430 0f0b 70       		.byte	0x70
 3431 0f0c 0F       		.uleb128 0xf
 3432 0f0d 737700   		.ascii	"sw\000"
 3433 0f10 0F       		.byte	0xf
 3434 0f11 7B       		.byte	0x7b
 3435 0f12 92090000 		.4byte	0x992
 3436 0f16 74       		.byte	0x74
 3437 0f17 06       		.uleb128 0x6
ARM GAS  C:\Users\Sava\AppData\Local\Temp\ccs9rGHG.s 			page 81


 3438 0f18 88010000 		.4byte	.LASF164
 3439 0f1c 0F       		.byte	0xf
 3440 0f1d 7F       		.byte	0x7f
 3441 0f1e 91050000 		.4byte	0x591
 3442 0f22 84       		.byte	0x84
 3443 0f23 06       		.uleb128 0x6
 3444 0f24 740D0000 		.4byte	.LASF165
 3445 0f28 0F       		.byte	0xf
 3446 0f29 8C       		.byte	0x8c
 3447 0f2a CA090000 		.4byte	0x9ca
 3448 0f2e 88       		.byte	0x88
 3449 0f2f 0F       		.uleb128 0xf
 3450 0f30 636200   		.ascii	"cb\000"
 3451 0f33 0F       		.byte	0xf
 3452 0f34 99       		.byte	0x99
 3453 0f35 760A0000 		.4byte	0xa76
 3454 0f39 A8       		.byte	0xa8
 3455 0f3a 06       		.uleb128 0x6
 3456 0f3b 21030000 		.4byte	.LASF166
 3457 0f3f 0F       		.byte	0xf
 3458 0f40 A6       		.byte	0xa6
 3459 0f41 DA0A0000 		.4byte	0xada
 3460 0f45 C0       		.byte	0xc0
 3461 0f46 0F       		.uleb128 0xf
 3462 0f47 6B6200   		.ascii	"kb\000"
 3463 0f4a 0F       		.byte	0xf
 3464 0f4b B3       		.byte	0xb3
 3465 0f4c 3E0B0000 		.4byte	0xb3e
 3466 0f50 D8       		.byte	0xd8
 3467 0f51 06       		.uleb128 0x6
 3468 0f52 A7090000 		.4byte	.LASF167
 3469 0f56 0F       		.byte	0xf
 3470 0f57 BE       		.byte	0xbe
 3471 0f58 890B0000 		.4byte	0xb89
 3472 0f5c F0       		.byte	0xf0
 3473 0f5d 19       		.uleb128 0x19
 3474 0f5e 26030000 		.4byte	.LASF168
 3475 0f62 0F       		.byte	0xf
 3476 0f63 C6       		.byte	0xc6
 3477 0f64 A90B0000 		.4byte	0xba9
 3478 0f68 0001     		.2byte	0x100
 3479 0f6a 1A       		.uleb128 0x1a
 3480 0f6b 746100   		.ascii	"ta\000"
 3481 0f6e 0F       		.byte	0xf
 3482 0f6f CF       		.byte	0xcf
 3483 0f70 D40B0000 		.4byte	0xbd4
 3484 0f74 0C01     		.2byte	0x10c
 3485 0f76 19       		.uleb128 0x19
 3486 0f77 2B0E0000 		.4byte	.LASF169
 3487 0f7b 0F       		.byte	0xf
 3488 0f7c D7       		.byte	0xd7
 3489 0f7d 0C0C0000 		.4byte	0xc0c
 3490 0f81 1C01     		.2byte	0x11c
 3491 0f83 19       		.uleb128 0x19
 3492 0f84 2F0A0000 		.4byte	.LASF170
 3493 0f88 0F       		.byte	0xf
 3494 0f89 E6       		.byte	0xe6
ARM GAS  C:\Users\Sava\AppData\Local\Temp\ccs9rGHG.s 			page 82


 3495 0f8a 7B0C0000 		.4byte	0xc7b
 3496 0f8e 2801     		.2byte	0x128
 3497 0f90 19       		.uleb128 0x19
 3498 0f91 26050000 		.4byte	.LASF171
 3499 0f95 0F       		.byte	0xf
 3500 0f96 EE       		.byte	0xee
 3501 0f97 B20C0000 		.4byte	0xcb2
 3502 0f9b 4801     		.2byte	0x148
 3503 0f9d 19       		.uleb128 0x19
 3504 0f9e D9100000 		.4byte	.LASF172
 3505 0fa2 0F       		.byte	0xf
 3506 0fa3 F5       		.byte	0xf5
 3507 0fa4 DD0C0000 		.4byte	0xcdd
 3508 0fa8 5401     		.2byte	0x154
 3509 0faa 1B       		.uleb128 0x1b
 3510 0fab 36090000 		.4byte	.LASF173
 3511 0faf 0F       		.byte	0xf
 3512 0fb0 0301     		.2byte	0x103
 3513 0fb2 420D0000 		.4byte	0xd42
 3514 0fb6 5C01     		.2byte	0x15c
 3515 0fb8 1B       		.uleb128 0x1b
 3516 0fb9 90020000 		.4byte	.LASF174
 3517 0fbd 0F       		.byte	0xf
 3518 0fbe 0B01     		.2byte	0x10b
 3519 0fc0 6F0D0000 		.4byte	0xd6f
 3520 0fc4 7801     		.2byte	0x178
 3521 0fc6 1B       		.uleb128 0x1b
 3522 0fc7 DC030000 		.4byte	.LASF175
 3523 0fcb 0F       		.byte	0xf
 3524 0fcc 1201     		.2byte	0x112
 3525 0fce 9E0D0000 		.4byte	0xd9e
 3526 0fd2 8401     		.2byte	0x184
 3527 0fd4 1C       		.uleb128 0x1c
 3528 0fd5 77696E00 		.ascii	"win\000"
 3529 0fd9 0F       		.byte	0xf
 3530 0fda 2201     		.2byte	0x122
 3531 0fdc 070E0000 		.4byte	0xe07
 3532 0fe0 8C01     		.2byte	0x18c
 3533 0fe2 00       		.byte	0
 3534 0fe3 1D       		.uleb128 0x1d
 3535 0fe4 CC050000 		.4byte	.LASF176
 3536 0fe8 0F       		.byte	0xf
 3537 0fe9 2401     		.2byte	0x124
 3538 0feb 500E0000 		.4byte	0xe50
 3539 0fef 13       		.uleb128 0x13
 3540 0ff0 01       		.byte	0x1
 3541 0ff1 57000000 		.4byte	0x57
 3542 0ff5 04       		.byte	0x4
 3543 0ff6 24       		.byte	0x24
 3544 0ff7 38100000 		.4byte	0x1038
 3545 0ffb 14       		.uleb128 0x14
 3546 0ffc B0070000 		.4byte	.LASF177
 3547 1000 00       		.byte	0
 3548 1001 14       		.uleb128 0x14
 3549 1002 BA0F0000 		.4byte	.LASF178
 3550 1006 01       		.byte	0x1
 3551 1007 14       		.uleb128 0x14
ARM GAS  C:\Users\Sava\AppData\Local\Temp\ccs9rGHG.s 			page 83


 3552 1008 62040000 		.4byte	.LASF179
 3553 100c 02       		.byte	0x2
 3554 100d 14       		.uleb128 0x14
 3555 100e 72040000 		.4byte	.LASF180
 3556 1012 03       		.byte	0x3
 3557 1013 14       		.uleb128 0x14
 3558 1014 82040000 		.4byte	.LASF181
 3559 1018 04       		.byte	0x4
 3560 1019 14       		.uleb128 0x14
 3561 101a E40B0000 		.4byte	.LASF182
 3562 101e 05       		.byte	0x5
 3563 101f 14       		.uleb128 0x14
 3564 1020 E5020000 		.4byte	.LASF183
 3565 1024 06       		.byte	0x6
 3566 1025 14       		.uleb128 0x14
 3567 1026 BF020000 		.4byte	.LASF184
 3568 102a 07       		.byte	0x7
 3569 102b 14       		.uleb128 0x14
 3570 102c CF020000 		.4byte	.LASF185
 3571 1030 08       		.byte	0x8
 3572 1031 14       		.uleb128 0x14
 3573 1032 1E0D0000 		.4byte	.LASF186
 3574 1036 09       		.byte	0x9
 3575 1037 00       		.byte	0
 3576 1038 04       		.uleb128 0x4
 3577 1039 AB0E0000 		.4byte	.LASF187
 3578 103d 04       		.byte	0x4
 3579 103e 30       		.byte	0x30
 3580 103f AD000000 		.4byte	0xad
 3581 1043 13       		.uleb128 0x13
 3582 1044 01       		.byte	0x1
 3583 1045 57000000 		.4byte	0x57
 3584 1049 03       		.byte	0x3
 3585 104a 2B       		.byte	0x2b
 3586 104b 74100000 		.4byte	0x1074
 3587 104f 14       		.uleb128 0x14
 3588 1050 77010000 		.4byte	.LASF188
 3589 1054 00       		.byte	0
 3590 1055 14       		.uleb128 0x14
 3591 1056 A30B0000 		.4byte	.LASF189
 3592 105a 01       		.byte	0x1
 3593 105b 14       		.uleb128 0x14
 3594 105c 8F070000 		.4byte	.LASF190
 3595 1060 02       		.byte	0x2
 3596 1061 14       		.uleb128 0x14
 3597 1062 2C0B0000 		.4byte	.LASF191
 3598 1066 03       		.byte	0x3
 3599 1067 14       		.uleb128 0x14
 3600 1068 BC090000 		.4byte	.LASF192
 3601 106c 04       		.byte	0x4
 3602 106d 14       		.uleb128 0x14
 3603 106e 7D0D0000 		.4byte	.LASF193
 3604 1072 05       		.byte	0x5
 3605 1073 00       		.byte	0
 3606 1074 13       		.uleb128 0x13
 3607 1075 01       		.byte	0x1
 3608 1076 57000000 		.4byte	0x57
ARM GAS  C:\Users\Sava\AppData\Local\Temp\ccs9rGHG.s 			page 84


 3609 107a 03       		.byte	0x3
 3610 107b 52       		.byte	0x52
 3611 107c 9F100000 		.4byte	0x109f
 3612 1080 14       		.uleb128 0x14
 3613 1081 10030000 		.4byte	.LASF194
 3614 1085 00       		.byte	0
 3615 1086 14       		.uleb128 0x14
 3616 1087 92040000 		.4byte	.LASF195
 3617 108b 01       		.byte	0x1
 3618 108c 14       		.uleb128 0x14
 3619 108d 69100000 		.4byte	.LASF196
 3620 1091 02       		.byte	0x2
 3621 1092 14       		.uleb128 0x14
 3622 1093 B40C0000 		.4byte	.LASF197
 3623 1097 03       		.byte	0x3
 3624 1098 14       		.uleb128 0x14
 3625 1099 83090000 		.4byte	.LASF198
 3626 109d 04       		.byte	0x4
 3627 109e 00       		.byte	0
 3628 109f 05       		.uleb128 0x5
 3629 10a0 08       		.byte	0x8
 3630 10a1 10       		.byte	0x10
 3631 10a2 23       		.byte	0x23
 3632 10a3 CC100000 		.4byte	0x10cc
 3633 10a7 06       		.uleb128 0x6
 3634 10a8 F50D0000 		.4byte	.LASF199
 3635 10ac 10       		.byte	0x10
 3636 10ad 25       		.byte	0x25
 3637 10ae CC100000 		.4byte	0x10cc
 3638 10b2 00       		.byte	0
 3639 10b3 06       		.uleb128 0x6
 3640 10b4 DE0C0000 		.4byte	.LASF52
 3641 10b8 10       		.byte	0x10
 3642 10b9 26       		.byte	0x26
 3643 10ba 85010000 		.4byte	0x185
 3644 10be 04       		.byte	0x4
 3645 10bf 06       		.uleb128 0x6
 3646 10c0 58060000 		.4byte	.LASF200
 3647 10c4 10       		.byte	0x10
 3648 10c5 27       		.byte	0x27
 3649 10c6 C3000000 		.4byte	0xc3
 3650 10ca 06       		.byte	0x6
 3651 10cb 00       		.byte	0
 3652 10cc 07       		.uleb128 0x7
 3653 10cd 04       		.byte	0x4
 3654 10ce B4010000 		.4byte	0x1b4
 3655 10d2 04       		.uleb128 0x4
 3656 10d3 75030000 		.4byte	.LASF201
 3657 10d7 10       		.byte	0x10
 3658 10d8 28       		.byte	0x28
 3659 10d9 9F100000 		.4byte	0x109f
 3660 10dd 13       		.uleb128 0x13
 3661 10de 01       		.byte	0x1
 3662 10df 57000000 		.4byte	0x57
 3663 10e3 11       		.byte	0x11
 3664 10e4 2E       		.byte	0x2e
 3665 10e5 0E110000 		.4byte	0x110e
ARM GAS  C:\Users\Sava\AppData\Local\Temp\ccs9rGHG.s 			page 85


 3666 10e9 14       		.uleb128 0x14
 3667 10ea D2040000 		.4byte	.LASF202
 3668 10ee 00       		.byte	0
 3669 10ef 14       		.uleb128 0x14
 3670 10f0 FD000000 		.4byte	.LASF203
 3671 10f4 01       		.byte	0x1
 3672 10f5 14       		.uleb128 0x14
 3673 10f6 0D020000 		.4byte	.LASF204
 3674 10fa 02       		.byte	0x2
 3675 10fb 14       		.uleb128 0x14
 3676 10fc 910B0000 		.4byte	.LASF205
 3677 1100 03       		.byte	0x3
 3678 1101 14       		.uleb128 0x14
 3679 1102 51090000 		.4byte	.LASF206
 3680 1106 04       		.byte	0x4
 3681 1107 14       		.uleb128 0x14
 3682 1108 1F0F0000 		.4byte	.LASF207
 3683 110c 08       		.byte	0x8
 3684 110d 00       		.byte	0
 3685 110e 05       		.uleb128 0x5
 3686 110f 04       		.byte	0x4
 3687 1110 12       		.byte	0x12
 3688 1111 22       		.byte	0x22
 3689 1112 3B110000 		.4byte	0x113b
 3690 1116 06       		.uleb128 0x6
 3691 1117 46010000 		.4byte	.LASF208
 3692 111b 12       		.byte	0x12
 3693 111c 23       		.byte	0x23
 3694 111d C3000000 		.4byte	0xc3
 3695 1121 00       		.byte	0
 3696 1122 06       		.uleb128 0x6
 3697 1123 180D0000 		.4byte	.LASF209
 3698 1127 12       		.byte	0x12
 3699 1128 24       		.byte	0x24
 3700 1129 A2000000 		.4byte	0xa2
 3701 112d 02       		.byte	0x2
 3702 112e 0F       		.uleb128 0xf
 3703 112f 64617900 		.ascii	"day\000"
 3704 1133 12       		.byte	0x12
 3705 1134 25       		.byte	0x25
 3706 1135 A2000000 		.4byte	0xa2
 3707 1139 03       		.byte	0x3
 3708 113a 00       		.byte	0
 3709 113b 04       		.uleb128 0x4
 3710 113c 790A0000 		.4byte	.LASF210
 3711 1140 12       		.byte	0x12
 3712 1141 26       		.byte	0x26
 3713 1142 0E110000 		.4byte	0x110e
 3714 1146 1E       		.uleb128 0x1e
 3715 1147 2B030000 		.4byte	.LASF212
 3716 114b 06       		.byte	0x6
 3717 114c 50       		.byte	0x50
 3718 114d 03       		.byte	0x3
 3719 114e 69110000 		.4byte	0x1169
 3720 1152 1F       		.uleb128 0x1f
 3721 1153 D9100000 		.4byte	.LASF172
 3722 1157 06       		.byte	0x6
ARM GAS  C:\Users\Sava\AppData\Local\Temp\ccs9rGHG.s 			page 86


 3723 1158 50       		.byte	0x50
 3724 1159 55080000 		.4byte	0x855
 3725 115d 1F       		.uleb128 0x1f
 3726 115e 30100000 		.4byte	.LASF211
 3727 1162 06       		.byte	0x6
 3728 1163 50       		.byte	0x50
 3729 1164 A9010000 		.4byte	0x1a9
 3730 1168 00       		.byte	0
 3731 1169 1E       		.uleb128 0x1e
 3732 116a F9030000 		.4byte	.LASF213
 3733 116e 05       		.byte	0x5
 3734 116f 5D       		.byte	0x5d
 3735 1170 03       		.byte	0x3
 3736 1171 8C110000 		.4byte	0x118c
 3737 1175 1F       		.uleb128 0x1f
 3738 1176 D0070000 		.4byte	.LASF73
 3739 117a 05       		.byte	0x5
 3740 117b 5D       		.byte	0x5d
 3741 117c 55080000 		.4byte	0x855
 3742 1180 1F       		.uleb128 0x1f
 3743 1181 F60A0000 		.4byte	.LASF214
 3744 1185 05       		.byte	0x5
 3745 1186 5D       		.byte	0x5d
 3746 1187 91050000 		.4byte	0x591
 3747 118b 00       		.byte	0
 3748 118c 1E       		.uleb128 0x1e
 3749 118d BE070000 		.4byte	.LASF215
 3750 1191 04       		.byte	0x4
 3751 1192 62       		.byte	0x62
 3752 1193 03       		.byte	0x3
 3753 1194 AF110000 		.4byte	0x11af
 3754 1198 1F       		.uleb128 0x1f
 3755 1199 6D010000 		.4byte	.LASF157
 3756 119d 04       		.byte	0x4
 3757 119e 62       		.byte	0x62
 3758 119f 55080000 		.4byte	0x855
 3759 11a3 1F       		.uleb128 0x1f
 3760 11a4 F60A0000 		.4byte	.LASF214
 3761 11a8 04       		.byte	0x4
 3762 11a9 62       		.byte	0x62
 3763 11aa 91050000 		.4byte	0x591
 3764 11ae 00       		.byte	0
 3765 11af 1E       		.uleb128 0x1e
 3766 11b0 4F020000 		.4byte	.LASF216
 3767 11b4 03       		.byte	0x3
 3768 11b5 97       		.byte	0x97
 3769 11b6 03       		.byte	0x3
 3770 11b7 DD110000 		.4byte	0x11dd
 3771 11bb 20       		.uleb128 0x20
 3772 11bc 62746E00 		.ascii	"btn\000"
 3773 11c0 03       		.byte	0x3
 3774 11c1 97       		.byte	0x97
 3775 11c2 55080000 		.4byte	0x855
 3776 11c6 1F       		.uleb128 0x1f
 3777 11c7 24040000 		.4byte	.LASF217
 3778 11cb 03       		.byte	0x3
 3779 11cc 97       		.byte	0x97
ARM GAS  C:\Users\Sava\AppData\Local\Temp\ccs9rGHG.s 			page 87


 3780 11cd CC050000 		.4byte	0x5cc
 3781 11d1 1F       		.uleb128 0x1f
 3782 11d2 6D0A0000 		.4byte	.LASF218
 3783 11d6 03       		.byte	0x3
 3784 11d7 97       		.byte	0x97
 3785 11d8 CC050000 		.4byte	0x5cc
 3786 11dc 00       		.byte	0
 3787 11dd 1E       		.uleb128 0x1e
 3788 11de 0E080000 		.4byte	.LASF219
 3789 11e2 02       		.byte	0x2
 3790 11e3 D7       		.byte	0xd7
 3791 11e4 03       		.byte	0x3
 3792 11e5 00120000 		.4byte	0x1200
 3793 11e9 1F       		.uleb128 0x1f
 3794 11ea 26030000 		.4byte	.LASF168
 3795 11ee 02       		.byte	0x2
 3796 11ef D7       		.byte	0xd7
 3797 11f0 55080000 		.4byte	0x855
 3798 11f4 1F       		.uleb128 0x1f
 3799 11f5 2F090000 		.4byte	.LASF220
 3800 11f9 02       		.byte	0x2
 3801 11fa D7       		.byte	0xd7
 3802 11fb 38100000 		.4byte	0x1038
 3803 11ff 00       		.byte	0
 3804 1200 21       		.uleb128 0x21
 3805 1201 E3070000 		.4byte	.LASF316
 3806 1205 02       		.byte	0x2
 3807 1206 1801     		.2byte	0x118
 3808 1208 B4010000 		.4byte	0x1b4
 3809 120c 03       		.byte	0x3
 3810 120d 1E120000 		.4byte	0x121e
 3811 1211 22       		.uleb128 0x22
 3812 1212 26030000 		.4byte	.LASF168
 3813 1216 02       		.byte	0x2
 3814 1217 1801     		.2byte	0x118
 3815 1219 1E120000 		.4byte	0x121e
 3816 121d 00       		.byte	0
 3817 121e 07       		.uleb128 0x7
 3818 121f 04       		.byte	0x4
 3819 1220 24120000 		.4byte	0x1224
 3820 1224 0E       		.uleb128 0xe
 3821 1225 45080000 		.4byte	0x845
 3822 1229 1E       		.uleb128 0x1e
 3823 122a AC030000 		.4byte	.LASF221
 3824 122e 02       		.byte	0x2
 3825 122f B8       		.byte	0xb8
 3826 1230 03       		.byte	0x3
 3827 1231 57120000 		.4byte	0x1257
 3828 1235 1F       		.uleb128 0x1f
 3829 1236 26030000 		.4byte	.LASF168
 3830 123a 02       		.byte	0x2
 3831 123b B8       		.byte	0xb8
 3832 123c 55080000 		.4byte	0x855
 3833 1240 1F       		.uleb128 0x1f
 3834 1241 24040000 		.4byte	.LASF217
 3835 1245 02       		.byte	0x2
 3836 1246 B8       		.byte	0xb8
ARM GAS  C:\Users\Sava\AppData\Local\Temp\ccs9rGHG.s 			page 88


 3837 1247 CC050000 		.4byte	0x5cc
 3838 124b 1F       		.uleb128 0x1f
 3839 124c 6D0A0000 		.4byte	.LASF218
 3840 1250 02       		.byte	0x2
 3841 1251 B8       		.byte	0xb8
 3842 1252 CC050000 		.4byte	0x5cc
 3843 1256 00       		.byte	0
 3844 1257 23       		.uleb128 0x23
 3845 1258 81050000 		.4byte	.LASF228
 3846 125c 01       		.byte	0x1
 3847 125d 42       		.byte	0x42
 3848 125e 00000000 		.4byte	.LFB108
 3849 1262 78030000 		.4byte	.LFE108-.LFB108
 3850 1266 01       		.uleb128 0x1
 3851 1267 9C       		.byte	0x9c
 3852 1268 411D0000 		.4byte	0x1d41
 3853 126c 24       		.uleb128 0x24
 3854 126d C5050000 		.4byte	.LASF230
 3855 1271 01       		.byte	0x1
 3856 1272 42       		.byte	0x42
 3857 1273 55080000 		.4byte	0x855
 3858 1277 00000000 		.4byte	.LLST0
 3859 127b 25       		.uleb128 0x25
 3860 127c 746800   		.ascii	"th\000"
 3861 127f 01       		.byte	0x1
 3862 1280 46       		.byte	0x46
 3863 1281 411D0000 		.4byte	0x1d41
 3864 1285 2C000000 		.4byte	.LLST1
 3865 1289 26       		.uleb128 0x26
 3866 128a 420E0000 		.4byte	.LASF222
 3867 128e 01       		.byte	0x1
 3868 128f 48       		.byte	0x48
 3869 1290 86050000 		.4byte	0x586
 3870 1294 05       		.uleb128 0x5
 3871 1295 03       		.byte	0x3
 3872 1296 00000000 		.4byte	h_style.8325
 3873 129a 25       		.uleb128 0x25
 3874 129b 6800     		.ascii	"h\000"
 3875 129d 01       		.byte	0x1
 3876 129e 4E       		.byte	0x4e
 3877 129f 55080000 		.4byte	0x855
 3878 12a3 4A000000 		.4byte	.LLST2
 3879 12a7 25       		.uleb128 0x25
 3880 12a8 62746E00 		.ascii	"btn\000"
 3881 12ac 01       		.byte	0x1
 3882 12ad 54       		.byte	0x54
 3883 12ae 55080000 		.4byte	0x855
 3884 12b2 94000000 		.4byte	.LLST3
 3885 12b6 27       		.uleb128 0x27
 3886 12b7 770C0000 		.4byte	.LASF223
 3887 12bb 01       		.byte	0x1
 3888 12bc 5C       		.byte	0x5c
 3889 12bd 55080000 		.4byte	0x855
 3890 12c1 DE000000 		.4byte	.LLST4
 3891 12c5 27       		.uleb128 0x27
 3892 12c6 05100000 		.4byte	.LASF159
 3893 12ca 01       		.byte	0x1
ARM GAS  C:\Users\Sava\AppData\Local\Temp\ccs9rGHG.s 			page 89


 3894 12cb 69       		.byte	0x69
 3895 12cc 55080000 		.4byte	0x855
 3896 12d0 07010000 		.4byte	.LLST5
 3897 12d4 26       		.uleb128 0x26
 3898 12d5 C50D0000 		.4byte	.LASF224
 3899 12d9 01       		.byte	0x1
 3900 12da 75       		.byte	0x75
 3901 12db 471D0000 		.4byte	0x1d47
 3902 12df 05       		.uleb128 0x5
 3903 12e0 03       		.byte	0x3
 3904 12e1 00000000 		.4byte	btnm_str.8330
 3905 12e5 27       		.uleb128 0x27
 3906 12e6 21030000 		.4byte	.LASF166
 3907 12ea 01       		.byte	0x1
 3908 12eb 76       		.byte	0x76
 3909 12ec 55080000 		.4byte	0x855
 3910 12f0 51010000 		.4byte	.LLST6
 3911 12f4 27       		.uleb128 0x27
 3912 12f5 740A0000 		.4byte	.LASF225
 3913 12f9 01       		.byte	0x1
 3914 12fa 7D       		.byte	0x7d
 3915 12fb 55080000 		.4byte	0x855
 3916 12ff 6F010000 		.4byte	.LLST7
 3917 1303 25       		.uleb128 0x25
 3918 1304 737700   		.ascii	"sw\000"
 3919 1307 01       		.byte	0x1
 3920 1308 83       		.byte	0x83
 3921 1309 55080000 		.4byte	0x855
 3922 130d 8D010000 		.4byte	.LLST8
 3923 1311 25       		.uleb128 0x25
 3924 1312 62617200 		.ascii	"bar\000"
 3925 1316 01       		.byte	0x1
 3926 1317 88       		.byte	0x88
 3927 1318 55080000 		.4byte	0x855
 3928 131c B6010000 		.4byte	.LLST9
 3929 1320 27       		.uleb128 0x27
 3930 1321 18100000 		.4byte	.LASF160
 3931 1325 01       		.byte	0x1
 3932 1326 8B       		.byte	0x8b
 3933 1327 55080000 		.4byte	0x855
 3934 132b C9010000 		.4byte	.LLST10
 3935 132f 27       		.uleb128 0x27
 3936 1330 D0070000 		.4byte	.LASF73
 3937 1334 01       		.byte	0x1
 3938 1335 8E       		.byte	0x8e
 3939 1336 55080000 		.4byte	0x855
 3940 133a DC010000 		.4byte	.LLST11
 3941 133e 26       		.uleb128 0x26
 3942 133f A6100000 		.4byte	.LASF226
 3943 1343 01       		.byte	0x1
 3944 1344 8F       		.byte	0x8f
 3945 1345 671D0000 		.4byte	0x1d67
 3946 1349 05       		.uleb128 0x5
 3947 134a 03       		.byte	0x3
 3948 134b 00000000 		.4byte	line_p.8337
 3949 134f 25       		.uleb128 0x25
 3950 1350 746100   		.ascii	"ta\000"
ARM GAS  C:\Users\Sava\AppData\Local\Temp\ccs9rGHG.s 			page 90


 3951 1353 01       		.byte	0x1
 3952 1354 93       		.byte	0x93
 3953 1355 55080000 		.4byte	0x855
 3954 1359 FA010000 		.4byte	.LLST12
 3955 135d 25       		.uleb128 0x25
 3956 135e 636200   		.ascii	"cb\000"
 3957 1361 01       		.byte	0x1
 3958 1362 98       		.byte	0x98
 3959 1363 55080000 		.4byte	0x855
 3960 1367 18020000 		.4byte	.LLST13
 3961 136b 27       		.uleb128 0x27
 3962 136c 26050000 		.4byte	.LASF171
 3963 1370 01       		.byte	0x1
 3964 1371 9E       		.byte	0x9e
 3965 1372 55080000 		.4byte	0x855
 3966 1376 41020000 		.4byte	.LLST14
 3967 137a 27       		.uleb128 0x27
 3968 137b 2F0A0000 		.4byte	.LASF170
 3969 137f 01       		.byte	0x1
 3970 1380 A4       		.byte	0xa4
 3971 1381 55080000 		.4byte	0x855
 3972 1385 5F020000 		.4byte	.LLST15
 3973 1389 27       		.uleb128 0x27
 3974 138a 220E0000 		.4byte	.LASF227
 3975 138e 01       		.byte	0x1
 3976 138f A5       		.byte	0xa5
 3977 1390 55080000 		.4byte	0x855
 3978 1394 7D020000 		.4byte	.LLST16
 3979 1398 27       		.uleb128 0x27
 3980 1399 D9100000 		.4byte	.LASF172
 3981 139d 01       		.byte	0x1
 3982 139e B4       		.byte	0xb4
 3983 139f 55080000 		.4byte	0x855
 3984 13a3 9B020000 		.4byte	.LLST17
 3985 13a7 28       		.uleb128 0x28
 3986 13a8 DD110000 		.4byte	0x11dd
 3987 13ac 06000000 		.4byte	.LBB18
 3988 13b0 0A000000 		.4byte	.LBE18-.LBB18
 3989 13b4 01       		.byte	0x1
 3990 13b5 44       		.byte	0x44
 3991 13b6 F0130000 		.4byte	0x13f0
 3992 13ba 29       		.uleb128 0x29
 3993 13bb F4110000 		.4byte	0x11f4
 3994 13bf B9020000 		.4byte	.LLST18
 3995 13c3 29       		.uleb128 0x29
 3996 13c4 E9110000 		.4byte	0x11e9
 3997 13c8 CD020000 		.4byte	.LLST19
 3998 13cc 2A       		.uleb128 0x2a
 3999 13cd 0A000000 		.4byte	.LVL2
 4000 13d1 D0280000 		.4byte	0x28d0
 4001 13d5 E0130000 		.4byte	0x13e0
 4002 13d9 2B       		.uleb128 0x2b
 4003 13da 01       		.uleb128 0x1
 4004 13db 50       		.byte	0x50
 4005 13dc 02       		.uleb128 0x2
 4006 13dd 77       		.byte	0x77
 4007 13de 00       		.sleb128 0
ARM GAS  C:\Users\Sava\AppData\Local\Temp\ccs9rGHG.s 			page 91


 4008 13df 00       		.byte	0
 4009 13e0 2C       		.uleb128 0x2c
 4010 13e1 10000000 		.4byte	.LVL3
 4011 13e5 DB280000 		.4byte	0x28db
 4012 13e9 2B       		.uleb128 0x2b
 4013 13ea 01       		.uleb128 0x1
 4014 13eb 51       		.byte	0x51
 4015 13ec 01       		.uleb128 0x1
 4016 13ed 38       		.byte	0x38
 4017 13ee 00       		.byte	0
 4018 13ef 00       		.byte	0
 4019 13f0 28       		.uleb128 0x28
 4020 13f1 AF110000 		.4byte	0x11af
 4021 13f5 92000000 		.4byte	.LBB20
 4022 13f9 0A000000 		.4byte	.LBE20-.LBB20
 4023 13fd 01       		.byte	0x1
 4024 13fe 5A       		.byte	0x5a
 4025 13ff 39140000 		.4byte	0x1439
 4026 1403 29       		.uleb128 0x29
 4027 1404 D1110000 		.4byte	0x11d1
 4028 1408 EB020000 		.4byte	.LLST20
 4029 140c 29       		.uleb128 0x29
 4030 140d C6110000 		.4byte	0x11c6
 4031 1411 EB020000 		.4byte	.LLST20
 4032 1415 29       		.uleb128 0x29
 4033 1416 BB110000 		.4byte	0x11bb
 4034 141a FF020000 		.4byte	.LLST22
 4035 141e 2C       		.uleb128 0x2c
 4036 141f 9C000000 		.4byte	.LVL21
 4037 1423 E6280000 		.4byte	0x28e6
 4038 1427 2B       		.uleb128 0x2b
 4039 1428 01       		.uleb128 0x1
 4040 1429 50       		.byte	0x50
 4041 142a 02       		.uleb128 0x2
 4042 142b 76       		.byte	0x76
 4043 142c 00       		.sleb128 0
 4044 142d 2B       		.uleb128 0x2b
 4045 142e 01       		.uleb128 0x1
 4046 142f 51       		.byte	0x51
 4047 1430 01       		.uleb128 0x1
 4048 1431 31       		.byte	0x31
 4049 1432 2B       		.uleb128 0x2b
 4050 1433 01       		.uleb128 0x1
 4051 1434 52       		.byte	0x52
 4052 1435 01       		.uleb128 0x1
 4053 1436 31       		.byte	0x31
 4054 1437 00       		.byte	0
 4055 1438 00       		.byte	0
 4056 1439 28       		.uleb128 0x28
 4057 143a 8C110000 		.4byte	0x118c
 4058 143e 6A010000 		.4byte	.LBB22
 4059 1442 06000000 		.4byte	.LBE22-.LBB22
 4060 1446 01       		.byte	0x1
 4061 1447 7E       		.byte	0x7e
 4062 1448 71140000 		.4byte	0x1471
 4063 144c 2D       		.uleb128 0x2d
 4064 144d A3110000 		.4byte	0x11a3
ARM GAS  C:\Users\Sava\AppData\Local\Temp\ccs9rGHG.s 			page 92


 4065 1451 29       		.uleb128 0x29
 4066 1452 98110000 		.4byte	0x1198
 4067 1456 12030000 		.4byte	.LLST23
 4068 145a 2C       		.uleb128 0x2c
 4069 145b 70010000 		.4byte	.LVL56
 4070 145f F1280000 		.4byte	0x28f1
 4071 1463 2B       		.uleb128 0x2b
 4072 1464 01       		.uleb128 0x1
 4073 1465 50       		.byte	0x50
 4074 1466 02       		.uleb128 0x2
 4075 1467 76       		.byte	0x76
 4076 1468 00       		.sleb128 0
 4077 1469 2B       		.uleb128 0x2b
 4078 146a 01       		.uleb128 0x1
 4079 146b 51       		.byte	0x51
 4080 146c 02       		.uleb128 0x2
 4081 146d 78       		.byte	0x78
 4082 146e 00       		.sleb128 0
 4083 146f 00       		.byte	0
 4084 1470 00       		.byte	0
 4085 1471 28       		.uleb128 0x28
 4086 1472 69110000 		.4byte	0x1169
 4087 1476 CC010000 		.4byte	.LBB24
 4088 147a 08000000 		.4byte	.LBE24-.LBB24
 4089 147e 01       		.byte	0x1
 4090 147f 91       		.byte	0x91
 4091 1480 A7140000 		.4byte	0x14a7
 4092 1484 29       		.uleb128 0x29
 4093 1485 80110000 		.4byte	0x1180
 4094 1489 30030000 		.4byte	.LLST24
 4095 148d 29       		.uleb128 0x29
 4096 148e 75110000 		.4byte	0x1175
 4097 1492 45030000 		.4byte	.LLST25
 4098 1496 2C       		.uleb128 0x2c
 4099 1497 D4010000 		.4byte	.LVL71
 4100 149b F1280000 		.4byte	0x28f1
 4101 149f 2B       		.uleb128 0x2b
 4102 14a0 01       		.uleb128 0x1
 4103 14a1 50       		.byte	0x50
 4104 14a2 02       		.uleb128 0x2
 4105 14a3 76       		.byte	0x76
 4106 14a4 00       		.sleb128 0
 4107 14a5 00       		.byte	0
 4108 14a6 00       		.byte	0
 4109 14a7 28       		.uleb128 0x28
 4110 14a8 46110000 		.4byte	0x1146
 4111 14ac DA020000 		.4byte	.LBB26
 4112 14b0 06000000 		.4byte	.LBE26-.LBB26
 4113 14b4 01       		.byte	0x1
 4114 14b5 B5       		.byte	0xb5
 4115 14b6 E6140000 		.4byte	0x14e6
 4116 14ba 29       		.uleb128 0x29
 4117 14bb 5D110000 		.4byte	0x115d
 4118 14bf 58030000 		.4byte	.LLST26
 4119 14c3 29       		.uleb128 0x29
 4120 14c4 52110000 		.4byte	0x1152
 4121 14c8 70030000 		.4byte	.LLST27
ARM GAS  C:\Users\Sava\AppData\Local\Temp\ccs9rGHG.s 			page 93


 4122 14cc 2C       		.uleb128 0x2c
 4123 14cd E0020000 		.4byte	.LVL108
 4124 14d1 FD280000 		.4byte	0x28fd
 4125 14d5 2B       		.uleb128 0x2b
 4126 14d6 01       		.uleb128 0x1
 4127 14d7 50       		.byte	0x50
 4128 14d8 02       		.uleb128 0x2
 4129 14d9 74       		.byte	0x74
 4130 14da 00       		.sleb128 0
 4131 14db 2B       		.uleb128 0x2b
 4132 14dc 01       		.uleb128 0x1
 4133 14dd 51       		.byte	0x51
 4134 14de 05       		.uleb128 0x5
 4135 14df 03       		.byte	0x3
 4136 14e0 B4000000 		.4byte	.LC27
 4137 14e4 00       		.byte	0
 4138 14e5 00       		.byte	0
 4139 14e6 2E       		.uleb128 0x2e
 4140 14e7 14000000 		.4byte	.LVL4
 4141 14eb 08290000 		.4byte	0x2908
 4142 14ef 2A       		.uleb128 0x2a
 4143 14f0 24000000 		.4byte	.LVL7
 4144 14f4 14290000 		.4byte	0x2914
 4145 14f8 09150000 		.4byte	0x1509
 4146 14fc 2B       		.uleb128 0x2b
 4147 14fd 01       		.uleb128 0x1
 4148 14fe 50       		.byte	0x50
 4149 14ff 02       		.uleb128 0x2
 4150 1500 76       		.byte	0x76
 4151 1501 00       		.sleb128 0
 4152 1502 2B       		.uleb128 0x2b
 4153 1503 01       		.uleb128 0x1
 4154 1504 51       		.byte	0x51
 4155 1505 02       		.uleb128 0x2
 4156 1506 78       		.byte	0x78
 4157 1507 00       		.sleb128 0
 4158 1508 00       		.byte	0
 4159 1509 2A       		.uleb128 0x2a
 4160 150a 36000000 		.4byte	.LVL8
 4161 150e 1F290000 		.4byte	0x291f
 4162 1512 22150000 		.4byte	0x1522
 4163 1516 2B       		.uleb128 0x2b
 4164 1517 01       		.uleb128 0x1
 4165 1518 50       		.byte	0x50
 4166 1519 02       		.uleb128 0x2
 4167 151a 77       		.byte	0x77
 4168 151b 00       		.sleb128 0
 4169 151c 2B       		.uleb128 0x2b
 4170 151d 01       		.uleb128 0x1
 4171 151e 51       		.byte	0x51
 4172 151f 01       		.uleb128 0x1
 4173 1520 30       		.byte	0x30
 4174 1521 00       		.byte	0
 4175 1522 2A       		.uleb128 0x2a
 4176 1523 3E000000 		.4byte	.LVL10
 4177 1527 F1280000 		.4byte	0x28f1
 4178 152b 3C150000 		.4byte	0x153c
ARM GAS  C:\Users\Sava\AppData\Local\Temp\ccs9rGHG.s 			page 94


 4179 152f 2B       		.uleb128 0x2b
 4180 1530 01       		.uleb128 0x1
 4181 1531 50       		.byte	0x50
 4182 1532 02       		.uleb128 0x2
 4183 1533 74       		.byte	0x74
 4184 1534 00       		.sleb128 0
 4185 1535 2B       		.uleb128 0x2b
 4186 1536 01       		.uleb128 0x1
 4187 1537 51       		.byte	0x51
 4188 1538 02       		.uleb128 0x2
 4189 1539 76       		.byte	0x76
 4190 153a 00       		.sleb128 0
 4191 153b 00       		.byte	0
 4192 153c 2A       		.uleb128 0x2a
 4193 153d 46000000 		.4byte	.LVL11
 4194 1541 2A290000 		.4byte	0x292a
 4195 1545 55150000 		.4byte	0x1555
 4196 1549 2B       		.uleb128 0x2b
 4197 154a 01       		.uleb128 0x1
 4198 154b 50       		.byte	0x50
 4199 154c 02       		.uleb128 0x2
 4200 154d 74       		.byte	0x74
 4201 154e 00       		.sleb128 0
 4202 154f 2B       		.uleb128 0x2b
 4203 1550 01       		.uleb128 0x1
 4204 1551 51       		.byte	0x51
 4205 1552 01       		.uleb128 0x1
 4206 1553 30       		.byte	0x30
 4207 1554 00       		.byte	0
 4208 1555 2A       		.uleb128 0x2a
 4209 1556 50000000 		.4byte	.LVL12
 4210 155a E6280000 		.4byte	0x28e6
 4211 155e 73150000 		.4byte	0x1573
 4212 1562 2B       		.uleb128 0x2b
 4213 1563 01       		.uleb128 0x1
 4214 1564 50       		.byte	0x50
 4215 1565 02       		.uleb128 0x2
 4216 1566 74       		.byte	0x74
 4217 1567 00       		.sleb128 0
 4218 1568 2B       		.uleb128 0x2b
 4219 1569 01       		.uleb128 0x1
 4220 156a 51       		.byte	0x51
 4221 156b 01       		.uleb128 0x1
 4222 156c 31       		.byte	0x31
 4223 156d 2B       		.uleb128 0x2b
 4224 156e 01       		.uleb128 0x1
 4225 156f 52       		.byte	0x52
 4226 1570 01       		.uleb128 0x1
 4227 1571 31       		.byte	0x31
 4228 1572 00       		.byte	0
 4229 1573 2A       		.uleb128 0x2a
 4230 1574 58000000 		.4byte	.LVL13
 4231 1578 DB280000 		.4byte	0x28db
 4232 157c 8C150000 		.4byte	0x158c
 4233 1580 2B       		.uleb128 0x2b
 4234 1581 01       		.uleb128 0x1
 4235 1582 50       		.byte	0x50
ARM GAS  C:\Users\Sava\AppData\Local\Temp\ccs9rGHG.s 			page 95


 4236 1583 02       		.uleb128 0x2
 4237 1584 74       		.byte	0x74
 4238 1585 00       		.sleb128 0
 4239 1586 2B       		.uleb128 0x2b
 4240 1587 01       		.uleb128 0x1
 4241 1588 51       		.byte	0x51
 4242 1589 01       		.uleb128 0x1
 4243 158a 33       		.byte	0x33
 4244 158b 00       		.byte	0
 4245 158c 2A       		.uleb128 0x2a
 4246 158d 60000000 		.4byte	.LVL14
 4247 1591 36290000 		.4byte	0x2936
 4248 1595 A5150000 		.4byte	0x15a5
 4249 1599 2B       		.uleb128 0x2b
 4250 159a 01       		.uleb128 0x1
 4251 159b 50       		.byte	0x50
 4252 159c 02       		.uleb128 0x2
 4253 159d 74       		.byte	0x74
 4254 159e 00       		.sleb128 0
 4255 159f 2B       		.uleb128 0x2b
 4256 15a0 01       		.uleb128 0x1
 4257 15a1 51       		.byte	0x51
 4258 15a2 01       		.uleb128 0x1
 4259 15a3 30       		.byte	0x30
 4260 15a4 00       		.byte	0
 4261 15a5 2A       		.uleb128 0x2a
 4262 15a6 6A000000 		.4byte	.LVL16
 4263 15aa 41290000 		.4byte	0x2941
 4264 15ae BE150000 		.4byte	0x15be
 4265 15b2 2B       		.uleb128 0x2b
 4266 15b3 01       		.uleb128 0x1
 4267 15b4 50       		.byte	0x50
 4268 15b5 02       		.uleb128 0x2
 4269 15b6 76       		.byte	0x76
 4270 15b7 00       		.sleb128 0
 4271 15b8 2B       		.uleb128 0x2b
 4272 15b9 01       		.uleb128 0x1
 4273 15ba 51       		.byte	0x51
 4274 15bb 01       		.uleb128 0x1
 4275 15bc 30       		.byte	0x30
 4276 15bd 00       		.byte	0
 4277 15be 2A       		.uleb128 0x2a
 4278 15bf 74000000 		.4byte	.LVL17
 4279 15c3 41290000 		.4byte	0x2941
 4280 15c7 D7150000 		.4byte	0x15d7
 4281 15cb 2B       		.uleb128 0x2b
 4282 15cc 01       		.uleb128 0x1
 4283 15cd 50       		.byte	0x50
 4284 15ce 02       		.uleb128 0x2
 4285 15cf 76       		.byte	0x76
 4286 15d0 00       		.sleb128 0
 4287 15d1 2B       		.uleb128 0x2b
 4288 15d2 01       		.uleb128 0x1
 4289 15d3 51       		.byte	0x51
 4290 15d4 01       		.uleb128 0x1
 4291 15d5 31       		.byte	0x31
 4292 15d6 00       		.byte	0
ARM GAS  C:\Users\Sava\AppData\Local\Temp\ccs9rGHG.s 			page 96


 4293 15d7 2A       		.uleb128 0x2a
 4294 15d8 7E000000 		.4byte	.LVL18
 4295 15dc 41290000 		.4byte	0x2941
 4296 15e0 F0150000 		.4byte	0x15f0
 4297 15e4 2B       		.uleb128 0x2b
 4298 15e5 01       		.uleb128 0x1
 4299 15e6 50       		.byte	0x50
 4300 15e7 02       		.uleb128 0x2
 4301 15e8 76       		.byte	0x76
 4302 15e9 00       		.sleb128 0
 4303 15ea 2B       		.uleb128 0x2b
 4304 15eb 01       		.uleb128 0x1
 4305 15ec 51       		.byte	0x51
 4306 15ed 01       		.uleb128 0x1
 4307 15ee 32       		.byte	0x32
 4308 15ef 00       		.byte	0
 4309 15f0 2A       		.uleb128 0x2a
 4310 15f1 88000000 		.4byte	.LVL19
 4311 15f5 41290000 		.4byte	0x2941
 4312 15f9 09160000 		.4byte	0x1609
 4313 15fd 2B       		.uleb128 0x2b
 4314 15fe 01       		.uleb128 0x1
 4315 15ff 50       		.byte	0x50
 4316 1600 02       		.uleb128 0x2
 4317 1601 76       		.byte	0x76
 4318 1602 00       		.sleb128 0
 4319 1603 2B       		.uleb128 0x2b
 4320 1604 01       		.uleb128 0x1
 4321 1605 51       		.byte	0x51
 4322 1606 01       		.uleb128 0x1
 4323 1607 33       		.byte	0x33
 4324 1608 00       		.byte	0
 4325 1609 2A       		.uleb128 0x2a
 4326 160a 92000000 		.4byte	.LVL20
 4327 160e 41290000 		.4byte	0x2941
 4328 1612 22160000 		.4byte	0x1622
 4329 1616 2B       		.uleb128 0x2b
 4330 1617 01       		.uleb128 0x1
 4331 1618 50       		.byte	0x50
 4332 1619 02       		.uleb128 0x2
 4333 161a 76       		.byte	0x76
 4334 161b 00       		.sleb128 0
 4335 161c 2B       		.uleb128 0x2b
 4336 161d 01       		.uleb128 0x1
 4337 161e 51       		.byte	0x51
 4338 161f 01       		.uleb128 0x1
 4339 1620 34       		.byte	0x34
 4340 1621 00       		.byte	0
 4341 1622 2A       		.uleb128 0x2a
 4342 1623 A4000000 		.4byte	.LVL22
 4343 1627 4C290000 		.4byte	0x294c
 4344 162b 3B160000 		.4byte	0x163b
 4345 162f 2B       		.uleb128 0x2b
 4346 1630 01       		.uleb128 0x1
 4347 1631 50       		.byte	0x50
 4348 1632 02       		.uleb128 0x2
 4349 1633 76       		.byte	0x76
ARM GAS  C:\Users\Sava\AppData\Local\Temp\ccs9rGHG.s 			page 97


 4350 1634 00       		.sleb128 0
 4351 1635 2B       		.uleb128 0x2b
 4352 1636 01       		.uleb128 0x1
 4353 1637 51       		.byte	0x51
 4354 1638 01       		.uleb128 0x1
 4355 1639 31       		.byte	0x31
 4356 163a 00       		.byte	0
 4357 163b 2A       		.uleb128 0x2a
 4358 163c AC000000 		.4byte	.LVL23
 4359 1640 57290000 		.4byte	0x2957
 4360 1644 54160000 		.4byte	0x1654
 4361 1648 2B       		.uleb128 0x2b
 4362 1649 01       		.uleb128 0x1
 4363 164a 50       		.byte	0x50
 4364 164b 02       		.uleb128 0x2
 4365 164c 76       		.byte	0x76
 4366 164d 00       		.sleb128 0
 4367 164e 2B       		.uleb128 0x2b
 4368 164f 01       		.uleb128 0x1
 4369 1650 51       		.byte	0x51
 4370 1651 01       		.uleb128 0x1
 4371 1652 30       		.byte	0x30
 4372 1653 00       		.byte	0
 4373 1654 2A       		.uleb128 0x2a
 4374 1655 B2000000 		.4byte	.LVL24
 4375 1659 62290000 		.4byte	0x2962
 4376 165d 6B160000 		.4byte	0x166b
 4377 1661 2B       		.uleb128 0x2b
 4378 1662 01       		.uleb128 0x1
 4379 1663 51       		.byte	0x51
 4380 1664 05       		.uleb128 0x5
 4381 1665 03       		.byte	0x3
 4382 1666 00000000 		.4byte	.LC0
 4383 166a 00       		.byte	0
 4384 166b 2A       		.uleb128 0x2a
 4385 166c BA000000 		.4byte	.LVL25
 4386 1670 36290000 		.4byte	0x2936
 4387 1674 85160000 		.4byte	0x1685
 4388 1678 2B       		.uleb128 0x2b
 4389 1679 01       		.uleb128 0x1
 4390 167a 50       		.byte	0x50
 4391 167b 02       		.uleb128 0x2
 4392 167c 74       		.byte	0x74
 4393 167d 00       		.sleb128 0
 4394 167e 2B       		.uleb128 0x2b
 4395 167f 01       		.uleb128 0x1
 4396 1680 51       		.byte	0x51
 4397 1681 02       		.uleb128 0x2
 4398 1682 76       		.byte	0x76
 4399 1683 00       		.sleb128 0
 4400 1684 00       		.byte	0
 4401 1685 2A       		.uleb128 0x2a
 4402 1686 C0000000 		.4byte	.LVL27
 4403 168a 6D290000 		.4byte	0x296d
 4404 168e 99160000 		.4byte	0x1699
 4405 1692 2B       		.uleb128 0x2b
 4406 1693 01       		.uleb128 0x1
ARM GAS  C:\Users\Sava\AppData\Local\Temp\ccs9rGHG.s 			page 98


 4407 1694 50       		.byte	0x50
 4408 1695 02       		.uleb128 0x2
 4409 1696 76       		.byte	0x76
 4410 1697 00       		.sleb128 0
 4411 1698 00       		.byte	0
 4412 1699 2A       		.uleb128 0x2a
 4413 169a C8000000 		.4byte	.LVL28
 4414 169e 57290000 		.4byte	0x2957
 4415 16a2 B2160000 		.4byte	0x16b2
 4416 16a6 2B       		.uleb128 0x2b
 4417 16a7 01       		.uleb128 0x1
 4418 16a8 50       		.byte	0x50
 4419 16a9 02       		.uleb128 0x2
 4420 16aa 76       		.byte	0x76
 4421 16ab 00       		.sleb128 0
 4422 16ac 2B       		.uleb128 0x2b
 4423 16ad 01       		.uleb128 0x1
 4424 16ae 51       		.byte	0x51
 4425 16af 01       		.uleb128 0x1
 4426 16b0 30       		.byte	0x30
 4427 16b1 00       		.byte	0
 4428 16b2 2A       		.uleb128 0x2a
 4429 16b3 CE000000 		.4byte	.LVL29
 4430 16b7 62290000 		.4byte	0x2962
 4431 16bb C9160000 		.4byte	0x16c9
 4432 16bf 2B       		.uleb128 0x2b
 4433 16c0 01       		.uleb128 0x1
 4434 16c1 51       		.byte	0x51
 4435 16c2 05       		.uleb128 0x5
 4436 16c3 03       		.byte	0x3
 4437 16c4 08000000 		.4byte	.LC1
 4438 16c8 00       		.byte	0
 4439 16c9 2A       		.uleb128 0x2a
 4440 16ca D6000000 		.4byte	.LVL30
 4441 16ce 36290000 		.4byte	0x2936
 4442 16d2 E3160000 		.4byte	0x16e3
 4443 16d6 2B       		.uleb128 0x2b
 4444 16d7 01       		.uleb128 0x1
 4445 16d8 50       		.byte	0x50
 4446 16d9 02       		.uleb128 0x2
 4447 16da 74       		.byte	0x74
 4448 16db 00       		.sleb128 0
 4449 16dc 2B       		.uleb128 0x2b
 4450 16dd 01       		.uleb128 0x1
 4451 16de 51       		.byte	0x51
 4452 16df 02       		.uleb128 0x2
 4453 16e0 76       		.byte	0x76
 4454 16e1 00       		.sleb128 0
 4455 16e2 00       		.byte	0
 4456 16e3 2A       		.uleb128 0x2a
 4457 16e4 DE000000 		.4byte	.LVL32
 4458 16e8 78290000 		.4byte	0x2978
 4459 16ec FC160000 		.4byte	0x16fc
 4460 16f0 2B       		.uleb128 0x2b
 4461 16f1 01       		.uleb128 0x1
 4462 16f2 50       		.byte	0x50
 4463 16f3 02       		.uleb128 0x2
ARM GAS  C:\Users\Sava\AppData\Local\Temp\ccs9rGHG.s 			page 99


 4464 16f4 76       		.byte	0x76
 4465 16f5 00       		.sleb128 0
 4466 16f6 2B       		.uleb128 0x2b
 4467 16f7 01       		.uleb128 0x1
 4468 16f8 51       		.byte	0x51
 4469 16f9 01       		.uleb128 0x1
 4470 16fa 34       		.byte	0x34
 4471 16fb 00       		.byte	0
 4472 16fc 2A       		.uleb128 0x2a
 4473 16fd E6000000 		.4byte	.LVL33
 4474 1701 57290000 		.4byte	0x2957
 4475 1705 15170000 		.4byte	0x1715
 4476 1709 2B       		.uleb128 0x2b
 4477 170a 01       		.uleb128 0x1
 4478 170b 50       		.byte	0x50
 4479 170c 02       		.uleb128 0x2
 4480 170d 76       		.byte	0x76
 4481 170e 00       		.sleb128 0
 4482 170f 2B       		.uleb128 0x2b
 4483 1710 01       		.uleb128 0x1
 4484 1711 51       		.byte	0x51
 4485 1712 01       		.uleb128 0x1
 4486 1713 30       		.byte	0x30
 4487 1714 00       		.byte	0
 4488 1715 2A       		.uleb128 0x2a
 4489 1716 EC000000 		.4byte	.LVL34
 4490 171a 62290000 		.4byte	0x2962
 4491 171e 2C170000 		.4byte	0x172c
 4492 1722 2B       		.uleb128 0x2b
 4493 1723 01       		.uleb128 0x1
 4494 1724 51       		.byte	0x51
 4495 1725 05       		.uleb128 0x5
 4496 1726 03       		.byte	0x3
 4497 1727 10000000 		.4byte	.LC2
 4498 172b 00       		.byte	0
 4499 172c 2A       		.uleb128 0x2a
 4500 172d F4000000 		.4byte	.LVL35
 4501 1731 57290000 		.4byte	0x2957
 4502 1735 45170000 		.4byte	0x1745
 4503 1739 2B       		.uleb128 0x2b
 4504 173a 01       		.uleb128 0x1
 4505 173b 50       		.byte	0x50
 4506 173c 02       		.uleb128 0x2
 4507 173d 74       		.byte	0x74
 4508 173e 00       		.sleb128 0
 4509 173f 2B       		.uleb128 0x2b
 4510 1740 01       		.uleb128 0x1
 4511 1741 51       		.byte	0x51
 4512 1742 01       		.uleb128 0x1
 4513 1743 30       		.byte	0x30
 4514 1744 00       		.byte	0
 4515 1745 2A       		.uleb128 0x2a
 4516 1746 FC000000 		.4byte	.LVL37
 4517 174a 62290000 		.4byte	0x2962
 4518 174e 62170000 		.4byte	0x1762
 4519 1752 2B       		.uleb128 0x2b
 4520 1753 01       		.uleb128 0x1
ARM GAS  C:\Users\Sava\AppData\Local\Temp\ccs9rGHG.s 			page 100


 4521 1754 50       		.byte	0x50
 4522 1755 02       		.uleb128 0x2
 4523 1756 76       		.byte	0x76
 4524 1757 00       		.sleb128 0
 4525 1758 2B       		.uleb128 0x2b
 4526 1759 01       		.uleb128 0x1
 4527 175a 51       		.byte	0x51
 4528 175b 05       		.uleb128 0x5
 4529 175c 03       		.byte	0x3
 4530 175d 1C000000 		.4byte	.LC3
 4531 1761 00       		.byte	0
 4532 1762 2A       		.uleb128 0x2a
 4533 1763 04010000 		.4byte	.LVL38
 4534 1767 F1280000 		.4byte	0x28f1
 4535 176b 76170000 		.4byte	0x1776
 4536 176f 2B       		.uleb128 0x2b
 4537 1770 01       		.uleb128 0x1
 4538 1771 50       		.byte	0x50
 4539 1772 02       		.uleb128 0x2
 4540 1773 76       		.byte	0x76
 4541 1774 00       		.sleb128 0
 4542 1775 00       		.byte	0
 4543 1776 2A       		.uleb128 0x2a
 4544 1777 0C010000 		.4byte	.LVL39
 4545 177b 57290000 		.4byte	0x2957
 4546 177f 8F170000 		.4byte	0x178f
 4547 1783 2B       		.uleb128 0x2b
 4548 1784 01       		.uleb128 0x1
 4549 1785 50       		.byte	0x50
 4550 1786 02       		.uleb128 0x2
 4551 1787 74       		.byte	0x74
 4552 1788 00       		.sleb128 0
 4553 1789 2B       		.uleb128 0x2b
 4554 178a 01       		.uleb128 0x1
 4555 178b 51       		.byte	0x51
 4556 178c 01       		.uleb128 0x1
 4557 178d 30       		.byte	0x30
 4558 178e 00       		.byte	0
 4559 178f 2A       		.uleb128 0x2a
 4560 1790 14010000 		.4byte	.LVL41
 4561 1794 62290000 		.4byte	0x2962
 4562 1798 AC170000 		.4byte	0x17ac
 4563 179c 2B       		.uleb128 0x2b
 4564 179d 01       		.uleb128 0x1
 4565 179e 50       		.byte	0x50
 4566 179f 02       		.uleb128 0x2
 4567 17a0 76       		.byte	0x76
 4568 17a1 00       		.sleb128 0
 4569 17a2 2B       		.uleb128 0x2b
 4570 17a3 01       		.uleb128 0x1
 4571 17a4 51       		.byte	0x51
 4572 17a5 05       		.uleb128 0x5
 4573 17a6 03       		.byte	0x3
 4574 17a7 24000000 		.4byte	.LC4
 4575 17ab 00       		.byte	0
 4576 17ac 2A       		.uleb128 0x2a
 4577 17ad 1C010000 		.4byte	.LVL42
ARM GAS  C:\Users\Sava\AppData\Local\Temp\ccs9rGHG.s 			page 101


 4578 17b1 F1280000 		.4byte	0x28f1
 4579 17b5 C0170000 		.4byte	0x17c0
 4580 17b9 2B       		.uleb128 0x2b
 4581 17ba 01       		.uleb128 0x1
 4582 17bb 50       		.byte	0x50
 4583 17bc 02       		.uleb128 0x2
 4584 17bd 76       		.byte	0x76
 4585 17be 00       		.sleb128 0
 4586 17bf 00       		.byte	0
 4587 17c0 2A       		.uleb128 0x2a
 4588 17c1 24010000 		.4byte	.LVL43
 4589 17c5 57290000 		.4byte	0x2957
 4590 17c9 D9170000 		.4byte	0x17d9
 4591 17cd 2B       		.uleb128 0x2b
 4592 17ce 01       		.uleb128 0x1
 4593 17cf 50       		.byte	0x50
 4594 17d0 02       		.uleb128 0x2
 4595 17d1 74       		.byte	0x74
 4596 17d2 00       		.sleb128 0
 4597 17d3 2B       		.uleb128 0x2b
 4598 17d4 01       		.uleb128 0x1
 4599 17d5 51       		.byte	0x51
 4600 17d6 01       		.uleb128 0x1
 4601 17d7 30       		.byte	0x30
 4602 17d8 00       		.byte	0
 4603 17d9 2A       		.uleb128 0x2a
 4604 17da 2C010000 		.4byte	.LVL45
 4605 17de 62290000 		.4byte	0x2962
 4606 17e2 F6170000 		.4byte	0x17f6
 4607 17e6 2B       		.uleb128 0x2b
 4608 17e7 01       		.uleb128 0x1
 4609 17e8 50       		.byte	0x50
 4610 17e9 02       		.uleb128 0x2
 4611 17ea 76       		.byte	0x76
 4612 17eb 00       		.sleb128 0
 4613 17ec 2B       		.uleb128 0x2b
 4614 17ed 01       		.uleb128 0x1
 4615 17ee 51       		.byte	0x51
 4616 17ef 05       		.uleb128 0x5
 4617 17f0 03       		.byte	0x3
 4618 17f1 30000000 		.4byte	.LC5
 4619 17f5 00       		.byte	0
 4620 17f6 2A       		.uleb128 0x2a
 4621 17f7 34010000 		.4byte	.LVL46
 4622 17fb F1280000 		.4byte	0x28f1
 4623 17ff 0A180000 		.4byte	0x180a
 4624 1803 2B       		.uleb128 0x2b
 4625 1804 01       		.uleb128 0x1
 4626 1805 50       		.byte	0x50
 4627 1806 02       		.uleb128 0x2
 4628 1807 76       		.byte	0x76
 4629 1808 00       		.sleb128 0
 4630 1809 00       		.byte	0
 4631 180a 2A       		.uleb128 0x2a
 4632 180b 3C010000 		.4byte	.LVL47
 4633 180f 83290000 		.4byte	0x2983
 4634 1813 23180000 		.4byte	0x1823
ARM GAS  C:\Users\Sava\AppData\Local\Temp\ccs9rGHG.s 			page 102


 4635 1817 2B       		.uleb128 0x2b
 4636 1818 01       		.uleb128 0x1
 4637 1819 50       		.byte	0x50
 4638 181a 02       		.uleb128 0x2
 4639 181b 74       		.byte	0x74
 4640 181c 00       		.sleb128 0
 4641 181d 2B       		.uleb128 0x2b
 4642 181e 01       		.uleb128 0x1
 4643 181f 51       		.byte	0x51
 4644 1820 01       		.uleb128 0x1
 4645 1821 30       		.byte	0x30
 4646 1822 00       		.byte	0
 4647 1823 2A       		.uleb128 0x2a
 4648 1824 46010000 		.4byte	.LVL49
 4649 1828 8E290000 		.4byte	0x298e
 4650 182c 43180000 		.4byte	0x1843
 4651 1830 2B       		.uleb128 0x2b
 4652 1831 01       		.uleb128 0x1
 4653 1832 50       		.byte	0x50
 4654 1833 02       		.uleb128 0x2
 4655 1834 76       		.byte	0x76
 4656 1835 00       		.sleb128 0
 4657 1836 2B       		.uleb128 0x2b
 4658 1837 01       		.uleb128 0x1
 4659 1838 51       		.byte	0x51
 4660 1839 02       		.uleb128 0x2
 4661 183a 08       		.byte	0x8
 4662 183b 50       		.byte	0x50
 4663 183c 2B       		.uleb128 0x2b
 4664 183d 01       		.uleb128 0x1
 4665 183e 52       		.byte	0x52
 4666 183f 02       		.uleb128 0x2
 4667 1840 08       		.byte	0x8
 4668 1841 42       		.byte	0x42
 4669 1842 00       		.byte	0
 4670 1843 2A       		.uleb128 0x2a
 4671 1844 4E010000 		.4byte	.LVL50
 4672 1848 9A290000 		.4byte	0x299a
 4673 184c 60180000 		.4byte	0x1860
 4674 1850 2B       		.uleb128 0x2b
 4675 1851 01       		.uleb128 0x1
 4676 1852 50       		.byte	0x50
 4677 1853 02       		.uleb128 0x2
 4678 1854 76       		.byte	0x76
 4679 1855 00       		.sleb128 0
 4680 1856 2B       		.uleb128 0x2b
 4681 1857 01       		.uleb128 0x1
 4682 1858 51       		.byte	0x51
 4683 1859 05       		.uleb128 0x5
 4684 185a 03       		.byte	0x3
 4685 185b 00000000 		.4byte	.LANCHOR1
 4686 185f 00       		.byte	0
 4687 1860 2A       		.uleb128 0x2a
 4688 1861 58010000 		.4byte	.LVL51
 4689 1865 A5290000 		.4byte	0x29a5
 4690 1869 7E180000 		.4byte	0x187e
 4691 186d 2B       		.uleb128 0x2b
ARM GAS  C:\Users\Sava\AppData\Local\Temp\ccs9rGHG.s 			page 103


 4692 186e 01       		.uleb128 0x1
 4693 186f 50       		.byte	0x50
 4694 1870 02       		.uleb128 0x2
 4695 1871 76       		.byte	0x76
 4696 1872 00       		.sleb128 0
 4697 1873 2B       		.uleb128 0x2b
 4698 1874 01       		.uleb128 0x1
 4699 1875 51       		.byte	0x51
 4700 1876 01       		.uleb128 0x1
 4701 1877 31       		.byte	0x31
 4702 1878 2B       		.uleb128 0x2b
 4703 1879 01       		.uleb128 0x1
 4704 187a 52       		.byte	0x52
 4705 187b 01       		.uleb128 0x1
 4706 187c 33       		.byte	0x33
 4707 187d 00       		.byte	0
 4708 187e 2A       		.uleb128 0x2a
 4709 187f 60010000 		.4byte	.LVL52
 4710 1883 1F290000 		.4byte	0x291f
 4711 1887 98180000 		.4byte	0x1898
 4712 188b 2B       		.uleb128 0x2b
 4713 188c 01       		.uleb128 0x1
 4714 188d 50       		.byte	0x50
 4715 188e 02       		.uleb128 0x2
 4716 188f 77       		.byte	0x77
 4717 1890 00       		.sleb128 0
 4718 1891 2B       		.uleb128 0x2b
 4719 1892 01       		.uleb128 0x1
 4720 1893 51       		.byte	0x51
 4721 1894 02       		.uleb128 0x2
 4722 1895 74       		.byte	0x74
 4723 1896 00       		.sleb128 0
 4724 1897 00       		.byte	0
 4725 1898 2A       		.uleb128 0x2a
 4726 1899 68010000 		.4byte	.LVL54
 4727 189d 1F290000 		.4byte	0x291f
 4728 18a1 B1180000 		.4byte	0x18b1
 4729 18a5 2B       		.uleb128 0x2b
 4730 18a6 01       		.uleb128 0x1
 4731 18a7 50       		.byte	0x50
 4732 18a8 02       		.uleb128 0x2
 4733 18a9 74       		.byte	0x74
 4734 18aa 00       		.sleb128 0
 4735 18ab 2B       		.uleb128 0x2b
 4736 18ac 01       		.uleb128 0x1
 4737 18ad 51       		.byte	0x51
 4738 18ae 01       		.uleb128 0x1
 4739 18af 30       		.byte	0x30
 4740 18b0 00       		.byte	0
 4741 18b1 2A       		.uleb128 0x2a
 4742 18b2 7A010000 		.4byte	.LVL57
 4743 18b6 E6280000 		.4byte	0x28e6
 4744 18ba CF180000 		.4byte	0x18cf
 4745 18be 2B       		.uleb128 0x2b
 4746 18bf 01       		.uleb128 0x1
 4747 18c0 50       		.byte	0x50
 4748 18c1 02       		.uleb128 0x2
ARM GAS  C:\Users\Sava\AppData\Local\Temp\ccs9rGHG.s 			page 104


 4749 18c2 76       		.byte	0x76
 4750 18c3 00       		.sleb128 0
 4751 18c4 2B       		.uleb128 0x2b
 4752 18c5 01       		.uleb128 0x1
 4753 18c6 51       		.byte	0x51
 4754 18c7 01       		.uleb128 0x1
 4755 18c8 30       		.byte	0x30
 4756 18c9 2B       		.uleb128 0x2b
 4757 18ca 01       		.uleb128 0x1
 4758 18cb 52       		.byte	0x52
 4759 18cc 01       		.uleb128 0x1
 4760 18cd 31       		.byte	0x31
 4761 18ce 00       		.byte	0
 4762 18cf 2A       		.uleb128 0x2a
 4763 18d0 82010000 		.4byte	.LVL58
 4764 18d4 B0290000 		.4byte	0x29b0
 4765 18d8 E9180000 		.4byte	0x18e9
 4766 18dc 2B       		.uleb128 0x2b
 4767 18dd 01       		.uleb128 0x1
 4768 18de 50       		.byte	0x50
 4769 18df 02       		.uleb128 0x2
 4770 18e0 76       		.byte	0x76
 4771 18e1 00       		.sleb128 0
 4772 18e2 2B       		.uleb128 0x2b
 4773 18e3 01       		.uleb128 0x1
 4774 18e4 51       		.byte	0x51
 4775 18e5 02       		.uleb128 0x2
 4776 18e6 08       		.byte	0x8
 4777 18e7 50       		.byte	0x50
 4778 18e8 00       		.byte	0
 4779 18e9 2A       		.uleb128 0x2a
 4780 18ea 8A010000 		.4byte	.LVL59
 4781 18ee DB280000 		.4byte	0x28db
 4782 18f2 02190000 		.4byte	0x1902
 4783 18f6 2B       		.uleb128 0x2b
 4784 18f7 01       		.uleb128 0x1
 4785 18f8 50       		.byte	0x50
 4786 18f9 02       		.uleb128 0x2
 4787 18fa 76       		.byte	0x76
 4788 18fb 00       		.sleb128 0
 4789 18fc 2B       		.uleb128 0x2b
 4790 18fd 01       		.uleb128 0x1
 4791 18fe 51       		.byte	0x51
 4792 18ff 01       		.uleb128 0x1
 4793 1900 38       		.byte	0x38
 4794 1901 00       		.byte	0
 4795 1902 2A       		.uleb128 0x2a
 4796 1903 92010000 		.4byte	.LVL60
 4797 1907 BC290000 		.4byte	0x29bc
 4798 190b 1B190000 		.4byte	0x191b
 4799 190f 2B       		.uleb128 0x2b
 4800 1910 01       		.uleb128 0x1
 4801 1911 50       		.byte	0x50
 4802 1912 02       		.uleb128 0x2
 4803 1913 76       		.byte	0x76
 4804 1914 00       		.sleb128 0
 4805 1915 2B       		.uleb128 0x2b
ARM GAS  C:\Users\Sava\AppData\Local\Temp\ccs9rGHG.s 			page 105


 4806 1916 01       		.uleb128 0x1
 4807 1917 51       		.byte	0x51
 4808 1918 01       		.uleb128 0x1
 4809 1919 30       		.byte	0x30
 4810 191a 00       		.byte	0
 4811 191b 2A       		.uleb128 0x2a
 4812 191c 9A010000 		.4byte	.LVL62
 4813 1920 BC290000 		.4byte	0x29bc
 4814 1924 2F190000 		.4byte	0x192f
 4815 1928 2B       		.uleb128 0x2b
 4816 1929 01       		.uleb128 0x1
 4817 192a 50       		.byte	0x50
 4818 192b 02       		.uleb128 0x2
 4819 192c 76       		.byte	0x76
 4820 192d 00       		.sleb128 0
 4821 192e 00       		.byte	0
 4822 192f 2E       		.uleb128 0x2e
 4823 1930 9E010000 		.4byte	.LVL63
 4824 1934 C7290000 		.4byte	0x29c7
 4825 1938 2A       		.uleb128 0x2a
 4826 1939 A6010000 		.4byte	.LVL64
 4827 193d D2290000 		.4byte	0x29d2
 4828 1941 51190000 		.4byte	0x1951
 4829 1945 2B       		.uleb128 0x2b
 4830 1946 01       		.uleb128 0x1
 4831 1947 50       		.byte	0x50
 4832 1948 02       		.uleb128 0x2
 4833 1949 74       		.byte	0x74
 4834 194a 00       		.sleb128 0
 4835 194b 2B       		.uleb128 0x2b
 4836 194c 01       		.uleb128 0x1
 4837 194d 51       		.byte	0x51
 4838 194e 01       		.uleb128 0x1
 4839 194f 30       		.byte	0x30
 4840 1950 00       		.byte	0
 4841 1951 2A       		.uleb128 0x2a
 4842 1952 AC010000 		.4byte	.LVL65
 4843 1956 DD290000 		.4byte	0x29dd
 4844 195a 65190000 		.4byte	0x1965
 4845 195e 2B       		.uleb128 0x2b
 4846 195f 01       		.uleb128 0x1
 4847 1960 51       		.byte	0x51
 4848 1961 02       		.uleb128 0x2
 4849 1962 08       		.byte	0x8
 4850 1963 46       		.byte	0x46
 4851 1964 00       		.byte	0
 4852 1965 2A       		.uleb128 0x2a
 4853 1966 B4010000 		.4byte	.LVL66
 4854 196a E8290000 		.4byte	0x29e8
 4855 196e 7E190000 		.4byte	0x197e
 4856 1972 2B       		.uleb128 0x2b
 4857 1973 01       		.uleb128 0x1
 4858 1974 50       		.byte	0x50
 4859 1975 02       		.uleb128 0x2
 4860 1976 74       		.byte	0x74
 4861 1977 00       		.sleb128 0
 4862 1978 2B       		.uleb128 0x2b
ARM GAS  C:\Users\Sava\AppData\Local\Temp\ccs9rGHG.s 			page 106


 4863 1979 01       		.uleb128 0x1
 4864 197a 51       		.byte	0x51
 4865 197b 01       		.uleb128 0x1
 4866 197c 30       		.byte	0x30
 4867 197d 00       		.byte	0
 4868 197e 2A       		.uleb128 0x2a
 4869 197f BA010000 		.4byte	.LVL67
 4870 1983 DD290000 		.4byte	0x29dd
 4871 1987 92190000 		.4byte	0x1992
 4872 198b 2B       		.uleb128 0x2b
 4873 198c 01       		.uleb128 0x1
 4874 198d 51       		.byte	0x51
 4875 198e 02       		.uleb128 0x2
 4876 198f 08       		.byte	0x8
 4877 1990 46       		.byte	0x46
 4878 1991 00       		.byte	0
 4879 1992 2A       		.uleb128 0x2a
 4880 1993 C2010000 		.4byte	.LVL68
 4881 1997 F3290000 		.4byte	0x29f3
 4882 199b AB190000 		.4byte	0x19ab
 4883 199f 2B       		.uleb128 0x2b
 4884 19a0 01       		.uleb128 0x1
 4885 19a1 50       		.byte	0x50
 4886 19a2 02       		.uleb128 0x2
 4887 19a3 74       		.byte	0x74
 4888 19a4 00       		.sleb128 0
 4889 19a5 2B       		.uleb128 0x2b
 4890 19a6 01       		.uleb128 0x1
 4891 19a7 51       		.byte	0x51
 4892 19a8 01       		.uleb128 0x1
 4893 19a9 30       		.byte	0x30
 4894 19aa 00       		.byte	0
 4895 19ab 2A       		.uleb128 0x2a
 4896 19ac CC010000 		.4byte	.LVL70
 4897 19b0 FE290000 		.4byte	0x29fe
 4898 19b4 CD190000 		.4byte	0x19cd
 4899 19b8 2B       		.uleb128 0x2b
 4900 19b9 01       		.uleb128 0x1
 4901 19ba 50       		.byte	0x50
 4902 19bb 02       		.uleb128 0x2
 4903 19bc 76       		.byte	0x76
 4904 19bd 00       		.sleb128 0
 4905 19be 2B       		.uleb128 0x2b
 4906 19bf 01       		.uleb128 0x1
 4907 19c0 51       		.byte	0x51
 4908 19c1 05       		.uleb128 0x5
 4909 19c2 03       		.byte	0x3
 4910 19c3 00000000 		.4byte	.LANCHOR2
 4911 19c7 2B       		.uleb128 0x2b
 4912 19c8 01       		.uleb128 0x1
 4913 19c9 52       		.byte	0x52
 4914 19ca 01       		.uleb128 0x1
 4915 19cb 32       		.byte	0x32
 4916 19cc 00       		.byte	0
 4917 19cd 2A       		.uleb128 0x2a
 4918 19ce DC010000 		.4byte	.LVL72
 4919 19d2 092A0000 		.4byte	0x2a09
ARM GAS  C:\Users\Sava\AppData\Local\Temp\ccs9rGHG.s 			page 107


 4920 19d6 E6190000 		.4byte	0x19e6
 4921 19da 2B       		.uleb128 0x2b
 4922 19db 01       		.uleb128 0x1
 4923 19dc 50       		.byte	0x50
 4924 19dd 02       		.uleb128 0x2
 4925 19de 74       		.byte	0x74
 4926 19df 00       		.sleb128 0
 4927 19e0 2B       		.uleb128 0x2b
 4928 19e1 01       		.uleb128 0x1
 4929 19e2 51       		.byte	0x51
 4930 19e3 01       		.uleb128 0x1
 4931 19e4 30       		.byte	0x30
 4932 19e5 00       		.byte	0
 4933 19e6 2A       		.uleb128 0x2a
 4934 19e7 E6010000 		.4byte	.LVL74
 4935 19eb F1280000 		.4byte	0x28f1
 4936 19ef FA190000 		.4byte	0x19fa
 4937 19f3 2B       		.uleb128 0x2b
 4938 19f4 01       		.uleb128 0x1
 4939 19f5 50       		.byte	0x50
 4940 19f6 02       		.uleb128 0x2
 4941 19f7 76       		.byte	0x76
 4942 19f8 00       		.sleb128 0
 4943 19f9 00       		.byte	0
 4944 19fa 2A       		.uleb128 0x2a
 4945 19fb EE010000 		.4byte	.LVL75
 4946 19ff 142A0000 		.4byte	0x2a14
 4947 1a03 171A0000 		.4byte	0x1a17
 4948 1a07 2B       		.uleb128 0x2b
 4949 1a08 01       		.uleb128 0x1
 4950 1a09 50       		.byte	0x50
 4951 1a0a 02       		.uleb128 0x2
 4952 1a0b 76       		.byte	0x76
 4953 1a0c 00       		.sleb128 0
 4954 1a0d 2B       		.uleb128 0x2b
 4955 1a0e 01       		.uleb128 0x1
 4956 1a0f 51       		.byte	0x51
 4957 1a10 05       		.uleb128 0x5
 4958 1a11 03       		.byte	0x3
 4959 1a12 38000000 		.4byte	.LC6
 4960 1a16 00       		.byte	0
 4961 1a17 2A       		.uleb128 0x2a
 4962 1a18 F6010000 		.4byte	.LVL76
 4963 1a1c 1F2A0000 		.4byte	0x2a1f
 4964 1a20 301A0000 		.4byte	0x1a30
 4965 1a24 2B       		.uleb128 0x2b
 4966 1a25 01       		.uleb128 0x1
 4967 1a26 50       		.byte	0x50
 4968 1a27 02       		.uleb128 0x2
 4969 1a28 76       		.byte	0x76
 4970 1a29 00       		.sleb128 0
 4971 1a2a 2B       		.uleb128 0x2b
 4972 1a2b 01       		.uleb128 0x1
 4973 1a2c 51       		.byte	0x51
 4974 1a2d 01       		.uleb128 0x1
 4975 1a2e 31       		.byte	0x31
 4976 1a2f 00       		.byte	0
ARM GAS  C:\Users\Sava\AppData\Local\Temp\ccs9rGHG.s 			page 108


 4977 1a30 2A       		.uleb128 0x2a
 4978 1a31 FE010000 		.4byte	.LVL77
 4979 1a35 2A2A0000 		.4byte	0x2a2a
 4980 1a39 491A0000 		.4byte	0x1a49
 4981 1a3d 2B       		.uleb128 0x2b
 4982 1a3e 01       		.uleb128 0x1
 4983 1a3f 50       		.byte	0x50
 4984 1a40 02       		.uleb128 0x2
 4985 1a41 74       		.byte	0x74
 4986 1a42 00       		.sleb128 0
 4987 1a43 2B       		.uleb128 0x2b
 4988 1a44 01       		.uleb128 0x1
 4989 1a45 51       		.byte	0x51
 4990 1a46 01       		.uleb128 0x1
 4991 1a47 30       		.byte	0x30
 4992 1a48 00       		.byte	0
 4993 1a49 2A       		.uleb128 0x2a
 4994 1a4a 06020000 		.4byte	.LVL79
 4995 1a4e 2A2A0000 		.4byte	0x2a2a
 4996 1a52 5D1A0000 		.4byte	0x1a5d
 4997 1a56 2B       		.uleb128 0x2b
 4998 1a57 01       		.uleb128 0x1
 4999 1a58 50       		.byte	0x50
 5000 1a59 02       		.uleb128 0x2
 5001 1a5a 74       		.byte	0x74
 5002 1a5b 00       		.sleb128 0
 5003 1a5c 00       		.byte	0
 5004 1a5d 2A       		.uleb128 0x2a
 5005 1a5e 0C020000 		.4byte	.LVL80
 5006 1a62 78290000 		.4byte	0x2978
 5007 1a66 701A0000 		.4byte	0x1a70
 5008 1a6a 2B       		.uleb128 0x2b
 5009 1a6b 01       		.uleb128 0x1
 5010 1a6c 51       		.byte	0x51
 5011 1a6d 01       		.uleb128 0x1
 5012 1a6e 32       		.byte	0x32
 5013 1a6f 00       		.byte	0
 5014 1a70 2A       		.uleb128 0x2a
 5015 1a71 14020000 		.4byte	.LVL81
 5016 1a75 352A0000 		.4byte	0x2a35
 5017 1a79 891A0000 		.4byte	0x1a89
 5018 1a7d 2B       		.uleb128 0x2b
 5019 1a7e 01       		.uleb128 0x1
 5020 1a7f 50       		.byte	0x50
 5021 1a80 02       		.uleb128 0x2
 5022 1a81 74       		.byte	0x74
 5023 1a82 00       		.sleb128 0
 5024 1a83 2B       		.uleb128 0x2b
 5025 1a84 01       		.uleb128 0x1
 5026 1a85 51       		.byte	0x51
 5027 1a86 01       		.uleb128 0x1
 5028 1a87 30       		.byte	0x30
 5029 1a88 00       		.byte	0
 5030 1a89 2A       		.uleb128 0x2a
 5031 1a8a 1C020000 		.4byte	.LVL83
 5032 1a8e 402A0000 		.4byte	0x2a40
 5033 1a92 A21A0000 		.4byte	0x1aa2
ARM GAS  C:\Users\Sava\AppData\Local\Temp\ccs9rGHG.s 			page 109


 5034 1a96 2B       		.uleb128 0x2b
 5035 1a97 01       		.uleb128 0x1
 5036 1a98 50       		.byte	0x50
 5037 1a99 02       		.uleb128 0x2
 5038 1a9a 75       		.byte	0x75
 5039 1a9b 00       		.sleb128 0
 5040 1a9c 2B       		.uleb128 0x2b
 5041 1a9d 01       		.uleb128 0x1
 5042 1a9e 51       		.byte	0x51
 5043 1a9f 01       		.uleb128 0x1
 5044 1aa0 30       		.byte	0x30
 5045 1aa1 00       		.byte	0
 5046 1aa2 2A       		.uleb128 0x2a
 5047 1aa3 24020000 		.4byte	.LVL84
 5048 1aa7 4B2A0000 		.4byte	0x2a4b
 5049 1aab BB1A0000 		.4byte	0x1abb
 5050 1aaf 2B       		.uleb128 0x2b
 5051 1ab0 01       		.uleb128 0x1
 5052 1ab1 50       		.byte	0x50
 5053 1ab2 02       		.uleb128 0x2
 5054 1ab3 75       		.byte	0x75
 5055 1ab4 00       		.sleb128 0
 5056 1ab5 2B       		.uleb128 0x2b
 5057 1ab6 01       		.uleb128 0x1
 5058 1ab7 51       		.byte	0x51
 5059 1ab8 01       		.uleb128 0x1
 5060 1ab9 31       		.byte	0x31
 5061 1aba 00       		.byte	0
 5062 1abb 2A       		.uleb128 0x2a
 5063 1abc 2C020000 		.4byte	.LVL85
 5064 1ac0 1F290000 		.4byte	0x291f
 5065 1ac4 D51A0000 		.4byte	0x1ad5
 5066 1ac8 2B       		.uleb128 0x2b
 5067 1ac9 01       		.uleb128 0x1
 5068 1aca 50       		.byte	0x50
 5069 1acb 02       		.uleb128 0x2
 5070 1acc 77       		.byte	0x77
 5071 1acd 00       		.sleb128 0
 5072 1ace 2B       		.uleb128 0x2b
 5073 1acf 01       		.uleb128 0x1
 5074 1ad0 51       		.byte	0x51
 5075 1ad1 02       		.uleb128 0x2
 5076 1ad2 74       		.byte	0x74
 5077 1ad3 00       		.sleb128 0
 5078 1ad4 00       		.byte	0
 5079 1ad5 2A       		.uleb128 0x2a
 5080 1ad6 34020000 		.4byte	.LVL87
 5081 1ada 562A0000 		.4byte	0x2a56
 5082 1ade EE1A0000 		.4byte	0x1aee
 5083 1ae2 2B       		.uleb128 0x2b
 5084 1ae3 01       		.uleb128 0x1
 5085 1ae4 50       		.byte	0x50
 5086 1ae5 02       		.uleb128 0x2
 5087 1ae6 77       		.byte	0x77
 5088 1ae7 00       		.sleb128 0
 5089 1ae8 2B       		.uleb128 0x2b
 5090 1ae9 01       		.uleb128 0x1
ARM GAS  C:\Users\Sava\AppData\Local\Temp\ccs9rGHG.s 			page 110


 5091 1aea 51       		.byte	0x51
 5092 1aeb 01       		.uleb128 0x1
 5093 1aec 30       		.byte	0x30
 5094 1aed 00       		.byte	0
 5095 1aee 2A       		.uleb128 0x2a
 5096 1aef 44020000 		.4byte	.LVL91
 5097 1af3 612A0000 		.4byte	0x2a61
 5098 1af7 131B0000 		.4byte	0x1b13
 5099 1afb 2B       		.uleb128 0x2b
 5100 1afc 01       		.uleb128 0x1
 5101 1afd 50       		.byte	0x50
 5102 1afe 02       		.uleb128 0x2
 5103 1aff 74       		.byte	0x74
 5104 1b00 00       		.sleb128 0
 5105 1b01 2B       		.uleb128 0x2b
 5106 1b02 01       		.uleb128 0x1
 5107 1b03 51       		.byte	0x51
 5108 1b04 02       		.uleb128 0x2
 5109 1b05 75       		.byte	0x75
 5110 1b06 00       		.sleb128 0
 5111 1b07 2B       		.uleb128 0x2b
 5112 1b08 01       		.uleb128 0x1
 5113 1b09 52       		.byte	0x52
 5114 1b0a 02       		.uleb128 0x2
 5115 1b0b 76       		.byte	0x76
 5116 1b0c 00       		.sleb128 0
 5117 1b0d 2B       		.uleb128 0x2b
 5118 1b0e 01       		.uleb128 0x1
 5119 1b0f 53       		.byte	0x53
 5120 1b10 01       		.uleb128 0x1
 5121 1b11 30       		.byte	0x30
 5122 1b12 00       		.byte	0
 5123 1b13 2A       		.uleb128 0x2a
 5124 1b14 50020000 		.4byte	.LVL94
 5125 1b18 8E290000 		.4byte	0x298e
 5126 1b1c 331B0000 		.4byte	0x1b33
 5127 1b20 2B       		.uleb128 0x2b
 5128 1b21 01       		.uleb128 0x1
 5129 1b22 50       		.byte	0x50
 5130 1b23 02       		.uleb128 0x2
 5131 1b24 74       		.byte	0x74
 5132 1b25 00       		.sleb128 0
 5133 1b26 2B       		.uleb128 0x2b
 5134 1b27 01       		.uleb128 0x1
 5135 1b28 51       		.byte	0x51
 5136 1b29 02       		.uleb128 0x2
 5137 1b2a 08       		.byte	0x8
 5138 1b2b 50       		.byte	0x50
 5139 1b2c 2B       		.uleb128 0x2b
 5140 1b2d 01       		.uleb128 0x1
 5141 1b2e 52       		.byte	0x52
 5142 1b2f 02       		.uleb128 0x2
 5143 1b30 08       		.byte	0x8
 5144 1b31 78       		.byte	0x78
 5145 1b32 00       		.byte	0
 5146 1b33 2A       		.uleb128 0x2a
 5147 1b34 58020000 		.4byte	.LVL95
ARM GAS  C:\Users\Sava\AppData\Local\Temp\ccs9rGHG.s 			page 111


 5148 1b38 4C290000 		.4byte	0x294c
 5149 1b3c 4C1B0000 		.4byte	0x1b4c
 5150 1b40 2B       		.uleb128 0x2b
 5151 1b41 01       		.uleb128 0x1
 5152 1b42 50       		.byte	0x50
 5153 1b43 02       		.uleb128 0x2
 5154 1b44 78       		.byte	0x78
 5155 1b45 00       		.sleb128 0
 5156 1b46 2B       		.uleb128 0x2b
 5157 1b47 01       		.uleb128 0x1
 5158 1b48 51       		.byte	0x51
 5159 1b49 01       		.uleb128 0x1
 5160 1b4a 31       		.byte	0x31
 5161 1b4b 00       		.byte	0
 5162 1b4c 2A       		.uleb128 0x2a
 5163 1b4d 64020000 		.4byte	.LVL96
 5164 1b51 612A0000 		.4byte	0x2a61
 5165 1b55 771B0000 		.4byte	0x1b77
 5166 1b59 2B       		.uleb128 0x2b
 5167 1b5a 01       		.uleb128 0x1
 5168 1b5b 50       		.byte	0x50
 5169 1b5c 02       		.uleb128 0x2
 5170 1b5d 74       		.byte	0x74
 5171 1b5e 00       		.sleb128 0
 5172 1b5f 2B       		.uleb128 0x2b
 5173 1b60 01       		.uleb128 0x1
 5174 1b61 51       		.byte	0x51
 5175 1b62 05       		.uleb128 0x5
 5176 1b63 03       		.byte	0x3
 5177 1b64 54000000 		.4byte	.LC10
 5178 1b68 2B       		.uleb128 0x2b
 5179 1b69 01       		.uleb128 0x1
 5180 1b6a 52       		.byte	0x52
 5181 1b6b 05       		.uleb128 0x5
 5182 1b6c 03       		.byte	0x3
 5183 1b6d 4C000000 		.4byte	.LC9
 5184 1b71 2B       		.uleb128 0x2b
 5185 1b72 01       		.uleb128 0x1
 5186 1b73 53       		.byte	0x53
 5187 1b74 01       		.uleb128 0x1
 5188 1b75 30       		.byte	0x30
 5189 1b76 00       		.byte	0
 5190 1b77 2A       		.uleb128 0x2a
 5191 1b78 70020000 		.4byte	.LVL97
 5192 1b7c 612A0000 		.4byte	0x2a61
 5193 1b80 9C1B0000 		.4byte	0x1b9c
 5194 1b84 2B       		.uleb128 0x2b
 5195 1b85 01       		.uleb128 0x1
 5196 1b86 50       		.byte	0x50
 5197 1b87 02       		.uleb128 0x2
 5198 1b88 74       		.byte	0x74
 5199 1b89 00       		.sleb128 0
 5200 1b8a 2B       		.uleb128 0x2b
 5201 1b8b 01       		.uleb128 0x1
 5202 1b8c 51       		.byte	0x51
 5203 1b8d 02       		.uleb128 0x2
 5204 1b8e 75       		.byte	0x75
ARM GAS  C:\Users\Sava\AppData\Local\Temp\ccs9rGHG.s 			page 112


 5205 1b8f 00       		.sleb128 0
 5206 1b90 2B       		.uleb128 0x2b
 5207 1b91 01       		.uleb128 0x1
 5208 1b92 52       		.byte	0x52
 5209 1b93 02       		.uleb128 0x2
 5210 1b94 76       		.byte	0x76
 5211 1b95 00       		.sleb128 0
 5212 1b96 2B       		.uleb128 0x2b
 5213 1b97 01       		.uleb128 0x1
 5214 1b98 53       		.byte	0x53
 5215 1b99 01       		.uleb128 0x1
 5216 1b9a 30       		.byte	0x30
 5217 1b9b 00       		.byte	0
 5218 1b9c 2A       		.uleb128 0x2a
 5219 1b9d 7C020000 		.4byte	.LVL98
 5220 1ba1 612A0000 		.4byte	0x2a61
 5221 1ba5 C71B0000 		.4byte	0x1bc7
 5222 1ba9 2B       		.uleb128 0x2b
 5223 1baa 01       		.uleb128 0x1
 5224 1bab 50       		.byte	0x50
 5225 1bac 02       		.uleb128 0x2
 5226 1bad 74       		.byte	0x74
 5227 1bae 00       		.sleb128 0
 5228 1baf 2B       		.uleb128 0x2b
 5229 1bb0 01       		.uleb128 0x1
 5230 1bb1 51       		.byte	0x51
 5231 1bb2 05       		.uleb128 0x5
 5232 1bb3 03       		.byte	0x3
 5233 1bb4 60000000 		.4byte	.LC12
 5234 1bb8 2B       		.uleb128 0x2b
 5235 1bb9 01       		.uleb128 0x1
 5236 1bba 52       		.byte	0x52
 5237 1bbb 05       		.uleb128 0x5
 5238 1bbc 03       		.byte	0x3
 5239 1bbd 58000000 		.4byte	.LC11
 5240 1bc1 2B       		.uleb128 0x2b
 5241 1bc2 01       		.uleb128 0x1
 5242 1bc3 53       		.byte	0x53
 5243 1bc4 01       		.uleb128 0x1
 5244 1bc5 30       		.byte	0x30
 5245 1bc6 00       		.byte	0
 5246 1bc7 2A       		.uleb128 0x2a
 5247 1bc8 88020000 		.4byte	.LVL99
 5248 1bcc 612A0000 		.4byte	0x2a61
 5249 1bd0 F21B0000 		.4byte	0x1bf2
 5250 1bd4 2B       		.uleb128 0x2b
 5251 1bd5 01       		.uleb128 0x1
 5252 1bd6 50       		.byte	0x50
 5253 1bd7 02       		.uleb128 0x2
 5254 1bd8 74       		.byte	0x74
 5255 1bd9 00       		.sleb128 0
 5256 1bda 2B       		.uleb128 0x2b
 5257 1bdb 01       		.uleb128 0x1
 5258 1bdc 51       		.byte	0x51
 5259 1bdd 05       		.uleb128 0x5
 5260 1bde 03       		.byte	0x3
 5261 1bdf 6C000000 		.4byte	.LC14
ARM GAS  C:\Users\Sava\AppData\Local\Temp\ccs9rGHG.s 			page 113


 5262 1be3 2B       		.uleb128 0x2b
 5263 1be4 01       		.uleb128 0x1
 5264 1be5 52       		.byte	0x52
 5265 1be6 05       		.uleb128 0x5
 5266 1be7 03       		.byte	0x3
 5267 1be8 64000000 		.4byte	.LC13
 5268 1bec 2B       		.uleb128 0x2b
 5269 1bed 01       		.uleb128 0x1
 5270 1bee 53       		.byte	0x53
 5271 1bef 01       		.uleb128 0x1
 5272 1bf0 30       		.byte	0x30
 5273 1bf1 00       		.byte	0
 5274 1bf2 2A       		.uleb128 0x2a
 5275 1bf3 94020000 		.4byte	.LVL100
 5276 1bf7 612A0000 		.4byte	0x2a61
 5277 1bfb 1D1C0000 		.4byte	0x1c1d
 5278 1bff 2B       		.uleb128 0x2b
 5279 1c00 01       		.uleb128 0x1
 5280 1c01 50       		.byte	0x50
 5281 1c02 02       		.uleb128 0x2
 5282 1c03 74       		.byte	0x74
 5283 1c04 00       		.sleb128 0
 5284 1c05 2B       		.uleb128 0x2b
 5285 1c06 01       		.uleb128 0x1
 5286 1c07 51       		.byte	0x51
 5287 1c08 05       		.uleb128 0x5
 5288 1c09 03       		.byte	0x3
 5289 1c0a 78000000 		.4byte	.LC16
 5290 1c0e 2B       		.uleb128 0x2b
 5291 1c0f 01       		.uleb128 0x1
 5292 1c10 52       		.byte	0x52
 5293 1c11 05       		.uleb128 0x5
 5294 1c12 03       		.byte	0x3
 5295 1c13 70000000 		.4byte	.LC15
 5296 1c17 2B       		.uleb128 0x2b
 5297 1c18 01       		.uleb128 0x1
 5298 1c19 53       		.byte	0x53
 5299 1c1a 01       		.uleb128 0x1
 5300 1c1b 30       		.byte	0x30
 5301 1c1c 00       		.byte	0
 5302 1c1d 2A       		.uleb128 0x2a
 5303 1c1e A0020000 		.4byte	.LVL101
 5304 1c22 612A0000 		.4byte	0x2a61
 5305 1c26 481C0000 		.4byte	0x1c48
 5306 1c2a 2B       		.uleb128 0x2b
 5307 1c2b 01       		.uleb128 0x1
 5308 1c2c 50       		.byte	0x50
 5309 1c2d 02       		.uleb128 0x2
 5310 1c2e 74       		.byte	0x74
 5311 1c2f 00       		.sleb128 0
 5312 1c30 2B       		.uleb128 0x2b
 5313 1c31 01       		.uleb128 0x1
 5314 1c32 51       		.byte	0x51
 5315 1c33 05       		.uleb128 0x5
 5316 1c34 03       		.byte	0x3
 5317 1c35 84000000 		.4byte	.LC18
 5318 1c39 2B       		.uleb128 0x2b
ARM GAS  C:\Users\Sava\AppData\Local\Temp\ccs9rGHG.s 			page 114


 5319 1c3a 01       		.uleb128 0x1
 5320 1c3b 52       		.byte	0x52
 5321 1c3c 05       		.uleb128 0x5
 5322 1c3d 03       		.byte	0x3
 5323 1c3e 7C000000 		.4byte	.LC17
 5324 1c42 2B       		.uleb128 0x2b
 5325 1c43 01       		.uleb128 0x1
 5326 1c44 53       		.byte	0x53
 5327 1c45 01       		.uleb128 0x1
 5328 1c46 30       		.byte	0x30
 5329 1c47 00       		.byte	0
 5330 1c48 2A       		.uleb128 0x2a
 5331 1c49 AC020000 		.4byte	.LVL102
 5332 1c4d 612A0000 		.4byte	0x2a61
 5333 1c51 731C0000 		.4byte	0x1c73
 5334 1c55 2B       		.uleb128 0x2b
 5335 1c56 01       		.uleb128 0x1
 5336 1c57 50       		.byte	0x50
 5337 1c58 02       		.uleb128 0x2
 5338 1c59 74       		.byte	0x74
 5339 1c5a 00       		.sleb128 0
 5340 1c5b 2B       		.uleb128 0x2b
 5341 1c5c 01       		.uleb128 0x1
 5342 1c5d 51       		.byte	0x51
 5343 1c5e 05       		.uleb128 0x5
 5344 1c5f 03       		.byte	0x3
 5345 1c60 90000000 		.4byte	.LC20
 5346 1c64 2B       		.uleb128 0x2b
 5347 1c65 01       		.uleb128 0x1
 5348 1c66 52       		.byte	0x52
 5349 1c67 05       		.uleb128 0x5
 5350 1c68 03       		.byte	0x3
 5351 1c69 88000000 		.4byte	.LC19
 5352 1c6d 2B       		.uleb128 0x2b
 5353 1c6e 01       		.uleb128 0x1
 5354 1c6f 53       		.byte	0x53
 5355 1c70 01       		.uleb128 0x1
 5356 1c71 30       		.byte	0x30
 5357 1c72 00       		.byte	0
 5358 1c73 2A       		.uleb128 0x2a
 5359 1c74 B8020000 		.4byte	.LVL103
 5360 1c78 612A0000 		.4byte	0x2a61
 5361 1c7c 9E1C0000 		.4byte	0x1c9e
 5362 1c80 2B       		.uleb128 0x2b
 5363 1c81 01       		.uleb128 0x1
 5364 1c82 50       		.byte	0x50
 5365 1c83 02       		.uleb128 0x2
 5366 1c84 74       		.byte	0x74
 5367 1c85 00       		.sleb128 0
 5368 1c86 2B       		.uleb128 0x2b
 5369 1c87 01       		.uleb128 0x1
 5370 1c88 51       		.byte	0x51
 5371 1c89 05       		.uleb128 0x5
 5372 1c8a 03       		.byte	0x3
 5373 1c8b 9C000000 		.4byte	.LC22
 5374 1c8f 2B       		.uleb128 0x2b
 5375 1c90 01       		.uleb128 0x1
ARM GAS  C:\Users\Sava\AppData\Local\Temp\ccs9rGHG.s 			page 115


 5376 1c91 52       		.byte	0x52
 5377 1c92 05       		.uleb128 0x5
 5378 1c93 03       		.byte	0x3
 5379 1c94 94000000 		.4byte	.LC21
 5380 1c98 2B       		.uleb128 0x2b
 5381 1c99 01       		.uleb128 0x1
 5382 1c9a 53       		.byte	0x53
 5383 1c9b 01       		.uleb128 0x1
 5384 1c9c 30       		.byte	0x30
 5385 1c9d 00       		.byte	0
 5386 1c9e 2A       		.uleb128 0x2a
 5387 1c9f C4020000 		.4byte	.LVL104
 5388 1ca3 612A0000 		.4byte	0x2a61
 5389 1ca7 C91C0000 		.4byte	0x1cc9
 5390 1cab 2B       		.uleb128 0x2b
 5391 1cac 01       		.uleb128 0x1
 5392 1cad 50       		.byte	0x50
 5393 1cae 02       		.uleb128 0x2
 5394 1caf 74       		.byte	0x74
 5395 1cb0 00       		.sleb128 0
 5396 1cb1 2B       		.uleb128 0x2b
 5397 1cb2 01       		.uleb128 0x1
 5398 1cb3 51       		.byte	0x51
 5399 1cb4 05       		.uleb128 0x5
 5400 1cb5 03       		.byte	0x3
 5401 1cb6 A4000000 		.4byte	.LC24
 5402 1cba 2B       		.uleb128 0x2b
 5403 1cbb 01       		.uleb128 0x1
 5404 1cbc 52       		.byte	0x52
 5405 1cbd 05       		.uleb128 0x5
 5406 1cbe 03       		.byte	0x3
 5407 1cbf A0000000 		.4byte	.LC23
 5408 1cc3 2B       		.uleb128 0x2b
 5409 1cc4 01       		.uleb128 0x1
 5410 1cc5 53       		.byte	0x53
 5411 1cc6 01       		.uleb128 0x1
 5412 1cc7 30       		.byte	0x30
 5413 1cc8 00       		.byte	0
 5414 1cc9 2A       		.uleb128 0x2a
 5415 1cca D0020000 		.4byte	.LVL105
 5416 1cce 612A0000 		.4byte	0x2a61
 5417 1cd2 F41C0000 		.4byte	0x1cf4
 5418 1cd6 2B       		.uleb128 0x2b
 5419 1cd7 01       		.uleb128 0x1
 5420 1cd8 50       		.byte	0x50
 5421 1cd9 02       		.uleb128 0x2
 5422 1cda 74       		.byte	0x74
 5423 1cdb 00       		.sleb128 0
 5424 1cdc 2B       		.uleb128 0x2b
 5425 1cdd 01       		.uleb128 0x1
 5426 1cde 51       		.byte	0x51
 5427 1cdf 05       		.uleb128 0x5
 5428 1ce0 03       		.byte	0x3
 5429 1ce1 B0000000 		.4byte	.LC26
 5430 1ce5 2B       		.uleb128 0x2b
 5431 1ce6 01       		.uleb128 0x1
 5432 1ce7 52       		.byte	0x52
ARM GAS  C:\Users\Sava\AppData\Local\Temp\ccs9rGHG.s 			page 116


 5433 1ce8 05       		.uleb128 0x5
 5434 1ce9 03       		.byte	0x3
 5435 1cea A8000000 		.4byte	.LC25
 5436 1cee 2B       		.uleb128 0x2b
 5437 1cef 01       		.uleb128 0x1
 5438 1cf0 53       		.byte	0x53
 5439 1cf1 01       		.uleb128 0x1
 5440 1cf2 30       		.byte	0x30
 5441 1cf3 00       		.byte	0
 5442 1cf4 2A       		.uleb128 0x2a
 5443 1cf5 D8020000 		.4byte	.LVL106
 5444 1cf9 6C2A0000 		.4byte	0x2a6c
 5445 1cfd 0D1D0000 		.4byte	0x1d0d
 5446 1d01 2B       		.uleb128 0x2b
 5447 1d02 01       		.uleb128 0x1
 5448 1d03 50       		.byte	0x50
 5449 1d04 02       		.uleb128 0x2
 5450 1d05 77       		.byte	0x77
 5451 1d06 00       		.sleb128 0
 5452 1d07 2B       		.uleb128 0x2b
 5453 1d08 01       		.uleb128 0x1
 5454 1d09 51       		.byte	0x51
 5455 1d0a 01       		.uleb128 0x1
 5456 1d0b 30       		.byte	0x30
 5457 1d0c 00       		.byte	0
 5458 1d0d 2A       		.uleb128 0x2a
 5459 1d0e EA020000 		.4byte	.LVL109
 5460 1d12 772A0000 		.4byte	0x2a77
 5461 1d16 2B1D0000 		.4byte	0x1d2b
 5462 1d1a 2B       		.uleb128 0x2b
 5463 1d1b 01       		.uleb128 0x1
 5464 1d1c 50       		.byte	0x50
 5465 1d1d 02       		.uleb128 0x2
 5466 1d1e 74       		.byte	0x74
 5467 1d1f 00       		.sleb128 0
 5468 1d20 2B       		.uleb128 0x2b
 5469 1d21 01       		.uleb128 0x1
 5470 1d22 51       		.byte	0x51
 5471 1d23 01       		.uleb128 0x1
 5472 1d24 31       		.byte	0x31
 5473 1d25 2B       		.uleb128 0x2b
 5474 1d26 01       		.uleb128 0x1
 5475 1d27 52       		.byte	0x52
 5476 1d28 01       		.uleb128 0x1
 5477 1d29 30       		.byte	0x30
 5478 1d2a 00       		.byte	0
 5479 1d2b 2C       		.uleb128 0x2c
 5480 1d2c F2020000 		.4byte	.LVL110
 5481 1d30 822A0000 		.4byte	0x2a82
 5482 1d34 2B       		.uleb128 0x2b
 5483 1d35 01       		.uleb128 0x1
 5484 1d36 50       		.byte	0x50
 5485 1d37 02       		.uleb128 0x2
 5486 1d38 74       		.byte	0x74
 5487 1d39 00       		.sleb128 0
 5488 1d3a 2B       		.uleb128 0x2b
 5489 1d3b 01       		.uleb128 0x1
ARM GAS  C:\Users\Sava\AppData\Local\Temp\ccs9rGHG.s 			page 117


 5490 1d3c 51       		.byte	0x51
 5491 1d3d 01       		.uleb128 0x1
 5492 1d3e 33       		.byte	0x33
 5493 1d3f 00       		.byte	0
 5494 1d40 00       		.byte	0
 5495 1d41 07       		.uleb128 0x7
 5496 1d42 04       		.byte	0x4
 5497 1d43 E30F0000 		.4byte	0xfe3
 5498 1d47 2F       		.uleb128 0x2f
 5499 1d48 A9010000 		.4byte	0x1a9
 5500 1d4c 571D0000 		.4byte	0x1d57
 5501 1d50 30       		.uleb128 0x30
 5502 1d51 9B010000 		.4byte	0x19b
 5503 1d55 05       		.byte	0x5
 5504 1d56 00       		.byte	0
 5505 1d57 2F       		.uleb128 0x2f
 5506 1d58 50080000 		.4byte	0x850
 5507 1d5c 671D0000 		.4byte	0x1d67
 5508 1d60 30       		.uleb128 0x30
 5509 1d61 9B010000 		.4byte	0x19b
 5510 1d65 01       		.byte	0x1
 5511 1d66 00       		.byte	0
 5512 1d67 0E       		.uleb128 0xe
 5513 1d68 571D0000 		.4byte	0x1d57
 5514 1d6c 23       		.uleb128 0x23
 5515 1d6d 8D050000 		.4byte	.LASF229
 5516 1d71 01       		.byte	0x1
 5517 1d72 BA       		.byte	0xba
 5518 1d73 00000000 		.4byte	.LFB109
 5519 1d77 7C010000 		.4byte	.LFE109-.LFB109
 5520 1d7b 01       		.uleb128 0x1
 5521 1d7c 9C       		.byte	0x9c
 5522 1d7d E4210000 		.4byte	0x21e4
 5523 1d81 24       		.uleb128 0x24
 5524 1d82 C5050000 		.4byte	.LASF230
 5525 1d86 01       		.byte	0x1
 5526 1d87 BA       		.byte	0xba
 5527 1d88 55080000 		.4byte	0x855
 5528 1d8c 8E030000 		.4byte	.LLST28
 5529 1d90 31       		.uleb128 0x31
 5530 1d91 7700     		.ascii	"w\000"
 5531 1d93 01       		.byte	0x1
 5532 1d94 BC       		.byte	0xbc
 5533 1d95 B4010000 		.4byte	0x1b4
 5534 1d99 27       		.uleb128 0x27
 5535 1d9a 88010000 		.4byte	.LASF164
 5536 1d9e 01       		.byte	0x1
 5537 1d9f BE       		.byte	0xbe
 5538 1da0 55080000 		.4byte	0x855
 5539 1da4 BA030000 		.4byte	.LLST29
 5540 1da8 25       		.uleb128 0x25
 5541 1da9 733100   		.ascii	"s1\000"
 5542 1dac 01       		.byte	0x1
 5543 1dad C1       		.byte	0xc1
 5544 1dae E4210000 		.4byte	0x21e4
 5545 1db2 D8030000 		.4byte	.LLST30
 5546 1db6 27       		.uleb128 0x27
ARM GAS  C:\Users\Sava\AppData\Local\Temp\ccs9rGHG.s 			page 118


 5547 1db7 670A0000 		.4byte	.LASF162
 5548 1dbb 01       		.byte	0x1
 5549 1dbc CE       		.byte	0xce
 5550 1dbd 55080000 		.4byte	0x855
 5551 1dc1 01040000 		.4byte	.LLST31
 5552 1dc5 25       		.uleb128 0x25
 5553 1dc6 61726300 		.ascii	"arc\000"
 5554 1dca 01       		.byte	0x1
 5555 1dcb D4       		.byte	0xd4
 5556 1dcc 55080000 		.4byte	0x855
 5557 1dd0 1F040000 		.4byte	.LLST32
 5558 1dd4 25       		.uleb128 0x25
 5559 1dd5 746100   		.ascii	"ta\000"
 5560 1dd8 01       		.byte	0x1
 5561 1dd9 D7       		.byte	0xd7
 5562 1dda 55080000 		.4byte	0x855
 5563 1dde 32040000 		.4byte	.LLST33
 5564 1de2 25       		.uleb128 0x25
 5565 1de3 6B6200   		.ascii	"kb\000"
 5566 1de6 01       		.byte	0x1
 5567 1de7 DC       		.byte	0xdc
 5568 1de8 55080000 		.4byte	0x855
 5569 1dec 50040000 		.4byte	.LLST34
 5570 1df0 27       		.uleb128 0x27
 5571 1df1 490F0000 		.4byte	.LASF231
 5572 1df5 01       		.byte	0x1
 5573 1df6 E2       		.byte	0xe2
 5574 1df7 55080000 		.4byte	0x855
 5575 1dfb 6E040000 		.4byte	.LLST35
 5576 1dff 28       		.uleb128 0x28
 5577 1e00 00120000 		.4byte	0x1200
 5578 1e04 08000000 		.4byte	.LBB28
 5579 1e08 0A000000 		.4byte	.LBE28-.LBB28
 5580 1e0c 01       		.byte	0x1
 5581 1e0d BC       		.byte	0xbc
 5582 1e0e 391E0000 		.4byte	0x1e39
 5583 1e12 29       		.uleb128 0x29
 5584 1e13 11120000 		.4byte	0x1211
 5585 1e17 81040000 		.4byte	.LLST36
 5586 1e1b 2A       		.uleb128 0x2a
 5587 1e1c 0C000000 		.4byte	.LVL114
 5588 1e20 D0280000 		.4byte	0x28d0
 5589 1e24 2F1E0000 		.4byte	0x1e2f
 5590 1e28 2B       		.uleb128 0x2b
 5591 1e29 01       		.uleb128 0x1
 5592 1e2a 50       		.byte	0x50
 5593 1e2b 02       		.uleb128 0x2
 5594 1e2c 78       		.byte	0x78
 5595 1e2d 00       		.sleb128 0
 5596 1e2e 00       		.byte	0
 5597 1e2f 2E       		.uleb128 0x2e
 5598 1e30 10000000 		.4byte	.LVL115
 5599 1e34 8D2A0000 		.4byte	0x2a8d
 5600 1e38 00       		.byte	0
 5601 1e39 2A       		.uleb128 0x2a
 5602 1e3a 1A000000 		.4byte	.LVL117
 5603 1e3e 992A0000 		.4byte	0x2a99
ARM GAS  C:\Users\Sava\AppData\Local\Temp\ccs9rGHG.s 			page 119


 5604 1e42 521E0000 		.4byte	0x1e52
 5605 1e46 2B       		.uleb128 0x2b
 5606 1e47 01       		.uleb128 0x1
 5607 1e48 50       		.byte	0x50
 5608 1e49 02       		.uleb128 0x2
 5609 1e4a 78       		.byte	0x78
 5610 1e4b 00       		.sleb128 0
 5611 1e4c 2B       		.uleb128 0x2b
 5612 1e4d 01       		.uleb128 0x1
 5613 1e4e 51       		.byte	0x51
 5614 1e4f 01       		.uleb128 0x1
 5615 1e50 30       		.byte	0x30
 5616 1e51 00       		.byte	0
 5617 1e52 2A       		.uleb128 0x2a
 5618 1e53 30000000 		.4byte	.LVL119
 5619 1e57 8E290000 		.4byte	0x298e
 5620 1e5b 721E0000 		.4byte	0x1e72
 5621 1e5f 2B       		.uleb128 0x2b
 5622 1e60 01       		.uleb128 0x1
 5623 1e61 50       		.byte	0x50
 5624 1e62 02       		.uleb128 0x2
 5625 1e63 74       		.byte	0x74
 5626 1e64 00       		.sleb128 0
 5627 1e65 2B       		.uleb128 0x2b
 5628 1e66 01       		.uleb128 0x1
 5629 1e67 51       		.byte	0x51
 5630 1e68 02       		.uleb128 0x2
 5631 1e69 77       		.byte	0x77
 5632 1e6a 00       		.sleb128 0
 5633 1e6b 2B       		.uleb128 0x2b
 5634 1e6c 01       		.uleb128 0x1
 5635 1e6d 52       		.byte	0x52
 5636 1e6e 02       		.uleb128 0x2
 5637 1e6f 08       		.byte	0x8
 5638 1e70 50       		.byte	0x50
 5639 1e71 00       		.byte	0
 5640 1e72 2A       		.uleb128 0x2a
 5641 1e73 3A000000 		.4byte	.LVL120
 5642 1e77 A42A0000 		.4byte	0x2aa4
 5643 1e7b 901E0000 		.4byte	0x1e90
 5644 1e7f 2B       		.uleb128 0x2b
 5645 1e80 01       		.uleb128 0x1
 5646 1e81 50       		.byte	0x50
 5647 1e82 02       		.uleb128 0x2
 5648 1e83 74       		.byte	0x74
 5649 1e84 00       		.sleb128 0
 5650 1e85 2B       		.uleb128 0x2b
 5651 1e86 01       		.uleb128 0x1
 5652 1e87 51       		.byte	0x51
 5653 1e88 01       		.uleb128 0x1
 5654 1e89 3A       		.byte	0x3a
 5655 1e8a 2B       		.uleb128 0x2b
 5656 1e8b 01       		.uleb128 0x1
 5657 1e8c 52       		.byte	0x52
 5658 1e8d 01       		.uleb128 0x1
 5659 1e8e 3A       		.byte	0x3a
 5660 1e8f 00       		.byte	0
ARM GAS  C:\Users\Sava\AppData\Local\Temp\ccs9rGHG.s 			page 120


 5661 1e90 2A       		.uleb128 0x2a
 5662 1e91 44000000 		.4byte	.LVL121
 5663 1e95 B02A0000 		.4byte	0x2ab0
 5664 1e99 AB1E0000 		.4byte	0x1eab
 5665 1e9d 2B       		.uleb128 0x2b
 5666 1e9e 01       		.uleb128 0x1
 5667 1e9f 50       		.byte	0x50
 5668 1ea0 02       		.uleb128 0x2
 5669 1ea1 74       		.byte	0x74
 5670 1ea2 00       		.sleb128 0
 5671 1ea3 2B       		.uleb128 0x2b
 5672 1ea4 01       		.uleb128 0x1
 5673 1ea5 51       		.byte	0x51
 5674 1ea6 03       		.uleb128 0x3
 5675 1ea7 0B       		.byte	0xb
 5676 1ea8 00F8     		.2byte	0xf800
 5677 1eaa 00       		.byte	0
 5678 1eab 2A       		.uleb128 0x2a
 5679 1eac 50000000 		.4byte	.LVL124
 5680 1eb0 BB2A0000 		.4byte	0x2abb
 5681 1eb4 CA1E0000 		.4byte	0x1eca
 5682 1eb8 2B       		.uleb128 0x2b
 5683 1eb9 01       		.uleb128 0x1
 5684 1eba 50       		.byte	0x50
 5685 1ebb 02       		.uleb128 0x2
 5686 1ebc 74       		.byte	0x74
 5687 1ebd 00       		.sleb128 0
 5688 1ebe 2B       		.uleb128 0x2b
 5689 1ebf 01       		.uleb128 0x1
 5690 1ec0 51       		.byte	0x51
 5691 1ec1 02       		.uleb128 0x2
 5692 1ec2 75       		.byte	0x75
 5693 1ec3 00       		.sleb128 0
 5694 1ec4 2B       		.uleb128 0x2b
 5695 1ec5 01       		.uleb128 0x1
 5696 1ec6 52       		.byte	0x52
 5697 1ec7 01       		.uleb128 0x1
 5698 1ec8 4E       		.byte	0x4e
 5699 1ec9 00       		.byte	0
 5700 1eca 2A       		.uleb128 0x2a
 5701 1ecb 5A000000 		.4byte	.LVL125
 5702 1ecf BB2A0000 		.4byte	0x2abb
 5703 1ed3 E91E0000 		.4byte	0x1ee9
 5704 1ed7 2B       		.uleb128 0x2b
 5705 1ed8 01       		.uleb128 0x1
 5706 1ed9 50       		.byte	0x50
 5707 1eda 02       		.uleb128 0x2
 5708 1edb 74       		.byte	0x74
 5709 1edc 00       		.sleb128 0
 5710 1edd 2B       		.uleb128 0x2b
 5711 1ede 01       		.uleb128 0x1
 5712 1edf 51       		.byte	0x51
 5713 1ee0 02       		.uleb128 0x2
 5714 1ee1 75       		.byte	0x75
 5715 1ee2 00       		.sleb128 0
 5716 1ee3 2B       		.uleb128 0x2b
 5717 1ee4 01       		.uleb128 0x1
ARM GAS  C:\Users\Sava\AppData\Local\Temp\ccs9rGHG.s 			page 121


 5718 1ee5 52       		.byte	0x52
 5719 1ee6 01       		.uleb128 0x1
 5720 1ee7 44       		.byte	0x44
 5721 1ee8 00       		.byte	0
 5722 1ee9 2A       		.uleb128 0x2a
 5723 1eea 64000000 		.4byte	.LVL126
 5724 1eee BB2A0000 		.4byte	0x2abb
 5725 1ef2 081F0000 		.4byte	0x1f08
 5726 1ef6 2B       		.uleb128 0x2b
 5727 1ef7 01       		.uleb128 0x1
 5728 1ef8 50       		.byte	0x50
 5729 1ef9 02       		.uleb128 0x2
 5730 1efa 74       		.byte	0x74
 5731 1efb 00       		.sleb128 0
 5732 1efc 2B       		.uleb128 0x2b
 5733 1efd 01       		.uleb128 0x1
 5734 1efe 51       		.byte	0x51
 5735 1eff 02       		.uleb128 0x2
 5736 1f00 75       		.byte	0x75
 5737 1f01 00       		.sleb128 0
 5738 1f02 2B       		.uleb128 0x2b
 5739 1f03 01       		.uleb128 0x1
 5740 1f04 52       		.byte	0x52
 5741 1f05 01       		.uleb128 0x1
 5742 1f06 3A       		.byte	0x3a
 5743 1f07 00       		.byte	0
 5744 1f08 2A       		.uleb128 0x2a
 5745 1f09 6E000000 		.4byte	.LVL127
 5746 1f0d BB2A0000 		.4byte	0x2abb
 5747 1f11 271F0000 		.4byte	0x1f27
 5748 1f15 2B       		.uleb128 0x2b
 5749 1f16 01       		.uleb128 0x1
 5750 1f17 50       		.byte	0x50
 5751 1f18 02       		.uleb128 0x2
 5752 1f19 74       		.byte	0x74
 5753 1f1a 00       		.sleb128 0
 5754 1f1b 2B       		.uleb128 0x2b
 5755 1f1c 01       		.uleb128 0x1
 5756 1f1d 51       		.byte	0x51
 5757 1f1e 02       		.uleb128 0x2
 5758 1f1f 75       		.byte	0x75
 5759 1f20 00       		.sleb128 0
 5760 1f21 2B       		.uleb128 0x2b
 5761 1f22 01       		.uleb128 0x1
 5762 1f23 52       		.byte	0x52
 5763 1f24 01       		.uleb128 0x1
 5764 1f25 3C       		.byte	0x3c
 5765 1f26 00       		.byte	0
 5766 1f27 2A       		.uleb128 0x2a
 5767 1f28 78000000 		.4byte	.LVL128
 5768 1f2c BB2A0000 		.4byte	0x2abb
 5769 1f30 461F0000 		.4byte	0x1f46
 5770 1f34 2B       		.uleb128 0x2b
 5771 1f35 01       		.uleb128 0x1
 5772 1f36 50       		.byte	0x50
 5773 1f37 02       		.uleb128 0x2
 5774 1f38 74       		.byte	0x74
ARM GAS  C:\Users\Sava\AppData\Local\Temp\ccs9rGHG.s 			page 122


 5775 1f39 00       		.sleb128 0
 5776 1f3a 2B       		.uleb128 0x2b
 5777 1f3b 01       		.uleb128 0x1
 5778 1f3c 51       		.byte	0x51
 5779 1f3d 02       		.uleb128 0x2
 5780 1f3e 75       		.byte	0x75
 5781 1f3f 00       		.sleb128 0
 5782 1f40 2B       		.uleb128 0x2b
 5783 1f41 01       		.uleb128 0x1
 5784 1f42 52       		.byte	0x52
 5785 1f43 01       		.uleb128 0x1
 5786 1f44 44       		.byte	0x44
 5787 1f45 00       		.byte	0
 5788 1f46 2A       		.uleb128 0x2a
 5789 1f47 82000000 		.4byte	.LVL129
 5790 1f4b BB2A0000 		.4byte	0x2abb
 5791 1f4f 651F0000 		.4byte	0x1f65
 5792 1f53 2B       		.uleb128 0x2b
 5793 1f54 01       		.uleb128 0x1
 5794 1f55 50       		.byte	0x50
 5795 1f56 02       		.uleb128 0x2
 5796 1f57 74       		.byte	0x74
 5797 1f58 00       		.sleb128 0
 5798 1f59 2B       		.uleb128 0x2b
 5799 1f5a 01       		.uleb128 0x1
 5800 1f5b 51       		.byte	0x51
 5801 1f5c 02       		.uleb128 0x2
 5802 1f5d 75       		.byte	0x75
 5803 1f5e 00       		.sleb128 0
 5804 1f5f 2B       		.uleb128 0x2b
 5805 1f60 01       		.uleb128 0x1
 5806 1f61 52       		.byte	0x52
 5807 1f62 01       		.uleb128 0x1
 5808 1f63 4B       		.byte	0x4b
 5809 1f64 00       		.byte	0
 5810 1f65 2A       		.uleb128 0x2a
 5811 1f66 8C000000 		.4byte	.LVL130
 5812 1f6a BB2A0000 		.4byte	0x2abb
 5813 1f6e 851F0000 		.4byte	0x1f85
 5814 1f72 2B       		.uleb128 0x2b
 5815 1f73 01       		.uleb128 0x1
 5816 1f74 50       		.byte	0x50
 5817 1f75 02       		.uleb128 0x2
 5818 1f76 74       		.byte	0x74
 5819 1f77 00       		.sleb128 0
 5820 1f78 2B       		.uleb128 0x2b
 5821 1f79 01       		.uleb128 0x1
 5822 1f7a 51       		.byte	0x51
 5823 1f7b 02       		.uleb128 0x2
 5824 1f7c 75       		.byte	0x75
 5825 1f7d 00       		.sleb128 0
 5826 1f7e 2B       		.uleb128 0x2b
 5827 1f7f 01       		.uleb128 0x1
 5828 1f80 52       		.byte	0x52
 5829 1f81 02       		.uleb128 0x2
 5830 1f82 08       		.byte	0x8
 5831 1f83 23       		.byte	0x23
ARM GAS  C:\Users\Sava\AppData\Local\Temp\ccs9rGHG.s 			page 123


 5832 1f84 00       		.byte	0
 5833 1f85 2A       		.uleb128 0x2a
 5834 1f86 96000000 		.4byte	.LVL131
 5835 1f8a BB2A0000 		.4byte	0x2abb
 5836 1f8e A51F0000 		.4byte	0x1fa5
 5837 1f92 2B       		.uleb128 0x2b
 5838 1f93 01       		.uleb128 0x1
 5839 1f94 50       		.byte	0x50
 5840 1f95 02       		.uleb128 0x2
 5841 1f96 74       		.byte	0x74
 5842 1f97 00       		.sleb128 0
 5843 1f98 2B       		.uleb128 0x2b
 5844 1f99 01       		.uleb128 0x1
 5845 1f9a 51       		.byte	0x51
 5846 1f9b 02       		.uleb128 0x2
 5847 1f9c 75       		.byte	0x75
 5848 1f9d 00       		.sleb128 0
 5849 1f9e 2B       		.uleb128 0x2b
 5850 1f9f 01       		.uleb128 0x1
 5851 1fa0 52       		.byte	0x52
 5852 1fa1 02       		.uleb128 0x2
 5853 1fa2 08       		.byte	0x8
 5854 1fa3 37       		.byte	0x37
 5855 1fa4 00       		.byte	0
 5856 1fa5 2A       		.uleb128 0x2a
 5857 1fa6 A0000000 		.4byte	.LVL132
 5858 1faa BB2A0000 		.4byte	0x2abb
 5859 1fae C51F0000 		.4byte	0x1fc5
 5860 1fb2 2B       		.uleb128 0x2b
 5861 1fb3 01       		.uleb128 0x1
 5862 1fb4 50       		.byte	0x50
 5863 1fb5 02       		.uleb128 0x2
 5864 1fb6 74       		.byte	0x74
 5865 1fb7 00       		.sleb128 0
 5866 1fb8 2B       		.uleb128 0x2b
 5867 1fb9 01       		.uleb128 0x1
 5868 1fba 51       		.byte	0x51
 5869 1fbb 02       		.uleb128 0x2
 5870 1fbc 75       		.byte	0x75
 5871 1fbd 00       		.sleb128 0
 5872 1fbe 2B       		.uleb128 0x2b
 5873 1fbf 01       		.uleb128 0x1
 5874 1fc0 52       		.byte	0x52
 5875 1fc1 02       		.uleb128 0x2
 5876 1fc2 08       		.byte	0x8
 5877 1fc3 46       		.byte	0x46
 5878 1fc4 00       		.byte	0
 5879 1fc5 2A       		.uleb128 0x2a
 5880 1fc6 AA000000 		.4byte	.LVL133
 5881 1fca BB2A0000 		.4byte	0x2abb
 5882 1fce E51F0000 		.4byte	0x1fe5
 5883 1fd2 2B       		.uleb128 0x2b
 5884 1fd3 01       		.uleb128 0x1
 5885 1fd4 50       		.byte	0x50
 5886 1fd5 02       		.uleb128 0x2
 5887 1fd6 74       		.byte	0x74
 5888 1fd7 00       		.sleb128 0
ARM GAS  C:\Users\Sava\AppData\Local\Temp\ccs9rGHG.s 			page 124


 5889 1fd8 2B       		.uleb128 0x2b
 5890 1fd9 01       		.uleb128 0x1
 5891 1fda 51       		.byte	0x51
 5892 1fdb 02       		.uleb128 0x2
 5893 1fdc 75       		.byte	0x75
 5894 1fdd 00       		.sleb128 0
 5895 1fde 2B       		.uleb128 0x2b
 5896 1fdf 01       		.uleb128 0x1
 5897 1fe0 52       		.byte	0x52
 5898 1fe1 02       		.uleb128 0x2
 5899 1fe2 08       		.byte	0x8
 5900 1fe3 4B       		.byte	0x4b
 5901 1fe4 00       		.byte	0
 5902 1fe5 2A       		.uleb128 0x2a
 5903 1fe6 B2000000 		.4byte	.LVL134
 5904 1fea C62A0000 		.4byte	0x2ac6
 5905 1fee FE1F0000 		.4byte	0x1ffe
 5906 1ff2 2B       		.uleb128 0x2b
 5907 1ff3 01       		.uleb128 0x1
 5908 1ff4 50       		.byte	0x50
 5909 1ff5 02       		.uleb128 0x2
 5910 1ff6 78       		.byte	0x78
 5911 1ff7 00       		.sleb128 0
 5912 1ff8 2B       		.uleb128 0x2b
 5913 1ff9 01       		.uleb128 0x1
 5914 1ffa 51       		.byte	0x51
 5915 1ffb 01       		.uleb128 0x1
 5916 1ffc 30       		.byte	0x30
 5917 1ffd 00       		.byte	0
 5918 1ffe 2A       		.uleb128 0x2a
 5919 1fff BC000000 		.4byte	.LVL136
 5920 2003 D12A0000 		.4byte	0x2ad1
 5921 2007 1D200000 		.4byte	0x201d
 5922 200b 2B       		.uleb128 0x2b
 5923 200c 01       		.uleb128 0x1
 5924 200d 50       		.byte	0x50
 5925 200e 02       		.uleb128 0x2
 5926 200f 75       		.byte	0x75
 5927 2010 00       		.sleb128 0
 5928 2011 2B       		.uleb128 0x2b
 5929 2012 01       		.uleb128 0x1
 5930 2013 51       		.byte	0x51
 5931 2014 01       		.uleb128 0x1
 5932 2015 30       		.byte	0x30
 5933 2016 2B       		.uleb128 0x2b
 5934 2017 01       		.uleb128 0x1
 5935 2018 52       		.byte	0x52
 5936 2019 02       		.uleb128 0x2
 5937 201a 08       		.byte	0x8
 5938 201b 28       		.byte	0x28
 5939 201c 00       		.byte	0
 5940 201d 2A       		.uleb128 0x2a
 5941 201e D0000000 		.4byte	.LVL137
 5942 2022 8E290000 		.4byte	0x298e
 5943 2026 31200000 		.4byte	0x2031
 5944 202a 2B       		.uleb128 0x2b
 5945 202b 01       		.uleb128 0x1
ARM GAS  C:\Users\Sava\AppData\Local\Temp\ccs9rGHG.s 			page 125


 5946 202c 50       		.byte	0x50
 5947 202d 02       		.uleb128 0x2
 5948 202e 75       		.byte	0x75
 5949 202f 00       		.sleb128 0
 5950 2030 00       		.byte	0
 5951 2031 2A       		.uleb128 0x2a
 5952 2032 E0000000 		.4byte	.LVL138
 5953 2036 DC2A0000 		.4byte	0x2adc
 5954 203a 5B200000 		.4byte	0x205b
 5955 203e 2B       		.uleb128 0x2b
 5956 203f 01       		.uleb128 0x1
 5957 2040 50       		.byte	0x50
 5958 2041 02       		.uleb128 0x2
 5959 2042 75       		.byte	0x75
 5960 2043 00       		.sleb128 0
 5961 2044 2B       		.uleb128 0x2b
 5962 2045 01       		.uleb128 0x1
 5963 2046 51       		.byte	0x51
 5964 2047 02       		.uleb128 0x2
 5965 2048 74       		.byte	0x74
 5966 2049 00       		.sleb128 0
 5967 204a 2B       		.uleb128 0x2b
 5968 204b 01       		.uleb128 0x1
 5969 204c 52       		.byte	0x52
 5970 204d 01       		.uleb128 0x1
 5971 204e 3C       		.byte	0x3c
 5972 204f 2B       		.uleb128 0x2b
 5973 2050 01       		.uleb128 0x1
 5974 2051 53       		.byte	0x53
 5975 2052 01       		.uleb128 0x1
 5976 2053 30       		.byte	0x30
 5977 2054 2B       		.uleb128 0x2b
 5978 2055 02       		.uleb128 0x2
 5979 2056 7D       		.byte	0x7d
 5980 2057 00       		.sleb128 0
 5981 2058 01       		.uleb128 0x1
 5982 2059 49       		.byte	0x49
 5983 205a 00       		.byte	0
 5984 205b 2A       		.uleb128 0x2a
 5985 205c E8000000 		.4byte	.LVL139
 5986 2060 E82A0000 		.4byte	0x2ae8
 5987 2064 74200000 		.4byte	0x2074
 5988 2068 2B       		.uleb128 0x2b
 5989 2069 01       		.uleb128 0x1
 5990 206a 50       		.byte	0x50
 5991 206b 02       		.uleb128 0x2
 5992 206c 78       		.byte	0x78
 5993 206d 00       		.sleb128 0
 5994 206e 2B       		.uleb128 0x2b
 5995 206f 01       		.uleb128 0x1
 5996 2070 51       		.byte	0x51
 5997 2071 01       		.uleb128 0x1
 5998 2072 30       		.byte	0x30
 5999 2073 00       		.byte	0
 6000 2074 2A       		.uleb128 0x2a
 6001 2075 F6000000 		.4byte	.LVL140
 6002 2079 DC2A0000 		.4byte	0x2adc
ARM GAS  C:\Users\Sava\AppData\Local\Temp\ccs9rGHG.s 			page 126


 6003 207d 98200000 		.4byte	0x2098
 6004 2081 2B       		.uleb128 0x2b
 6005 2082 01       		.uleb128 0x1
 6006 2083 51       		.byte	0x51
 6007 2084 02       		.uleb128 0x2
 6008 2085 75       		.byte	0x75
 6009 2086 00       		.sleb128 0
 6010 2087 2B       		.uleb128 0x2b
 6011 2088 01       		.uleb128 0x1
 6012 2089 52       		.byte	0x52
 6013 208a 01       		.uleb128 0x1
 6014 208b 3D       		.byte	0x3d
 6015 208c 2B       		.uleb128 0x2b
 6016 208d 01       		.uleb128 0x1
 6017 208e 53       		.byte	0x53
 6018 208f 01       		.uleb128 0x1
 6019 2090 30       		.byte	0x30
 6020 2091 2B       		.uleb128 0x2b
 6021 2092 02       		.uleb128 0x2
 6022 2093 7D       		.byte	0x7d
 6023 2094 00       		.sleb128 0
 6024 2095 01       		.uleb128 0x1
 6025 2096 3C       		.byte	0x3c
 6026 2097 00       		.byte	0
 6027 2098 2A       		.uleb128 0x2a
 6028 2099 FE000000 		.4byte	.LVL141
 6029 209d 092A0000 		.4byte	0x2a09
 6030 20a1 B1200000 		.4byte	0x20b1
 6031 20a5 2B       		.uleb128 0x2b
 6032 20a6 01       		.uleb128 0x1
 6033 20a7 50       		.byte	0x50
 6034 20a8 02       		.uleb128 0x2
 6035 20a9 78       		.byte	0x78
 6036 20aa 00       		.sleb128 0
 6037 20ab 2B       		.uleb128 0x2b
 6038 20ac 01       		.uleb128 0x1
 6039 20ad 51       		.byte	0x51
 6040 20ae 01       		.uleb128 0x1
 6041 20af 30       		.byte	0x30
 6042 20b0 00       		.byte	0
 6043 20b1 2A       		.uleb128 0x2a
 6044 20b2 08010000 		.4byte	.LVL143
 6045 20b6 8E290000 		.4byte	0x298e
 6046 20ba D1200000 		.4byte	0x20d1
 6047 20be 2B       		.uleb128 0x2b
 6048 20bf 01       		.uleb128 0x1
 6049 20c0 50       		.byte	0x50
 6050 20c1 02       		.uleb128 0x2
 6051 20c2 74       		.byte	0x74
 6052 20c3 00       		.sleb128 0
 6053 20c4 2B       		.uleb128 0x2b
 6054 20c5 01       		.uleb128 0x1
 6055 20c6 51       		.byte	0x51
 6056 20c7 02       		.uleb128 0x2
 6057 20c8 77       		.byte	0x77
 6058 20c9 00       		.sleb128 0
 6059 20ca 2B       		.uleb128 0x2b
ARM GAS  C:\Users\Sava\AppData\Local\Temp\ccs9rGHG.s 			page 127


 6060 20cb 01       		.uleb128 0x1
 6061 20cc 52       		.byte	0x52
 6062 20cd 02       		.uleb128 0x2
 6063 20ce 08       		.byte	0x8
 6064 20cf 3C       		.byte	0x3c
 6065 20d0 00       		.byte	0
 6066 20d1 2A       		.uleb128 0x2a
 6067 20d2 1A010000 		.4byte	.LVL144
 6068 20d6 DC2A0000 		.4byte	0x2adc
 6069 20da FB200000 		.4byte	0x20fb
 6070 20de 2B       		.uleb128 0x2b
 6071 20df 01       		.uleb128 0x1
 6072 20e0 50       		.byte	0x50
 6073 20e1 02       		.uleb128 0x2
 6074 20e2 74       		.byte	0x74
 6075 20e3 00       		.sleb128 0
 6076 20e4 2B       		.uleb128 0x2b
 6077 20e5 01       		.uleb128 0x1
 6078 20e6 51       		.byte	0x51
 6079 20e7 01       		.uleb128 0x1
 6080 20e8 30       		.byte	0x30
 6081 20e9 2B       		.uleb128 0x2b
 6082 20ea 01       		.uleb128 0x1
 6083 20eb 52       		.byte	0x52
 6084 20ec 01       		.uleb128 0x1
 6085 20ed 33       		.byte	0x33
 6086 20ee 2B       		.uleb128 0x2b
 6087 20ef 01       		.uleb128 0x1
 6088 20f0 53       		.byte	0x53
 6089 20f1 02       		.uleb128 0x2
 6090 20f2 09       		.byte	0x9
 6091 20f3 F6       		.byte	0xf6
 6092 20f4 2B       		.uleb128 0x2b
 6093 20f5 02       		.uleb128 0x2
 6094 20f6 7D       		.byte	0x7d
 6095 20f7 00       		.sleb128 0
 6096 20f8 01       		.uleb128 0x1
 6097 20f9 3A       		.byte	0x3a
 6098 20fa 00       		.byte	0
 6099 20fb 2A       		.uleb128 0x2a
 6100 20fc 22010000 		.4byte	.LVL145
 6101 2100 F32A0000 		.4byte	0x2af3
 6102 2104 14210000 		.4byte	0x2114
 6103 2108 2B       		.uleb128 0x2b
 6104 2109 01       		.uleb128 0x1
 6105 210a 50       		.byte	0x50
 6106 210b 02       		.uleb128 0x2
 6107 210c 74       		.byte	0x74
 6108 210d 00       		.sleb128 0
 6109 210e 2B       		.uleb128 0x2b
 6110 210f 01       		.uleb128 0x1
 6111 2110 51       		.byte	0x51
 6112 2111 01       		.uleb128 0x1
 6113 2112 32       		.byte	0x32
 6114 2113 00       		.byte	0
 6115 2114 2A       		.uleb128 0x2a
 6116 2115 2A010000 		.4byte	.LVL146
ARM GAS  C:\Users\Sava\AppData\Local\Temp\ccs9rGHG.s 			page 128


 6117 2119 FE2A0000 		.4byte	0x2afe
 6118 211d 2D210000 		.4byte	0x212d
 6119 2121 2B       		.uleb128 0x2b
 6120 2122 01       		.uleb128 0x1
 6121 2123 50       		.byte	0x50
 6122 2124 02       		.uleb128 0x2
 6123 2125 78       		.byte	0x78
 6124 2126 00       		.sleb128 0
 6125 2127 2B       		.uleb128 0x2b
 6126 2128 01       		.uleb128 0x1
 6127 2129 51       		.byte	0x51
 6128 212a 01       		.uleb128 0x1
 6129 212b 30       		.byte	0x30
 6130 212c 00       		.byte	0
 6131 212d 2A       		.uleb128 0x2a
 6132 212e 40010000 		.4byte	.LVL148
 6133 2132 8E290000 		.4byte	0x298e
 6134 2136 65210000 		.4byte	0x2165
 6135 213a 2B       		.uleb128 0x2b
 6136 213b 01       		.uleb128 0x1
 6137 213c 50       		.byte	0x50
 6138 213d 02       		.uleb128 0x2
 6139 213e 75       		.byte	0x75
 6140 213f 00       		.sleb128 0
 6141 2140 2B       		.uleb128 0x2b
 6142 2141 01       		.uleb128 0x1
 6143 2142 51       		.byte	0x51
 6144 2143 1A       		.uleb128 0x1a
 6145 2144 76       		.byte	0x76
 6146 2145 00       		.sleb128 0
 6147 2146 F7       		.byte	0xf7
 6148 2147 33       		.uleb128 0x33
 6149 2148 F7       		.byte	0xf7
 6150 2149 25       		.uleb128 0x25
 6151 214a 0C       		.byte	0xc
 6152 214b 56555555 		.4byte	0x55555556
 6153 214f F7       		.byte	0xf7
 6154 2150 25       		.uleb128 0x25
 6155 2151 1E       		.byte	0x1e
 6156 2152 08       		.byte	0x8
 6157 2153 20       		.byte	0x20
 6158 2154 F7       		.byte	0xf7
 6159 2155 25       		.uleb128 0x25
 6160 2156 25       		.byte	0x25
 6161 2157 F7       		.byte	0xf7
 6162 2158 2C       		.uleb128 0x2c
 6163 2159 76       		.byte	0x76
 6164 215a 00       		.sleb128 0
 6165 215b 4F       		.byte	0x4f
 6166 215c 26       		.byte	0x26
 6167 215d 1C       		.byte	0x1c
 6168 215e 2B       		.uleb128 0x2b
 6169 215f 01       		.uleb128 0x1
 6170 2160 52       		.byte	0x52
 6171 2161 02       		.uleb128 0x2
 6172 2162 08       		.byte	0x8
 6173 2163 50       		.byte	0x50
ARM GAS  C:\Users\Sava\AppData\Local\Temp\ccs9rGHG.s 			page 129


 6174 2164 00       		.byte	0
 6175 2165 2A       		.uleb128 0x2a
 6176 2166 50010000 		.4byte	.LVL149
 6177 216a DC2A0000 		.4byte	0x2adc
 6178 216e 90210000 		.4byte	0x2190
 6179 2172 2B       		.uleb128 0x2b
 6180 2173 01       		.uleb128 0x1
 6181 2174 50       		.byte	0x50
 6182 2175 02       		.uleb128 0x2
 6183 2176 75       		.byte	0x75
 6184 2177 00       		.sleb128 0
 6185 2178 2B       		.uleb128 0x2b
 6186 2179 01       		.uleb128 0x1
 6187 217a 51       		.byte	0x51
 6188 217b 02       		.uleb128 0x2
 6189 217c 74       		.byte	0x74
 6190 217d 00       		.sleb128 0
 6191 217e 2B       		.uleb128 0x2b
 6192 217f 01       		.uleb128 0x1
 6193 2180 52       		.byte	0x52
 6194 2181 01       		.uleb128 0x1
 6195 2182 3E       		.byte	0x3e
 6196 2183 2B       		.uleb128 0x2b
 6197 2184 01       		.uleb128 0x1
 6198 2185 53       		.byte	0x53
 6199 2186 01       		.uleb128 0x1
 6200 2187 30       		.byte	0x30
 6201 2188 2B       		.uleb128 0x2b
 6202 2189 02       		.uleb128 0x2
 6203 218a 7D       		.byte	0x7d
 6204 218b 00       		.sleb128 0
 6205 218c 02       		.uleb128 0x2
 6206 218d 08       		.byte	0x8
 6207 218e 64       		.byte	0x64
 6208 218f 00       		.byte	0
 6209 2190 2A       		.uleb128 0x2a
 6210 2191 58010000 		.4byte	.LVL150
 6211 2195 092B0000 		.4byte	0x2b09
 6212 2199 AA210000 		.4byte	0x21aa
 6213 219d 2B       		.uleb128 0x2b
 6214 219e 01       		.uleb128 0x1
 6215 219f 50       		.byte	0x50
 6216 21a0 02       		.uleb128 0x2
 6217 21a1 75       		.byte	0x75
 6218 21a2 00       		.sleb128 0
 6219 21a3 2B       		.uleb128 0x2b
 6220 21a4 01       		.uleb128 0x1
 6221 21a5 51       		.byte	0x51
 6222 21a6 02       		.uleb128 0x2
 6223 21a7 74       		.byte	0x74
 6224 21a8 00       		.sleb128 0
 6225 21a9 00       		.byte	0
 6226 21aa 2A       		.uleb128 0x2a
 6227 21ab 60010000 		.4byte	.LVL151
 6228 21af 142B0000 		.4byte	0x2b14
 6229 21b3 C3210000 		.4byte	0x21c3
 6230 21b7 2B       		.uleb128 0x2b
ARM GAS  C:\Users\Sava\AppData\Local\Temp\ccs9rGHG.s 			page 130


 6231 21b8 01       		.uleb128 0x1
 6232 21b9 50       		.byte	0x50
 6233 21ba 02       		.uleb128 0x2
 6234 21bb 78       		.byte	0x78
 6235 21bc 00       		.sleb128 0
 6236 21bd 2B       		.uleb128 0x2b
 6237 21be 01       		.uleb128 0x1
 6238 21bf 51       		.byte	0x51
 6239 21c0 01       		.uleb128 0x1
 6240 21c1 30       		.byte	0x30
 6241 21c2 00       		.byte	0
 6242 21c3 2C       		.uleb128 0x2c
 6243 21c4 70010000 		.4byte	.LVL152
 6244 21c8 DC2A0000 		.4byte	0x2adc
 6245 21cc 2B       		.uleb128 0x2b
 6246 21cd 01       		.uleb128 0x1
 6247 21ce 51       		.byte	0x51
 6248 21cf 01       		.uleb128 0x1
 6249 21d0 30       		.byte	0x30
 6250 21d1 2B       		.uleb128 0x2b
 6251 21d2 01       		.uleb128 0x1
 6252 21d3 52       		.byte	0x52
 6253 21d4 01       		.uleb128 0x1
 6254 21d5 30       		.byte	0x30
 6255 21d6 2B       		.uleb128 0x2b
 6256 21d7 01       		.uleb128 0x1
 6257 21d8 53       		.byte	0x53
 6258 21d9 01       		.uleb128 0x1
 6259 21da 30       		.byte	0x30
 6260 21db 2B       		.uleb128 0x2b
 6261 21dc 02       		.uleb128 0x2
 6262 21dd 7D       		.byte	0x7d
 6263 21de 00       		.sleb128 0
 6264 21df 02       		.uleb128 0x2
 6265 21e0 09       		.byte	0x9
 6266 21e1 9C       		.byte	0x9c
 6267 21e2 00       		.byte	0
 6268 21e3 00       		.byte	0
 6269 21e4 07       		.uleb128 0x7
 6270 21e5 04       		.byte	0x4
 6271 21e6 D2100000 		.4byte	0x10d2
 6272 21ea 23       		.uleb128 0x23
 6273 21eb 99050000 		.4byte	.LASF232
 6274 21ef 01       		.byte	0x1
 6275 21f0 E7       		.byte	0xe7
 6276 21f1 00000000 		.4byte	.LFB110
 6277 21f5 A0010000 		.4byte	.LFE110-.LFB110
 6278 21f9 01       		.uleb128 0x1
 6279 21fa 9C       		.byte	0x9c
 6280 21fb EE260000 		.4byte	0x26ee
 6281 21ff 24       		.uleb128 0x24
 6282 2200 C5050000 		.4byte	.LASF230
 6283 2204 01       		.byte	0x1
 6284 2205 E7       		.byte	0xe7
 6285 2206 55080000 		.4byte	0x855
 6286 220a 9F040000 		.4byte	.LLST37
 6287 220e 25       		.uleb128 0x25
ARM GAS  C:\Users\Sava\AppData\Local\Temp\ccs9rGHG.s 			page 131


 6288 220f 77696E00 		.ascii	"win\000"
 6289 2213 01       		.byte	0x1
 6290 2214 EA       		.byte	0xea
 6291 2215 55080000 		.4byte	0x855
 6292 2219 CB040000 		.4byte	.LLST38
 6293 221d 27       		.uleb128 0x27
 6294 221e 05100000 		.4byte	.LASF159
 6295 2222 01       		.byte	0x1
 6296 2223 F3       		.byte	0xf3
 6297 2224 55080000 		.4byte	0x855
 6298 2228 E9040000 		.4byte	.LLST39
 6299 222c 27       		.uleb128 0x27
 6300 222d 71000000 		.4byte	.LASF161
 6301 2231 01       		.byte	0x1
 6302 2232 F7       		.byte	0xf7
 6303 2233 55080000 		.4byte	0x855
 6304 2237 12050000 		.4byte	.LLST40
 6305 223b 27       		.uleb128 0x27
 6306 223c 15040000 		.4byte	.LASF233
 6307 2240 01       		.byte	0x1
 6308 2241 FC       		.byte	0xfc
 6309 2242 55080000 		.4byte	0x855
 6310 2246 30050000 		.4byte	.LLST41
 6311 224a 32       		.uleb128 0x32
 6312 224b 1A040000 		.4byte	.LASF234
 6313 224f 01       		.byte	0x1
 6314 2250 0001     		.2byte	0x100
 6315 2252 55080000 		.4byte	0x855
 6316 2256 4E050000 		.4byte	.LLST42
 6317 225a 32       		.uleb128 0x32
 6318 225b 26030000 		.4byte	.LASF168
 6319 225f 01       		.byte	0x1
 6320 2260 0501     		.2byte	0x105
 6321 2262 55080000 		.4byte	0x855
 6322 2266 6C050000 		.4byte	.LLST43
 6323 226a 33       		.uleb128 0x33
 6324 226b 63616C00 		.ascii	"cal\000"
 6325 226f 01       		.byte	0x1
 6326 2270 1901     		.2byte	0x119
 6327 2272 55080000 		.4byte	0x855
 6328 2276 8A050000 		.4byte	.LLST44
 6329 227a 34       		.uleb128 0x34
 6330 227b CA000000 		.4byte	.LASF146
 6331 227f 01       		.byte	0x1
 6332 2280 1E01     		.2byte	0x11e
 6333 2282 EE260000 		.4byte	0x26ee
 6334 2286 05       		.uleb128 0x5
 6335 2287 03       		.byte	0x3
 6336 2288 3C000000 		.4byte	highlighted_days.8366
 6337 228c 34       		.uleb128 0x34
 6338 228d 9F030000 		.4byte	.LASF235
 6339 2291 01       		.byte	0x1
 6340 2292 2C01     		.2byte	0x12c
 6341 2294 FE260000 		.4byte	0x26fe
 6342 2298 05       		.uleb128 0x5
 6343 2299 03       		.byte	0x3
 6344 229a 18000000 		.4byte	mbox_btn_map.8367
ARM GAS  C:\Users\Sava\AppData\Local\Temp\ccs9rGHG.s 			page 132


 6345 229e 32       		.uleb128 0x32
 6346 229f A7090000 		.4byte	.LASF167
 6347 22a3 01       		.byte	0x1
 6348 22a4 2D01     		.2byte	0x12d
 6349 22a6 55080000 		.4byte	0x855
 6350 22aa A8050000 		.4byte	.LLST45
 6351 22ae 35       		.uleb128 0x35
 6352 22af 29120000 		.4byte	0x1229
 6353 22b3 DE000000 		.4byte	.LBB30
 6354 22b7 0E000000 		.4byte	.LBE30-.LBB30
 6355 22bb 01       		.byte	0x1
 6356 22bc 1501     		.2byte	0x115
 6357 22be 06230000 		.4byte	0x2306
 6358 22c2 29       		.uleb128 0x29
 6359 22c3 4B120000 		.4byte	0x124b
 6360 22c7 C6050000 		.4byte	.LLST46
 6361 22cb 29       		.uleb128 0x29
 6362 22cc 40120000 		.4byte	0x1240
 6363 22d0 C6050000 		.4byte	.LLST46
 6364 22d4 29       		.uleb128 0x29
 6365 22d5 35120000 		.4byte	0x1235
 6366 22d9 DA050000 		.4byte	.LLST48
 6367 22dd 2A       		.uleb128 0x2a
 6368 22de E4000000 		.4byte	.LVL185
 6369 22e2 D0280000 		.4byte	0x28d0
 6370 22e6 F1220000 		.4byte	0x22f1
 6371 22ea 2B       		.uleb128 0x2b
 6372 22eb 01       		.uleb128 0x1
 6373 22ec 50       		.byte	0x50
 6374 22ed 02       		.uleb128 0x2
 6375 22ee 77       		.byte	0x77
 6376 22ef 00       		.sleb128 0
 6377 22f0 00       		.byte	0
 6378 22f1 2C       		.uleb128 0x2c
 6379 22f2 EC000000 		.4byte	.LVL186
 6380 22f6 E6280000 		.4byte	0x28e6
 6381 22fa 2B       		.uleb128 0x2b
 6382 22fb 01       		.uleb128 0x1
 6383 22fc 51       		.byte	0x51
 6384 22fd 01       		.uleb128 0x1
 6385 22fe 31       		.byte	0x31
 6386 22ff 2B       		.uleb128 0x2b
 6387 2300 01       		.uleb128 0x1
 6388 2301 52       		.byte	0x52
 6389 2302 01       		.uleb128 0x1
 6390 2303 31       		.byte	0x31
 6391 2304 00       		.byte	0
 6392 2305 00       		.byte	0
 6393 2306 2A       		.uleb128 0x2a
 6394 2307 0E000000 		.4byte	.LVL155
 6395 230b 1F2B0000 		.4byte	0x2b1f
 6396 230f 1F230000 		.4byte	0x231f
 6397 2313 2B       		.uleb128 0x2b
 6398 2314 01       		.uleb128 0x1
 6399 2315 50       		.byte	0x50
 6400 2316 02       		.uleb128 0x2
 6401 2317 78       		.byte	0x78
ARM GAS  C:\Users\Sava\AppData\Local\Temp\ccs9rGHG.s 			page 133


 6402 2318 00       		.sleb128 0
 6403 2319 2B       		.uleb128 0x2b
 6404 231a 01       		.uleb128 0x1
 6405 231b 51       		.byte	0x51
 6406 231c 01       		.uleb128 0x1
 6407 231d 30       		.byte	0x30
 6408 231e 00       		.byte	0
 6409 231f 2A       		.uleb128 0x2a
 6410 2320 18000000 		.4byte	.LVL157
 6411 2324 2A2B0000 		.4byte	0x2b2a
 6412 2328 3C230000 		.4byte	0x233c
 6413 232c 2B       		.uleb128 0x2b
 6414 232d 01       		.uleb128 0x1
 6415 232e 50       		.byte	0x50
 6416 232f 02       		.uleb128 0x2
 6417 2330 74       		.byte	0x74
 6418 2331 00       		.sleb128 0
 6419 2332 2B       		.uleb128 0x2b
 6420 2333 01       		.uleb128 0x1
 6421 2334 51       		.byte	0x51
 6422 2335 05       		.uleb128 0x5
 6423 2336 03       		.byte	0x3
 6424 2337 F0000000 		.4byte	.LC28
 6425 233b 00       		.byte	0
 6426 233c 2A       		.uleb128 0x2a
 6427 233d 22000000 		.4byte	.LVL158
 6428 2341 2A2B0000 		.4byte	0x2b2a
 6429 2345 5E230000 		.4byte	0x235e
 6430 2349 2B       		.uleb128 0x2b
 6431 234a 01       		.uleb128 0x1
 6432 234b 50       		.byte	0x50
 6433 234c 02       		.uleb128 0x2
 6434 234d 74       		.byte	0x74
 6435 234e 00       		.sleb128 0
 6436 234f 2B       		.uleb128 0x2b
 6437 2350 01       		.uleb128 0x1
 6438 2351 51       		.byte	0x51
 6439 2352 05       		.uleb128 0x5
 6440 2353 03       		.byte	0x3
 6441 2354 F4000000 		.4byte	.LC29
 6442 2358 2B       		.uleb128 0x2b
 6443 2359 01       		.uleb128 0x1
 6444 235a 52       		.byte	0x52
 6445 235b 01       		.uleb128 0x1
 6446 235c 30       		.byte	0x30
 6447 235d 00       		.byte	0
 6448 235e 2A       		.uleb128 0x2a
 6449 235f 2C000000 		.4byte	.LVL159
 6450 2363 8E290000 		.4byte	0x298e
 6451 2367 7E230000 		.4byte	0x237e
 6452 236b 2B       		.uleb128 0x2b
 6453 236c 01       		.uleb128 0x1
 6454 236d 50       		.byte	0x50
 6455 236e 02       		.uleb128 0x2
 6456 236f 74       		.byte	0x74
 6457 2370 00       		.sleb128 0
 6458 2371 2B       		.uleb128 0x2b
ARM GAS  C:\Users\Sava\AppData\Local\Temp\ccs9rGHG.s 			page 134


 6459 2372 01       		.uleb128 0x1
 6460 2373 51       		.byte	0x51
 6461 2374 02       		.uleb128 0x2
 6462 2375 08       		.byte	0x8
 6463 2376 A0       		.byte	0xa0
 6464 2377 2B       		.uleb128 0x2b
 6465 2378 01       		.uleb128 0x1
 6466 2379 52       		.byte	0x52
 6467 237a 02       		.uleb128 0x2
 6468 237b 08       		.byte	0x8
 6469 237c 78       		.byte	0x78
 6470 237d 00       		.byte	0
 6471 237e 2A       		.uleb128 0x2a
 6472 237f 36000000 		.4byte	.LVL160
 6473 2383 A42A0000 		.4byte	0x2aa4
 6474 2387 9C230000 		.4byte	0x239c
 6475 238b 2B       		.uleb128 0x2b
 6476 238c 01       		.uleb128 0x1
 6477 238d 50       		.byte	0x50
 6478 238e 02       		.uleb128 0x2
 6479 238f 74       		.byte	0x74
 6480 2390 00       		.sleb128 0
 6481 2391 2B       		.uleb128 0x2b
 6482 2392 01       		.uleb128 0x1
 6483 2393 51       		.byte	0x51
 6484 2394 01       		.uleb128 0x1
 6485 2395 35       		.byte	0x35
 6486 2396 2B       		.uleb128 0x2b
 6487 2397 01       		.uleb128 0x1
 6488 2398 52       		.byte	0x52
 6489 2399 01       		.uleb128 0x1
 6490 239a 35       		.byte	0x35
 6491 239b 00       		.byte	0
 6492 239c 2A       		.uleb128 0x2a
 6493 239d 3E000000 		.4byte	.LVL161
 6494 23a1 352B0000 		.4byte	0x2b35
 6495 23a5 B5230000 		.4byte	0x23b5
 6496 23a9 2B       		.uleb128 0x2b
 6497 23aa 01       		.uleb128 0x1
 6498 23ab 50       		.byte	0x50
 6499 23ac 02       		.uleb128 0x2
 6500 23ad 74       		.byte	0x74
 6501 23ae 00       		.sleb128 0
 6502 23af 2B       		.uleb128 0x2b
 6503 23b0 01       		.uleb128 0x1
 6504 23b1 51       		.byte	0x51
 6505 23b2 01       		.uleb128 0x1
 6506 23b3 31       		.byte	0x31
 6507 23b4 00       		.byte	0
 6508 23b5 2A       		.uleb128 0x2a
 6509 23b6 46000000 		.4byte	.LVL162
 6510 23ba 57290000 		.4byte	0x2957
 6511 23be CE230000 		.4byte	0x23ce
 6512 23c2 2B       		.uleb128 0x2b
 6513 23c3 01       		.uleb128 0x1
 6514 23c4 50       		.byte	0x50
 6515 23c5 02       		.uleb128 0x2
ARM GAS  C:\Users\Sava\AppData\Local\Temp\ccs9rGHG.s 			page 135


 6516 23c6 74       		.byte	0x74
 6517 23c7 00       		.sleb128 0
 6518 23c8 2B       		.uleb128 0x2b
 6519 23c9 01       		.uleb128 0x1
 6520 23ca 51       		.byte	0x51
 6521 23cb 01       		.uleb128 0x1
 6522 23cc 30       		.byte	0x30
 6523 23cd 00       		.byte	0
 6524 23ce 2A       		.uleb128 0x2a
 6525 23cf 4E000000 		.4byte	.LVL164
 6526 23d3 62290000 		.4byte	0x2962
 6527 23d7 EB230000 		.4byte	0x23eb
 6528 23db 2B       		.uleb128 0x2b
 6529 23dc 01       		.uleb128 0x1
 6530 23dd 50       		.byte	0x50
 6531 23de 02       		.uleb128 0x2
 6532 23df 75       		.byte	0x75
 6533 23e0 00       		.sleb128 0
 6534 23e1 2B       		.uleb128 0x2b
 6535 23e2 01       		.uleb128 0x1
 6536 23e3 51       		.byte	0x51
 6537 23e4 05       		.uleb128 0x5
 6538 23e5 03       		.byte	0x3
 6539 23e6 F8000000 		.4byte	.LC30
 6540 23ea 00       		.byte	0
 6541 23eb 2A       		.uleb128 0x2a
 6542 23ec 56000000 		.4byte	.LVL165
 6543 23f0 412B0000 		.4byte	0x2b41
 6544 23f4 04240000 		.4byte	0x2404
 6545 23f8 2B       		.uleb128 0x2b
 6546 23f9 01       		.uleb128 0x1
 6547 23fa 50       		.byte	0x50
 6548 23fb 02       		.uleb128 0x2
 6549 23fc 74       		.byte	0x74
 6550 23fd 00       		.sleb128 0
 6551 23fe 2B       		.uleb128 0x2b
 6552 23ff 01       		.uleb128 0x1
 6553 2400 51       		.byte	0x51
 6554 2401 01       		.uleb128 0x1
 6555 2402 30       		.byte	0x30
 6556 2403 00       		.byte	0
 6557 2404 2A       		.uleb128 0x2a
 6558 2405 66000000 		.4byte	.LVL167
 6559 2409 DC2A0000 		.4byte	0x2adc
 6560 240d 2F240000 		.4byte	0x242f
 6561 2411 2B       		.uleb128 0x2b
 6562 2412 01       		.uleb128 0x1
 6563 2413 50       		.byte	0x50
 6564 2414 02       		.uleb128 0x2
 6565 2415 79       		.byte	0x79
 6566 2416 00       		.sleb128 0
 6567 2417 2B       		.uleb128 0x2b
 6568 2418 01       		.uleb128 0x1
 6569 2419 51       		.byte	0x51
 6570 241a 02       		.uleb128 0x2
 6571 241b 75       		.byte	0x75
 6572 241c 00       		.sleb128 0
ARM GAS  C:\Users\Sava\AppData\Local\Temp\ccs9rGHG.s 			page 136


 6573 241d 2B       		.uleb128 0x2b
 6574 241e 01       		.uleb128 0x1
 6575 241f 52       		.byte	0x52
 6576 2420 01       		.uleb128 0x1
 6577 2421 3C       		.byte	0x3c
 6578 2422 2B       		.uleb128 0x2b
 6579 2423 01       		.uleb128 0x1
 6580 2424 53       		.byte	0x53
 6581 2425 01       		.uleb128 0x1
 6582 2426 30       		.byte	0x30
 6583 2427 2B       		.uleb128 0x2b
 6584 2428 02       		.uleb128 0x2
 6585 2429 7D       		.byte	0x7d
 6586 242a 00       		.sleb128 0
 6587 242b 02       		.uleb128 0x2
 6588 242c 76       		.byte	0x76
 6589 242d 00       		.sleb128 0
 6590 242e 00       		.byte	0
 6591 242f 2A       		.uleb128 0x2a
 6592 2430 6E000000 		.4byte	.LVL168
 6593 2434 4C2B0000 		.4byte	0x2b4c
 6594 2438 49240000 		.4byte	0x2449
 6595 243c 2B       		.uleb128 0x2b
 6596 243d 01       		.uleb128 0x1
 6597 243e 50       		.byte	0x50
 6598 243f 02       		.uleb128 0x2
 6599 2440 79       		.byte	0x79
 6600 2441 00       		.sleb128 0
 6601 2442 2B       		.uleb128 0x2b
 6602 2443 01       		.uleb128 0x1
 6603 2444 51       		.byte	0x51
 6604 2445 02       		.uleb128 0x2
 6605 2446 08       		.byte	0x8
 6606 2447 46       		.byte	0x46
 6607 2448 00       		.byte	0
 6608 2449 2A       		.uleb128 0x2a
 6609 244a 76000000 		.4byte	.LVL169
 6610 244e 572B0000 		.4byte	0x2b57
 6611 2452 62240000 		.4byte	0x2462
 6612 2456 2B       		.uleb128 0x2b
 6613 2457 01       		.uleb128 0x1
 6614 2458 50       		.byte	0x50
 6615 2459 02       		.uleb128 0x2
 6616 245a 74       		.byte	0x74
 6617 245b 00       		.sleb128 0
 6618 245c 2B       		.uleb128 0x2b
 6619 245d 01       		.uleb128 0x1
 6620 245e 51       		.byte	0x51
 6621 245f 01       		.uleb128 0x1
 6622 2460 30       		.byte	0x30
 6623 2461 00       		.byte	0
 6624 2462 2A       		.uleb128 0x2a
 6625 2463 86000000 		.4byte	.LVL172
 6626 2467 DC2A0000 		.4byte	0x2adc
 6627 246b 8E240000 		.4byte	0x248e
 6628 246f 2B       		.uleb128 0x2b
 6629 2470 01       		.uleb128 0x1
ARM GAS  C:\Users\Sava\AppData\Local\Temp\ccs9rGHG.s 			page 137


 6630 2471 50       		.byte	0x50
 6631 2472 02       		.uleb128 0x2
 6632 2473 77       		.byte	0x77
 6633 2474 00       		.sleb128 0
 6634 2475 2B       		.uleb128 0x2b
 6635 2476 01       		.uleb128 0x1
 6636 2477 51       		.byte	0x51
 6637 2478 02       		.uleb128 0x2
 6638 2479 79       		.byte	0x79
 6639 247a 00       		.sleb128 0
 6640 247b 2B       		.uleb128 0x2b
 6641 247c 01       		.uleb128 0x1
 6642 247d 52       		.byte	0x52
 6643 247e 01       		.uleb128 0x1
 6644 247f 43       		.byte	0x43
 6645 2480 2B       		.uleb128 0x2b
 6646 2481 01       		.uleb128 0x1
 6647 2482 53       		.byte	0x53
 6648 2483 02       		.uleb128 0x2
 6649 2484 76       		.byte	0x76
 6650 2485 00       		.sleb128 0
 6651 2486 2B       		.uleb128 0x2b
 6652 2487 02       		.uleb128 0x2
 6653 2488 7D       		.byte	0x7d
 6654 2489 00       		.sleb128 0
 6655 248a 02       		.uleb128 0x2
 6656 248b 75       		.byte	0x75
 6657 248c 00       		.sleb128 0
 6658 248d 00       		.byte	0
 6659 248e 2A       		.uleb128 0x2a
 6660 248f 8C000000 		.4byte	.LVL173
 6661 2493 622B0000 		.4byte	0x2b62
 6662 2497 A2240000 		.4byte	0x24a2
 6663 249b 2B       		.uleb128 0x2b
 6664 249c 01       		.uleb128 0x1
 6665 249d 50       		.byte	0x50
 6666 249e 02       		.uleb128 0x2
 6667 249f 77       		.byte	0x77
 6668 24a0 00       		.sleb128 0
 6669 24a1 00       		.byte	0
 6670 24a2 2A       		.uleb128 0x2a
 6671 24a3 94000000 		.4byte	.LVL174
 6672 24a7 572B0000 		.4byte	0x2b57
 6673 24ab BC240000 		.4byte	0x24bc
 6674 24af 2B       		.uleb128 0x2b
 6675 24b0 01       		.uleb128 0x1
 6676 24b1 50       		.byte	0x50
 6677 24b2 02       		.uleb128 0x2
 6678 24b3 74       		.byte	0x74
 6679 24b4 00       		.sleb128 0
 6680 24b5 2B       		.uleb128 0x2b
 6681 24b6 01       		.uleb128 0x1
 6682 24b7 51       		.byte	0x51
 6683 24b8 02       		.uleb128 0x2
 6684 24b9 75       		.byte	0x75
 6685 24ba 00       		.sleb128 0
 6686 24bb 00       		.byte	0
ARM GAS  C:\Users\Sava\AppData\Local\Temp\ccs9rGHG.s 			page 138


 6687 24bc 2A       		.uleb128 0x2a
 6688 24bd A2000000 		.4byte	.LVL176
 6689 24c1 DC2A0000 		.4byte	0x2adc
 6690 24c5 E8240000 		.4byte	0x24e8
 6691 24c9 2B       		.uleb128 0x2b
 6692 24ca 01       		.uleb128 0x1
 6693 24cb 50       		.byte	0x50
 6694 24cc 02       		.uleb128 0x2
 6695 24cd 79       		.byte	0x79
 6696 24ce 00       		.sleb128 0
 6697 24cf 2B       		.uleb128 0x2b
 6698 24d0 01       		.uleb128 0x1
 6699 24d1 51       		.byte	0x51
 6700 24d2 02       		.uleb128 0x2
 6701 24d3 77       		.byte	0x77
 6702 24d4 00       		.sleb128 0
 6703 24d5 2B       		.uleb128 0x2b
 6704 24d6 01       		.uleb128 0x1
 6705 24d7 52       		.byte	0x52
 6706 24d8 01       		.uleb128 0x1
 6707 24d9 43       		.byte	0x43
 6708 24da 2B       		.uleb128 0x2b
 6709 24db 01       		.uleb128 0x1
 6710 24dc 53       		.byte	0x53
 6711 24dd 02       		.uleb128 0x2
 6712 24de 76       		.byte	0x76
 6713 24df 00       		.sleb128 0
 6714 24e0 2B       		.uleb128 0x2b
 6715 24e1 02       		.uleb128 0x2
 6716 24e2 7D       		.byte	0x7d
 6717 24e3 00       		.sleb128 0
 6718 24e4 02       		.uleb128 0x2
 6719 24e5 75       		.byte	0x75
 6720 24e6 00       		.sleb128 0
 6721 24e7 00       		.byte	0
 6722 24e8 2A       		.uleb128 0x2a
 6723 24e9 A8000000 		.4byte	.LVL177
 6724 24ed 6D2B0000 		.4byte	0x2b6d
 6725 24f1 FC240000 		.4byte	0x24fc
 6726 24f5 2B       		.uleb128 0x2b
 6727 24f6 01       		.uleb128 0x1
 6728 24f7 50       		.byte	0x50
 6729 24f8 02       		.uleb128 0x2
 6730 24f9 79       		.byte	0x79
 6731 24fa 00       		.sleb128 0
 6732 24fb 00       		.byte	0
 6733 24fc 2A       		.uleb128 0x2a
 6734 24fd B0000000 		.4byte	.LVL178
 6735 2501 782B0000 		.4byte	0x2b78
 6736 2505 16250000 		.4byte	0x2516
 6737 2509 2B       		.uleb128 0x2b
 6738 250a 01       		.uleb128 0x1
 6739 250b 50       		.byte	0x50
 6740 250c 02       		.uleb128 0x2
 6741 250d 78       		.byte	0x78
 6742 250e 00       		.sleb128 0
 6743 250f 2B       		.uleb128 0x2b
ARM GAS  C:\Users\Sava\AppData\Local\Temp\ccs9rGHG.s 			page 139


 6744 2510 01       		.uleb128 0x1
 6745 2511 51       		.byte	0x51
 6746 2512 02       		.uleb128 0x2
 6747 2513 75       		.byte	0x75
 6748 2514 00       		.sleb128 0
 6749 2515 00       		.byte	0
 6750 2516 2A       		.uleb128 0x2a
 6751 2517 BA000000 		.4byte	.LVL180
 6752 251b 8E290000 		.4byte	0x298e
 6753 251f 36250000 		.4byte	0x2536
 6754 2523 2B       		.uleb128 0x2b
 6755 2524 01       		.uleb128 0x1
 6756 2525 50       		.byte	0x50
 6757 2526 02       		.uleb128 0x2
 6758 2527 77       		.byte	0x77
 6759 2528 00       		.sleb128 0
 6760 2529 2B       		.uleb128 0x2b
 6761 252a 01       		.uleb128 0x1
 6762 252b 51       		.byte	0x51
 6763 252c 02       		.uleb128 0x2
 6764 252d 08       		.byte	0x8
 6765 252e 6A       		.byte	0x6a
 6766 252f 2B       		.uleb128 0x2b
 6767 2530 01       		.uleb128 0x1
 6768 2531 52       		.byte	0x52
 6769 2532 02       		.uleb128 0x2
 6770 2533 08       		.byte	0x8
 6771 2534 78       		.byte	0x78
 6772 2535 00       		.byte	0
 6773 2536 2A       		.uleb128 0x2a
 6774 2537 C2000000 		.4byte	.LVL181
 6775 253b 352B0000 		.4byte	0x2b35
 6776 253f 4F250000 		.4byte	0x254f
 6777 2543 2B       		.uleb128 0x2b
 6778 2544 01       		.uleb128 0x1
 6779 2545 50       		.byte	0x50
 6780 2546 02       		.uleb128 0x2
 6781 2547 77       		.byte	0x77
 6782 2548 00       		.sleb128 0
 6783 2549 2B       		.uleb128 0x2b
 6784 254a 01       		.uleb128 0x1
 6785 254b 51       		.byte	0x51
 6786 254c 01       		.uleb128 0x1
 6787 254d 31       		.byte	0x31
 6788 254e 00       		.byte	0
 6789 254f 2A       		.uleb128 0x2a
 6790 2550 D0000000 		.4byte	.LVL182
 6791 2554 DC2A0000 		.4byte	0x2adc
 6792 2558 7B250000 		.4byte	0x257b
 6793 255c 2B       		.uleb128 0x2b
 6794 255d 01       		.uleb128 0x1
 6795 255e 50       		.byte	0x50
 6796 255f 02       		.uleb128 0x2
 6797 2560 77       		.byte	0x77
 6798 2561 00       		.sleb128 0
 6799 2562 2B       		.uleb128 0x2b
 6800 2563 01       		.uleb128 0x1
ARM GAS  C:\Users\Sava\AppData\Local\Temp\ccs9rGHG.s 			page 140


 6801 2564 51       		.byte	0x51
 6802 2565 02       		.uleb128 0x2
 6803 2566 74       		.byte	0x74
 6804 2567 00       		.sleb128 0
 6805 2568 2B       		.uleb128 0x2b
 6806 2569 01       		.uleb128 0x1
 6807 256a 52       		.byte	0x52
 6808 256b 01       		.uleb128 0x1
 6809 256c 33       		.byte	0x33
 6810 256d 2B       		.uleb128 0x2b
 6811 256e 01       		.uleb128 0x1
 6812 256f 53       		.byte	0x53
 6813 2570 02       		.uleb128 0x2
 6814 2571 08       		.byte	0x8
 6815 2572 64       		.byte	0x64
 6816 2573 2B       		.uleb128 0x2b
 6817 2574 02       		.uleb128 0x2
 6818 2575 7D       		.byte	0x7d
 6819 2576 00       		.sleb128 0
 6820 2577 02       		.uleb128 0x2
 6821 2578 08       		.byte	0x8
 6822 2579 64       		.byte	0x64
 6823 257a 00       		.byte	0
 6824 257b 2A       		.uleb128 0x2a
 6825 257c D8000000 		.4byte	.LVL183
 6826 2580 57290000 		.4byte	0x2957
 6827 2584 95250000 		.4byte	0x2595
 6828 2588 2B       		.uleb128 0x2b
 6829 2589 01       		.uleb128 0x1
 6830 258a 50       		.byte	0x50
 6831 258b 02       		.uleb128 0x2
 6832 258c 77       		.byte	0x77
 6833 258d 00       		.sleb128 0
 6834 258e 2B       		.uleb128 0x2b
 6835 258f 01       		.uleb128 0x1
 6836 2590 51       		.byte	0x51
 6837 2591 02       		.uleb128 0x2
 6838 2592 75       		.byte	0x75
 6839 2593 00       		.sleb128 0
 6840 2594 00       		.byte	0
 6841 2595 2A       		.uleb128 0x2a
 6842 2596 DE000000 		.4byte	.LVL184
 6843 259a 62290000 		.4byte	0x2962
 6844 259e AC250000 		.4byte	0x25ac
 6845 25a2 2B       		.uleb128 0x2b
 6846 25a3 01       		.uleb128 0x1
 6847 25a4 51       		.byte	0x51
 6848 25a5 05       		.uleb128 0x5
 6849 25a6 03       		.byte	0x3
 6850 25a7 0C010000 		.4byte	.LC31
 6851 25ab 00       		.byte	0
 6852 25ac 2A       		.uleb128 0x2a
 6853 25ad F4000000 		.4byte	.LVL187
 6854 25b1 832B0000 		.4byte	0x2b83
 6855 25b5 C6250000 		.4byte	0x25c6
 6856 25b9 2B       		.uleb128 0x2b
 6857 25ba 01       		.uleb128 0x1
ARM GAS  C:\Users\Sava\AppData\Local\Temp\ccs9rGHG.s 			page 141


 6858 25bb 50       		.byte	0x50
 6859 25bc 02       		.uleb128 0x2
 6860 25bd 78       		.byte	0x78
 6861 25be 00       		.sleb128 0
 6862 25bf 2B       		.uleb128 0x2b
 6863 25c0 01       		.uleb128 0x1
 6864 25c1 51       		.byte	0x51
 6865 25c2 02       		.uleb128 0x2
 6866 25c3 75       		.byte	0x75
 6867 25c4 00       		.sleb128 0
 6868 25c5 00       		.byte	0
 6869 25c6 2A       		.uleb128 0x2a
 6870 25c7 FE000000 		.4byte	.LVL189
 6871 25cb 8E290000 		.4byte	0x298e
 6872 25cf E6250000 		.4byte	0x25e6
 6873 25d3 2B       		.uleb128 0x2b
 6874 25d4 01       		.uleb128 0x1
 6875 25d5 50       		.byte	0x50
 6876 25d6 02       		.uleb128 0x2
 6877 25d7 76       		.byte	0x76
 6878 25d8 00       		.sleb128 0
 6879 25d9 2B       		.uleb128 0x2b
 6880 25da 01       		.uleb128 0x1
 6881 25db 51       		.byte	0x51
 6882 25dc 02       		.uleb128 0x2
 6883 25dd 08       		.byte	0x8
 6884 25de FA       		.byte	0xfa
 6885 25df 2B       		.uleb128 0x2b
 6886 25e0 01       		.uleb128 0x1
 6887 25e1 52       		.byte	0x52
 6888 25e2 02       		.uleb128 0x2
 6889 25e3 08       		.byte	0x8
 6890 25e4 FA       		.byte	0xfa
 6891 25e5 00       		.byte	0
 6892 25e6 2A       		.uleb128 0x2a
 6893 25e7 10010000 		.4byte	.LVL190
 6894 25eb DC2A0000 		.4byte	0x2adc
 6895 25ef 12260000 		.4byte	0x2612
 6896 25f3 2B       		.uleb128 0x2b
 6897 25f4 01       		.uleb128 0x1
 6898 25f5 50       		.byte	0x50
 6899 25f6 02       		.uleb128 0x2
 6900 25f7 76       		.byte	0x76
 6901 25f8 00       		.sleb128 0
 6902 25f9 2B       		.uleb128 0x2b
 6903 25fa 01       		.uleb128 0x1
 6904 25fb 51       		.byte	0x51
 6905 25fc 02       		.uleb128 0x2
 6906 25fd 77       		.byte	0x77
 6907 25fe 00       		.sleb128 0
 6908 25ff 2B       		.uleb128 0x2b
 6909 2600 01       		.uleb128 0x1
 6910 2601 52       		.byte	0x52
 6911 2602 01       		.uleb128 0x1
 6912 2603 42       		.byte	0x42
 6913 2604 2B       		.uleb128 0x2b
 6914 2605 01       		.uleb128 0x1
ARM GAS  C:\Users\Sava\AppData\Local\Temp\ccs9rGHG.s 			page 142


 6915 2606 53       		.byte	0x53
 6916 2607 02       		.uleb128 0x2
 6917 2608 09       		.byte	0x9
 6918 2609 CE       		.byte	0xce
 6919 260a 2B       		.uleb128 0x2b
 6920 260b 02       		.uleb128 0x2
 6921 260c 7D       		.byte	0x7d
 6922 260d 00       		.sleb128 0
 6923 260e 02       		.uleb128 0x2
 6924 260f 08       		.byte	0x8
 6925 2610 21       		.byte	0x21
 6926 2611 00       		.byte	0
 6927 2612 2A       		.uleb128 0x2a
 6928 2613 18010000 		.4byte	.LVL191
 6929 2617 352B0000 		.4byte	0x2b35
 6930 261b 2B260000 		.4byte	0x262b
 6931 261f 2B       		.uleb128 0x2b
 6932 2620 01       		.uleb128 0x1
 6933 2621 50       		.byte	0x50
 6934 2622 02       		.uleb128 0x2
 6935 2623 76       		.byte	0x76
 6936 2624 00       		.sleb128 0
 6937 2625 2B       		.uleb128 0x2b
 6938 2626 01       		.uleb128 0x1
 6939 2627 51       		.byte	0x51
 6940 2628 01       		.uleb128 0x1
 6941 2629 31       		.byte	0x31
 6942 262a 00       		.byte	0
 6943 262b 2A       		.uleb128 0x2a
 6944 262c 46010000 		.4byte	.LVL193
 6945 2630 8E2B0000 		.4byte	0x2b8e
 6946 2634 4A260000 		.4byte	0x264a
 6947 2638 2B       		.uleb128 0x2b
 6948 2639 01       		.uleb128 0x1
 6949 263a 50       		.byte	0x50
 6950 263b 02       		.uleb128 0x2
 6951 263c 76       		.byte	0x76
 6952 263d 00       		.sleb128 0
 6953 263e 2B       		.uleb128 0x2b
 6954 263f 01       		.uleb128 0x1
 6955 2640 51       		.byte	0x51
 6956 2641 02       		.uleb128 0x2
 6957 2642 74       		.byte	0x74
 6958 2643 00       		.sleb128 0
 6959 2644 2B       		.uleb128 0x2b
 6960 2645 01       		.uleb128 0x1
 6961 2646 52       		.byte	0x52
 6962 2647 01       		.uleb128 0x1
 6963 2648 32       		.byte	0x32
 6964 2649 00       		.byte	0
 6965 264a 2A       		.uleb128 0x2a
 6966 264b 4E010000 		.4byte	.LVL194
 6967 264f 992B0000 		.4byte	0x2b99
 6968 2653 64260000 		.4byte	0x2664
 6969 2657 2B       		.uleb128 0x2b
 6970 2658 01       		.uleb128 0x1
 6971 2659 50       		.byte	0x50
ARM GAS  C:\Users\Sava\AppData\Local\Temp\ccs9rGHG.s 			page 143


 6972 265a 02       		.uleb128 0x2
 6973 265b 76       		.byte	0x76
 6974 265c 00       		.sleb128 0
 6975 265d 2B       		.uleb128 0x2b
 6976 265e 01       		.uleb128 0x1
 6977 265f 51       		.byte	0x51
 6978 2660 02       		.uleb128 0x2
 6979 2661 74       		.byte	0x74
 6980 2662 00       		.sleb128 0
 6981 2663 00       		.byte	0
 6982 2664 2A       		.uleb128 0x2a
 6983 2665 56010000 		.4byte	.LVL195
 6984 2669 A42B0000 		.4byte	0x2ba4
 6985 266d 7E260000 		.4byte	0x267e
 6986 2671 2B       		.uleb128 0x2b
 6987 2672 01       		.uleb128 0x1
 6988 2673 50       		.byte	0x50
 6989 2674 02       		.uleb128 0x2
 6990 2675 76       		.byte	0x76
 6991 2676 00       		.sleb128 0
 6992 2677 2B       		.uleb128 0x2b
 6993 2678 01       		.uleb128 0x1
 6994 2679 51       		.byte	0x51
 6995 267a 02       		.uleb128 0x2
 6996 267b 74       		.byte	0x74
 6997 267c 00       		.sleb128 0
 6998 267d 00       		.byte	0
 6999 267e 2A       		.uleb128 0x2a
 7000 267f 5E010000 		.4byte	.LVL196
 7001 2683 AF2B0000 		.4byte	0x2baf
 7002 2687 98260000 		.4byte	0x2698
 7003 268b 2B       		.uleb128 0x2b
 7004 268c 01       		.uleb128 0x1
 7005 268d 50       		.byte	0x50
 7006 268e 02       		.uleb128 0x2
 7007 268f 78       		.byte	0x78
 7008 2690 00       		.sleb128 0
 7009 2691 2B       		.uleb128 0x2b
 7010 2692 01       		.uleb128 0x1
 7011 2693 51       		.byte	0x51
 7012 2694 02       		.uleb128 0x2
 7013 2695 75       		.byte	0x75
 7014 2696 00       		.sleb128 0
 7015 2697 00       		.byte	0
 7016 2698 2A       		.uleb128 0x2a
 7017 2699 66010000 		.4byte	.LVL198
 7018 269d BA2B0000 		.4byte	0x2bba
 7019 26a1 B5260000 		.4byte	0x26b5
 7020 26a5 2B       		.uleb128 0x2b
 7021 26a6 01       		.uleb128 0x1
 7022 26a7 50       		.byte	0x50
 7023 26a8 02       		.uleb128 0x2
 7024 26a9 74       		.byte	0x74
 7025 26aa 00       		.sleb128 0
 7026 26ab 2B       		.uleb128 0x2b
 7027 26ac 01       		.uleb128 0x1
 7028 26ad 51       		.byte	0x51
ARM GAS  C:\Users\Sava\AppData\Local\Temp\ccs9rGHG.s 			page 144


 7029 26ae 05       		.uleb128 0x5
 7030 26af 03       		.byte	0x3
 7031 26b0 1C030000 		.4byte	.LC32
 7032 26b4 00       		.byte	0
 7033 26b5 2A       		.uleb128 0x2a
 7034 26b6 70010000 		.4byte	.LVL199
 7035 26ba C52B0000 		.4byte	0x2bc5
 7036 26be D8260000 		.4byte	0x26d8
 7037 26c2 2B       		.uleb128 0x2b
 7038 26c3 01       		.uleb128 0x1
 7039 26c4 50       		.byte	0x50
 7040 26c5 02       		.uleb128 0x2
 7041 26c6 74       		.byte	0x74
 7042 26c7 00       		.sleb128 0
 7043 26c8 2B       		.uleb128 0x2b
 7044 26c9 01       		.uleb128 0x1
 7045 26ca 51       		.byte	0x51
 7046 26cb 05       		.uleb128 0x5
 7047 26cc 03       		.byte	0x3
 7048 26cd 18000000 		.4byte	.LANCHOR1+24
 7049 26d1 2B       		.uleb128 0x2b
 7050 26d2 01       		.uleb128 0x1
 7051 26d3 52       		.byte	0x52
 7052 26d4 02       		.uleb128 0x2
 7053 26d5 75       		.byte	0x75
 7054 26d6 00       		.sleb128 0
 7055 26d7 00       		.byte	0
 7056 26d8 2C       		.uleb128 0x2c
 7057 26d9 78010000 		.4byte	.LVL200
 7058 26dd 352B0000 		.4byte	0x2b35
 7059 26e1 2B       		.uleb128 0x2b
 7060 26e2 01       		.uleb128 0x1
 7061 26e3 50       		.byte	0x50
 7062 26e4 02       		.uleb128 0x2
 7063 26e5 74       		.byte	0x74
 7064 26e6 00       		.sleb128 0
 7065 26e7 2B       		.uleb128 0x2b
 7066 26e8 01       		.uleb128 0x1
 7067 26e9 51       		.byte	0x51
 7068 26ea 01       		.uleb128 0x1
 7069 26eb 31       		.byte	0x31
 7070 26ec 00       		.byte	0
 7071 26ed 00       		.byte	0
 7072 26ee 2F       		.uleb128 0x2f
 7073 26ef 3B110000 		.4byte	0x113b
 7074 26f3 FE260000 		.4byte	0x26fe
 7075 26f7 30       		.uleb128 0x30
 7076 26f8 9B010000 		.4byte	0x19b
 7077 26fc 01       		.byte	0x1
 7078 26fd 00       		.byte	0
 7079 26fe 2F       		.uleb128 0x2f
 7080 26ff A9010000 		.4byte	0x1a9
 7081 2703 0E270000 		.4byte	0x270e
 7082 2707 30       		.uleb128 0x30
 7083 2708 9B010000 		.4byte	0x19b
 7084 270c 03       		.byte	0x3
 7085 270d 00       		.byte	0
ARM GAS  C:\Users\Sava\AppData\Local\Temp\ccs9rGHG.s 			page 145


 7086 270e 36       		.uleb128 0x36
 7087 270f 54080000 		.4byte	.LASF317
 7088 2713 01       		.byte	0x1
 7089 2714 2B       		.byte	0x2b
 7090 2715 00000000 		.4byte	.LFB107
 7091 2719 74000000 		.4byte	.LFE107-.LFB107
 7092 271d 01       		.uleb128 0x1
 7093 271e 9C       		.byte	0x9c
 7094 271f C5280000 		.4byte	0x28c5
 7095 2723 37       		.uleb128 0x37
 7096 2724 746800   		.ascii	"th\000"
 7097 2727 01       		.byte	0x1
 7098 2728 2B       		.byte	0x2b
 7099 2729 411D0000 		.4byte	0x1d41
 7100 272d ED050000 		.4byte	.LLST49
 7101 2731 25       		.uleb128 0x25
 7102 2732 73637200 		.ascii	"scr\000"
 7103 2736 01       		.byte	0x1
 7104 2737 2F       		.byte	0x2f
 7105 2738 55080000 		.4byte	0x855
 7106 273c 24060000 		.4byte	.LLST50
 7107 2740 25       		.uleb128 0x25
 7108 2741 747600   		.ascii	"tv\000"
 7109 2744 01       		.byte	0x1
 7110 2745 34       		.byte	0x34
 7111 2746 55080000 		.4byte	0x855
 7112 274a 42060000 		.4byte	.LLST51
 7113 274e 27       		.uleb128 0x27
 7114 274f E40C0000 		.4byte	.LASF236
 7115 2753 01       		.byte	0x1
 7116 2754 36       		.byte	0x36
 7117 2755 55080000 		.4byte	0x855
 7118 2759 60060000 		.4byte	.LLST52
 7119 275d 27       		.uleb128 0x27
 7120 275e E90C0000 		.4byte	.LASF237
 7121 2762 01       		.byte	0x1
 7122 2763 37       		.byte	0x37
 7123 2764 55080000 		.4byte	0x855
 7124 2768 7E060000 		.4byte	.LLST53
 7125 276c 27       		.uleb128 0x27
 7126 276d EE0C0000 		.4byte	.LASF238
 7127 2771 01       		.byte	0x1
 7128 2772 38       		.byte	0x38
 7129 2773 55080000 		.4byte	0x855
 7130 2777 9C060000 		.4byte	.LLST54
 7131 277b 28       		.uleb128 0x28
 7132 277c 8C110000 		.4byte	0x118c
 7133 2780 1A000000 		.4byte	.LBB32
 7134 2784 08000000 		.4byte	.LBE32-.LBB32
 7135 2788 01       		.byte	0x1
 7136 2789 31       		.byte	0x31
 7137 278a B1270000 		.4byte	0x27b1
 7138 278e 29       		.uleb128 0x29
 7139 278f A3110000 		.4byte	0x11a3
 7140 2793 BA060000 		.4byte	.LLST55
 7141 2797 29       		.uleb128 0x29
 7142 2798 98110000 		.4byte	0x1198
ARM GAS  C:\Users\Sava\AppData\Local\Temp\ccs9rGHG.s 			page 146


 7143 279c CE060000 		.4byte	.LLST56
 7144 27a0 2C       		.uleb128 0x2c
 7145 27a1 22000000 		.4byte	.LVL210
 7146 27a5 F1280000 		.4byte	0x28f1
 7147 27a9 2B       		.uleb128 0x2b
 7148 27aa 01       		.uleb128 0x1
 7149 27ab 50       		.byte	0x50
 7150 27ac 02       		.uleb128 0x2
 7151 27ad 74       		.byte	0x74
 7152 27ae 00       		.sleb128 0
 7153 27af 00       		.byte	0
 7154 27b0 00       		.byte	0
 7155 27b1 2A       		.uleb128 0x2a
 7156 27b2 06000000 		.4byte	.LVL203
 7157 27b6 D02B0000 		.4byte	0x2bd0
 7158 27ba C6270000 		.4byte	0x27c6
 7159 27be 2B       		.uleb128 0x2b
 7160 27bf 01       		.uleb128 0x1
 7161 27c0 50       		.byte	0x50
 7162 27c1 03       		.uleb128 0x3
 7163 27c2 F3       		.byte	0xf3
 7164 27c3 01       		.uleb128 0x1
 7165 27c4 50       		.byte	0x50
 7166 27c5 00       		.byte	0
 7167 27c6 2E       		.uleb128 0x2e
 7168 27c7 0A000000 		.4byte	.LVL204
 7169 27cb 08290000 		.4byte	0x2908
 7170 27cf 2A       		.uleb128 0x2a
 7171 27d0 14000000 		.4byte	.LVL207
 7172 27d4 1F290000 		.4byte	0x291f
 7173 27d8 E7270000 		.4byte	0x27e7
 7174 27dc 2B       		.uleb128 0x2b
 7175 27dd 01       		.uleb128 0x1
 7176 27de 50       		.byte	0x50
 7177 27df 01       		.uleb128 0x1
 7178 27e0 30       		.byte	0x30
 7179 27e1 2B       		.uleb128 0x2b
 7180 27e2 01       		.uleb128 0x1
 7181 27e3 51       		.byte	0x51
 7182 27e4 01       		.uleb128 0x1
 7183 27e5 30       		.byte	0x30
 7184 27e6 00       		.byte	0
 7185 27e7 2A       		.uleb128 0x2a
 7186 27e8 1A000000 		.4byte	.LVL209
 7187 27ec DC2B0000 		.4byte	0x2bdc
 7188 27f0 FB270000 		.4byte	0x27fb
 7189 27f4 2B       		.uleb128 0x2b
 7190 27f5 01       		.uleb128 0x1
 7191 27f6 50       		.byte	0x50
 7192 27f7 02       		.uleb128 0x2
 7193 27f8 74       		.byte	0x74
 7194 27f9 00       		.sleb128 0
 7195 27fa 00       		.byte	0
 7196 27fb 2A       		.uleb128 0x2a
 7197 27fc 2A000000 		.4byte	.LVL211
 7198 2800 E82B0000 		.4byte	0x2be8
 7199 2804 14280000 		.4byte	0x2814
ARM GAS  C:\Users\Sava\AppData\Local\Temp\ccs9rGHG.s 			page 147


 7200 2808 2B       		.uleb128 0x2b
 7201 2809 01       		.uleb128 0x1
 7202 280a 50       		.byte	0x50
 7203 280b 02       		.uleb128 0x2
 7204 280c 74       		.byte	0x74
 7205 280d 00       		.sleb128 0
 7206 280e 2B       		.uleb128 0x2b
 7207 280f 01       		.uleb128 0x1
 7208 2810 51       		.byte	0x51
 7209 2811 01       		.uleb128 0x1
 7210 2812 30       		.byte	0x30
 7211 2813 00       		.byte	0
 7212 2814 2A       		.uleb128 0x2a
 7213 2815 36000000 		.4byte	.LVL213
 7214 2819 8E290000 		.4byte	0x298e
 7215 281d 35280000 		.4byte	0x2835
 7216 2821 2B       		.uleb128 0x2b
 7217 2822 01       		.uleb128 0x1
 7218 2823 50       		.byte	0x50
 7219 2824 02       		.uleb128 0x2
 7220 2825 74       		.byte	0x74
 7221 2826 00       		.sleb128 0
 7222 2827 2B       		.uleb128 0x2b
 7223 2828 01       		.uleb128 0x1
 7224 2829 51       		.byte	0x51
 7225 282a 03       		.uleb128 0x3
 7226 282b 0A       		.byte	0xa
 7227 282c 4001     		.2byte	0x140
 7228 282e 2B       		.uleb128 0x2b
 7229 282f 01       		.uleb128 0x1
 7230 2830 52       		.byte	0x52
 7231 2831 02       		.uleb128 0x2
 7232 2832 08       		.byte	0x8
 7233 2833 F0       		.byte	0xf0
 7234 2834 00       		.byte	0
 7235 2835 2A       		.uleb128 0x2a
 7236 2836 3E000000 		.4byte	.LVL214
 7237 283a F32B0000 		.4byte	0x2bf3
 7238 283e 52280000 		.4byte	0x2852
 7239 2842 2B       		.uleb128 0x2b
 7240 2843 01       		.uleb128 0x1
 7241 2844 50       		.byte	0x50
 7242 2845 02       		.uleb128 0x2
 7243 2846 74       		.byte	0x74
 7244 2847 00       		.sleb128 0
 7245 2848 2B       		.uleb128 0x2b
 7246 2849 01       		.uleb128 0x1
 7247 284a 51       		.byte	0x51
 7248 284b 05       		.uleb128 0x5
 7249 284c 03       		.byte	0x3
 7250 284d 5C030000 		.4byte	.LC33
 7251 2851 00       		.byte	0
 7252 2852 2A       		.uleb128 0x2a
 7253 2853 48000000 		.4byte	.LVL217
 7254 2857 F32B0000 		.4byte	0x2bf3
 7255 285b 6F280000 		.4byte	0x286f
 7256 285f 2B       		.uleb128 0x2b
ARM GAS  C:\Users\Sava\AppData\Local\Temp\ccs9rGHG.s 			page 148


 7257 2860 01       		.uleb128 0x1
 7258 2861 50       		.byte	0x50
 7259 2862 02       		.uleb128 0x2
 7260 2863 74       		.byte	0x74
 7261 2864 00       		.sleb128 0
 7262 2865 2B       		.uleb128 0x2b
 7263 2866 01       		.uleb128 0x1
 7264 2867 51       		.byte	0x51
 7265 2868 05       		.uleb128 0x5
 7266 2869 03       		.byte	0x3
 7267 286a 64030000 		.4byte	.LC34
 7268 286e 00       		.byte	0
 7269 286f 2A       		.uleb128 0x2a
 7270 2870 52000000 		.4byte	.LVL220
 7271 2874 F32B0000 		.4byte	0x2bf3
 7272 2878 8C280000 		.4byte	0x288c
 7273 287c 2B       		.uleb128 0x2b
 7274 287d 01       		.uleb128 0x1
 7275 287e 50       		.byte	0x50
 7276 287f 02       		.uleb128 0x2
 7277 2880 74       		.byte	0x74
 7278 2881 00       		.sleb128 0
 7279 2882 2B       		.uleb128 0x2b
 7280 2883 01       		.uleb128 0x1
 7281 2884 51       		.byte	0x51
 7282 2885 05       		.uleb128 0x5
 7283 2886 03       		.byte	0x3
 7284 2887 6C030000 		.4byte	.LC35
 7285 288b 00       		.byte	0
 7286 288c 2A       		.uleb128 0x2a
 7287 288d 5A000000 		.4byte	.LVL223
 7288 2891 57120000 		.4byte	0x1257
 7289 2895 A0280000 		.4byte	0x28a0
 7290 2899 2B       		.uleb128 0x2b
 7291 289a 01       		.uleb128 0x1
 7292 289b 50       		.byte	0x50
 7293 289c 02       		.uleb128 0x2
 7294 289d 76       		.byte	0x76
 7295 289e 00       		.sleb128 0
 7296 289f 00       		.byte	0
 7297 28a0 2A       		.uleb128 0x2a
 7298 28a1 60000000 		.4byte	.LVL224
 7299 28a5 6C1D0000 		.4byte	0x1d6c
 7300 28a9 B4280000 		.4byte	0x28b4
 7301 28ad 2B       		.uleb128 0x2b
 7302 28ae 01       		.uleb128 0x1
 7303 28af 50       		.byte	0x50
 7304 28b0 02       		.uleb128 0x2
 7305 28b1 75       		.byte	0x75
 7306 28b2 00       		.sleb128 0
 7307 28b3 00       		.byte	0
 7308 28b4 2C       		.uleb128 0x2c
 7309 28b5 66000000 		.4byte	.LVL225
 7310 28b9 EA210000 		.4byte	0x21ea
 7311 28bd 2B       		.uleb128 0x2b
 7312 28be 01       		.uleb128 0x1
 7313 28bf 50       		.byte	0x50
ARM GAS  C:\Users\Sava\AppData\Local\Temp\ccs9rGHG.s 			page 149


 7314 28c0 02       		.uleb128 0x2
 7315 28c1 74       		.byte	0x74
 7316 28c2 00       		.sleb128 0
 7317 28c3 00       		.byte	0
 7318 28c4 00       		.byte	0
 7319 28c5 38       		.uleb128 0x38
 7320 28c6 B8040000 		.4byte	.LASF318
 7321 28ca 0D       		.byte	0xd
 7322 28cb B1       		.byte	0xb1
 7323 28cc 86050000 		.4byte	0x586
 7324 28d0 39       		.uleb128 0x39
 7325 28d1 880E0000 		.4byte	.LASF239
 7326 28d5 880E0000 		.4byte	.LASF239
 7327 28d9 02       		.byte	0x2
 7328 28da 80       		.byte	0x80
 7329 28db 39       		.uleb128 0x39
 7330 28dc 8E010000 		.4byte	.LASF240
 7331 28e0 8E010000 		.4byte	.LASF240
 7332 28e4 04       		.byte	0x4
 7333 28e5 51       		.byte	0x51
 7334 28e6 39       		.uleb128 0x39
 7335 28e7 FE090000 		.4byte	.LASF241
 7336 28eb FE090000 		.4byte	.LASF241
 7337 28ef 04       		.byte	0x4
 7338 28f0 5B       		.byte	0x5b
 7339 28f1 3A       		.uleb128 0x3a
 7340 28f2 FE0E0000 		.4byte	.LASF242
 7341 28f6 FE0E0000 		.4byte	.LASF242
 7342 28fa 0E       		.byte	0xe
 7343 28fb 8301     		.2byte	0x183
 7344 28fd 39       		.uleb128 0x39
 7345 28fe 370C0000 		.4byte	.LASF243
 7346 2902 370C0000 		.4byte	.LASF243
 7347 2906 13       		.byte	0x13
 7348 2907 60       		.byte	0x60
 7349 2908 3A       		.uleb128 0x3a
 7350 2909 BA100000 		.4byte	.LASF244
 7351 290d BA100000 		.4byte	.LASF244
 7352 2911 0F       		.byte	0xf
 7353 2912 3501     		.2byte	0x135
 7354 2914 39       		.uleb128 0x39
 7355 2915 D5070000 		.4byte	.LASF245
 7356 2919 D5070000 		.4byte	.LASF245
 7357 291d 0D       		.byte	0xd
 7358 291e 97       		.byte	0x97
 7359 291f 39       		.uleb128 0x39
 7360 2920 CB080000 		.4byte	.LASF246
 7361 2924 CB080000 		.4byte	.LASF246
 7362 2928 04       		.byte	0x4
 7363 2929 46       		.byte	0x46
 7364 292a 3A       		.uleb128 0x3a
 7365 292b 980D0000 		.4byte	.LASF247
 7366 292f 980D0000 		.4byte	.LASF247
 7367 2933 0E       		.byte	0xe
 7368 2934 A201     		.2byte	0x1a2
 7369 2936 39       		.uleb128 0x39
 7370 2937 D60D0000 		.4byte	.LASF248
ARM GAS  C:\Users\Sava\AppData\Local\Temp\ccs9rGHG.s 			page 150


 7371 293b D60D0000 		.4byte	.LASF248
 7372 293f 03       		.byte	0x3
 7373 2940 65       		.byte	0x65
 7374 2941 39       		.uleb128 0x39
 7375 2942 ED0E0000 		.4byte	.LASF249
 7376 2946 ED0E0000 		.4byte	.LASF249
 7377 294a 03       		.byte	0x3
 7378 294b B7       		.byte	0xb7
 7379 294c 39       		.uleb128 0x39
 7380 294d 2D050000 		.4byte	.LASF250
 7381 2951 2D050000 		.4byte	.LASF250
 7382 2955 03       		.byte	0x3
 7383 2956 70       		.byte	0x70
 7384 2957 39       		.uleb128 0x39
 7385 2958 98060000 		.4byte	.LASF251
 7386 295c 98060000 		.4byte	.LASF251
 7387 2960 14       		.byte	0x14
 7388 2961 60       		.byte	0x60
 7389 2962 39       		.uleb128 0x39
 7390 2963 26080000 		.4byte	.LASF252
 7391 2967 26080000 		.4byte	.LASF252
 7392 296b 14       		.byte	0x14
 7393 296c 6B       		.byte	0x6b
 7394 296d 39       		.uleb128 0x39
 7395 296e 44050000 		.4byte	.LASF253
 7396 2972 44050000 		.4byte	.LASF253
 7397 2976 03       		.byte	0x3
 7398 2977 7D       		.byte	0x7d
 7399 2978 39       		.uleb128 0x39
 7400 2979 FB040000 		.4byte	.LASF254
 7401 297d FB040000 		.4byte	.LASF254
 7402 2981 03       		.byte	0x3
 7403 2982 77       		.byte	0x77
 7404 2983 39       		.uleb128 0x39
 7405 2984 20090000 		.4byte	.LASF255
 7406 2988 20090000 		.4byte	.LASF255
 7407 298c 15       		.byte	0x15
 7408 298d 58       		.byte	0x58
 7409 298e 3A       		.uleb128 0x3a
 7410 298f 390F0000 		.4byte	.LASF256
 7411 2993 390F0000 		.4byte	.LASF256
 7412 2997 0E       		.byte	0xe
 7413 2998 4901     		.2byte	0x149
 7414 299a 39       		.uleb128 0x39
 7415 299b 16050000 		.4byte	.LASF257
 7416 299f 16050000 		.4byte	.LASF257
 7417 29a3 15       		.byte	0x15
 7418 29a4 6C       		.byte	0x6c
 7419 29a5 39       		.uleb128 0x39
 7420 29a6 6F020000 		.4byte	.LASF258
 7421 29aa 6F020000 		.4byte	.LASF258
 7422 29ae 15       		.byte	0x15
 7423 29af 7B       		.byte	0x7b
 7424 29b0 3A       		.uleb128 0x3a
 7425 29b1 810C0000 		.4byte	.LASF259
 7426 29b5 810C0000 		.4byte	.LASF259
 7427 29b9 0E       		.byte	0xe
ARM GAS  C:\Users\Sava\AppData\Local\Temp\ccs9rGHG.s 			page 151


 7428 29ba 5001     		.2byte	0x150
 7429 29bc 39       		.uleb128 0x39
 7430 29bd 9F000000 		.4byte	.LASF260
 7431 29c1 9F000000 		.4byte	.LASF260
 7432 29c5 16       		.byte	0x16
 7433 29c6 49       		.byte	0x49
 7434 29c7 39       		.uleb128 0x39
 7435 29c8 F2040000 		.4byte	.LASF261
 7436 29cc F2040000 		.4byte	.LASF261
 7437 29d0 16       		.byte	0x16
 7438 29d1 53       		.byte	0x53
 7439 29d2 39       		.uleb128 0x39
 7440 29d3 82020000 		.4byte	.LASF262
 7441 29d7 82020000 		.4byte	.LASF262
 7442 29db 17       		.byte	0x17
 7443 29dc 41       		.byte	0x41
 7444 29dd 39       		.uleb128 0x39
 7445 29de E40D0000 		.4byte	.LASF263
 7446 29e2 E40D0000 		.4byte	.LASF263
 7447 29e6 17       		.byte	0x17
 7448 29e7 4C       		.byte	0x4c
 7449 29e8 39       		.uleb128 0x39
 7450 29e9 CD090000 		.4byte	.LASF264
 7451 29ed CD090000 		.4byte	.LASF264
 7452 29f1 18       		.byte	0x18
 7453 29f2 45       		.byte	0x45
 7454 29f3 39       		.uleb128 0x39
 7455 29f4 F5020000 		.4byte	.LASF265
 7456 29f8 F5020000 		.4byte	.LASF265
 7457 29fc 05       		.byte	0x5
 7458 29fd 36       		.byte	0x36
 7459 29fe 39       		.uleb128 0x39
 7460 29ff EB090000 		.4byte	.LASF266
 7461 2a03 EB090000 		.4byte	.LASF266
 7462 2a07 05       		.byte	0x5
 7463 2a08 43       		.byte	0x43
 7464 2a09 39       		.uleb128 0x39
 7465 2a0a 2C000000 		.4byte	.LASF267
 7466 2a0e 2C000000 		.4byte	.LASF267
 7467 2a12 11       		.byte	0x11
 7468 2a13 61       		.byte	0x61
 7469 2a14 39       		.uleb128 0x39
 7470 2a15 330E0000 		.4byte	.LASF268
 7471 2a19 330E0000 		.4byte	.LASF268
 7472 2a1d 11       		.byte	0x11
 7473 2a1e 86       		.byte	0x86
 7474 2a1f 39       		.uleb128 0x39
 7475 2a20 78000000 		.4byte	.LASF269
 7476 2a24 78000000 		.4byte	.LASF269
 7477 2a28 11       		.byte	0x11
 7478 2a29 A4       		.byte	0xa4
 7479 2a2a 39       		.uleb128 0x39
 7480 2a2b D7050000 		.4byte	.LASF270
 7481 2a2f D7050000 		.4byte	.LASF270
 7482 2a33 19       		.byte	0x19
 7483 2a34 4A       		.byte	0x4a
 7484 2a35 39       		.uleb128 0x39
ARM GAS  C:\Users\Sava\AppData\Local\Temp\ccs9rGHG.s 			page 152


 7485 2a36 E1040000 		.4byte	.LASF271
 7486 2a3a E1040000 		.4byte	.LASF271
 7487 2a3e 13       		.byte	0x13
 7488 2a3f 4E       		.byte	0x4e
 7489 2a40 39       		.uleb128 0x39
 7490 2a41 4E100000 		.4byte	.LASF272
 7491 2a45 4E100000 		.4byte	.LASF272
 7492 2a49 13       		.byte	0x13
 7493 2a4a F6       		.byte	0xf6
 7494 2a4b 39       		.uleb128 0x39
 7495 2a4c E2030000 		.4byte	.LASF273
 7496 2a50 E2030000 		.4byte	.LASF273
 7497 2a54 13       		.byte	0x13
 7498 2a55 67       		.byte	0x67
 7499 2a56 39       		.uleb128 0x39
 7500 2a57 45080000 		.4byte	.LASF274
 7501 2a5b 45080000 		.4byte	.LASF274
 7502 2a5f 1A       		.byte	0x1a
 7503 2a60 5B       		.byte	0x5b
 7504 2a61 39       		.uleb128 0x39
 7505 2a62 790B0000 		.4byte	.LASF275
 7506 2a66 790B0000 		.4byte	.LASF275
 7507 2a6a 1A       		.byte	0x1a
 7508 2a6b 6F       		.byte	0x6f
 7509 2a6c 39       		.uleb128 0x39
 7510 2a6d E50A0000 		.4byte	.LASF276
 7511 2a71 E50A0000 		.4byte	.LASF276
 7512 2a75 06       		.byte	0x6
 7513 2a76 3E       		.byte	0x3e
 7514 2a77 39       		.uleb128 0x39
 7515 2a78 22060000 		.4byte	.LASF277
 7516 2a7c 22060000 		.4byte	.LASF277
 7517 2a80 06       		.byte	0x6
 7518 2a81 5B       		.byte	0x5b
 7519 2a82 39       		.uleb128 0x39
 7520 2a83 610E0000 		.4byte	.LASF278
 7521 2a87 610E0000 		.4byte	.LASF278
 7522 2a8b 06       		.byte	0x6
 7523 2a8c 6C       		.byte	0x6c
 7524 2a8d 3A       		.uleb128 0x3a
 7525 2a8e 23010000 		.4byte	.LASF279
 7526 2a92 23010000 		.4byte	.LASF279
 7527 2a96 0E       		.byte	0xe
 7528 2a97 8B02     		.2byte	0x28b
 7529 2a99 39       		.uleb128 0x39
 7530 2a9a 1D020000 		.4byte	.LASF280
 7531 2a9e 1D020000 		.4byte	.LASF280
 7532 2aa2 10       		.byte	0x10
 7533 2aa3 53       		.byte	0x53
 7534 2aa4 3A       		.uleb128 0x3a
 7535 2aa5 89060000 		.4byte	.LASF281
 7536 2aa9 89060000 		.4byte	.LASF281
 7537 2aad 0E       		.byte	0xe
 7538 2aae 3301     		.2byte	0x133
 7539 2ab0 39       		.uleb128 0x39
 7540 2ab1 64060000 		.4byte	.LASF282
 7541 2ab5 64060000 		.4byte	.LASF282
ARM GAS  C:\Users\Sava\AppData\Local\Temp\ccs9rGHG.s 			page 153


 7542 2ab9 10       		.byte	0x10
 7543 2aba 5F       		.byte	0x5f
 7544 2abb 39       		.uleb128 0x39
 7545 2abc 990E0000 		.4byte	.LASF283
 7546 2ac0 990E0000 		.4byte	.LASF283
 7547 2ac4 10       		.byte	0x10
 7548 2ac5 B5       		.byte	0xb5
 7549 2ac6 39       		.uleb128 0x39
 7550 2ac7 62080000 		.4byte	.LASF284
 7551 2acb 62080000 		.4byte	.LASF284
 7552 2acf 1B       		.byte	0x1b
 7553 2ad0 3F       		.byte	0x3f
 7554 2ad1 39       		.uleb128 0x39
 7555 2ad2 B7000000 		.4byte	.LASF285
 7556 2ad6 B7000000 		.4byte	.LASF285
 7557 2ada 1B       		.byte	0x1b
 7558 2adb 53       		.byte	0x53
 7559 2adc 3A       		.uleb128 0x3a
 7560 2add 41040000 		.4byte	.LASF286
 7561 2ae1 41040000 		.4byte	.LASF286
 7562 2ae5 0E       		.byte	0xe
 7563 2ae6 6101     		.2byte	0x161
 7564 2ae8 39       		.uleb128 0x39
 7565 2ae9 660F0000 		.4byte	.LASF287
 7566 2aed 660F0000 		.4byte	.LASF287
 7567 2af1 1C       		.byte	0x1c
 7568 2af2 3C       		.byte	0x3c
 7569 2af3 39       		.uleb128 0x39
 7570 2af4 2B040000 		.4byte	.LASF288
 7571 2af8 2B040000 		.4byte	.LASF288
 7572 2afc 11       		.byte	0x11
 7573 2afd 96       		.byte	0x96
 7574 2afe 39       		.uleb128 0x39
 7575 2aff 0B100000 		.4byte	.LASF289
 7576 2b03 0B100000 		.4byte	.LASF289
 7577 2b07 1D       		.byte	0x1d
 7578 2b08 52       		.byte	0x52
 7579 2b09 39       		.uleb128 0x39
 7580 2b0a 340A0000 		.4byte	.LASF290
 7581 2b0e 340A0000 		.4byte	.LASF290
 7582 2b12 1D       		.byte	0x1d
 7583 2b13 5D       		.byte	0x5d
 7584 2b14 39       		.uleb128 0x39
 7585 2b15 4C0A0000 		.4byte	.LASF291
 7586 2b19 4C0A0000 		.4byte	.LASF291
 7587 2b1d 1E       		.byte	0x1e
 7588 2b1e 4C       		.byte	0x4c
 7589 2b1f 39       		.uleb128 0x39
 7590 2b20 38100000 		.4byte	.LASF292
 7591 2b24 38100000 		.4byte	.LASF292
 7592 2b28 1F       		.byte	0x1f
 7593 2b29 5C       		.byte	0x5c
 7594 2b2a 39       		.uleb128 0x39
 7595 2b2b B0020000 		.4byte	.LASF293
 7596 2b2f B0020000 		.4byte	.LASF293
 7597 2b33 1F       		.byte	0x1f
 7598 2b34 6F       		.byte	0x6f
ARM GAS  C:\Users\Sava\AppData\Local\Temp\ccs9rGHG.s 			page 154


 7599 2b35 3A       		.uleb128 0x3a
 7600 2b36 5F030000 		.4byte	.LASF294
 7601 2b3a 5F030000 		.4byte	.LASF294
 7602 2b3e 0E       		.byte	0xe
 7603 2b3f AA01     		.2byte	0x1aa
 7604 2b41 39       		.uleb128 0x39
 7605 2b42 400B0000 		.4byte	.LASF295
 7606 2b46 400B0000 		.4byte	.LASF295
 7607 2b4a 20       		.byte	0x20
 7608 2b4b 37       		.byte	0x37
 7609 2b4c 39       		.uleb128 0x39
 7610 2b4d EC050000 		.4byte	.LASF296
 7611 2b51 EC050000 		.4byte	.LASF296
 7612 2b55 20       		.byte	0x20
 7613 2b56 42       		.byte	0x42
 7614 2b57 39       		.uleb128 0x39
 7615 2b58 CA0B0000 		.4byte	.LASF297
 7616 2b5c CA0B0000 		.4byte	.LASF297
 7617 2b60 21       		.byte	0x21
 7618 2b61 34       		.byte	0x34
 7619 2b62 39       		.uleb128 0x39
 7620 2b63 620C0000 		.4byte	.LASF298
 7621 2b67 620C0000 		.4byte	.LASF298
 7622 2b6b 21       		.byte	0x21
 7623 2b6c 41       		.byte	0x41
 7624 2b6d 39       		.uleb128 0x39
 7625 2b6e 02020000 		.4byte	.LASF299
 7626 2b72 02020000 		.4byte	.LASF299
 7627 2b76 21       		.byte	0x21
 7628 2b77 47       		.byte	0x47
 7629 2b78 39       		.uleb128 0x39
 7630 2b79 CA0A0000 		.4byte	.LASF300
 7631 2b7d CA0A0000 		.4byte	.LASF300
 7632 2b81 02       		.byte	0x2
 7633 2b82 65       		.byte	0x65
 7634 2b83 39       		.uleb128 0x39
 7635 2b84 740F0000 		.4byte	.LASF301
 7636 2b88 740F0000 		.4byte	.LASF301
 7637 2b8c 12       		.byte	0x12
 7638 2b8d 64       		.byte	0x64
 7639 2b8e 39       		.uleb128 0x39
 7640 2b8f DB000000 		.4byte	.LASF302
 7641 2b93 DB000000 		.4byte	.LASF302
 7642 2b97 12       		.byte	0x12
 7643 2b98 89       		.byte	0x89
 7644 2b99 39       		.uleb128 0x39
 7645 2b9a 8C0A0000 		.4byte	.LASF303
 7646 2b9e 8C0A0000 		.4byte	.LASF303
 7647 2ba2 12       		.byte	0x12
 7648 2ba3 7A       		.byte	0x7a
 7649 2ba4 39       		.uleb128 0x39
 7650 2ba5 4B010000 		.4byte	.LASF304
 7651 2ba9 4B010000 		.4byte	.LASF304
 7652 2bad 12       		.byte	0x12
 7653 2bae 81       		.byte	0x81
 7654 2baf 39       		.uleb128 0x39
 7655 2bb0 1F0C0000 		.4byte	.LASF305
ARM GAS  C:\Users\Sava\AppData\Local\Temp\ccs9rGHG.s 			page 155


 7656 2bb4 1F0C0000 		.4byte	.LASF305
 7657 2bb8 22       		.byte	0x22
 7658 2bb9 52       		.byte	0x52
 7659 2bba 39       		.uleb128 0x39
 7660 2bbb 0F090000 		.4byte	.LASF306
 7661 2bbf 0F090000 		.4byte	.LASF306
 7662 2bc3 22       		.byte	0x22
 7663 2bc4 6A       		.byte	0x6a
 7664 2bc5 39       		.uleb128 0x39
 7665 2bc6 AF050000 		.4byte	.LASF307
 7666 2bca AF050000 		.4byte	.LASF307
 7667 2bce 22       		.byte	0x22
 7668 2bcf 5F       		.byte	0x5f
 7669 2bd0 3A       		.uleb128 0x3a
 7670 2bd1 4D0C0000 		.4byte	.LASF308
 7671 2bd5 4D0C0000 		.4byte	.LASF308
 7672 2bd9 0F       		.byte	0xf
 7673 2bda 2F01     		.2byte	0x12f
 7674 2bdc 3A       		.uleb128 0x3a
 7675 2bdd F30C0000 		.4byte	.LASF309
 7676 2be1 F30C0000 		.4byte	.LASF309
 7677 2be5 0E       		.byte	0xe
 7678 2be6 1C01     		.2byte	0x11c
 7679 2be8 39       		.uleb128 0x39
 7680 2be9 3D020000 		.4byte	.LASF310
 7681 2bed 3D020000 		.4byte	.LASF310
 7682 2bf1 23       		.byte	0x23
 7683 2bf2 63       		.byte	0x63
 7684 2bf3 39       		.uleb128 0x39
 7685 2bf4 3E090000 		.4byte	.LASF311
 7686 2bf8 3E090000 		.4byte	.LASF311
 7687 2bfc 23       		.byte	0x23
 7688 2bfd 75       		.byte	0x75
 7689 2bfe 00       		.byte	0
 7690              		.section	.debug_abbrev,"",%progbits
 7691              	.Ldebug_abbrev0:
 7692 0000 01       		.uleb128 0x1
 7693 0001 11       		.uleb128 0x11
 7694 0002 01       		.byte	0x1
 7695 0003 25       		.uleb128 0x25
 7696 0004 0E       		.uleb128 0xe
 7697 0005 13       		.uleb128 0x13
 7698 0006 0B       		.uleb128 0xb
 7699 0007 03       		.uleb128 0x3
 7700 0008 0E       		.uleb128 0xe
 7701 0009 1B       		.uleb128 0x1b
 7702 000a 0E       		.uleb128 0xe
 7703 000b 55       		.uleb128 0x55
 7704 000c 17       		.uleb128 0x17
 7705 000d 11       		.uleb128 0x11
 7706 000e 01       		.uleb128 0x1
 7707 000f 10       		.uleb128 0x10
 7708 0010 17       		.uleb128 0x17
 7709 0011 00       		.byte	0
 7710 0012 00       		.byte	0
 7711 0013 02       		.uleb128 0x2
 7712 0014 24       		.uleb128 0x24
ARM GAS  C:\Users\Sava\AppData\Local\Temp\ccs9rGHG.s 			page 156


 7713 0015 00       		.byte	0
 7714 0016 0B       		.uleb128 0xb
 7715 0017 0B       		.uleb128 0xb
 7716 0018 3E       		.uleb128 0x3e
 7717 0019 0B       		.uleb128 0xb
 7718 001a 03       		.uleb128 0x3
 7719 001b 0E       		.uleb128 0xe
 7720 001c 00       		.byte	0
 7721 001d 00       		.byte	0
 7722 001e 03       		.uleb128 0x3
 7723 001f 24       		.uleb128 0x24
 7724 0020 00       		.byte	0
 7725 0021 0B       		.uleb128 0xb
 7726 0022 0B       		.uleb128 0xb
 7727 0023 3E       		.uleb128 0x3e
 7728 0024 0B       		.uleb128 0xb
 7729 0025 03       		.uleb128 0x3
 7730 0026 08       		.uleb128 0x8
 7731 0027 00       		.byte	0
 7732 0028 00       		.byte	0
 7733 0029 04       		.uleb128 0x4
 7734 002a 16       		.uleb128 0x16
 7735 002b 00       		.byte	0
 7736 002c 03       		.uleb128 0x3
 7737 002d 0E       		.uleb128 0xe
 7738 002e 3A       		.uleb128 0x3a
 7739 002f 0B       		.uleb128 0xb
 7740 0030 3B       		.uleb128 0x3b
 7741 0031 0B       		.uleb128 0xb
 7742 0032 49       		.uleb128 0x49
 7743 0033 13       		.uleb128 0x13
 7744 0034 00       		.byte	0
 7745 0035 00       		.byte	0
 7746 0036 05       		.uleb128 0x5
 7747 0037 13       		.uleb128 0x13
 7748 0038 01       		.byte	0x1
 7749 0039 0B       		.uleb128 0xb
 7750 003a 0B       		.uleb128 0xb
 7751 003b 3A       		.uleb128 0x3a
 7752 003c 0B       		.uleb128 0xb
 7753 003d 3B       		.uleb128 0x3b
 7754 003e 0B       		.uleb128 0xb
 7755 003f 01       		.uleb128 0x1
 7756 0040 13       		.uleb128 0x13
 7757 0041 00       		.byte	0
 7758 0042 00       		.byte	0
 7759 0043 06       		.uleb128 0x6
 7760 0044 0D       		.uleb128 0xd
 7761 0045 00       		.byte	0
 7762 0046 03       		.uleb128 0x3
 7763 0047 0E       		.uleb128 0xe
 7764 0048 3A       		.uleb128 0x3a
 7765 0049 0B       		.uleb128 0xb
 7766 004a 3B       		.uleb128 0x3b
 7767 004b 0B       		.uleb128 0xb
 7768 004c 49       		.uleb128 0x49
 7769 004d 13       		.uleb128 0x13
ARM GAS  C:\Users\Sava\AppData\Local\Temp\ccs9rGHG.s 			page 157


 7770 004e 38       		.uleb128 0x38
 7771 004f 0B       		.uleb128 0xb
 7772 0050 00       		.byte	0
 7773 0051 00       		.byte	0
 7774 0052 07       		.uleb128 0x7
 7775 0053 0F       		.uleb128 0xf
 7776 0054 00       		.byte	0
 7777 0055 0B       		.uleb128 0xb
 7778 0056 0B       		.uleb128 0xb
 7779 0057 49       		.uleb128 0x49
 7780 0058 13       		.uleb128 0x13
 7781 0059 00       		.byte	0
 7782 005a 00       		.byte	0
 7783 005b 08       		.uleb128 0x8
 7784 005c 0F       		.uleb128 0xf
 7785 005d 00       		.byte	0
 7786 005e 0B       		.uleb128 0xb
 7787 005f 0B       		.uleb128 0xb
 7788 0060 00       		.byte	0
 7789 0061 00       		.byte	0
 7790 0062 09       		.uleb128 0x9
 7791 0063 0D       		.uleb128 0xd
 7792 0064 00       		.byte	0
 7793 0065 03       		.uleb128 0x3
 7794 0066 0E       		.uleb128 0xe
 7795 0067 3A       		.uleb128 0x3a
 7796 0068 0B       		.uleb128 0xb
 7797 0069 3B       		.uleb128 0x3b
 7798 006a 0B       		.uleb128 0xb
 7799 006b 49       		.uleb128 0x49
 7800 006c 13       		.uleb128 0x13
 7801 006d 0B       		.uleb128 0xb
 7802 006e 0B       		.uleb128 0xb
 7803 006f 0D       		.uleb128 0xd
 7804 0070 0B       		.uleb128 0xb
 7805 0071 0C       		.uleb128 0xc
 7806 0072 0B       		.uleb128 0xb
 7807 0073 38       		.uleb128 0x38
 7808 0074 0B       		.uleb128 0xb
 7809 0075 00       		.byte	0
 7810 0076 00       		.byte	0
 7811 0077 0A       		.uleb128 0xa
 7812 0078 0D       		.uleb128 0xd
 7813 0079 00       		.byte	0
 7814 007a 03       		.uleb128 0x3
 7815 007b 08       		.uleb128 0x8
 7816 007c 3A       		.uleb128 0x3a
 7817 007d 0B       		.uleb128 0xb
 7818 007e 3B       		.uleb128 0x3b
 7819 007f 0B       		.uleb128 0xb
 7820 0080 49       		.uleb128 0x49
 7821 0081 13       		.uleb128 0x13
 7822 0082 0B       		.uleb128 0xb
 7823 0083 0B       		.uleb128 0xb
 7824 0084 0D       		.uleb128 0xd
 7825 0085 0B       		.uleb128 0xb
 7826 0086 0C       		.uleb128 0xc
ARM GAS  C:\Users\Sava\AppData\Local\Temp\ccs9rGHG.s 			page 158


 7827 0087 0B       		.uleb128 0xb
 7828 0088 38       		.uleb128 0x38
 7829 0089 0B       		.uleb128 0xb
 7830 008a 00       		.byte	0
 7831 008b 00       		.byte	0
 7832 008c 0B       		.uleb128 0xb
 7833 008d 17       		.uleb128 0x17
 7834 008e 01       		.byte	0x1
 7835 008f 0B       		.uleb128 0xb
 7836 0090 0B       		.uleb128 0xb
 7837 0091 3A       		.uleb128 0x3a
 7838 0092 0B       		.uleb128 0xb
 7839 0093 3B       		.uleb128 0x3b
 7840 0094 0B       		.uleb128 0xb
 7841 0095 01       		.uleb128 0x1
 7842 0096 13       		.uleb128 0x13
 7843 0097 00       		.byte	0
 7844 0098 00       		.byte	0
 7845 0099 0C       		.uleb128 0xc
 7846 009a 0D       		.uleb128 0xd
 7847 009b 00       		.byte	0
 7848 009c 49       		.uleb128 0x49
 7849 009d 13       		.uleb128 0x13
 7850 009e 00       		.byte	0
 7851 009f 00       		.byte	0
 7852 00a0 0D       		.uleb128 0xd
 7853 00a1 0D       		.uleb128 0xd
 7854 00a2 00       		.byte	0
 7855 00a3 03       		.uleb128 0x3
 7856 00a4 0E       		.uleb128 0xe
 7857 00a5 3A       		.uleb128 0x3a
 7858 00a6 0B       		.uleb128 0xb
 7859 00a7 3B       		.uleb128 0x3b
 7860 00a8 0B       		.uleb128 0xb
 7861 00a9 49       		.uleb128 0x49
 7862 00aa 13       		.uleb128 0x13
 7863 00ab 00       		.byte	0
 7864 00ac 00       		.byte	0
 7865 00ad 0E       		.uleb128 0xe
 7866 00ae 26       		.uleb128 0x26
 7867 00af 00       		.byte	0
 7868 00b0 49       		.uleb128 0x49
 7869 00b1 13       		.uleb128 0x13
 7870 00b2 00       		.byte	0
 7871 00b3 00       		.byte	0
 7872 00b4 0F       		.uleb128 0xf
 7873 00b5 0D       		.uleb128 0xd
 7874 00b6 00       		.byte	0
 7875 00b7 03       		.uleb128 0x3
 7876 00b8 08       		.uleb128 0x8
 7877 00b9 3A       		.uleb128 0x3a
 7878 00ba 0B       		.uleb128 0xb
 7879 00bb 3B       		.uleb128 0x3b
 7880 00bc 0B       		.uleb128 0xb
 7881 00bd 49       		.uleb128 0x49
 7882 00be 13       		.uleb128 0x13
 7883 00bf 38       		.uleb128 0x38
ARM GAS  C:\Users\Sava\AppData\Local\Temp\ccs9rGHG.s 			page 159


 7884 00c0 0B       		.uleb128 0xb
 7885 00c1 00       		.byte	0
 7886 00c2 00       		.byte	0
 7887 00c3 10       		.uleb128 0x10
 7888 00c4 13       		.uleb128 0x13
 7889 00c5 01       		.byte	0x1
 7890 00c6 03       		.uleb128 0x3
 7891 00c7 0E       		.uleb128 0xe
 7892 00c8 0B       		.uleb128 0xb
 7893 00c9 0B       		.uleb128 0xb
 7894 00ca 3A       		.uleb128 0x3a
 7895 00cb 0B       		.uleb128 0xb
 7896 00cc 3B       		.uleb128 0x3b
 7897 00cd 0B       		.uleb128 0xb
 7898 00ce 01       		.uleb128 0x1
 7899 00cf 13       		.uleb128 0x13
 7900 00d0 00       		.byte	0
 7901 00d1 00       		.byte	0
 7902 00d2 11       		.uleb128 0x11
 7903 00d3 15       		.uleb128 0x15
 7904 00d4 01       		.byte	0x1
 7905 00d5 27       		.uleb128 0x27
 7906 00d6 19       		.uleb128 0x19
 7907 00d7 49       		.uleb128 0x49
 7908 00d8 13       		.uleb128 0x13
 7909 00d9 01       		.uleb128 0x1
 7910 00da 13       		.uleb128 0x13
 7911 00db 00       		.byte	0
 7912 00dc 00       		.byte	0
 7913 00dd 12       		.uleb128 0x12
 7914 00de 05       		.uleb128 0x5
 7915 00df 00       		.byte	0
 7916 00e0 49       		.uleb128 0x49
 7917 00e1 13       		.uleb128 0x13
 7918 00e2 00       		.byte	0
 7919 00e3 00       		.byte	0
 7920 00e4 13       		.uleb128 0x13
 7921 00e5 04       		.uleb128 0x4
 7922 00e6 01       		.byte	0x1
 7923 00e7 0B       		.uleb128 0xb
 7924 00e8 0B       		.uleb128 0xb
 7925 00e9 49       		.uleb128 0x49
 7926 00ea 13       		.uleb128 0x13
 7927 00eb 3A       		.uleb128 0x3a
 7928 00ec 0B       		.uleb128 0xb
 7929 00ed 3B       		.uleb128 0x3b
 7930 00ee 0B       		.uleb128 0xb
 7931 00ef 01       		.uleb128 0x1
 7932 00f0 13       		.uleb128 0x13
 7933 00f1 00       		.byte	0
 7934 00f2 00       		.byte	0
 7935 00f3 14       		.uleb128 0x14
 7936 00f4 28       		.uleb128 0x28
 7937 00f5 00       		.byte	0
 7938 00f6 03       		.uleb128 0x3
 7939 00f7 0E       		.uleb128 0xe
 7940 00f8 1C       		.uleb128 0x1c
ARM GAS  C:\Users\Sava\AppData\Local\Temp\ccs9rGHG.s 			page 160


 7941 00f9 0B       		.uleb128 0xb
 7942 00fa 00       		.byte	0
 7943 00fb 00       		.byte	0
 7944 00fc 15       		.uleb128 0x15
 7945 00fd 0D       		.uleb128 0xd
 7946 00fe 00       		.byte	0
 7947 00ff 03       		.uleb128 0x3
 7948 0100 0E       		.uleb128 0xe
 7949 0101 3A       		.uleb128 0x3a
 7950 0102 0B       		.uleb128 0xb
 7951 0103 3B       		.uleb128 0x3b
 7952 0104 05       		.uleb128 0x5
 7953 0105 49       		.uleb128 0x49
 7954 0106 13       		.uleb128 0x13
 7955 0107 38       		.uleb128 0x38
 7956 0108 0B       		.uleb128 0xb
 7957 0109 00       		.byte	0
 7958 010a 00       		.byte	0
 7959 010b 16       		.uleb128 0x16
 7960 010c 0D       		.uleb128 0xd
 7961 010d 00       		.byte	0
 7962 010e 03       		.uleb128 0x3
 7963 010f 08       		.uleb128 0x8
 7964 0110 3A       		.uleb128 0x3a
 7965 0111 0B       		.uleb128 0xb
 7966 0112 3B       		.uleb128 0x3b
 7967 0113 05       		.uleb128 0x5
 7968 0114 49       		.uleb128 0x49
 7969 0115 13       		.uleb128 0x13
 7970 0116 38       		.uleb128 0x38
 7971 0117 0B       		.uleb128 0xb
 7972 0118 00       		.byte	0
 7973 0119 00       		.byte	0
 7974 011a 17       		.uleb128 0x17
 7975 011b 13       		.uleb128 0x13
 7976 011c 01       		.byte	0x1
 7977 011d 0B       		.uleb128 0xb
 7978 011e 0B       		.uleb128 0xb
 7979 011f 3A       		.uleb128 0x3a
 7980 0120 0B       		.uleb128 0xb
 7981 0121 3B       		.uleb128 0x3b
 7982 0122 05       		.uleb128 0x5
 7983 0123 01       		.uleb128 0x1
 7984 0124 13       		.uleb128 0x13
 7985 0125 00       		.byte	0
 7986 0126 00       		.byte	0
 7987 0127 18       		.uleb128 0x18
 7988 0128 13       		.uleb128 0x13
 7989 0129 01       		.byte	0x1
 7990 012a 0B       		.uleb128 0xb
 7991 012b 05       		.uleb128 0x5
 7992 012c 3A       		.uleb128 0x3a
 7993 012d 0B       		.uleb128 0xb
 7994 012e 3B       		.uleb128 0x3b
 7995 012f 0B       		.uleb128 0xb
 7996 0130 01       		.uleb128 0x1
 7997 0131 13       		.uleb128 0x13
ARM GAS  C:\Users\Sava\AppData\Local\Temp\ccs9rGHG.s 			page 161


 7998 0132 00       		.byte	0
 7999 0133 00       		.byte	0
 8000 0134 19       		.uleb128 0x19
 8001 0135 0D       		.uleb128 0xd
 8002 0136 00       		.byte	0
 8003 0137 03       		.uleb128 0x3
 8004 0138 0E       		.uleb128 0xe
 8005 0139 3A       		.uleb128 0x3a
 8006 013a 0B       		.uleb128 0xb
 8007 013b 3B       		.uleb128 0x3b
 8008 013c 0B       		.uleb128 0xb
 8009 013d 49       		.uleb128 0x49
 8010 013e 13       		.uleb128 0x13
 8011 013f 38       		.uleb128 0x38
 8012 0140 05       		.uleb128 0x5
 8013 0141 00       		.byte	0
 8014 0142 00       		.byte	0
 8015 0143 1A       		.uleb128 0x1a
 8016 0144 0D       		.uleb128 0xd
 8017 0145 00       		.byte	0
 8018 0146 03       		.uleb128 0x3
 8019 0147 08       		.uleb128 0x8
 8020 0148 3A       		.uleb128 0x3a
 8021 0149 0B       		.uleb128 0xb
 8022 014a 3B       		.uleb128 0x3b
 8023 014b 0B       		.uleb128 0xb
 8024 014c 49       		.uleb128 0x49
 8025 014d 13       		.uleb128 0x13
 8026 014e 38       		.uleb128 0x38
 8027 014f 05       		.uleb128 0x5
 8028 0150 00       		.byte	0
 8029 0151 00       		.byte	0
 8030 0152 1B       		.uleb128 0x1b
 8031 0153 0D       		.uleb128 0xd
 8032 0154 00       		.byte	0
 8033 0155 03       		.uleb128 0x3
 8034 0156 0E       		.uleb128 0xe
 8035 0157 3A       		.uleb128 0x3a
 8036 0158 0B       		.uleb128 0xb
 8037 0159 3B       		.uleb128 0x3b
 8038 015a 05       		.uleb128 0x5
 8039 015b 49       		.uleb128 0x49
 8040 015c 13       		.uleb128 0x13
 8041 015d 38       		.uleb128 0x38
 8042 015e 05       		.uleb128 0x5
 8043 015f 00       		.byte	0
 8044 0160 00       		.byte	0
 8045 0161 1C       		.uleb128 0x1c
 8046 0162 0D       		.uleb128 0xd
 8047 0163 00       		.byte	0
 8048 0164 03       		.uleb128 0x3
 8049 0165 08       		.uleb128 0x8
 8050 0166 3A       		.uleb128 0x3a
 8051 0167 0B       		.uleb128 0xb
 8052 0168 3B       		.uleb128 0x3b
 8053 0169 05       		.uleb128 0x5
 8054 016a 49       		.uleb128 0x49
ARM GAS  C:\Users\Sava\AppData\Local\Temp\ccs9rGHG.s 			page 162


 8055 016b 13       		.uleb128 0x13
 8056 016c 38       		.uleb128 0x38
 8057 016d 05       		.uleb128 0x5
 8058 016e 00       		.byte	0
 8059 016f 00       		.byte	0
 8060 0170 1D       		.uleb128 0x1d
 8061 0171 16       		.uleb128 0x16
 8062 0172 00       		.byte	0
 8063 0173 03       		.uleb128 0x3
 8064 0174 0E       		.uleb128 0xe
 8065 0175 3A       		.uleb128 0x3a
 8066 0176 0B       		.uleb128 0xb
 8067 0177 3B       		.uleb128 0x3b
 8068 0178 05       		.uleb128 0x5
 8069 0179 49       		.uleb128 0x49
 8070 017a 13       		.uleb128 0x13
 8071 017b 00       		.byte	0
 8072 017c 00       		.byte	0
 8073 017d 1E       		.uleb128 0x1e
 8074 017e 2E       		.uleb128 0x2e
 8075 017f 01       		.byte	0x1
 8076 0180 03       		.uleb128 0x3
 8077 0181 0E       		.uleb128 0xe
 8078 0182 3A       		.uleb128 0x3a
 8079 0183 0B       		.uleb128 0xb
 8080 0184 3B       		.uleb128 0x3b
 8081 0185 0B       		.uleb128 0xb
 8082 0186 27       		.uleb128 0x27
 8083 0187 19       		.uleb128 0x19
 8084 0188 20       		.uleb128 0x20
 8085 0189 0B       		.uleb128 0xb
 8086 018a 01       		.uleb128 0x1
 8087 018b 13       		.uleb128 0x13
 8088 018c 00       		.byte	0
 8089 018d 00       		.byte	0
 8090 018e 1F       		.uleb128 0x1f
 8091 018f 05       		.uleb128 0x5
 8092 0190 00       		.byte	0
 8093 0191 03       		.uleb128 0x3
 8094 0192 0E       		.uleb128 0xe
 8095 0193 3A       		.uleb128 0x3a
 8096 0194 0B       		.uleb128 0xb
 8097 0195 3B       		.uleb128 0x3b
 8098 0196 0B       		.uleb128 0xb
 8099 0197 49       		.uleb128 0x49
 8100 0198 13       		.uleb128 0x13
 8101 0199 00       		.byte	0
 8102 019a 00       		.byte	0
 8103 019b 20       		.uleb128 0x20
 8104 019c 05       		.uleb128 0x5
 8105 019d 00       		.byte	0
 8106 019e 03       		.uleb128 0x3
 8107 019f 08       		.uleb128 0x8
 8108 01a0 3A       		.uleb128 0x3a
 8109 01a1 0B       		.uleb128 0xb
 8110 01a2 3B       		.uleb128 0x3b
 8111 01a3 0B       		.uleb128 0xb
ARM GAS  C:\Users\Sava\AppData\Local\Temp\ccs9rGHG.s 			page 163


 8112 01a4 49       		.uleb128 0x49
 8113 01a5 13       		.uleb128 0x13
 8114 01a6 00       		.byte	0
 8115 01a7 00       		.byte	0
 8116 01a8 21       		.uleb128 0x21
 8117 01a9 2E       		.uleb128 0x2e
 8118 01aa 01       		.byte	0x1
 8119 01ab 03       		.uleb128 0x3
 8120 01ac 0E       		.uleb128 0xe
 8121 01ad 3A       		.uleb128 0x3a
 8122 01ae 0B       		.uleb128 0xb
 8123 01af 3B       		.uleb128 0x3b
 8124 01b0 05       		.uleb128 0x5
 8125 01b1 27       		.uleb128 0x27
 8126 01b2 19       		.uleb128 0x19
 8127 01b3 49       		.uleb128 0x49
 8128 01b4 13       		.uleb128 0x13
 8129 01b5 20       		.uleb128 0x20
 8130 01b6 0B       		.uleb128 0xb
 8131 01b7 01       		.uleb128 0x1
 8132 01b8 13       		.uleb128 0x13
 8133 01b9 00       		.byte	0
 8134 01ba 00       		.byte	0
 8135 01bb 22       		.uleb128 0x22
 8136 01bc 05       		.uleb128 0x5
 8137 01bd 00       		.byte	0
 8138 01be 03       		.uleb128 0x3
 8139 01bf 0E       		.uleb128 0xe
 8140 01c0 3A       		.uleb128 0x3a
 8141 01c1 0B       		.uleb128 0xb
 8142 01c2 3B       		.uleb128 0x3b
 8143 01c3 05       		.uleb128 0x5
 8144 01c4 49       		.uleb128 0x49
 8145 01c5 13       		.uleb128 0x13
 8146 01c6 00       		.byte	0
 8147 01c7 00       		.byte	0
 8148 01c8 23       		.uleb128 0x23
 8149 01c9 2E       		.uleb128 0x2e
 8150 01ca 01       		.byte	0x1
 8151 01cb 03       		.uleb128 0x3
 8152 01cc 0E       		.uleb128 0xe
 8153 01cd 3A       		.uleb128 0x3a
 8154 01ce 0B       		.uleb128 0xb
 8155 01cf 3B       		.uleb128 0x3b
 8156 01d0 0B       		.uleb128 0xb
 8157 01d1 27       		.uleb128 0x27
 8158 01d2 19       		.uleb128 0x19
 8159 01d3 11       		.uleb128 0x11
 8160 01d4 01       		.uleb128 0x1
 8161 01d5 12       		.uleb128 0x12
 8162 01d6 06       		.uleb128 0x6
 8163 01d7 40       		.uleb128 0x40
 8164 01d8 18       		.uleb128 0x18
 8165 01d9 9742     		.uleb128 0x2117
 8166 01db 19       		.uleb128 0x19
 8167 01dc 01       		.uleb128 0x1
 8168 01dd 13       		.uleb128 0x13
ARM GAS  C:\Users\Sava\AppData\Local\Temp\ccs9rGHG.s 			page 164


 8169 01de 00       		.byte	0
 8170 01df 00       		.byte	0
 8171 01e0 24       		.uleb128 0x24
 8172 01e1 05       		.uleb128 0x5
 8173 01e2 00       		.byte	0
 8174 01e3 03       		.uleb128 0x3
 8175 01e4 0E       		.uleb128 0xe
 8176 01e5 3A       		.uleb128 0x3a
 8177 01e6 0B       		.uleb128 0xb
 8178 01e7 3B       		.uleb128 0x3b
 8179 01e8 0B       		.uleb128 0xb
 8180 01e9 49       		.uleb128 0x49
 8181 01ea 13       		.uleb128 0x13
 8182 01eb 02       		.uleb128 0x2
 8183 01ec 17       		.uleb128 0x17
 8184 01ed 00       		.byte	0
 8185 01ee 00       		.byte	0
 8186 01ef 25       		.uleb128 0x25
 8187 01f0 34       		.uleb128 0x34
 8188 01f1 00       		.byte	0
 8189 01f2 03       		.uleb128 0x3
 8190 01f3 08       		.uleb128 0x8
 8191 01f4 3A       		.uleb128 0x3a
 8192 01f5 0B       		.uleb128 0xb
 8193 01f6 3B       		.uleb128 0x3b
 8194 01f7 0B       		.uleb128 0xb
 8195 01f8 49       		.uleb128 0x49
 8196 01f9 13       		.uleb128 0x13
 8197 01fa 02       		.uleb128 0x2
 8198 01fb 17       		.uleb128 0x17
 8199 01fc 00       		.byte	0
 8200 01fd 00       		.byte	0
 8201 01fe 26       		.uleb128 0x26
 8202 01ff 34       		.uleb128 0x34
 8203 0200 00       		.byte	0
 8204 0201 03       		.uleb128 0x3
 8205 0202 0E       		.uleb128 0xe
 8206 0203 3A       		.uleb128 0x3a
 8207 0204 0B       		.uleb128 0xb
 8208 0205 3B       		.uleb128 0x3b
 8209 0206 0B       		.uleb128 0xb
 8210 0207 49       		.uleb128 0x49
 8211 0208 13       		.uleb128 0x13
 8212 0209 02       		.uleb128 0x2
 8213 020a 18       		.uleb128 0x18
 8214 020b 00       		.byte	0
 8215 020c 00       		.byte	0
 8216 020d 27       		.uleb128 0x27
 8217 020e 34       		.uleb128 0x34
 8218 020f 00       		.byte	0
 8219 0210 03       		.uleb128 0x3
 8220 0211 0E       		.uleb128 0xe
 8221 0212 3A       		.uleb128 0x3a
 8222 0213 0B       		.uleb128 0xb
 8223 0214 3B       		.uleb128 0x3b
 8224 0215 0B       		.uleb128 0xb
 8225 0216 49       		.uleb128 0x49
ARM GAS  C:\Users\Sava\AppData\Local\Temp\ccs9rGHG.s 			page 165


 8226 0217 13       		.uleb128 0x13
 8227 0218 02       		.uleb128 0x2
 8228 0219 17       		.uleb128 0x17
 8229 021a 00       		.byte	0
 8230 021b 00       		.byte	0
 8231 021c 28       		.uleb128 0x28
 8232 021d 1D       		.uleb128 0x1d
 8233 021e 01       		.byte	0x1
 8234 021f 31       		.uleb128 0x31
 8235 0220 13       		.uleb128 0x13
 8236 0221 11       		.uleb128 0x11
 8237 0222 01       		.uleb128 0x1
 8238 0223 12       		.uleb128 0x12
 8239 0224 06       		.uleb128 0x6
 8240 0225 58       		.uleb128 0x58
 8241 0226 0B       		.uleb128 0xb
 8242 0227 59       		.uleb128 0x59
 8243 0228 0B       		.uleb128 0xb
 8244 0229 01       		.uleb128 0x1
 8245 022a 13       		.uleb128 0x13
 8246 022b 00       		.byte	0
 8247 022c 00       		.byte	0
 8248 022d 29       		.uleb128 0x29
 8249 022e 05       		.uleb128 0x5
 8250 022f 00       		.byte	0
 8251 0230 31       		.uleb128 0x31
 8252 0231 13       		.uleb128 0x13
 8253 0232 02       		.uleb128 0x2
 8254 0233 17       		.uleb128 0x17
 8255 0234 00       		.byte	0
 8256 0235 00       		.byte	0
 8257 0236 2A       		.uleb128 0x2a
 8258 0237 898201   		.uleb128 0x4109
 8259 023a 01       		.byte	0x1
 8260 023b 11       		.uleb128 0x11
 8261 023c 01       		.uleb128 0x1
 8262 023d 31       		.uleb128 0x31
 8263 023e 13       		.uleb128 0x13
 8264 023f 01       		.uleb128 0x1
 8265 0240 13       		.uleb128 0x13
 8266 0241 00       		.byte	0
 8267 0242 00       		.byte	0
 8268 0243 2B       		.uleb128 0x2b
 8269 0244 8A8201   		.uleb128 0x410a
 8270 0247 00       		.byte	0
 8271 0248 02       		.uleb128 0x2
 8272 0249 18       		.uleb128 0x18
 8273 024a 9142     		.uleb128 0x2111
 8274 024c 18       		.uleb128 0x18
 8275 024d 00       		.byte	0
 8276 024e 00       		.byte	0
 8277 024f 2C       		.uleb128 0x2c
 8278 0250 898201   		.uleb128 0x4109
 8279 0253 01       		.byte	0x1
 8280 0254 11       		.uleb128 0x11
 8281 0255 01       		.uleb128 0x1
 8282 0256 31       		.uleb128 0x31
ARM GAS  C:\Users\Sava\AppData\Local\Temp\ccs9rGHG.s 			page 166


 8283 0257 13       		.uleb128 0x13
 8284 0258 00       		.byte	0
 8285 0259 00       		.byte	0
 8286 025a 2D       		.uleb128 0x2d
 8287 025b 05       		.uleb128 0x5
 8288 025c 00       		.byte	0
 8289 025d 31       		.uleb128 0x31
 8290 025e 13       		.uleb128 0x13
 8291 025f 00       		.byte	0
 8292 0260 00       		.byte	0
 8293 0261 2E       		.uleb128 0x2e
 8294 0262 898201   		.uleb128 0x4109
 8295 0265 00       		.byte	0
 8296 0266 11       		.uleb128 0x11
 8297 0267 01       		.uleb128 0x1
 8298 0268 31       		.uleb128 0x31
 8299 0269 13       		.uleb128 0x13
 8300 026a 00       		.byte	0
 8301 026b 00       		.byte	0
 8302 026c 2F       		.uleb128 0x2f
 8303 026d 01       		.uleb128 0x1
 8304 026e 01       		.byte	0x1
 8305 026f 49       		.uleb128 0x49
 8306 0270 13       		.uleb128 0x13
 8307 0271 01       		.uleb128 0x1
 8308 0272 13       		.uleb128 0x13
 8309 0273 00       		.byte	0
 8310 0274 00       		.byte	0
 8311 0275 30       		.uleb128 0x30
 8312 0276 21       		.uleb128 0x21
 8313 0277 00       		.byte	0
 8314 0278 49       		.uleb128 0x49
 8315 0279 13       		.uleb128 0x13
 8316 027a 2F       		.uleb128 0x2f
 8317 027b 0B       		.uleb128 0xb
 8318 027c 00       		.byte	0
 8319 027d 00       		.byte	0
 8320 027e 31       		.uleb128 0x31
 8321 027f 34       		.uleb128 0x34
 8322 0280 00       		.byte	0
 8323 0281 03       		.uleb128 0x3
 8324 0282 08       		.uleb128 0x8
 8325 0283 3A       		.uleb128 0x3a
 8326 0284 0B       		.uleb128 0xb
 8327 0285 3B       		.uleb128 0x3b
 8328 0286 0B       		.uleb128 0xb
 8329 0287 49       		.uleb128 0x49
 8330 0288 13       		.uleb128 0x13
 8331 0289 00       		.byte	0
 8332 028a 00       		.byte	0
 8333 028b 32       		.uleb128 0x32
 8334 028c 34       		.uleb128 0x34
 8335 028d 00       		.byte	0
 8336 028e 03       		.uleb128 0x3
 8337 028f 0E       		.uleb128 0xe
 8338 0290 3A       		.uleb128 0x3a
 8339 0291 0B       		.uleb128 0xb
ARM GAS  C:\Users\Sava\AppData\Local\Temp\ccs9rGHG.s 			page 167


 8340 0292 3B       		.uleb128 0x3b
 8341 0293 05       		.uleb128 0x5
 8342 0294 49       		.uleb128 0x49
 8343 0295 13       		.uleb128 0x13
 8344 0296 02       		.uleb128 0x2
 8345 0297 17       		.uleb128 0x17
 8346 0298 00       		.byte	0
 8347 0299 00       		.byte	0
 8348 029a 33       		.uleb128 0x33
 8349 029b 34       		.uleb128 0x34
 8350 029c 00       		.byte	0
 8351 029d 03       		.uleb128 0x3
 8352 029e 08       		.uleb128 0x8
 8353 029f 3A       		.uleb128 0x3a
 8354 02a0 0B       		.uleb128 0xb
 8355 02a1 3B       		.uleb128 0x3b
 8356 02a2 05       		.uleb128 0x5
 8357 02a3 49       		.uleb128 0x49
 8358 02a4 13       		.uleb128 0x13
 8359 02a5 02       		.uleb128 0x2
 8360 02a6 17       		.uleb128 0x17
 8361 02a7 00       		.byte	0
 8362 02a8 00       		.byte	0
 8363 02a9 34       		.uleb128 0x34
 8364 02aa 34       		.uleb128 0x34
 8365 02ab 00       		.byte	0
 8366 02ac 03       		.uleb128 0x3
 8367 02ad 0E       		.uleb128 0xe
 8368 02ae 3A       		.uleb128 0x3a
 8369 02af 0B       		.uleb128 0xb
 8370 02b0 3B       		.uleb128 0x3b
 8371 02b1 05       		.uleb128 0x5
 8372 02b2 49       		.uleb128 0x49
 8373 02b3 13       		.uleb128 0x13
 8374 02b4 02       		.uleb128 0x2
 8375 02b5 18       		.uleb128 0x18
 8376 02b6 00       		.byte	0
 8377 02b7 00       		.byte	0
 8378 02b8 35       		.uleb128 0x35
 8379 02b9 1D       		.uleb128 0x1d
 8380 02ba 01       		.byte	0x1
 8381 02bb 31       		.uleb128 0x31
 8382 02bc 13       		.uleb128 0x13
 8383 02bd 11       		.uleb128 0x11
 8384 02be 01       		.uleb128 0x1
 8385 02bf 12       		.uleb128 0x12
 8386 02c0 06       		.uleb128 0x6
 8387 02c1 58       		.uleb128 0x58
 8388 02c2 0B       		.uleb128 0xb
 8389 02c3 59       		.uleb128 0x59
 8390 02c4 05       		.uleb128 0x5
 8391 02c5 01       		.uleb128 0x1
 8392 02c6 13       		.uleb128 0x13
 8393 02c7 00       		.byte	0
 8394 02c8 00       		.byte	0
 8395 02c9 36       		.uleb128 0x36
 8396 02ca 2E       		.uleb128 0x2e
ARM GAS  C:\Users\Sava\AppData\Local\Temp\ccs9rGHG.s 			page 168


 8397 02cb 01       		.byte	0x1
 8398 02cc 3F       		.uleb128 0x3f
 8399 02cd 19       		.uleb128 0x19
 8400 02ce 03       		.uleb128 0x3
 8401 02cf 0E       		.uleb128 0xe
 8402 02d0 3A       		.uleb128 0x3a
 8403 02d1 0B       		.uleb128 0xb
 8404 02d2 3B       		.uleb128 0x3b
 8405 02d3 0B       		.uleb128 0xb
 8406 02d4 27       		.uleb128 0x27
 8407 02d5 19       		.uleb128 0x19
 8408 02d6 11       		.uleb128 0x11
 8409 02d7 01       		.uleb128 0x1
 8410 02d8 12       		.uleb128 0x12
 8411 02d9 06       		.uleb128 0x6
 8412 02da 40       		.uleb128 0x40
 8413 02db 18       		.uleb128 0x18
 8414 02dc 9742     		.uleb128 0x2117
 8415 02de 19       		.uleb128 0x19
 8416 02df 01       		.uleb128 0x1
 8417 02e0 13       		.uleb128 0x13
 8418 02e1 00       		.byte	0
 8419 02e2 00       		.byte	0
 8420 02e3 37       		.uleb128 0x37
 8421 02e4 05       		.uleb128 0x5
 8422 02e5 00       		.byte	0
 8423 02e6 03       		.uleb128 0x3
 8424 02e7 08       		.uleb128 0x8
 8425 02e8 3A       		.uleb128 0x3a
 8426 02e9 0B       		.uleb128 0xb
 8427 02ea 3B       		.uleb128 0x3b
 8428 02eb 0B       		.uleb128 0xb
 8429 02ec 49       		.uleb128 0x49
 8430 02ed 13       		.uleb128 0x13
 8431 02ee 02       		.uleb128 0x2
 8432 02ef 17       		.uleb128 0x17
 8433 02f0 00       		.byte	0
 8434 02f1 00       		.byte	0
 8435 02f2 38       		.uleb128 0x38
 8436 02f3 34       		.uleb128 0x34
 8437 02f4 00       		.byte	0
 8438 02f5 03       		.uleb128 0x3
 8439 02f6 0E       		.uleb128 0xe
 8440 02f7 3A       		.uleb128 0x3a
 8441 02f8 0B       		.uleb128 0xb
 8442 02f9 3B       		.uleb128 0x3b
 8443 02fa 0B       		.uleb128 0xb
 8444 02fb 49       		.uleb128 0x49
 8445 02fc 13       		.uleb128 0x13
 8446 02fd 3F       		.uleb128 0x3f
 8447 02fe 19       		.uleb128 0x19
 8448 02ff 3C       		.uleb128 0x3c
 8449 0300 19       		.uleb128 0x19
 8450 0301 00       		.byte	0
 8451 0302 00       		.byte	0
 8452 0303 39       		.uleb128 0x39
 8453 0304 2E       		.uleb128 0x2e
ARM GAS  C:\Users\Sava\AppData\Local\Temp\ccs9rGHG.s 			page 169


 8454 0305 00       		.byte	0
 8455 0306 3F       		.uleb128 0x3f
 8456 0307 19       		.uleb128 0x19
 8457 0308 3C       		.uleb128 0x3c
 8458 0309 19       		.uleb128 0x19
 8459 030a 6E       		.uleb128 0x6e
 8460 030b 0E       		.uleb128 0xe
 8461 030c 03       		.uleb128 0x3
 8462 030d 0E       		.uleb128 0xe
 8463 030e 3A       		.uleb128 0x3a
 8464 030f 0B       		.uleb128 0xb
 8465 0310 3B       		.uleb128 0x3b
 8466 0311 0B       		.uleb128 0xb
 8467 0312 00       		.byte	0
 8468 0313 00       		.byte	0
 8469 0314 3A       		.uleb128 0x3a
 8470 0315 2E       		.uleb128 0x2e
 8471 0316 00       		.byte	0
 8472 0317 3F       		.uleb128 0x3f
 8473 0318 19       		.uleb128 0x19
 8474 0319 3C       		.uleb128 0x3c
 8475 031a 19       		.uleb128 0x19
 8476 031b 6E       		.uleb128 0x6e
 8477 031c 0E       		.uleb128 0xe
 8478 031d 03       		.uleb128 0x3
 8479 031e 0E       		.uleb128 0xe
 8480 031f 3A       		.uleb128 0x3a
 8481 0320 0B       		.uleb128 0xb
 8482 0321 3B       		.uleb128 0x3b
 8483 0322 05       		.uleb128 0x5
 8484 0323 00       		.byte	0
 8485 0324 00       		.byte	0
 8486 0325 00       		.byte	0
 8487              		.section	.debug_loc,"",%progbits
 8488              	.Ldebug_loc0:
 8489              	.LLST0:
 8490 0000 00000000 		.4byte	.LVL0
 8491 0004 09000000 		.4byte	.LVL2-1
 8492 0008 0100     		.2byte	0x1
 8493 000a 50       		.byte	0x50
 8494 000b 09000000 		.4byte	.LVL2-1
 8495 000f 2E020000 		.4byte	.LVL86
 8496 0013 0100     		.2byte	0x1
 8497 0015 57       		.byte	0x57
 8498 0016 2E020000 		.4byte	.LVL86
 8499 001a 78030000 		.4byte	.LFE108
 8500 001e 0400     		.2byte	0x4
 8501 0020 F3       		.byte	0xf3
 8502 0021 01       		.uleb128 0x1
 8503 0022 50       		.byte	0x50
 8504 0023 9F       		.byte	0x9f
 8505 0024 00000000 		.4byte	0
 8506 0028 00000000 		.4byte	0
 8507              	.LLST1:
 8508 002c 16000000 		.4byte	.LVL5
 8509 0030 20000000 		.4byte	.LVL6
 8510 0034 0100     		.2byte	0x1
ARM GAS  C:\Users\Sava\AppData\Local\Temp\ccs9rGHG.s 			page 170


 8511 0036 50       		.byte	0x50
 8512 0037 20000000 		.4byte	.LVL6
 8513 003b 16020000 		.4byte	.LVL82
 8514 003f 0100     		.2byte	0x1
 8515 0041 55       		.byte	0x55
 8516 0042 00000000 		.4byte	0
 8517 0046 00000000 		.4byte	0
 8518              	.LLST2:
 8519 004a 38000000 		.4byte	.LVL9
 8520 004e 3D000000 		.4byte	.LVL10-1
 8521 0052 0100     		.2byte	0x1
 8522 0054 50       		.byte	0x50
 8523 0055 3D000000 		.4byte	.LVL10-1
 8524 0059 62010000 		.4byte	.LVL53
 8525 005d 0100     		.2byte	0x1
 8526 005f 54       		.byte	0x54
 8527 0060 62010000 		.4byte	.LVL53
 8528 0064 67010000 		.4byte	.LVL54-1
 8529 0068 0100     		.2byte	0x1
 8530 006a 50       		.byte	0x50
 8531 006b 67010000 		.4byte	.LVL54-1
 8532 006f 2E020000 		.4byte	.LVL86
 8533 0073 0100     		.2byte	0x1
 8534 0075 54       		.byte	0x54
 8535 0076 2E020000 		.4byte	.LVL86
 8536 007a 33020000 		.4byte	.LVL87-1
 8537 007e 0100     		.2byte	0x1
 8538 0080 50       		.byte	0x50
 8539 0081 33020000 		.4byte	.LVL87-1
 8540 0085 F6020000 		.4byte	.LVL111
 8541 0089 0100     		.2byte	0x1
 8542 008b 57       		.byte	0x57
 8543 008c 00000000 		.4byte	0
 8544 0090 00000000 		.4byte	0
 8545              	.LLST3:
 8546 0094 62000000 		.4byte	.LVL15
 8547 0098 69000000 		.4byte	.LVL16-1
 8548 009c 0100     		.2byte	0x1
 8549 009e 50       		.byte	0x50
 8550 009f 69000000 		.4byte	.LVL16-1
 8551 00a3 BC000000 		.4byte	.LVL26
 8552 00a7 0100     		.2byte	0x1
 8553 00a9 56       		.byte	0x56
 8554 00aa BC000000 		.4byte	.LVL26
 8555 00ae BF000000 		.4byte	.LVL27-1
 8556 00b2 0100     		.2byte	0x1
 8557 00b4 50       		.byte	0x50
 8558 00b5 BF000000 		.4byte	.LVL27-1
 8559 00b9 D8000000 		.4byte	.LVL31
 8560 00bd 0100     		.2byte	0x1
 8561 00bf 56       		.byte	0x56
 8562 00c0 D8000000 		.4byte	.LVL31
 8563 00c4 DD000000 		.4byte	.LVL32-1
 8564 00c8 0100     		.2byte	0x1
 8565 00ca 50       		.byte	0x50
 8566 00cb DD000000 		.4byte	.LVL32-1
 8567 00cf F6000000 		.4byte	.LVL36
ARM GAS  C:\Users\Sava\AppData\Local\Temp\ccs9rGHG.s 			page 171


 8568 00d3 0100     		.2byte	0x1
 8569 00d5 56       		.byte	0x56
 8570 00d6 00000000 		.4byte	0
 8571 00da 00000000 		.4byte	0
 8572              	.LLST4:
 8573 00de AC000000 		.4byte	.LVL23
 8574 00e2 B1000000 		.4byte	.LVL24-1
 8575 00e6 0100     		.2byte	0x1
 8576 00e8 50       		.byte	0x50
 8577 00e9 C8000000 		.4byte	.LVL28
 8578 00ed CD000000 		.4byte	.LVL29-1
 8579 00f1 0100     		.2byte	0x1
 8580 00f3 50       		.byte	0x50
 8581 00f4 E6000000 		.4byte	.LVL33
 8582 00f8 EB000000 		.4byte	.LVL34-1
 8583 00fc 0100     		.2byte	0x1
 8584 00fe 50       		.byte	0x50
 8585 00ff 00000000 		.4byte	0
 8586 0103 00000000 		.4byte	0
 8587              	.LLST5:
 8588 0107 F6000000 		.4byte	.LVL36
 8589 010b FB000000 		.4byte	.LVL37-1
 8590 010f 0100     		.2byte	0x1
 8591 0111 50       		.byte	0x50
 8592 0112 FB000000 		.4byte	.LVL37-1
 8593 0116 0E010000 		.4byte	.LVL40
 8594 011a 0100     		.2byte	0x1
 8595 011c 56       		.byte	0x56
 8596 011d 0E010000 		.4byte	.LVL40
 8597 0121 13010000 		.4byte	.LVL41-1
 8598 0125 0100     		.2byte	0x1
 8599 0127 50       		.byte	0x50
 8600 0128 13010000 		.4byte	.LVL41-1
 8601 012c 26010000 		.4byte	.LVL44
 8602 0130 0100     		.2byte	0x1
 8603 0132 56       		.byte	0x56
 8604 0133 26010000 		.4byte	.LVL44
 8605 0137 2B010000 		.4byte	.LVL45-1
 8606 013b 0100     		.2byte	0x1
 8607 013d 50       		.byte	0x50
 8608 013e 2B010000 		.4byte	.LVL45-1
 8609 0142 3E010000 		.4byte	.LVL48
 8610 0146 0100     		.2byte	0x1
 8611 0148 56       		.byte	0x56
 8612 0149 00000000 		.4byte	0
 8613 014d 00000000 		.4byte	0
 8614              	.LLST6:
 8615 0151 3E010000 		.4byte	.LVL48
 8616 0155 45010000 		.4byte	.LVL49-1
 8617 0159 0100     		.2byte	0x1
 8618 015b 50       		.byte	0x50
 8619 015c 45010000 		.4byte	.LVL49-1
 8620 0160 6A010000 		.4byte	.LVL55
 8621 0164 0100     		.2byte	0x1
 8622 0166 56       		.byte	0x56
 8623 0167 00000000 		.4byte	0
 8624 016b 00000000 		.4byte	0
ARM GAS  C:\Users\Sava\AppData\Local\Temp\ccs9rGHG.s 			page 172


 8625              	.LLST7:
 8626 016f 6A010000 		.4byte	.LVL55
 8627 0173 6F010000 		.4byte	.LVL56-1
 8628 0177 0100     		.2byte	0x1
 8629 0179 50       		.byte	0x50
 8630 017a 6F010000 		.4byte	.LVL56-1
 8631 017e C4010000 		.4byte	.LVL69
 8632 0182 0100     		.2byte	0x1
 8633 0184 56       		.byte	0x56
 8634 0185 00000000 		.4byte	0
 8635 0189 00000000 		.4byte	0
 8636              	.LLST8:
 8637 018d 92010000 		.4byte	.LVL60
 8638 0191 96010000 		.4byte	.LVL61
 8639 0195 0100     		.2byte	0x1
 8640 0197 50       		.byte	0x50
 8641 0198 96010000 		.4byte	.LVL61
 8642 019c 99010000 		.4byte	.LVL62-1
 8643 01a0 0100     		.2byte	0x1
 8644 01a2 51       		.byte	0x51
 8645 01a3 9A010000 		.4byte	.LVL62
 8646 01a7 9D010000 		.4byte	.LVL63-1
 8647 01ab 0100     		.2byte	0x1
 8648 01ad 50       		.byte	0x50
 8649 01ae 00000000 		.4byte	0
 8650 01b2 00000000 		.4byte	0
 8651              	.LLST9:
 8652 01b6 A6010000 		.4byte	.LVL64
 8653 01ba AB010000 		.4byte	.LVL65-1
 8654 01be 0100     		.2byte	0x1
 8655 01c0 50       		.byte	0x50
 8656 01c1 00000000 		.4byte	0
 8657 01c5 00000000 		.4byte	0
 8658              	.LLST10:
 8659 01c9 B4010000 		.4byte	.LVL66
 8660 01cd B9010000 		.4byte	.LVL67-1
 8661 01d1 0100     		.2byte	0x1
 8662 01d3 50       		.byte	0x50
 8663 01d4 00000000 		.4byte	0
 8664 01d8 00000000 		.4byte	0
 8665              	.LLST11:
 8666 01dc C4010000 		.4byte	.LVL69
 8667 01e0 CB010000 		.4byte	.LVL70-1
 8668 01e4 0100     		.2byte	0x1
 8669 01e6 50       		.byte	0x50
 8670 01e7 CB010000 		.4byte	.LVL70-1
 8671 01eb DE010000 		.4byte	.LVL73
 8672 01ef 0100     		.2byte	0x1
 8673 01f1 56       		.byte	0x56
 8674 01f2 00000000 		.4byte	0
 8675 01f6 00000000 		.4byte	0
 8676              	.LLST12:
 8677 01fa DE010000 		.4byte	.LVL73
 8678 01fe E5010000 		.4byte	.LVL74-1
 8679 0202 0100     		.2byte	0x1
 8680 0204 50       		.byte	0x50
 8681 0205 E5010000 		.4byte	.LVL74-1
ARM GAS  C:\Users\Sava\AppData\Local\Temp\ccs9rGHG.s 			page 173


 8682 0209 38020000 		.4byte	.LVL89
 8683 020d 0100     		.2byte	0x1
 8684 020f 56       		.byte	0x56
 8685 0210 00000000 		.4byte	0
 8686 0214 00000000 		.4byte	0
 8687              	.LLST13:
 8688 0218 FE010000 		.4byte	.LVL77
 8689 021c 02020000 		.4byte	.LVL78
 8690 0220 0100     		.2byte	0x1
 8691 0222 50       		.byte	0x50
 8692 0223 02020000 		.4byte	.LVL78
 8693 0227 05020000 		.4byte	.LVL79-1
 8694 022b 0100     		.2byte	0x1
 8695 022d 51       		.byte	0x51
 8696 022e 06020000 		.4byte	.LVL79
 8697 0232 0B020000 		.4byte	.LVL80-1
 8698 0236 0100     		.2byte	0x1
 8699 0238 50       		.byte	0x50
 8700 0239 00000000 		.4byte	0
 8701 023d 00000000 		.4byte	0
 8702              	.LLST14:
 8703 0241 16020000 		.4byte	.LVL82
 8704 0245 1B020000 		.4byte	.LVL83-1
 8705 0249 0100     		.2byte	0x1
 8706 024b 50       		.byte	0x50
 8707 024c 1B020000 		.4byte	.LVL83-1
 8708 0250 3A020000 		.4byte	.LVL90
 8709 0254 0100     		.2byte	0x1
 8710 0256 55       		.byte	0x55
 8711 0257 00000000 		.4byte	0
 8712 025b 00000000 		.4byte	0
 8713              	.LLST15:
 8714 025f 36020000 		.4byte	.LVL88
 8715 0263 43020000 		.4byte	.LVL91-1
 8716 0267 0100     		.2byte	0x1
 8717 0269 50       		.byte	0x50
 8718 026a 43020000 		.4byte	.LVL91-1
 8719 026e DA020000 		.4byte	.LVL107
 8720 0272 0100     		.2byte	0x1
 8721 0274 54       		.byte	0x54
 8722 0275 00000000 		.4byte	0
 8723 0279 00000000 		.4byte	0
 8724              	.LLST16:
 8725 027d 46020000 		.4byte	.LVL92
 8726 0281 4C020000 		.4byte	.LVL93
 8727 0285 0100     		.2byte	0x1
 8728 0287 50       		.byte	0x50
 8729 0288 4C020000 		.4byte	.LVL93
 8730 028c F6020000 		.4byte	.LVL111
 8731 0290 0100     		.2byte	0x1
 8732 0292 58       		.byte	0x58
 8733 0293 00000000 		.4byte	0
 8734 0297 00000000 		.4byte	0
 8735              	.LLST17:
 8736 029b DA020000 		.4byte	.LVL107
 8737 029f DF020000 		.4byte	.LVL108-1
 8738 02a3 0100     		.2byte	0x1
ARM GAS  C:\Users\Sava\AppData\Local\Temp\ccs9rGHG.s 			page 174


 8739 02a5 50       		.byte	0x50
 8740 02a6 DF020000 		.4byte	.LVL108-1
 8741 02aa F6020000 		.4byte	.LVL111
 8742 02ae 0100     		.2byte	0x1
 8743 02b0 54       		.byte	0x54
 8744 02b1 00000000 		.4byte	0
 8745 02b5 00000000 		.4byte	0
 8746              	.LLST18:
 8747 02b9 06000000 		.4byte	.LVL1
 8748 02bd 10000000 		.4byte	.LVL3
 8749 02c1 0200     		.2byte	0x2
 8750 02c3 38       		.byte	0x38
 8751 02c4 9F       		.byte	0x9f
 8752 02c5 00000000 		.4byte	0
 8753 02c9 00000000 		.4byte	0
 8754              	.LLST19:
 8755 02cd 06000000 		.4byte	.LVL1
 8756 02d1 09000000 		.4byte	.LVL2-1
 8757 02d5 0100     		.2byte	0x1
 8758 02d7 50       		.byte	0x50
 8759 02d8 09000000 		.4byte	.LVL2-1
 8760 02dc 10000000 		.4byte	.LVL3
 8761 02e0 0100     		.2byte	0x1
 8762 02e2 57       		.byte	0x57
 8763 02e3 00000000 		.4byte	0
 8764 02e7 00000000 		.4byte	0
 8765              	.LLST20:
 8766 02eb 92000000 		.4byte	.LVL20
 8767 02ef 9C000000 		.4byte	.LVL21
 8768 02f3 0200     		.2byte	0x2
 8769 02f5 31       		.byte	0x31
 8770 02f6 9F       		.byte	0x9f
 8771 02f7 00000000 		.4byte	0
 8772 02fb 00000000 		.4byte	0
 8773              	.LLST22:
 8774 02ff 92000000 		.4byte	.LVL20
 8775 0303 9C000000 		.4byte	.LVL21
 8776 0307 0100     		.2byte	0x1
 8777 0309 56       		.byte	0x56
 8778 030a 00000000 		.4byte	0
 8779 030e 00000000 		.4byte	0
 8780              	.LLST23:
 8781 0312 6A010000 		.4byte	.LVL55
 8782 0316 6F010000 		.4byte	.LVL56-1
 8783 031a 0100     		.2byte	0x1
 8784 031c 50       		.byte	0x50
 8785 031d 6F010000 		.4byte	.LVL56-1
 8786 0321 70010000 		.4byte	.LVL56
 8787 0325 0100     		.2byte	0x1
 8788 0327 56       		.byte	0x56
 8789 0328 00000000 		.4byte	0
 8790 032c 00000000 		.4byte	0
 8791              	.LLST24:
 8792 0330 CC010000 		.4byte	.LVL70
 8793 0334 D3010000 		.4byte	.LVL71-1
 8794 0338 0300     		.2byte	0x3
 8795 033a 75       		.byte	0x75
ARM GAS  C:\Users\Sava\AppData\Local\Temp\ccs9rGHG.s 			page 175


 8796 033b C800     		.sleb128 72
 8797 033d 00000000 		.4byte	0
 8798 0341 00000000 		.4byte	0
 8799              	.LLST25:
 8800 0345 CC010000 		.4byte	.LVL70
 8801 0349 D4010000 		.4byte	.LVL71
 8802 034d 0100     		.2byte	0x1
 8803 034f 56       		.byte	0x56
 8804 0350 00000000 		.4byte	0
 8805 0354 00000000 		.4byte	0
 8806              	.LLST26:
 8807 0358 DA020000 		.4byte	.LVL107
 8808 035c E0020000 		.4byte	.LVL108
 8809 0360 0600     		.2byte	0x6
 8810 0362 03       		.byte	0x3
 8811 0363 B4000000 		.4byte	.LC27
 8812 0367 9F       		.byte	0x9f
 8813 0368 00000000 		.4byte	0
 8814 036c 00000000 		.4byte	0
 8815              	.LLST27:
 8816 0370 DA020000 		.4byte	.LVL107
 8817 0374 DF020000 		.4byte	.LVL108-1
 8818 0378 0100     		.2byte	0x1
 8819 037a 50       		.byte	0x50
 8820 037b DF020000 		.4byte	.LVL108-1
 8821 037f E0020000 		.4byte	.LVL108
 8822 0383 0100     		.2byte	0x1
 8823 0385 54       		.byte	0x54
 8824 0386 00000000 		.4byte	0
 8825 038a 00000000 		.4byte	0
 8826              	.LLST28:
 8827 038e 00000000 		.4byte	.LVL112
 8828 0392 0B000000 		.4byte	.LVL114-1
 8829 0396 0100     		.2byte	0x1
 8830 0398 50       		.byte	0x50
 8831 0399 0B000000 		.4byte	.LVL114-1
 8832 039d 76010000 		.4byte	.LVL153
 8833 03a1 0100     		.2byte	0x1
 8834 03a3 58       		.byte	0x58
 8835 03a4 76010000 		.4byte	.LVL153
 8836 03a8 7C010000 		.4byte	.LFE109
 8837 03ac 0400     		.2byte	0x4
 8838 03ae F3       		.byte	0xf3
 8839 03af 01       		.uleb128 0x1
 8840 03b0 50       		.byte	0x50
 8841 03b1 9F       		.byte	0x9f
 8842 03b2 00000000 		.4byte	0
 8843 03b6 00000000 		.4byte	0
 8844              	.LLST29:
 8845 03ba 1C000000 		.4byte	.LVL118
 8846 03be 2F000000 		.4byte	.LVL119-1
 8847 03c2 0100     		.2byte	0x1
 8848 03c4 50       		.byte	0x50
 8849 03c5 2F000000 		.4byte	.LVL119-1
 8850 03c9 00010000 		.4byte	.LVL142
 8851 03cd 0100     		.2byte	0x1
 8852 03cf 54       		.byte	0x54
ARM GAS  C:\Users\Sava\AppData\Local\Temp\ccs9rGHG.s 			page 176


 8853 03d0 00000000 		.4byte	0
 8854 03d4 00000000 		.4byte	0
 8855              	.LLST30:
 8856 03d8 46000000 		.4byte	.LVL122
 8857 03dc 4C000000 		.4byte	.LVL123
 8858 03e0 0100     		.2byte	0x1
 8859 03e2 50       		.byte	0x50
 8860 03e3 4C000000 		.4byte	.LVL123
 8861 03e7 4F000000 		.4byte	.LVL124-1
 8862 03eb 0100     		.2byte	0x1
 8863 03ed 51       		.byte	0x51
 8864 03ee 4F000000 		.4byte	.LVL124-1
 8865 03f2 B4000000 		.4byte	.LVL135
 8866 03f6 0100     		.2byte	0x1
 8867 03f8 55       		.byte	0x55
 8868 03f9 00000000 		.4byte	0
 8869 03fd 00000000 		.4byte	0
 8870              	.LLST31:
 8871 0401 B4000000 		.4byte	.LVL135
 8872 0405 BB000000 		.4byte	.LVL136-1
 8873 0409 0100     		.2byte	0x1
 8874 040b 50       		.byte	0x50
 8875 040c BB000000 		.4byte	.LVL136-1
 8876 0410 2C010000 		.4byte	.LVL147
 8877 0414 0100     		.2byte	0x1
 8878 0416 55       		.byte	0x55
 8879 0417 00000000 		.4byte	0
 8880 041b 00000000 		.4byte	0
 8881              	.LLST32:
 8882 041f E8000000 		.4byte	.LVL139
 8883 0423 F5000000 		.4byte	.LVL140-1
 8884 0427 0100     		.2byte	0x1
 8885 0429 50       		.byte	0x50
 8886 042a 00000000 		.4byte	0
 8887 042e 00000000 		.4byte	0
 8888              	.LLST33:
 8889 0432 00010000 		.4byte	.LVL142
 8890 0436 07010000 		.4byte	.LVL143-1
 8891 043a 0100     		.2byte	0x1
 8892 043c 50       		.byte	0x50
 8893 043d 07010000 		.4byte	.LVL143-1
 8894 0441 76010000 		.4byte	.LVL153
 8895 0445 0100     		.2byte	0x1
 8896 0447 54       		.byte	0x54
 8897 0448 00000000 		.4byte	0
 8898 044c 00000000 		.4byte	0
 8899              	.LLST34:
 8900 0450 2C010000 		.4byte	.LVL147
 8901 0454 3F010000 		.4byte	.LVL148-1
 8902 0458 0100     		.2byte	0x1
 8903 045a 50       		.byte	0x50
 8904 045b 3F010000 		.4byte	.LVL148-1
 8905 045f 76010000 		.4byte	.LVL153
 8906 0463 0100     		.2byte	0x1
 8907 0465 55       		.byte	0x55
 8908 0466 00000000 		.4byte	0
 8909 046a 00000000 		.4byte	0
ARM GAS  C:\Users\Sava\AppData\Local\Temp\ccs9rGHG.s 			page 177


 8910              	.LLST35:
 8911 046e 60010000 		.4byte	.LVL151
 8912 0472 6F010000 		.4byte	.LVL152-1
 8913 0476 0100     		.2byte	0x1
 8914 0478 50       		.byte	0x50
 8915 0479 00000000 		.4byte	0
 8916 047d 00000000 		.4byte	0
 8917              	.LLST36:
 8918 0481 08000000 		.4byte	.LVL113
 8919 0485 0B000000 		.4byte	.LVL114-1
 8920 0489 0100     		.2byte	0x1
 8921 048b 50       		.byte	0x50
 8922 048c 0B000000 		.4byte	.LVL114-1
 8923 0490 12000000 		.4byte	.LVL116
 8924 0494 0100     		.2byte	0x1
 8925 0496 58       		.byte	0x58
 8926 0497 00000000 		.4byte	0
 8927 049b 00000000 		.4byte	0
 8928              	.LLST37:
 8929 049f 00000000 		.4byte	.LVL154
 8930 04a3 0D000000 		.4byte	.LVL155-1
 8931 04a7 0100     		.2byte	0x1
 8932 04a9 50       		.byte	0x50
 8933 04aa 0D000000 		.4byte	.LVL155-1
 8934 04ae 7E010000 		.4byte	.LVL201
 8935 04b2 0100     		.2byte	0x1
 8936 04b4 58       		.byte	0x58
 8937 04b5 7E010000 		.4byte	.LVL201
 8938 04b9 A0010000 		.4byte	.LFE110
 8939 04bd 0400     		.2byte	0x4
 8940 04bf F3       		.byte	0xf3
 8941 04c0 01       		.uleb128 0x1
 8942 04c1 50       		.byte	0x50
 8943 04c2 9F       		.byte	0x9f
 8944 04c3 00000000 		.4byte	0
 8945 04c7 00000000 		.4byte	0
 8946              	.LLST38:
 8947 04cb 10000000 		.4byte	.LVL156
 8948 04cf 17000000 		.4byte	.LVL157-1
 8949 04d3 0100     		.2byte	0x1
 8950 04d5 50       		.byte	0x50
 8951 04d6 17000000 		.4byte	.LVL157-1
 8952 04da 3C010000 		.4byte	.LVL192
 8953 04de 0100     		.2byte	0x1
 8954 04e0 54       		.byte	0x54
 8955 04e1 00000000 		.4byte	0
 8956 04e5 00000000 		.4byte	0
 8957              	.LLST39:
 8958 04e9 48000000 		.4byte	.LVL163
 8959 04ed 4D000000 		.4byte	.LVL164-1
 8960 04f1 0100     		.2byte	0x1
 8961 04f3 50       		.byte	0x50
 8962 04f4 4D000000 		.4byte	.LVL164-1
 8963 04f8 7A000000 		.4byte	.LVL171
 8964 04fc 0100     		.2byte	0x1
 8965 04fe 55       		.byte	0x55
 8966 04ff D8000000 		.4byte	.LVL183
ARM GAS  C:\Users\Sava\AppData\Local\Temp\ccs9rGHG.s 			page 178


 8967 0503 DD000000 		.4byte	.LVL184-1
 8968 0507 0100     		.2byte	0x1
 8969 0509 50       		.byte	0x50
 8970 050a 00000000 		.4byte	0
 8971 050e 00000000 		.4byte	0
 8972              	.LLST40:
 8973 0512 58000000 		.4byte	.LVL166
 8974 0516 65000000 		.4byte	.LVL167-1
 8975 051a 0100     		.2byte	0x1
 8976 051c 50       		.byte	0x50
 8977 051d 65000000 		.4byte	.LVL167-1
 8978 0521 96000000 		.4byte	.LVL175
 8979 0525 0100     		.2byte	0x1
 8980 0527 59       		.byte	0x59
 8981 0528 00000000 		.4byte	0
 8982 052c 00000000 		.4byte	0
 8983              	.LLST41:
 8984 0530 78000000 		.4byte	.LVL170
 8985 0534 85000000 		.4byte	.LVL172-1
 8986 0538 0100     		.2byte	0x1
 8987 053a 50       		.byte	0x50
 8988 053b 85000000 		.4byte	.LVL172-1
 8989 053f B2000000 		.4byte	.LVL179
 8990 0543 0100     		.2byte	0x1
 8991 0545 57       		.byte	0x57
 8992 0546 00000000 		.4byte	0
 8993 054a 00000000 		.4byte	0
 8994              	.LLST42:
 8995 054e 96000000 		.4byte	.LVL175
 8996 0552 A1000000 		.4byte	.LVL176-1
 8997 0556 0100     		.2byte	0x1
 8998 0558 50       		.byte	0x50
 8999 0559 A1000000 		.4byte	.LVL176-1
 9000 055d 7E010000 		.4byte	.LVL201
 9001 0561 0100     		.2byte	0x1
 9002 0563 59       		.byte	0x59
 9003 0564 00000000 		.4byte	0
 9004 0568 00000000 		.4byte	0
 9005              	.LLST43:
 9006 056c B2000000 		.4byte	.LVL179
 9007 0570 B9000000 		.4byte	.LVL180-1
 9008 0574 0100     		.2byte	0x1
 9009 0576 50       		.byte	0x50
 9010 0577 B9000000 		.4byte	.LVL180-1
 9011 057b 7E010000 		.4byte	.LVL201
 9012 057f 0100     		.2byte	0x1
 9013 0581 57       		.byte	0x57
 9014 0582 00000000 		.4byte	0
 9015 0586 00000000 		.4byte	0
 9016              	.LLST44:
 9017 058a F6000000 		.4byte	.LVL188
 9018 058e FD000000 		.4byte	.LVL189-1
 9019 0592 0100     		.2byte	0x1
 9020 0594 50       		.byte	0x50
 9021 0595 FD000000 		.4byte	.LVL189-1
 9022 0599 7E010000 		.4byte	.LVL201
 9023 059d 0100     		.2byte	0x1
ARM GAS  C:\Users\Sava\AppData\Local\Temp\ccs9rGHG.s 			page 179


 9024 059f 56       		.byte	0x56
 9025 05a0 00000000 		.4byte	0
 9026 05a4 00000000 		.4byte	0
 9027              	.LLST45:
 9028 05a8 60010000 		.4byte	.LVL197
 9029 05ac 65010000 		.4byte	.LVL198-1
 9030 05b0 0100     		.2byte	0x1
 9031 05b2 50       		.byte	0x50
 9032 05b3 65010000 		.4byte	.LVL198-1
 9033 05b7 7E010000 		.4byte	.LVL201
 9034 05bb 0100     		.2byte	0x1
 9035 05bd 54       		.byte	0x54
 9036 05be 00000000 		.4byte	0
 9037 05c2 00000000 		.4byte	0
 9038              	.LLST46:
 9039 05c6 DE000000 		.4byte	.LVL184
 9040 05ca EC000000 		.4byte	.LVL186
 9041 05ce 0200     		.2byte	0x2
 9042 05d0 31       		.byte	0x31
 9043 05d1 9F       		.byte	0x9f
 9044 05d2 00000000 		.4byte	0
 9045 05d6 00000000 		.4byte	0
 9046              	.LLST48:
 9047 05da DE000000 		.4byte	.LVL184
 9048 05de EC000000 		.4byte	.LVL186
 9049 05e2 0100     		.2byte	0x1
 9050 05e4 57       		.byte	0x57
 9051 05e5 00000000 		.4byte	0
 9052 05e9 00000000 		.4byte	0
 9053              	.LLST49:
 9054 05ed 00000000 		.4byte	.LVL202
 9055 05f1 05000000 		.4byte	.LVL203-1
 9056 05f5 0100     		.2byte	0x1
 9057 05f7 50       		.byte	0x50
 9058 05f8 05000000 		.4byte	.LVL203-1
 9059 05fc 0C000000 		.4byte	.LVL205
 9060 0600 0400     		.2byte	0x4
 9061 0602 F3       		.byte	0xf3
 9062 0603 01       		.uleb128 0x1
 9063 0604 50       		.byte	0x50
 9064 0605 9F       		.byte	0x9f
 9065 0606 0C000000 		.4byte	.LVL205
 9066 060a 10000000 		.4byte	.LVL206
 9067 060e 0100     		.2byte	0x1
 9068 0610 50       		.byte	0x50
 9069 0611 10000000 		.4byte	.LVL206
 9070 0615 4A000000 		.4byte	.LVL218
 9071 0619 0100     		.2byte	0x1
 9072 061b 55       		.byte	0x55
 9073 061c 00000000 		.4byte	0
 9074 0620 00000000 		.4byte	0
 9075              	.LLST50:
 9076 0624 16000000 		.4byte	.LVL208
 9077 0628 19000000 		.4byte	.LVL209-1
 9078 062c 0100     		.2byte	0x1
 9079 062e 50       		.byte	0x50
 9080 062f 19000000 		.4byte	.LVL209-1
ARM GAS  C:\Users\Sava\AppData\Local\Temp\ccs9rGHG.s 			page 180


 9081 0633 2C000000 		.4byte	.LVL212
 9082 0637 0100     		.2byte	0x1
 9083 0639 54       		.byte	0x54
 9084 063a 00000000 		.4byte	0
 9085 063e 00000000 		.4byte	0
 9086              	.LLST51:
 9087 0642 2C000000 		.4byte	.LVL212
 9088 0646 35000000 		.4byte	.LVL213-1
 9089 064a 0100     		.2byte	0x1
 9090 064c 50       		.byte	0x50
 9091 064d 35000000 		.4byte	.LVL213-1
 9092 0651 54000000 		.4byte	.LVL221
 9093 0655 0100     		.2byte	0x1
 9094 0657 54       		.byte	0x54
 9095 0658 00000000 		.4byte	0
 9096 065c 00000000 		.4byte	0
 9097              	.LLST52:
 9098 0660 40000000 		.4byte	.LVL215
 9099 0664 44000000 		.4byte	.LVL216
 9100 0668 0100     		.2byte	0x1
 9101 066a 50       		.byte	0x50
 9102 066b 44000000 		.4byte	.LVL216
 9103 066f 68000000 		.4byte	.LVL226
 9104 0673 0100     		.2byte	0x1
 9105 0675 56       		.byte	0x56
 9106 0676 00000000 		.4byte	0
 9107 067a 00000000 		.4byte	0
 9108              	.LLST53:
 9109 067e 4A000000 		.4byte	.LVL218
 9110 0682 4E000000 		.4byte	.LVL219
 9111 0686 0100     		.2byte	0x1
 9112 0688 50       		.byte	0x50
 9113 0689 4E000000 		.4byte	.LVL219
 9114 068d 68000000 		.4byte	.LVL226
 9115 0691 0100     		.2byte	0x1
 9116 0693 55       		.byte	0x55
 9117 0694 00000000 		.4byte	0
 9118 0698 00000000 		.4byte	0
 9119              	.LLST54:
 9120 069c 54000000 		.4byte	.LVL221
 9121 06a0 56000000 		.4byte	.LVL222
 9122 06a4 0100     		.2byte	0x1
 9123 06a6 50       		.byte	0x50
 9124 06a7 56000000 		.4byte	.LVL222
 9125 06ab 68000000 		.4byte	.LVL226
 9126 06af 0100     		.2byte	0x1
 9127 06b1 54       		.byte	0x54
 9128 06b2 00000000 		.4byte	0
 9129 06b6 00000000 		.4byte	0
 9130              	.LLST55:
 9131 06ba 1A000000 		.4byte	.LVL209
 9132 06be 21000000 		.4byte	.LVL210-1
 9133 06c2 0200     		.2byte	0x2
 9134 06c4 75       		.byte	0x75
 9135 06c5 00       		.sleb128 0
 9136 06c6 00000000 		.4byte	0
 9137 06ca 00000000 		.4byte	0
ARM GAS  C:\Users\Sava\AppData\Local\Temp\ccs9rGHG.s 			page 181


 9138              	.LLST56:
 9139 06ce 1A000000 		.4byte	.LVL209
 9140 06d2 22000000 		.4byte	.LVL210
 9141 06d6 0100     		.2byte	0x1
 9142 06d8 54       		.byte	0x54
 9143 06d9 00000000 		.4byte	0
 9144 06dd 00000000 		.4byte	0
 9145              		.section	.debug_aranges,"",%progbits
 9146 0000 34000000 		.4byte	0x34
 9147 0004 0200     		.2byte	0x2
 9148 0006 00000000 		.4byte	.Ldebug_info0
 9149 000a 04       		.byte	0x4
 9150 000b 00       		.byte	0
 9151 000c 0000     		.2byte	0
 9152 000e 0000     		.2byte	0
 9153 0010 00000000 		.4byte	.LFB108
 9154 0014 78030000 		.4byte	.LFE108-.LFB108
 9155 0018 00000000 		.4byte	.LFB109
 9156 001c 7C010000 		.4byte	.LFE109-.LFB109
 9157 0020 00000000 		.4byte	.LFB110
 9158 0024 A0010000 		.4byte	.LFE110-.LFB110
 9159 0028 00000000 		.4byte	.LFB107
 9160 002c 74000000 		.4byte	.LFE107-.LFB107
 9161 0030 00000000 		.4byte	0
 9162 0034 00000000 		.4byte	0
 9163              		.section	.debug_ranges,"",%progbits
 9164              	.Ldebug_ranges0:
 9165 0000 00000000 		.4byte	.LFB108
 9166 0004 78030000 		.4byte	.LFE108
 9167 0008 00000000 		.4byte	.LFB109
 9168 000c 7C010000 		.4byte	.LFE109
 9169 0010 00000000 		.4byte	.LFB110
 9170 0014 A0010000 		.4byte	.LFE110
 9171 0018 00000000 		.4byte	.LFB107
 9172 001c 74000000 		.4byte	.LFE107
 9173 0020 00000000 		.4byte	0
 9174 0024 00000000 		.4byte	0
 9175              		.section	.debug_line,"",%progbits
 9176              	.Ldebug_line0:
 9177 0000 AB050000 		.section	.debug_str,"MS",%progbits,1
 9177      02006F04 
 9177      00000201 
 9177      FB0E0D00 
 9177      01010101 
 9178              	.LASF14:
 9179 0000 696E7438 		.ascii	"int8_t\000"
 9179      5F7400
 9180              	.LASF20:
 9181 0007 6C765F6C 		.ascii	"lv_ll_node_t\000"
 9181      6C5F6E6F 
 9181      64655F74 
 9181      00
 9182              	.LASF144:
 9183 0014 68656164 		.ascii	"header_pr\000"
 9183      65725F70 
 9183      7200
 9184              	.LASF38:
ARM GAS  C:\Users\Sava\AppData\Local\Temp\ccs9rGHG.s 			page 182


 9185 001e 756E6963 		.ascii	"unicode_first\000"
 9185      6F64655F 
 9185      66697273 
 9185      7400
 9186              	.LASF267:
 9187 002c 6C765F74 		.ascii	"lv_ta_create\000"
 9187      615F6372 
 9187      65617465 
 9187      00
 9188              	.LASF30:
 9189 0039 73697A65 		.ascii	"sizetype\000"
 9189      74797065 
 9189      00
 9190              	.LASF98:
 9191 0042 66726565 		.ascii	"free_num\000"
 9191      5F6E756D 
 9191      00
 9192              	.LASF154:
 9193 004b 63656C6C 		.ascii	"cell\000"
 9193      00
 9194              	.LASF23:
 9195 0050 7461696C 		.ascii	"tail\000"
 9195      00
 9196              	.LASF29:
 9197 0055 6C765F6F 		.ascii	"lv_opa_t\000"
 9197      70615F74 
 9197      00
 9198              	.LASF67:
 9199 005e 696E7465 		.ascii	"intense\000"
 9199      6E736500 
 9200              	.LASF33:
 9201 0066 6C765F70 		.ascii	"lv_point_t\000"
 9201      6F696E74 
 9201      5F7400
 9202              	.LASF161:
 9203 0071 6C6D6574 		.ascii	"lmeter\000"
 9203      657200
 9204              	.LASF269:
 9205 0078 6C765F74 		.ascii	"lv_ta_set_one_line\000"
 9205      615F7365 
 9205      745F6F6E 
 9205      655F6C69 
 9205      6E6500
 9206              	.LASF59:
 9207 008b 72616469 		.ascii	"radius\000"
 9207      757300
 9208              	.LASF130:
 9209 0092 6C765F72 		.ascii	"lv_reailgn_t\000"
 9209      6561696C 
 9209      676E5F74 
 9209      00
 9210              	.LASF260:
 9211 009f 6C765F73 		.ascii	"lv_sw_create\000"
 9211      775F6372 
 9211      65617465 
 9211      00
 9212              	.LASF123:
ARM GAS  C:\Users\Sava\AppData\Local\Temp\ccs9rGHG.s 			page 183


 9213 00ac 6C765F61 		.ascii	"lv_align_t\000"
 9213      6C69676E 
 9213      5F7400
 9214              	.LASF285:
 9215 00b7 6C765F67 		.ascii	"lv_gauge_set_value\000"
 9215      61756765 
 9215      5F736574 
 9215      5F76616C 
 9215      756500
 9216              	.LASF146:
 9217 00ca 68696768 		.ascii	"highlighted_days\000"
 9217      6C696768 
 9217      7465645F 
 9217      64617973 
 9217      00
 9218              	.LASF302:
 9219 00db 6C765F63 		.ascii	"lv_calendar_set_highlighted_dates\000"
 9219      616C656E 
 9219      6461725F 
 9219      7365745F 
 9219      68696768 
 9220              	.LASF203:
 9221 00fd 4C565F43 		.ascii	"LV_CURSOR_LINE\000"
 9221      5552534F 
 9221      525F4C49 
 9221      4E4500
 9222              	.LASF121:
 9223 010c 4C565F41 		.ascii	"LV_ALIGN_OUT_RIGHT_MID\000"
 9223      4C49474E 
 9223      5F4F5554 
 9223      5F524947 
 9223      48545F4D 
 9224              	.LASF279:
 9225 0123 6C765F6F 		.ascii	"lv_obj_get_width\000"
 9225      626A5F67 
 9225      65745F77 
 9225      69647468 
 9225      00
 9226              	.LASF55:
 9227 0134 74797065 		.ascii	"type\000"
 9227      00
 9228              	.LASF40:
 9229 0139 676C7970 		.ascii	"glyph_bitmap\000"
 9229      685F6269 
 9229      746D6170 
 9229      00
 9230              	.LASF208:
 9231 0146 79656172 		.ascii	"year\000"
 9231      00
 9232              	.LASF304:
 9233 014b 6C765F63 		.ascii	"lv_calendar_set_showed_date\000"
 9233      616C656E 
 9233      6461725F 
 9233      7365745F 
 9233      73686F77 
 9234              	.LASF136:
 9235 0167 6C696768 		.ascii	"light\000"
ARM GAS  C:\Users\Sava\AppData\Local\Temp\ccs9rGHG.s 			page 184


 9235      7400
 9236              	.LASF157:
 9237 016d 636F6E74 		.ascii	"cont\000"
 9237      00
 9238              	.LASF134:
 9239 0172 7072696D 		.ascii	"prim\000"
 9239      00
 9240              	.LASF188:
 9241 0177 4C565F42 		.ascii	"LV_BTN_STATE_REL\000"
 9241      544E5F53 
 9241      54415445 
 9241      5F52454C 
 9241      00
 9242              	.LASF164:
 9243 0188 63686172 		.ascii	"chart\000"
 9243      7400
 9244              	.LASF240:
 9245 018e 6C765F63 		.ascii	"lv_cont_set_layout\000"
 9245      6F6E745F 
 9245      7365745F 
 9245      6C61796F 
 9245      757400
 9246              	.LASF4:
 9247 01a1 5F5F7569 		.ascii	"__uint8_t\000"
 9247      6E74385F 
 9247      7400
 9248              	.LASF314:
 9249 01ab 433A5C55 		.ascii	"C:\\Users\\Sava\\Documents\\PSoC Creator\\GUI_and_d"
 9249      73657273 
 9249      5C536176 
 9249      615C446F 
 9249      63756D65 
 9250 01d9 6973706C 		.ascii	"isplay\\LittlevGL(5v3)_demo_ILI9341.cydsn\000"
 9250      61795C4C 
 9250      6974746C 
 9250      6576474C 
 9250      28357633 
 9251              	.LASF299:
 9252 0202 6C765F6C 		.ascii	"lv_led_off\000"
 9252      65645F6F 
 9252      666600
 9253              	.LASF204:
 9254 020d 4C565F43 		.ascii	"LV_CURSOR_BLOCK\000"
 9254      5552534F 
 9254      525F424C 
 9254      4F434B00 
 9255              	.LASF280:
 9256 021d 6C765F63 		.ascii	"lv_chart_create\000"
 9256      68617274 
 9256      5F637265 
 9256      61746500 
 9257              	.LASF92:
 9258 022d 68696464 		.ascii	"hidden\000"
 9258      656E00
 9259              	.LASF10:
 9260 0234 6C6F6E67 		.ascii	"long int\000"
 9260      20696E74 
ARM GAS  C:\Users\Sava\AppData\Local\Temp\ccs9rGHG.s 			page 185


 9260      00
 9261              	.LASF310:
 9262 023d 6C765F74 		.ascii	"lv_tabview_create\000"
 9262      61627669 
 9262      65775F63 
 9262      72656174 
 9262      6500
 9263              	.LASF216:
 9264 024f 6C765F62 		.ascii	"lv_btn_set_fit\000"
 9264      746E5F73 
 9264      65745F66 
 9264      697400
 9265              	.LASF101:
 9266 025e 6C765F73 		.ascii	"lv_signal_func_t\000"
 9266      69676E61 
 9266      6C5F6675 
 9266      6E635F74 
 9266      00
 9267              	.LASF258:
 9268 026f 6C765F62 		.ascii	"lv_btnm_set_toggle\000"
 9268      746E6D5F 
 9268      7365745F 
 9268      746F6767 
 9268      6C6500
 9269              	.LASF262:
 9270 0282 6C765F62 		.ascii	"lv_bar_create\000"
 9270      61725F63 
 9270      72656174 
 9270      6500
 9271              	.LASF174:
 9272 0290 74696C65 		.ascii	"tileview\000"
 9272      76696577 
 9272      00
 9273              	.LASF107:
 9274 0299 4C565F41 		.ascii	"LV_ALIGN_IN_BOTTOM_MID\000"
 9274      4C49474E 
 9274      5F494E5F 
 9274      424F5454 
 9274      4F4D5F4D 
 9275              	.LASF293:
 9276 02b0 6C765F77 		.ascii	"lv_win_add_btn\000"
 9276      696E5F61 
 9276      64645F62 
 9276      746E00
 9277              	.LASF184:
 9278 02bf 4C565F4C 		.ascii	"LV_LAYOUT_ROW_B\000"
 9278      41594F55 
 9278      545F524F 
 9278      575F4200 
 9279              	.LASF185:
 9280 02cf 4C565F4C 		.ascii	"LV_LAYOUT_PRETTY\000"
 9280      41594F55 
 9280      545F5052 
 9280      45545459 
 9280      00
 9281              	.LASF22:
 9282 02e0 68656164 		.ascii	"head\000"
ARM GAS  C:\Users\Sava\AppData\Local\Temp\ccs9rGHG.s 			page 186


 9282      00
 9283              	.LASF183:
 9284 02e5 4C565F4C 		.ascii	"LV_LAYOUT_ROW_M\000"
 9284      41594F55 
 9284      545F524F 
 9284      575F4D00 
 9285              	.LASF265:
 9286 02f5 6C765F6C 		.ascii	"lv_line_create\000"
 9286      696E655F 
 9286      63726561 
 9286      746500
 9287              	.LASF36:
 9288 0304 676C7970 		.ascii	"glyph_index\000"
 9288      685F696E 
 9288      64657800 
 9289              	.LASF194:
 9290 0310 4C565F42 		.ascii	"LV_BTN_STYLE_REL\000"
 9290      544E5F53 
 9290      54594C45 
 9290      5F52454C 
 9290      00
 9291              	.LASF166:
 9292 0321 62746E6D 		.ascii	"btnm\000"
 9292      00
 9293              	.LASF168:
 9294 0326 70616765 		.ascii	"page\000"
 9294      00
 9295              	.LASF212:
 9296 032b 6C765F72 		.ascii	"lv_roller_set_options\000"
 9296      6F6C6C65 
 9296      725F7365 
 9296      745F6F70 
 9296      74696F6E 
 9297              	.LASF2:
 9298 0341 7369676E 		.ascii	"signed char\000"
 9298      65642063 
 9298      68617200 
 9299              	.LASF15:
 9300 034d 75696E74 		.ascii	"uint8_t\000"
 9300      385F7400 
 9301              	.LASF149:
 9302 0355 746F6461 		.ascii	"today_box\000"
 9302      795F626F 
 9302      7800
 9303              	.LASF294:
 9304 035f 6C765F6F 		.ascii	"lv_obj_set_top\000"
 9304      626A5F73 
 9304      65745F74 
 9304      6F7000
 9305              	.LASF133:
 9306 036e 74676C5F 		.ascii	"tgl_pr\000"
 9306      707200
 9307              	.LASF201:
 9308 0375 6C765F63 		.ascii	"lv_chart_series_t\000"
 9308      68617274 
 9308      5F736572 
 9308      6965735F 
ARM GAS  C:\Users\Sava\AppData\Local\Temp\ccs9rGHG.s 			page 187


 9308      7400
 9309              	.LASF150:
 9310 0387 7363726C 		.ascii	"scrl\000"
 9310      00
 9311              	.LASF25:
 9312 038c 626C7565 		.ascii	"blue\000"
 9312      00
 9313              	.LASF5:
 9314 0391 756E7369 		.ascii	"unsigned char\000"
 9314      676E6564 
 9314      20636861 
 9314      7200
 9315              	.LASF235:
 9316 039f 6D626F78 		.ascii	"mbox_btn_map\000"
 9316      5F62746E 
 9316      5F6D6170 
 9316      00
 9317              	.LASF221:
 9318 03ac 6C765F70 		.ascii	"lv_page_set_scrl_fit\000"
 9318      6167655F 
 9318      7365745F 
 9318      7363726C 
 9318      5F666974 
 9319              	.LASF142:
 9320 03c1 6B6E6F62 		.ascii	"knob_on\000"
 9320      5F6F6E00 
 9321              	.LASF88:
 9322 03c9 636C6963 		.ascii	"click\000"
 9322      6B00
 9323              	.LASF143:
 9324 03cf 68656164 		.ascii	"header\000"
 9324      657200
 9325              	.LASF77:
 9326 03d6 5F426F6F 		.ascii	"_Bool\000"
 9326      6C00
 9327              	.LASF175:
 9328 03dc 7461626C 		.ascii	"table\000"
 9328      6500
 9329              	.LASF273:
 9330 03e2 6C765F64 		.ascii	"lv_ddlist_set_selected\000"
 9330      646C6973 
 9330      745F7365 
 9330      745F7365 
 9330      6C656374 
 9331              	.LASF213:
 9332 03f9 6C765F6C 		.ascii	"lv_line_set_style\000"
 9332      696E655F 
 9332      7365745F 
 9332      7374796C 
 9332      6500
 9333              	.LASF31:
 9334 040b 63686172 		.ascii	"char\000"
 9334      00
 9335              	.LASF70:
 9336 0410 626F6479 		.ascii	"body\000"
 9336      00
 9337              	.LASF233:
ARM GAS  C:\Users\Sava\AppData\Local\Temp\ccs9rGHG.s 			page 188


 9338 0415 6C656431 		.ascii	"led1\000"
 9338      00
 9339              	.LASF234:
 9340 041a 6C656432 		.ascii	"led2\000"
 9340      00
 9341              	.LASF126:
 9342 041f 796F6673 		.ascii	"yofs\000"
 9342      00
 9343              	.LASF217:
 9344 0424 686F725F 		.ascii	"hor_en\000"
 9344      656E00
 9345              	.LASF288:
 9346 042b 6C765F74 		.ascii	"lv_ta_set_cursor_type\000"
 9346      615F7365 
 9346      745F6375 
 9346      72736F72 
 9346      5F747970 
 9347              	.LASF286:
 9348 0441 6C765F6F 		.ascii	"lv_obj_align\000"
 9348      626A5F61 
 9348      6C69676E 
 9348      00
 9349              	.LASF8:
 9350 044e 5F5F7569 		.ascii	"__uint16_t\000"
 9350      6E743136 
 9350      5F7400
 9351              	.LASF148:
 9352 0459 7765656B 		.ascii	"week_box\000"
 9352      5F626F78 
 9352      00
 9353              	.LASF179:
 9354 0462 4C565F4C 		.ascii	"LV_LAYOUT_COL_L\000"
 9354      41594F55 
 9354      545F434F 
 9354      4C5F4C00 
 9355              	.LASF180:
 9356 0472 4C565F4C 		.ascii	"LV_LAYOUT_COL_M\000"
 9356      41594F55 
 9356      545F434F 
 9356      4C5F4D00 
 9357              	.LASF181:
 9358 0482 4C565F4C 		.ascii	"LV_LAYOUT_COL_R\000"
 9358      41594F55 
 9358      545F434F 
 9358      4C5F5200 
 9359              	.LASF195:
 9360 0492 4C565F42 		.ascii	"LV_BTN_STYLE_PR\000"
 9360      544E5F53 
 9360      54594C45 
 9360      5F505200 
 9361              	.LASF118:
 9362 04a2 4C565F41 		.ascii	"LV_ALIGN_OUT_LEFT_MID\000"
 9362      4C49474E 
 9362      5F4F5554 
 9362      5F4C4546 
 9362      545F4D49 
 9363              	.LASF318:
ARM GAS  C:\Users\Sava\AppData\Local\Temp\ccs9rGHG.s 			page 189


 9364 04b8 6C765F73 		.ascii	"lv_style_transp\000"
 9364      74796C65 
 9364      5F747261 
 9364      6E737000 
 9365              	.LASF45:
 9366 04c8 6E657874 		.ascii	"next_page\000"
 9366      5F706167 
 9366      6500
 9367              	.LASF202:
 9368 04d2 4C565F43 		.ascii	"LV_CURSOR_NONE\000"
 9368      5552534F 
 9368      525F4E4F 
 9368      4E4500
 9369              	.LASF271:
 9370 04e1 6C765F64 		.ascii	"lv_ddlist_create\000"
 9370      646C6973 
 9370      745F6372 
 9370      65617465 
 9370      00
 9371              	.LASF261:
 9372 04f2 6C765F73 		.ascii	"lv_sw_on\000"
 9372      775F6F6E 
 9372      00
 9373              	.LASF254:
 9374 04fb 6C765F62 		.ascii	"lv_btn_set_state\000"
 9374      746E5F73 
 9374      65745F73 
 9374      74617465 
 9374      00
 9375              	.LASF47:
 9376 050c 6D6F6E6F 		.ascii	"monospace\000"
 9376      73706163 
 9376      6500
 9377              	.LASF257:
 9378 0516 6C765F62 		.ascii	"lv_btnm_set_map\000"
 9378      746E6D5F 
 9378      7365745F 
 9378      6D617000 
 9379              	.LASF171:
 9380 0526 64646C69 		.ascii	"ddlist\000"
 9380      737400
 9381              	.LASF250:
 9382 052d 6C765F62 		.ascii	"lv_btn_set_toggle\000"
 9382      746E5F73 
 9382      65745F74 
 9382      6F67676C 
 9382      6500
 9383              	.LASF71:
 9384 053f 74657874 		.ascii	"text\000"
 9384      00
 9385              	.LASF253:
 9386 0544 6C765F62 		.ascii	"lv_btn_toggle\000"
 9386      746E5F74 
 9386      6F67676C 
 9386      6500
 9387              	.LASF87:
 9388 0552 67726F75 		.ascii	"group_p\000"
ARM GAS  C:\Users\Sava\AppData\Local\Temp\ccs9rGHG.s 			page 190


 9388      705F7000 
 9389              	.LASF72:
 9390 055a 696D6167 		.ascii	"image\000"
 9390      6500
 9391              	.LASF68:
 9392 0560 726F756E 		.ascii	"rounded\000"
 9392      64656400 
 9393              	.LASF90:
 9394 0568 64726167 		.ascii	"drag_throw\000"
 9394      5F746872 
 9394      6F7700
 9395              	.LASF147:
 9396 0573 696E6163 		.ascii	"inactive_days\000"
 9396      74697665 
 9396      5F646179 
 9396      7300
 9397              	.LASF228:
 9398 0581 63726561 		.ascii	"create_tab1\000"
 9398      74655F74 
 9398      61623100 
 9399              	.LASF229:
 9400 058d 63726561 		.ascii	"create_tab2\000"
 9400      74655F74 
 9400      61623200 
 9401              	.LASF232:
 9402 0599 63726561 		.ascii	"create_tab3\000"
 9402      74655F74 
 9402      61623300 
 9403              	.LASF34:
 9404 05a5 6C765F61 		.ascii	"lv_area_t\000"
 9404      7265615F 
 9404      7400
 9405              	.LASF307:
 9406 05af 6C765F6D 		.ascii	"lv_mbox_add_btns\000"
 9406      626F785F 
 9406      6164645F 
 9406      62746E73 
 9406      00
 9407              	.LASF35:
 9408 05c0 775F7078 		.ascii	"w_px\000"
 9408      00
 9409              	.LASF230:
 9410 05c5 70617265 		.ascii	"parent\000"
 9410      6E7400
 9411              	.LASF176:
 9412 05cc 6C765F74 		.ascii	"lv_theme_t\000"
 9412      68656D65 
 9412      5F7400
 9413              	.LASF270:
 9414 05d7 6C765F63 		.ascii	"lv_cb_create\000"
 9414      625F6372 
 9414      65617465 
 9414      00
 9415              	.LASF97:
 9416 05e4 7265616C 		.ascii	"realign\000"
 9416      69676E00 
 9417              	.LASF296:
ARM GAS  C:\Users\Sava\AppData\Local\Temp\ccs9rGHG.s 			page 191


 9418 05ec 6C765F6C 		.ascii	"lv_lmeter_set_value\000"
 9418      6D657465 
 9418      725F7365 
 9418      745F7661 
 9418      6C756500 
 9419              	.LASF108:
 9420 0600 4C565F41 		.ascii	"LV_ALIGN_IN_BOTTOM_RIGHT\000"
 9420      4C49474E 
 9420      5F494E5F 
 9420      424F5454 
 9420      4F4D5F52 
 9421              	.LASF86:
 9422 0619 66726565 		.ascii	"free_ptr\000"
 9422      5F707472 
 9422      00
 9423              	.LASF277:
 9424 0622 6C765F72 		.ascii	"lv_roller_set_selected\000"
 9424      6F6C6C65 
 9424      725F7365 
 9424      745F7365 
 9424      6C656374 
 9425              	.LASF116:
 9426 0639 4C565F41 		.ascii	"LV_ALIGN_OUT_BOTTOM_RIGHT\000"
 9426      4C49474E 
 9426      5F4F5554 
 9426      5F424F54 
 9426      544F4D5F 
 9427              	.LASF151:
 9428 0653 61726561 		.ascii	"area\000"
 9428      00
 9429              	.LASF200:
 9430 0658 73746172 		.ascii	"start_point\000"
 9430      745F706F 
 9430      696E7400 
 9431              	.LASF282:
 9432 0664 6C765F63 		.ascii	"lv_chart_add_series\000"
 9432      68617274 
 9432      5F616464 
 9432      5F736572 
 9432      69657300 
 9433              	.LASF74:
 9434 0678 6C765F73 		.ascii	"lv_style_t\000"
 9434      74796C65 
 9434      5F7400
 9435              	.LASF56:
 9436 0683 696E6E65 		.ascii	"inner\000"
 9436      7200
 9437              	.LASF281:
 9438 0689 6C765F6F 		.ascii	"lv_obj_set_pos\000"
 9438      626A5F73 
 9438      65745F70 
 9438      6F7300
 9439              	.LASF251:
 9440 0698 6C765F6C 		.ascii	"lv_label_create\000"
 9440      6162656C 
 9440      5F637265 
 9440      61746500 
ARM GAS  C:\Users\Sava\AppData\Local\Temp\ccs9rGHG.s 			page 192


 9441              	.LASF115:
 9442 06a8 4C565F41 		.ascii	"LV_ALIGN_OUT_BOTTOM_MID\000"
 9442      4C49474E 
 9442      5F4F5554 
 9442      5F424F54 
 9442      544F4D5F 
 9443              	.LASF12:
 9444 06c0 6C6F6E67 		.ascii	"long unsigned int\000"
 9444      20756E73 
 9444      69676E65 
 9444      6420696E 
 9444      7400
 9445              	.LASF76:
 9446 06d2 6C765F64 		.ascii	"lv_design_func_t\000"
 9446      65736967 
 9446      6E5F6675 
 9446      6E635F74 
 9446      00
 9447              	.LASF63:
 9448 06e3 656D7074 		.ascii	"empty\000"
 9448      7900
 9449              	.LASF312:
 9450 06e9 474E5520 		.ascii	"GNU C11 5.4.1 20160609 (release) [ARM/embedded-5-br"
 9450      43313120 
 9450      352E342E 
 9450      31203230 
 9450      31363036 
 9451 071c 616E6368 		.ascii	"anch revision 237715] -mcpu=cortex-m3 -mthumb -g -O"
 9451      20726576 
 9451      6973696F 
 9451      6E203233 
 9451      37373135 
 9452 074f 67202D66 		.ascii	"g -ffunction-sections -ffat-lto-objects -finline-fu"
 9452      66756E63 
 9452      74696F6E 
 9452      2D736563 
 9452      74696F6E 
 9453 0782 6E637469 		.ascii	"nctions\000"
 9453      6F6E7300 
 9454              	.LASF135:
 9455 078a 68696E74 		.ascii	"hint\000"
 9455      00
 9456              	.LASF190:
 9457 078f 4C565F42 		.ascii	"LV_BTN_STATE_TGL_REL\000"
 9457      544E5F53 
 9457      54415445 
 9457      5F54474C 
 9457      5F52454C 
 9458              	.LASF83:
 9459 07a4 64657369 		.ascii	"design_func\000"
 9459      676E5F66 
 9459      756E6300 
 9460              	.LASF177:
 9461 07b0 4C565F4C 		.ascii	"LV_LAYOUT_OFF\000"
 9461      41594F55 
 9461      545F4F46 
 9461      4600
ARM GAS  C:\Users\Sava\AppData\Local\Temp\ccs9rGHG.s 			page 193


 9462              	.LASF215:
 9463 07be 6C765F63 		.ascii	"lv_cont_set_style\000"
 9463      6F6E745F 
 9463      7365745F 
 9463      7374796C 
 9463      6500
 9464              	.LASF73:
 9465 07d0 6C696E65 		.ascii	"line\000"
 9465      00
 9466              	.LASF245:
 9467 07d5 6C765F73 		.ascii	"lv_style_copy\000"
 9467      74796C65 
 9467      5F636F70 
 9467      7900
 9468              	.LASF316:
 9469 07e3 6C765F70 		.ascii	"lv_page_get_scrl_width\000"
 9469      6167655F 
 9469      6765745F 
 9469      7363726C 
 9469      5F776964 
 9470              	.LASF48:
 9471 07fa 676C7970 		.ascii	"glyph_cnt\000"
 9471      685F636E 
 9471      7400
 9472              	.LASF44:
 9473 0804 6765745F 		.ascii	"get_width\000"
 9473      77696474 
 9473      6800
 9474              	.LASF219:
 9475 080e 6C765F70 		.ascii	"lv_page_set_scrl_layout\000"
 9475      6167655F 
 9475      7365745F 
 9475      7363726C 
 9475      5F6C6179 
 9476              	.LASF252:
 9477 0826 6C765F6C 		.ascii	"lv_label_set_text\000"
 9477      6162656C 
 9477      5F736574 
 9477      5F746578 
 9477      7400
 9478              	.LASF46:
 9479 0838 685F7078 		.ascii	"h_px\000"
 9479      00
 9480              	.LASF152:
 9481 083d 6F6E656C 		.ascii	"oneline\000"
 9481      696E6500 
 9482              	.LASF274:
 9483 0845 6C765F6C 		.ascii	"lv_list_create\000"
 9483      6973745F 
 9483      63726561 
 9483      746500
 9484              	.LASF317:
 9485 0854 6C765F74 		.ascii	"lv_test_theme\000"
 9485      6573745F 
 9485      7468656D 
 9485      6500
 9486              	.LASF284:
ARM GAS  C:\Users\Sava\AppData\Local\Temp\ccs9rGHG.s 			page 194


 9487 0862 6C765F67 		.ascii	"lv_gauge_create\000"
 9487      61756765 
 9487      5F637265 
 9487      61746500 
 9488              	.LASF114:
 9489 0872 4C565F41 		.ascii	"LV_ALIGN_OUT_BOTTOM_LEFT\000"
 9489      4C49474E 
 9489      5F4F5554 
 9489      5F424F54 
 9489      544F4D5F 
 9490              	.LASF11:
 9491 088b 5F5F7569 		.ascii	"__uint32_t\000"
 9491      6E743332 
 9491      5F7400
 9492              	.LASF85:
 9493 0896 7374796C 		.ascii	"style_p\000"
 9493      655F7000 
 9494              	.LASF13:
 9495 089e 6C6F6E67 		.ascii	"long long int\000"
 9495      206C6F6E 
 9495      6720696E 
 9495      7400
 9496              	.LASF119:
 9497 08ac 4C565F41 		.ascii	"LV_ALIGN_OUT_LEFT_BOTTOM\000"
 9497      4C49474E 
 9497      5F4F5554 
 9497      5F4C4546 
 9497      545F424F 
 9498              	.LASF53:
 9499 08c5 77696474 		.ascii	"width\000"
 9499      6800
 9500              	.LASF246:
 9501 08cb 6C765F63 		.ascii	"lv_cont_create\000"
 9501      6F6E745F 
 9501      63726561 
 9501      746500
 9502              	.LASF105:
 9503 08da 4C565F41 		.ascii	"LV_ALIGN_IN_TOP_RIGHT\000"
 9503      4C49474E 
 9503      5F494E5F 
 9503      544F505F 
 9503      52494748 
 9504              	.LASF132:
 9505 08f0 74676C5F 		.ascii	"tgl_rel\000"
 9505      72656C00 
 9506              	.LASF80:
 9507 08f8 6368696C 		.ascii	"child_ll\000"
 9507      645F6C6C 
 9507      00
 9508              	.LASF139:
 9509 0901 696E6469 		.ascii	"indic\000"
 9509      6300
 9510              	.LASF94:
 9511 0907 70726F74 		.ascii	"protect\000"
 9511      65637400 
 9512              	.LASF306:
 9513 090f 6C765F6D 		.ascii	"lv_mbox_set_text\000"
ARM GAS  C:\Users\Sava\AppData\Local\Temp\ccs9rGHG.s 			page 195


 9513      626F785F 
 9513      7365745F 
 9513      74657874 
 9513      00
 9514              	.LASF255:
 9515 0920 6C765F62 		.ascii	"lv_btnm_create\000"
 9515      746E6D5F 
 9515      63726561 
 9515      746500
 9516              	.LASF220:
 9517 092f 6C61796F 		.ascii	"layout\000"
 9517      757400
 9518              	.LASF173:
 9519 0936 74616276 		.ascii	"tabview\000"
 9519      69657700 
 9520              	.LASF311:
 9521 093e 6C765F74 		.ascii	"lv_tabview_add_tab\000"
 9521      61627669 
 9521      65775F61 
 9521      64645F74 
 9521      616200
 9522              	.LASF206:
 9523 0951 4C565F43 		.ascii	"LV_CURSOR_UNDERLINE\000"
 9523      5552534F 
 9523      525F554E 
 9523      4445524C 
 9523      494E4500 
 9524              	.LASF127:
 9525 0965 616C6967 		.ascii	"align\000"
 9525      6E00
 9526              	.LASF106:
 9527 096b 4C565F41 		.ascii	"LV_ALIGN_IN_BOTTOM_LEFT\000"
 9527      4C49474E 
 9527      5F494E5F 
 9527      424F5454 
 9527      4F4D5F4C 
 9528              	.LASF198:
 9529 0983 4C565F42 		.ascii	"LV_BTN_STYLE_INA\000"
 9529      544E5F53 
 9529      54594C45 
 9529      5F494E41 
 9529      00
 9530              	.LASF69:
 9531 0994 676C6173 		.ascii	"glass\000"
 9531      7300
 9532              	.LASF1:
 9533 099a 756E7369 		.ascii	"unsigned int\000"
 9533      676E6564 
 9533      20696E74 
 9533      00
 9534              	.LASF167:
 9535 09a7 6D626F78 		.ascii	"mbox\000"
 9535      00
 9536              	.LASF102:
 9537 09ac 4C565F41 		.ascii	"LV_ALIGN_CENTER\000"
 9537      4C49474E 
 9537      5F43454E 
ARM GAS  C:\Users\Sava\AppData\Local\Temp\ccs9rGHG.s 			page 196


 9537      54455200 
 9538              	.LASF192:
 9539 09bc 4C565F42 		.ascii	"LV_BTN_STATE_INA\000"
 9539      544E5F53 
 9539      54415445 
 9539      5F494E41 
 9539      00
 9540              	.LASF264:
 9541 09cd 6C765F73 		.ascii	"lv_slider_create\000"
 9541      6C696465 
 9541      725F6372 
 9541      65617465 
 9541      00
 9542              	.LASF128:
 9543 09de 6175746F 		.ascii	"auto_realign\000"
 9543      5F726561 
 9543      6C69676E 
 9543      00
 9544              	.LASF266:
 9545 09eb 6C765F6C 		.ascii	"lv_line_set_points\000"
 9545      696E655F 
 9545      7365745F 
 9545      706F696E 
 9545      747300
 9546              	.LASF241:
 9547 09fe 6C765F63 		.ascii	"lv_cont_set_fit\000"
 9547      6F6E745F 
 9547      7365745F 
 9547      66697400 
 9548              	.LASF42:
 9549 0a0e 756E6963 		.ascii	"unicode_list\000"
 9549      6F64655F 
 9549      6C697374 
 9549      00
 9550              	.LASF37:
 9551 0a1b 6C765F66 		.ascii	"lv_font_glyph_dsc_t\000"
 9551      6F6E745F 
 9551      676C7970 
 9551      685F6473 
 9551      635F7400 
 9552              	.LASF170:
 9553 0a2f 6C697374 		.ascii	"list\000"
 9553      00
 9554              	.LASF290:
 9555 0a34 6C765F6B 		.ascii	"lv_kb_set_ta\000"
 9555      625F7365 
 9555      745F7461 
 9555      00
 9556              	.LASF58:
 9557 0a41 67726164 		.ascii	"grad_color\000"
 9557      5F636F6C 
 9557      6F7200
 9558              	.LASF291:
 9559 0a4c 6C765F70 		.ascii	"lv_preload_create\000"
 9559      72656C6F 
 9559      61645F63 
 9559      72656174 
ARM GAS  C:\Users\Sava\AppData\Local\Temp\ccs9rGHG.s 			page 197


 9559      6500
 9560              	.LASF141:
 9561 0a5e 6B6E6F62 		.ascii	"knob_off\000"
 9561      5F6F6666 
 9561      00
 9562              	.LASF162:
 9563 0a67 67617567 		.ascii	"gauge\000"
 9563      6500
 9564              	.LASF218:
 9565 0a6d 7665725F 		.ascii	"ver_en\000"
 9565      656E00
 9566              	.LASF225:
 9567 0a74 73775F68 		.ascii	"sw_h\000"
 9567      00
 9568              	.LASF210:
 9569 0a79 6C765F63 		.ascii	"lv_calendar_date_t\000"
 9569      616C656E 
 9569      6461725F 
 9569      64617465 
 9569      5F7400
 9570              	.LASF303:
 9571 0a8c 6C765F63 		.ascii	"lv_calendar_set_today_date\000"
 9571      616C656E 
 9571      6461725F 
 9571      7365745F 
 9571      746F6461 
 9572              	.LASF99:
 9573 0aa7 6C765F72 		.ascii	"lv_res_t\000"
 9573      65735F74 
 9573      00
 9574              	.LASF122:
 9575 0ab0 4C565F41 		.ascii	"LV_ALIGN_OUT_RIGHT_BOTTOM\000"
 9575      4C49474E 
 9575      5F4F5554 
 9575      5F524947 
 9575      48545F42 
 9576              	.LASF300:
 9577 0aca 6C765F70 		.ascii	"lv_page_create\000"
 9577      6167655F 
 9577      63726561 
 9577      746500
 9578              	.LASF19:
 9579 0ad9 6C6F6E67 		.ascii	"long double\000"
 9579      20646F75 
 9579      626C6500 
 9580              	.LASF276:
 9581 0ae5 6C765F72 		.ascii	"lv_roller_create\000"
 9581      6F6C6C65 
 9581      725F6372 
 9581      65617465 
 9581      00
 9582              	.LASF214:
 9583 0af6 7374796C 		.ascii	"style\000"
 9583      6500
 9584              	.LASF84:
 9585 0afc 6578745F 		.ascii	"ext_attr\000"
 9585      61747472 
ARM GAS  C:\Users\Sava\AppData\Local\Temp\ccs9rGHG.s 			page 198


 9585      00
 9586              	.LASF111:
 9587 0b05 4C565F41 		.ascii	"LV_ALIGN_OUT_TOP_LEFT\000"
 9587      4C49474E 
 9587      5F4F5554 
 9587      5F544F50 
 9587      5F4C4546 
 9588              	.LASF75:
 9589 0b1b 6C765F64 		.ascii	"lv_design_mode_t\000"
 9589      65736967 
 9589      6E5F6D6F 
 9589      64655F74 
 9589      00
 9590              	.LASF191:
 9591 0b2c 4C565F42 		.ascii	"LV_BTN_STATE_TGL_PR\000"
 9591      544E5F53 
 9591      54415445 
 9591      5F54474C 
 9591      5F505200 
 9592              	.LASF295:
 9593 0b40 6C765F6C 		.ascii	"lv_lmeter_create\000"
 9593      6D657465 
 9593      725F6372 
 9593      65617465 
 9593      00
 9594              	.LASF57:
 9595 0b51 6D61696E 		.ascii	"main_color\000"
 9595      5F636F6C 
 9595      6F7200
 9596              	.LASF104:
 9597 0b5c 4C565F41 		.ascii	"LV_ALIGN_IN_TOP_MID\000"
 9597      4C49474E 
 9597      5F494E5F 
 9597      544F505F 
 9597      4D494400 
 9598              	.LASF3:
 9599 0b70 5F5F696E 		.ascii	"__int8_t\000"
 9599      74385F74 
 9599      00
 9600              	.LASF275:
 9601 0b79 6C765F6C 		.ascii	"lv_list_add\000"
 9601      6973745F 
 9601      61646400 
 9602              	.LASF100:
 9603 0b85 6C765F73 		.ascii	"lv_signal_t\000"
 9603      69676E61 
 9603      6C5F7400 
 9604              	.LASF205:
 9605 0b91 4C565F43 		.ascii	"LV_CURSOR_OUTLINE\000"
 9605      5552534F 
 9605      525F4F55 
 9605      544C494E 
 9605      4500
 9606              	.LASF189:
 9607 0ba3 4C565F42 		.ascii	"LV_BTN_STATE_PR\000"
 9607      544E5F53 
 9607      54415445 
ARM GAS  C:\Users\Sava\AppData\Local\Temp\ccs9rGHG.s 			page 199


 9607      5F505200 
 9608              	.LASF0:
 9609 0bb3 6C6F6E67 		.ascii	"long long unsigned int\000"
 9609      206C6F6E 
 9609      6720756E 
 9609      7369676E 
 9609      65642069 
 9610              	.LASF297:
 9611 0bca 6C765F6C 		.ascii	"lv_led_create\000"
 9611      65645F63 
 9611      72656174 
 9611      6500
 9612              	.LASF82:
 9613 0bd8 7369676E 		.ascii	"signal_func\000"
 9613      616C5F66 
 9613      756E6300 
 9614              	.LASF182:
 9615 0be4 4C565F4C 		.ascii	"LV_LAYOUT_ROW_T\000"
 9615      41594F55 
 9615      545F524F 
 9615      575F5400 
 9616              	.LASF120:
 9617 0bf4 4C565F41 		.ascii	"LV_ALIGN_OUT_RIGHT_TOP\000"
 9617      4C49474E 
 9617      5F4F5554 
 9617      5F524947 
 9617      48545F54 
 9618              	.LASF17:
 9619 0c0b 75696E74 		.ascii	"uint16_t\000"
 9619      31365F74 
 9619      00
 9620              	.LASF28:
 9621 0c14 6C765F63 		.ascii	"lv_color_t\000"
 9621      6F6C6F72 
 9621      5F7400
 9622              	.LASF305:
 9623 0c1f 6C765F6D 		.ascii	"lv_mbox_create\000"
 9623      626F785F 
 9623      63726561 
 9623      746500
 9624              	.LASF96:
 9625 0c2e 6578745F 		.ascii	"ext_size\000"
 9625      73697A65 
 9625      00
 9626              	.LASF243:
 9627 0c37 6C765F64 		.ascii	"lv_ddlist_set_options\000"
 9627      646C6973 
 9627      745F7365 
 9627      745F6F70 
 9627      74696F6E 
 9628              	.LASF308:
 9629 0c4d 6C765F74 		.ascii	"lv_theme_set_current\000"
 9629      68656D65 
 9629      5F736574 
 9629      5F637572 
 9629      72656E74 
 9630              	.LASF298:
ARM GAS  C:\Users\Sava\AppData\Local\Temp\ccs9rGHG.s 			page 200


 9631 0c62 6C765F6C 		.ascii	"lv_led_on\000"
 9631      65645F6F 
 9631      6E00
 9632              	.LASF43:
 9633 0c6c 6765745F 		.ascii	"get_bitmap\000"
 9633      6269746D 
 9633      617000
 9634              	.LASF223:
 9635 0c77 62746E5F 		.ascii	"btn_label\000"
 9635      6C616265 
 9635      6C00
 9636              	.LASF259:
 9637 0c81 6C765F6F 		.ascii	"lv_obj_set_width\000"
 9637      626A5F73 
 9637      65745F77 
 9637      69647468 
 9637      00
 9638              	.LASF138:
 9639 0c92 6465636F 		.ascii	"decor\000"
 9639      7200
 9640              	.LASF158:
 9641 0c98 696D6762 		.ascii	"imgbtn\000"
 9641      746E00
 9642              	.LASF6:
 9643 0c9f 5F5F696E 		.ascii	"__int16_t\000"
 9643      7431365F 
 9643      7400
 9644              	.LASF156:
 9645 0ca9 70616E65 		.ascii	"panel\000"
 9645      6C00
 9646              	.LASF315:
 9647 0caf 66756C6C 		.ascii	"full\000"
 9647      00
 9648              	.LASF197:
 9649 0cb4 4C565F42 		.ascii	"LV_BTN_STYLE_TGL_PR\000"
 9649      544E5F53 
 9649      54594C45 
 9649      5F54474C 
 9649      5F505200 
 9650              	.LASF110:
 9651 0cc8 4C565F41 		.ascii	"LV_ALIGN_IN_RIGHT_MID\000"
 9651      4C49474E 
 9651      5F494E5F 
 9651      52494748 
 9651      545F4D49 
 9652              	.LASF52:
 9653 0cde 636F6C6F 		.ascii	"color\000"
 9653      7200
 9654              	.LASF236:
 9655 0ce4 74616231 		.ascii	"tab1\000"
 9655      00
 9656              	.LASF237:
 9657 0ce9 74616232 		.ascii	"tab2\000"
 9657      00
 9658              	.LASF238:
 9659 0cee 74616233 		.ascii	"tab3\000"
 9659      00
ARM GAS  C:\Users\Sava\AppData\Local\Temp\ccs9rGHG.s 			page 201


 9660              	.LASF309:
 9661 0cf3 6C765F73 		.ascii	"lv_scr_load\000"
 9661      63725F6C 
 9661      6F616400 
 9662              	.LASF66:
 9663 0cff 6C696E65 		.ascii	"line_space\000"
 9663      5F737061 
 9663      636500
 9664              	.LASF125:
 9665 0d0a 786F6673 		.ascii	"xofs\000"
 9665      00
 9666              	.LASF131:
 9667 0d0f 6C765F6F 		.ascii	"lv_obj_t\000"
 9667      626A5F74 
 9667      00
 9668              	.LASF209:
 9669 0d18 6D6F6E74 		.ascii	"month\000"
 9669      6800
 9670              	.LASF186:
 9671 0d1e 4C565F4C 		.ascii	"LV_LAYOUT_GRID\000"
 9671      41594F55 
 9671      545F4752 
 9671      494400
 9672              	.LASF51:
 9673 0d2d 6C765F73 		.ascii	"lv_shadow_type_t\000"
 9673      6861646F 
 9673      775F7479 
 9673      70655F74 
 9673      00
 9674              	.LASF89:
 9675 0d3e 64726167 		.ascii	"drag\000"
 9675      00
 9676              	.LASF79:
 9677 0d43 5F6C765F 		.ascii	"_lv_obj_t\000"
 9677      6F626A5F 
 9677      7400
 9678              	.LASF103:
 9679 0d4d 4C565F41 		.ascii	"LV_ALIGN_IN_TOP_LEFT\000"
 9679      4C49474E 
 9679      5F494E5F 
 9679      544F505F 
 9679      4C454654 
 9680              	.LASF64:
 9681 0d62 666F6E74 		.ascii	"font\000"
 9681      00
 9682              	.LASF65:
 9683 0d67 6C657474 		.ascii	"letter_space\000"
 9683      65725F73 
 9683      70616365 
 9683      00
 9684              	.LASF165:
 9685 0d74 63616C65 		.ascii	"calendar\000"
 9685      6E646172 
 9685      00
 9686              	.LASF193:
 9687 0d7d 4C565F42 		.ascii	"LV_BTN_STATE_NUM\000"
 9687      544E5F53 
ARM GAS  C:\Users\Sava\AppData\Local\Temp\ccs9rGHG.s 			page 202


 9687      54415445 
 9687      5F4E554D 
 9687      00
 9688              	.LASF41:
 9689 0d8e 676C7970 		.ascii	"glyph_dsc\000"
 9689      685F6473 
 9689      6300
 9690              	.LASF247:
 9691 0d98 6C765F6F 		.ascii	"lv_obj_set_click\000"
 9691      626A5F73 
 9691      65745F63 
 9691      6C69636B 
 9691      00
 9692              	.LASF124:
 9693 0da9 62617365 		.ascii	"base\000"
 9693      00
 9694              	.LASF27:
 9695 0dae 6C765F63 		.ascii	"lv_color16_t\000"
 9695      6F6C6F72 
 9695      31365F74 
 9695      00
 9696              	.LASF7:
 9697 0dbb 73686F72 		.ascii	"short int\000"
 9697      7420696E 
 9697      7400
 9698              	.LASF224:
 9699 0dc5 62746E6D 		.ascii	"btnm_str\000"
 9699      5F737472 
 9699      00
 9700              	.LASF24:
 9701 0dce 6C765F6C 		.ascii	"lv_ll_t\000"
 9701      6C5F7400 
 9702              	.LASF248:
 9703 0dd6 6C765F62 		.ascii	"lv_btn_create\000"
 9703      746E5F63 
 9703      72656174 
 9703      6500
 9704              	.LASF263:
 9705 0de4 6C765F62 		.ascii	"lv_bar_set_value\000"
 9705      61725F73 
 9705      65745F76 
 9705      616C7565 
 9705      00
 9706              	.LASF199:
 9707 0df5 706F696E 		.ascii	"points\000"
 9707      747300
 9708              	.LASF113:
 9709 0dfc 4C565F41 		.ascii	"LV_ALIGN_OUT_TOP_RIGHT\000"
 9709      4C49474E 
 9709      5F4F5554 
 9709      5F544F50 
 9709      5F524947 
 9710              	.LASF16:
 9711 0e13 696E7431 		.ascii	"int16_t\000"
 9711      365F7400 
 9712              	.LASF81:
 9713 0e1b 636F6F72 		.ascii	"coords\000"
ARM GAS  C:\Users\Sava\AppData\Local\Temp\ccs9rGHG.s 			page 203


 9713      647300
 9714              	.LASF227:
 9715 0e22 6C697374 		.ascii	"list_btn\000"
 9715      5F62746E 
 9715      00
 9716              	.LASF169:
 9717 0e2b 7370696E 		.ascii	"spinbox\000"
 9717      626F7800 
 9718              	.LASF268:
 9719 0e33 6C765F74 		.ascii	"lv_ta_set_text\000"
 9719      615F7365 
 9719      745F7465 
 9719      787400
 9720              	.LASF222:
 9721 0e42 685F7374 		.ascii	"h_style\000"
 9721      796C6500 
 9722              	.LASF93:
 9723 0e4a 6F70615F 		.ascii	"opa_scale_en\000"
 9723      7363616C 
 9723      655F656E 
 9723      00
 9724              	.LASF145:
 9725 0e57 6461795F 		.ascii	"day_names\000"
 9725      6E616D65 
 9725      7300
 9726              	.LASF278:
 9727 0e61 6C765F72 		.ascii	"lv_roller_set_visible_row_count\000"
 9727      6F6C6C65 
 9727      725F7365 
 9727      745F7669 
 9727      7369626C 
 9728              	.LASF61:
 9729 0e81 73686164 		.ascii	"shadow\000"
 9729      6F7700
 9730              	.LASF239:
 9731 0e88 6C765F70 		.ascii	"lv_page_get_scrl\000"
 9731      6167655F 
 9731      6765745F 
 9731      7363726C 
 9731      00
 9732              	.LASF283:
 9733 0e99 6C765F63 		.ascii	"lv_chart_set_next\000"
 9733      68617274 
 9733      5F736574 
 9733      5F6E6578 
 9733      7400
 9734              	.LASF187:
 9735 0eab 6C765F6C 		.ascii	"lv_layout_t\000"
 9735      61796F75 
 9735      745F7400 
 9736              	.LASF109:
 9737 0eb7 4C565F41 		.ascii	"LV_ALIGN_IN_LEFT_MID\000"
 9737      4C49474E 
 9737      5F494E5F 
 9737      4C454654 
 9737      5F4D4944 
 9738              	.LASF91:
ARM GAS  C:\Users\Sava\AppData\Local\Temp\ccs9rGHG.s 			page 204


 9739 0ecc 64726167 		.ascii	"drag_parent\000"
 9739      5F706172 
 9739      656E7400 
 9740              	.LASF112:
 9741 0ed8 4C565F41 		.ascii	"LV_ALIGN_OUT_TOP_MID\000"
 9741      4C49474E 
 9741      5F4F5554 
 9741      5F544F50 
 9741      5F4D4944 
 9742              	.LASF249:
 9743 0eed 6C765F62 		.ascii	"lv_btn_set_style\000"
 9743      746E5F73 
 9743      65745F73 
 9743      74796C65 
 9743      00
 9744              	.LASF242:
 9745 0efe 6C765F6F 		.ascii	"lv_obj_set_style\000"
 9745      626A5F73 
 9745      65745F73 
 9745      74796C65 
 9745      00
 9746              	.LASF155:
 9747 0f0f 636F6E74 		.ascii	"content\000"
 9747      656E7400 
 9748              	.LASF62:
 9749 0f17 70616464 		.ascii	"padding\000"
 9749      696E6700 
 9750              	.LASF207:
 9751 0f1f 4C565F43 		.ascii	"LV_CURSOR_HIDDEN\000"
 9751      5552534F 
 9751      525F4849 
 9751      4444454E 
 9751      00
 9752              	.LASF18:
 9753 0f30 75696E74 		.ascii	"uint32_t\000"
 9753      33325F74 
 9753      00
 9754              	.LASF256:
 9755 0f39 6C765F6F 		.ascii	"lv_obj_set_size\000"
 9755      626A5F73 
 9755      65745F73 
 9755      697A6500 
 9756              	.LASF231:
 9757 0f49 6C6F6164 		.ascii	"loader\000"
 9757      657200
 9758              	.LASF117:
 9759 0f50 4C565F41 		.ascii	"LV_ALIGN_OUT_LEFT_TOP\000"
 9759      4C49474E 
 9759      5F4F5554 
 9759      5F4C4546 
 9759      545F544F 
 9760              	.LASF287:
 9761 0f66 6C765F61 		.ascii	"lv_arc_create\000"
 9761      72635F63 
 9761      72656174 
 9761      6500
 9762              	.LASF301:
ARM GAS  C:\Users\Sava\AppData\Local\Temp\ccs9rGHG.s 			page 205


 9763 0f74 6C765F63 		.ascii	"lv_calendar_create\000"
 9763      616C656E 
 9763      6461725F 
 9763      63726561 
 9763      746500
 9764              	.LASF137:
 9765 0f87 6461726B 		.ascii	"dark\000"
 9765      00
 9766              	.LASF26:
 9767 0f8c 67726565 		.ascii	"green\000"
 9767      6E00
 9768              	.LASF49:
 9769 0f92 6C765F66 		.ascii	"lv_font_t\000"
 9769      6F6E745F 
 9769      7400
 9770              	.LASF9:
 9771 0f9c 73686F72 		.ascii	"short unsigned int\000"
 9771      7420756E 
 9771      7369676E 
 9771      65642069 
 9771      6E7400
 9772              	.LASF32:
 9773 0faf 6C765F63 		.ascii	"lv_coord_t\000"
 9773      6F6F7264 
 9773      5F7400
 9774              	.LASF178:
 9775 0fba 4C565F4C 		.ascii	"LV_LAYOUT_CENTER\000"
 9775      41594F55 
 9775      545F4345 
 9775      4E544552 
 9775      00
 9776              	.LASF60:
 9777 0fcb 626F7264 		.ascii	"border\000"
 9777      657200
 9778              	.LASF313:
 9779 0fd2 6C765F65 		.ascii	"lv_examples\\lv_tests\\lv_test_theme\\lv_test_theme"
 9779      78616D70 
 9779      6C65735C 
 9779      6C765F74 
 9779      65737473 
 9780 1002 2E6300   		.ascii	".c\000"
 9781              	.LASF159:
 9782 1005 6C616265 		.ascii	"label\000"
 9782      6C00
 9783              	.LASF289:
 9784 100b 6C765F6B 		.ascii	"lv_kb_create\000"
 9784      625F6372 
 9784      65617465 
 9784      00
 9785              	.LASF160:
 9786 1018 736C6964 		.ascii	"slider\000"
 9786      657200
 9787              	.LASF50:
 9788 101f 6C765F62 		.ascii	"lv_border_part_t\000"
 9788      6F726465 
 9788      725F7061 
 9788      72745F74 
ARM GAS  C:\Users\Sava\AppData\Local\Temp\ccs9rGHG.s 			page 206


 9788      00
 9789              	.LASF211:
 9790 1030 6F707469 		.ascii	"options\000"
 9790      6F6E7300 
 9791              	.LASF292:
 9792 1038 6C765F77 		.ascii	"lv_win_create\000"
 9792      696E5F63 
 9792      72656174 
 9792      6500
 9793              	.LASF163:
 9794 1046 7072656C 		.ascii	"preload\000"
 9794      6F616400 
 9795              	.LASF272:
 9796 104e 6C765F64 		.ascii	"lv_ddlist_open\000"
 9796      646C6973 
 9796      745F6F70 
 9796      656E00
 9797              	.LASF129:
 9798 105d 6F726967 		.ascii	"origo_align\000"
 9798      6F5F616C 
 9798      69676E00 
 9799              	.LASF196:
 9800 1069 4C565F42 		.ascii	"LV_BTN_STYLE_TGL_REL\000"
 9800      544E5F53 
 9800      54594C45 
 9800      5F54474C 
 9800      5F52454C 
 9801              	.LASF140:
 9802 107e 6B6E6F62 		.ascii	"knob\000"
 9802      00
 9803              	.LASF78:
 9804 1083 5F6C765F 		.ascii	"_lv_font_struct\000"
 9804      666F6E74 
 9804      5F737472 
 9804      75637400 
 9805              	.LASF54:
 9806 1093 70617274 		.ascii	"part\000"
 9806      00
 9807              	.LASF21:
 9808 1098 6E5F7369 		.ascii	"n_size\000"
 9808      7A6500
 9809              	.LASF153:
 9810 109f 63757273 		.ascii	"cursor\000"
 9810      6F7200
 9811              	.LASF226:
 9812 10a6 6C696E65 		.ascii	"line_p\000"
 9812      5F7000
 9813              	.LASF39:
 9814 10ad 756E6963 		.ascii	"unicode_last\000"
 9814      6F64655F 
 9814      6C617374 
 9814      00
 9815              	.LASF244:
 9816 10ba 6C765F74 		.ascii	"lv_theme_get_current\000"
 9816      68656D65 
 9816      5F676574 
 9816      5F637572 
ARM GAS  C:\Users\Sava\AppData\Local\Temp\ccs9rGHG.s 			page 207


 9816      72656E74 
 9817              	.LASF95:
 9818 10cf 6F70615F 		.ascii	"opa_scale\000"
 9818      7363616C 
 9818      6500
 9819              	.LASF172:
 9820 10d9 726F6C6C 		.ascii	"roller\000"
 9820      657200
 9821              		.ident	"GCC: (GNU Tools for ARM Embedded Processors) 5.4.1 20160609 (release) [ARM/embedded-5-bran
