ARM GAS  C:\Users\Sava\AppData\Local\Temp\ccDmfGRl.s 			page 1


   1              		.syntax unified
   2              		.cpu cortex-m3
   3              		.fpu softvfp
   4              		.eabi_attribute 20, 1
   5              		.eabi_attribute 21, 1
   6              		.eabi_attribute 23, 3
   7              		.eabi_attribute 24, 1
   8              		.eabi_attribute 25, 1
   9              		.eabi_attribute 26, 1
  10              		.eabi_attribute 30, 6
  11              		.eabi_attribute 34, 1
  12              		.eabi_attribute 18, 4
  13              		.thumb
  14              		.syntax unified
  15              		.file	"lv_vdb.c"
  16              		.text
  17              	.Ltext0:
  18              		.section	.gnu.lto_.inline.d4ba1a6,"",%progbits
  19 0000 789C658B 		.ascii	"x\234e\213\261\015\2000\014\004\017'N\"!\201DE\307\006"
  19      B10D8030 
  19      0C040F27 
  19      4E222181 
  19      4445C706 
  20 0014 140C92D9 		.ascii	"\024\014\222\3312\000B\031\221\021p\212\210\"\347\302"
  20      32004219 
  20      9111708A 
  20      8822E7C2 
  21 0024 AFB3DF33 		.ascii	"\257\263\3373\321x\370\211\020\024$\225\214G\232r\354"
  21      D178F889 
  21      10142495 
  21      8C479A72 
  21      EC
  22 0035 9799ADDE 		.ascii	"\227\231\255\336SWa\005-\271\217.\330\305\220\231\226"
  22      53576105 
  22      2DB98F2E 
  22      D8C59099 
  22      96
  23 0046 BCB3E8DF 		.ascii	"\274\263\350\337\263\277\353`\002\316\266H=\272\211"
  23      B3BFEB60 
  23      02CEB648 
  23      3DBA89
  24 0055 8349438B 		.ascii	"\203IC\213\017\324G\015)"
  24      0FD4470D 
  24      29
  25              		.text
  26              		.section	.gnu.lto_lv_vdb_get.d4ba1a6,"",%progbits
  27 0000 789C6D52 		.ascii	"x\234mRMkSQ\020\235s\347\346\245h\033\273\022\205,\262"
  27      4D6B5351 
  27      109D73E7 
  27      E6A5681B 
  27      BB12852C 
  28 0015 09D24D29 		.ascii	"\011\322M)\270\351Op\355Z\250\264\325\252\004\005\305"
  28      B8E94F70 
  28      ED5AA8B4 
  28      D5AA0405 
  28      C5
  29 0026 6CDF4DF2 		.ascii	"l\337M\362^kD\027]X\261\265Tt\321\370\331\304\217Ev"
ARM GAS  C:\Users\Sava\AppData\Local\Temp\ccDmfGRl.s 			page 2


  29      5E6B4417 
  29      5D58B1B5 
  29      5474D1F8 
  29      D9C48F45 
  30 003b CF2282A0 		.ascii	"\317\"\202\240-\025\343\246 Zm\027\245\213\006\342\302"
  30      2D15E3A6 
  30      205A6D17 
  30      A58B06E2 
  30      C2
  31 004c 428C332F 		.ascii	"B\2143/.\004;\213\031f\346\3343\347\316\275\226@jG\014"
  31      2E043B8B 
  31      1966E6DC 
  31      33E7CEBD 
  31      96406A47 
  32 0061 D13189C3 		.ascii	"\3211\211\303\232x\004Ia\300\342\331\210w\306\212\263"
  32      9A780449 
  32      61C0E2D9 
  32      8877C68A 
  32      B3
  33 0072 1609A924 		.ascii	"\026\011\251$\240g@\276a\233\200\257\375\330~\232\266"
  33      A06740BE 
  33      619B80AF 
  33      FDD87E9A 
  33      B6
  34 0083 C15A50BD 		.ascii	"\301ZP\275\313-\0232\301J\332\3740\373=\245)\220\221"
  34      CB2D1332 
  34      C14ADAFC 
  34      30FB3DA5 
  34      299091
  35 0096 74CE7D2C 		.ascii	"t\316},'\007\026\235+\272\257\233[\247\247K\341\211"
  35      2707169D 
  35      2BBAAF9B 
  35      5BA7A74B 
  35      E189
  36 00a8 900D750C 		.ascii	"\220\015u\014\241\2024\026\221V\346\207\030 \001o\324"
  36      A1823416 
  36      9156E687 
  36      1820016F 
  36      D4
  37 00b9 7EDFEAF3 		.ascii	"~\337\352\363\002'\226Q\210t\036\301\223\331:\347\335"
  37      02279651 
  37      88741EC1 
  37      93D93AE7 
  37      DD
  38 00ca FDCD560F 		.ascii	"\375\315V\017\037\205\002wW\213U\233}\240\254\321\332"
  38      1F850277 
  38      578B559B 
  38      7DA0ACD1 
  38      DA
  39 00db DBBEDB95 		.ascii	"\333\276\333\225\250\220\011\231\361\030\254\314\307"
  39      A8900999 
  39      F118ACCC 
  39      C7
  40 00e8 D3184AC7 		.ascii	"\323\030J\307\012\361\004Y\301\337\270\331n\035R\374"
  40      0AF10459 
  40      C1DFB8D9 
  40      6E1D52FC 
ARM GAS  C:\Users\Sava\AppData\Local\Temp\ccDmfGRl.s 			page 3


  41 00f8 75173526 		.ascii	"u\0275&Sw*Q\220\371_\206\300\237\"\273t2r\235N\311E"
  41      53772A51 
  41      90F95F86 
  41      C09F22BB 
  41      7432729D 
  42 010f 75EFF517 		.ascii	"u\357\365\027\317\032\022b&E\323\256J\022/\201\233\272"
  42      CF1A1262 
  42      2645D3AE 
  42      4A122F81 
  42      9BBA
  43 0121 05DEC2F2 		.ascii	"\005\336\302\362L\355S\215Ug\211U\346L\270\274\232\324"
  43      4CED538D 
  43      55678955 
  43      E64CB8BC 
  43      9AD4
  44 0133 FBDB5869 		.ascii	"\373\333Xi\275\276\263\236\364\333\356\232s\375R+\353"
  44      BDBEB39E 
  44      F4DBEE9A 
  44      73FD522B 
  44      EB
  45 0144 EAA4BC13 		.ascii	"\352\244\274\023l\254\034\\\300|\301\025\264\236\300"
  45      6CAC1C5C 
  45      C07CC115 
  45      B49EC0
  46 0153 127C3C53 		.ascii	"\022|<S\025\250b\001\364\015\301z\351\302>\254\014B"
  46      15A86201 
  46      F40DC17A 
  46      E9C23EAC 
  46      0C42
  47 0165 EDAFDAA6 		.ascii	"\355\257\332\246\276\221H(\356M}\236\035\356\202\371"
  47      BE914828 
  47      EE4D7D9E 
  47      1DEE82F9 
  48 0175 5FB0D947 		.ascii	"_\260\331G\202)\013\205\226\267\3377\336\034\210%\304"
  48      82290B85 
  48      96B7DF37 
  48      DE1C8825 
  48      C4
  49 0186 750F2F44 		.ascii	"u\017/D\302s\245\226\346\275\275_\215^9\323\243$/U\021"
  49      C273A596 
  49      E6BDBD5F 
  49      8D5E39D3 
  49      A3242F55 
  50 019b E115FC78 		.ascii	"\341\025\374x\250\374\010\376\201B?9\331\311\266|\232"
  50      A8FC08FE 
  50      81423F39 
  50      D9C9B67C 
  50      9A
  51 01ac EEE0EE6A 		.ascii	"\356\340\356j\364\261\210\016\347\362\023\271S\271\374"
  51      F4B1880E 
  51      E7F213B9 
  51      53B9FC
  52 01bb C8D8A5CB 		.ascii	"\310\330\245\313g4\346\307G\007\307(%a\344l\356\352"
  52      6734E6C7 
  52      4707C728 
  52      2561E46C 
  52      EEEA
ARM GAS  C:\Users\Sava\AppData\Local\Temp\ccDmfGRl.s 			page 4


  53 01cd 9573E72F 		.ascii	"\225s\347/N\014\016\375\001\362\335\274\236"
  53      4E0C0EFD 
  53      01F2DDBC 
  53      9E
  54              		.text
  55              		.section	.gnu.lto_vdb.d4ba1a6,"",%progbits
  56 0000 789C6361 		.ascii	"x\234ca`d\000\001\013 \226`\200\200\277L\214;w\276\271"
  56      60640001 
  56      0B209660 
  56      8080BF4C 
  56      8C3B77BE 
  57 0015 CD5EFFB7 		.ascii	"\315^\377\267\241\243\241\341A\3535\275Vf\206Nf\210"
  57      A1A3A1E1 
  57      41EB35BD 
  57      5666864E 
  57      6688
  58 0027 CCCCA6DB 		.ascii	"\314\314\246\333\337\371-\2665t,h\020hef\374\307\304"
  58      DFF92DB6 
  58      35742C68 
  58      10686566 
  58      FCC7C4
  59 003a C0B89CB1 		.ascii	"\300\270\234\261\236\201q\005\243\005\203XNYzNLNY|r"
  59      9E817105 
  59      A3058358 
  59      4E597A4E 
  59      4C4E597C 
  60 004f 7E512A88 		.ascii	"~Q*\210.KI\322Kf\000\000eZ\036\307"
  60      2E4B49D2 
  60      4B660000 
  60      655A1EC7 
  61              		.text
  62              		.section	.gnu.lto_lv_vdb_flush.d4ba1a6,"",%progbits
  63 0000 789C9595 		.ascii	"x\234\225\225_h\024W\024\306\3577wv&\331\331\315n4\265"
  63      5F681457 
  63      14C6EF37 
  63      777626D9 
  63      D9CD6E34 
  64 0015 0A79D840 		.ascii	"\012y\330@\363 \324F(\276\027\351K_}\350SAl\224\"\004"
  64      F320D446 
  64      28BE17E9 
  64      4B5F7DE8 
  64      53416C94 
  65 002b 15B179DD 		.ascii	"\025\261y\335\233\335\235]-m1\2026)\0151\264\305\330"
  65      9BDD9D5D 
  65      2D6D3182 
  65      36290D31 
  65      B4C5D8
  66 003e 687453A3 		.ascii	"htS\243\256\321v\2226\306j\214\211\"b\213\020\255\015"
  66      AED17692 
  66      36C66A8C 
  66      8922628B 
  66      10AD0D
  67 0051 69899A14 		.ascii	"i\211\232\024\377\024J2=\347\316\026e7\011d`g\356\237"
  67      FF144A32 
  67      3DE7CE16 
  67      65370964 
  67      6067EE9F 
ARM GAS  C:\Users\Sava\AppData\Local\Temp\ccDmfGRl.s 			page 5


  68 0065 6FBEDFBD 		.ascii	"o\276\337\275\347\2363k\012\010\276\006,!6\321s#w,\001"
  68      E79E336B 
  68      0A08BE06 
  68      2C2136D1 
  68      7323772C 
  69 007a 43D0CF90 		.ascii	"C\320\317\220B(\303\244\233)\021\242\021S\337C\340w"
  69      4228C3A4 
  69      9B2911A2 
  69      1153DF43 
  69      E077
  70 008c 20928634 		.ascii	" \222\2064CH\342\2311o`(7U0\326\037StM\272O6\252n\017"
  70      4348E299 
  70      316F6028 
  70      375530D6 
  70      1F53744D 
  71 00a6 2EBDEE1B 		.ascii	".\275\356\033\332^\340\030\326\013\222MdN\177%\237\032"
  71      DA5EE018 
  71      D60B924D 
  71      644E7F25 
  71      9F1A
  72 00b8 AE044CEA 		.ascii	"\256\004L\352\316]\377\362\367*\356\032HP7{ =\035\223"
  72      CE5DFFF2 
  72      F72AEE1A 
  72      4850377B 
  72      203D1D93 
  73 00cc EBC0CA3F 		.ascii	"\353\300\312?z\375\317\255\372\257\225J)o>[\323\256"
  73      7AFDCFAD 
  73      FAAF954A 
  73      296F3E5B 
  73      D3AE
  74 00de BC4CC295 		.ascii	"\274L\302\225\022\337A\222)\216\243\026\335\250\325"
  74      12DF4192 
  74      298EA316 
  74      DDA8D5
  75 00ed E6A47E90 		.ascii	"\346\244~\220_8\034\2652\214O\240\007\365\001\030'`"
  75      5F381CB5 
  75      328C4FA0 
  75      07F50118 
  75      2760
  76 00ff D15AC324 		.ascii	"\321Z\303$\030\366_x\261\000\314\313\2759;\332\341\004"
  76      18F65F78 
  76      B100CCCB 
  76      BD393BDA 
  76      E104
  77 0111 E03875FB 		.ascii	"\3408u\373\216\366\036r\030\246\224W\310\275\321\326"
  77      8EF61E72 
  77      18A69457 
  77      C8BDD1D6 
  78 0121 EDA50866 		.ascii	"\355\245\010f\262\013z\211t\262H\302)\324\223\374Q~"
  78      B20B7A89 
  78      74B248C2 
  78      29D493FC 
  78      517E
  79 0133 B0231AC8 		.ascii	"\260#\032\310UO6|E\231\256\014\211\322e\341\264\026"
  79      554F367C 
  79      4599AE0C 
  79      89D265E1 
ARM GAS  C:\Users\Sava\AppData\Local\Temp\ccDmfGRl.s 			page 6


  79      B416
  80 0145 BFE2AD6E 		.ascii	"\277\342\255n\337?\012\345\276\263\250u~%\326}e\326"
  80      DF3F0AE5 
  80      BEB3A875 
  80      7E25D67D 
  80      65D6
  81 0157 EDD9C827 		.ascii	"\355\331\310'\343\252bQ\353\357Wb}\246\314\372\3362"
  81      E3AA6251 
  81      EBEF5762 
  81      7DA6CCFA 
  81      DE32
  82 0169 D6FD2BB1 		.ascii	"\326\375+\261>\253\305_t\365\377\343\004'\253\372\306"
  82      3EABC55F 
  82      74F5FFE3 
  82      0427ABFA 
  82      C6
  83 017a 15F85CAD 		.ascii	"\025\370\\\255r\3619\324\363I\236\332\342)\337O+\357"
  83      72F139D4 
  83      F3499EDA 
  83      E229DF4F 
  83      2BEF
  84 018c 5F6BF0B9 		.ascii	"_k\360\271]m\012\036\264\005-\246\202n\241Jn\205\271"
  84      5D6D0A1E 
  84      B4052DA6 
  84      826EA14A 
  84      6E85B9
  85 019f E5702BC2 		.ascii	"\345p+\302\255(\267\252\270\025\023l-fu\026\316\031"
  85      AD28B7AA 
  85      B815136C 
  85      2D667516 
  85      CE19
  86 01b1 F490D348 		.ascii	"\364\220\323Hs>qj\244%\347`\2410\363\233\235\234W\373"
  86      733E716A 
  86      A425E760 
  86      A130F39B 
  86      9D9C57FB 
  87 01c5 958ABBD2 		.ascii	"\225\212\273\322\366\015\312\030\234G\222^\255\020\367"
  87      F60DCA18 
  87      9C47925E 
  87      AD10F7
  88 01d4 91F935ED 		.ascii	"\221\3715\355\177f\277\224\037q\207n\330\2349\022\002"
  88      7F66BF94 
  88      1F71876E 
  88      D89C3912 
  88      02
  89 01e5 85E262E7 		.ascii	"\205\342b\347\270T\310:\347\265\216DX+\312\214+}\306"
  89      B854C83A 
  89      E7B58E44 
  89      582BCA8C 
  89      2B7DC6
  90 01f8 E30219D3 		.ascii	"\343\002\031\323\334\305\316O\217\207\331%\014\003\003"
  90      DCC5CE4F 
  90      8F87D925 
  90      0C0303
  91 0207 A8E50A3A 		.ascii	"\250\345\012:{\355\256]gt\2526\212\207\303\242\311'"
  91      7BEDAE5D 
  91      6774AA36 
ARM GAS  C:\Users\Sava\AppData\Local\Temp\ccDmfGRl.s 			page 7


  91      8A87C3A2 
  91      C927
  92 0219 DF0C9A64 		.ascii	"\337\014\232d\320FQ\355\247r\212\340\"\352\264;.!I\202"
  92      D04651ED 
  92      A7728AE0 
  92      22EAB43B 
  92      2E214982 
  93 022d D4C0DD56 		.ascii	"\324\300\335V\235\324QL\012\374\240m\216\370\177\016"
  93      9DD4514C 
  93      0AFCA06D 
  93      8EF87F0E 
  94 023d 3B757581 		.ascii	";uu\201M\025\333\364d\273\306\254\242\315\333\256\214"
  94      4D15DBF4 
  94      64BBC6AC 
  94      A2CDDBAE 
  94      8C
  95 024e E1C7FF5D 		.ascii	"\341\307\377]<$]\031\327\353\247*\227S\030z:;\323\025"
  95      3C245D19 
  95      D7EBA72A 
  95      9753187A 
  95      3A3BD315 
  96 0262 E2C95777 		.ascii	"\342\311WwZ\215\362\355T\037\220A\345\315d\036\2149"
  96      5A8DF2ED 
  96      541F9041 
  96      E5CD641E 
  96      8C39
  97 0274 9DE86851 		.ascii	"\235\350hQ-<\276\012C\364I\030\344\270\340't\202\024"
  97      2D3CBE0A 
  97      43F44918 
  97      E4B8E027 
  97      748214
  98 0287 FDB9D1BC 		.ascii	"\375\271\321\274\336\353*\000?\323\314\024R\027\362"
  98      DEEB2A00 
  98      3FD3CC14 
  98      5217F2
  99 0296 8F5B2A83 		.ascii	"\217[*\203\240\332$y1ru\177D\233\320\3651E~5\005;\210"
  99      A0DA2479 
  99      3172757F 
  99      449BD0F5 
  99      31457E35 
 100 02ad 2ECD7EFB 		.ascii	".\315~\3730\325k7lpe\015\206\311r\301(\026\375\255\203"
 100      30D56B37 
 100      6C70650D 
 100      86C972C1 
 100      2816FDAD 
 101 02c2 AA0D0D27 		.ascii	"\252\015\015'u\326\265R|^\303e4,\030\372\3534\202\006"
 101      75D6B552 
 101      7C5EC365 
 101      342C18FA 
 101      EB348206 
 102 02d6 E6FC9D7B 		.ascii	"\346\374\235{3\240T\020H\203\2736\005\003\225\245\330"
 102      33A05410 
 102      4883BB36 
 102      050395A5 
 102      D8
 103 02e7 0296E15E 		.ascii	"\002\226\341^Y\212{[s\177a\256\376\342\\-\341\206\211"
 103      598A7B5B 
ARM GAS  C:\Users\Sava\AppData\Local\Temp\ccDmfGRl.s 			page 8


 103      737F61AE 
 103      FEE25C2D 
 103      E18689
 104 02fa 14702F23 		.ascii	"\024p/#\030qJ\301\363\313\201\257-\005n\267\030<\312"
 104      18714AC1 
 104      F3CB81AF 
 104      2D056EB7 
 104      183CCA
 105 030d 603E095C 		.ascii	"`>\011\\/\001G\210\024\200\357\024\301\321R\360\204"
 105      2F014788 
 105      1480EF14 
 105      C1D152F0 
 105      84
 106 031e B50C786C 		.ascii	"\265\014xl)\360=\015\276\301`\223\301\343%\340*\"ip"
 106      29F03D0D 
 106      BEC16093 
 106      C1E325E0 
 106      2A226970 
 107 0332 111B2BC5 		.ascii	"\021\033+\305\036\266\027\307\006\366\016U,&4<\304\366"
 107      1EB617C7 
 107      06F60E55 
 107      2C26343C 
 107      C4F6
 108 0344 37C97E1A 		.ascii	"7\311~\032k\027/\2525>o\036\267\250\250\364\021\207"
 108      6B172FAA 
 108      353E6F1E 
 108      B7A8A8F4 
 108      1187
 109 0356 F5BE6905 		.ascii	"\365\276i\0051W\276\256\363\232<\344C\264\304\205\242"
 109      3157BEAE 
 109      F39A3CE4 
 109      43B4C485 
 109      A2
 110 0367 7AFD0BA9 		.ascii	"z\375\013\251x\360\1774\313YB\273[\323\324\374Q\323"
 110      78F07F34 
 110      CB5942BB 
 110      5BD3D4FC 
 110      51D3
 111 0379 074DCD5B 		.ascii	"\007M\315[\033w\357\335\301\317\346\355\037\276\325"
 111      1B77EFDD 
 111      C1CFE6ED 
 111      1FBED5
 112 0388 286C7A6C 		.ascii	"(lzl\335\326\270\257\346\275]\315\333\232vnO\274\377"
 112      DDD6B8AF 
 112      E6BD5DCD 
 112      DB9A766E 
 112      4FBCFF
 113 039b EEE6C49E 		.ascii	"\356\346\304\236\335;w\355\333\261W\374\007\222\014"
 113      DD3B77ED 
 113      DBB157FC 
 113      07920C
 114 03aa 3704     		.ascii	"7\004"
 115              		.text
 116              		.section	.gnu.lto_lv_vdb_set_adr.d4ba1a6,"",%progbits
 117 0000 789C6D50 		.ascii	"x\234mP\277K\202Q\024}\347\275/5#i)\010$\244E\\\022"
 117      BF4B8251 
 117      147DE7BD 
ARM GAS  C:\Users\Sava\AppData\Local\Temp\ccDmfGRl.s 			page 9


 117      2F352369 
 117      290824A4 
 118 0017 FB331A9B 		.ascii	"\3733\032\233\203\300\037\265\010A\220\253/\355\253"
 118      83C01FB5 
 118      084190AB 
 118      2FEDAB
 119 0026 84A8C920 		.ascii	"\204\250\311 )\204(\324\312\324j\320\246/\211Z\212("
 119      298428D4 
 119      CAD46AD0 
 119      A62F895A 
 119      8A28
 120 0038 686A0923 		.ascii	"hj\011#\007iP,\242!\355\276\257\306\036\274w\336\375"
 120      0769502C 
 120      A221EDBE 
 120      AFC61EBC 
 120      77DEFD
 121 004b 71EE3DF7 		.ascii	"q\356=\367j\014L\235e\202Q\302Ae\010\006\316\350B\305"
 121      6A0C4C9D 
 121      658251C2 
 121      41650806 
 121      CEE842C5 
 122 005f C0A21C51 		.ascii	"\300\242\034Q|\360o\216\352J\275\302=\031I\347\371u"
 122      7CF06F8E 
 122      EA4ABDC2 
 122      3D1949E7 
 122      F975
 123 0071 D727B306 		.ascii	"\327'\263\006t\301X\227\2335\0302\360P\326\375Rq[\274"
 123      74C15897 
 123      9B351832 
 123      F050D6FD 
 123      52715BBC 
 124 0085 735D001A 		.ascii	"s]\000\032\231\255\333\324\213C\231\034.27\316\257\257"
 124      99ADDBD4 
 124      8B43991C 
 124      2E3237CE 
 124      AFAF
 125 0097 1C62188C 		.ascii	"\034b\030\214\376k{g\237\375\356})cR~\005e\257.\004"
 125      FE6B7B67 
 125      9FFDEE7D 
 125      2963527E 
 125      0565AF2E 
 126 00ac 0E20A81E 		.ascii	"\016 \250\036rp\"\013'#\027\303!\334\224\335\316\225"
 126      7270220B 
 126      272317C3 
 126      21DC94DD 
 126      CE95
 127 00be 937D62C4 		.ascii	"\223}b\304d\346\353\355\232\355\217y\032\372e\036\375"
 127      64E6EBED 
 127      9AED8F79 
 127      1AFA651E 
 127      FD
 128 00cf C3CCC3AD 		.ascii	"\303\314\303\255\322k\245N\262\337\262\244\204\273~"
 128      D26BA54E 
 128      B2DFB2A4 
 128      84BB7E
 129 00de E5E21816 		.ascii	"\345\342\030\0265^a\322\220\335n\\\032[\366\213\262"
 129      355E61D2 
ARM GAS  C:\Users\Sava\AppData\Local\Temp\ccDmfGRl.s 			page 10


 129      90DD6E5C 
 129      1A5BF68B 
 129      B2
 130 00ef 5DA399A9 		.ascii	"]\243\231\251\031cMs\244\026'\020u\304R\255\353\007"
 130      19634D73 
 130      A4162710 
 130      75C452AD 
 130      EB07
 131 0101 A128546B 		.ascii	"\241(TkS\257\336Y\325<\232\251\244Ry{\262F\277\345\252"
 131      53AFDE59 
 131      D53C9AA9 
 131      A452797B 
 131      B246BFE5 
 132 0116 9403E44B 		.ascii	"\224\003\344K\320>\224\273q\363xiOcgQ\232\376\036\024"
 132      D03E94BB 
 132      71F37869 
 132      4F636751 
 132      9AFE1E14 
 133 012a 69890592 		.ascii	"i\211\005\222\245\202\353\345b\302\346\315+9\322\247"
 133      A582EBE5 
 133      62C2E6CD 
 133      2B39D2A7 
 134 013a 0B0B4A48 		.ascii	"\013\013JH\243c\266\304\011\274q\301Y\0031\2432\241"
 134      A363B6C4 
 134      09BC71C1 
 134      590331A3 
 134      32A1
 135 014c 5A9AAB6D 		.ascii	"Z\232\253mr\022K\011C\341\310lx*\034\231\016\314\315"
 135      72124B09 
 135      43E1C86C 
 135      782A1C99 
 135      0ECCCD
 136 015f 87144682 		.ascii	"\207\024F\202\376\261\000\323\374\0133>\365\214\377"
 136      FEB100D3 
 136      FC0B333E 
 136      F58CFF
 137 016e 0049508D 		.ascii	"\000IP\215\014"
 137      0C
 138              		.text
 139              		.section	.gnu.lto_lv_flush_ready.d4ba1a6,"",%progbits
 140 0000 789C6361 		.ascii	"x\234ca`d\000\201\207@,\001\304\242 \0163\003#\023\003"
 140      60640081 
 140      87402C01 
 140      C4A2200E 
 140      33032313 
 141 0015 103382E4 		.ascii	"\0203\202\344\030\031\352\231\030\353\031\2772\375e"
 141      1819EA99 
 141      18EB19BF 
 141      32FD65
 142 0024 623CD4FE 		.ascii	"b<\324\376l'\223\346\362\006 x\260tUesC\253D+3\003\303"
 142      6C2793E6 
 142      F2062078 
 142      B0745565 
 142      7343AB44 
 143 003c 7F26B019 		.ascii	"\177&\260\031\014\214\313\0315\031\200\312\036m\374"
 143      0C8CCB19 
 143      351980CA 
ARM GAS  C:\Users\Sava\AppData\Local\Temp\ccDmfGRl.s 			page 11


 143      1E6DFC
 144 004b 379597AD 		.ascii	"7\225\227\255\005\244L\001\"\311\270\202\221\015d\330"
 144      05A44C01 
 144      22C9B882 
 144      910D64D8 
 145 005b FAA0030D 		.ascii	"\372\240\003\015\377\37777\034\270\312u\360\023\027"
 145      FFFF3737 
 145      1CB8CA75 
 145      F01317
 146 006a 50EB07B0 		.ascii	"P\353\007\260\326\217L@\212\371\031\343\241/\037\256"
 146      D68F4C40 
 146      8AF919E3 
 146      A12F1FAE 
 147 007a 2E620529 		.ascii	".b\005)\006\2322\255\365\320y\366/L\255\314@g\000\271"
 147      069A32AD 
 147      F5D079F6 
 147      2F4CADCC 
 147      406700B9 
 148 008e 3B77BEB9 		.ascii	";w\276\271\315^\377\267\241\243\241A\000(\326\011\324"
 148      CD5EFFB7 
 148      A1A3A141 
 148      0028D609 
 148      D4
 149 009f 0C127ED3 		.ascii	"\014\022~\323\362\350\034\367|\306\271\215\015\215 "
 149      F2E81CF7 
 149      7CC6B98D 
 149      0D8D20
 150 00ae 7126C655 		.ascii	"q&\306U@\307\256d\224\001\332\271\232q>#\2629L\214\014"
 150      40C7AE64 
 150      9401DAB9 
 150      9A713E23 
 150      B2394C8C 
 151 00c3 8C6B8032 		.ascii	"\214k\2002\257\030\233\016|\366\002\331\002v\365\007"
 151      AF189B0E 
 151      7CF602D9 
 151      0276F507 
 152 00d3 A03803D0 		.ascii	"\2408\003\320~\261\234\262\364\234\230\234\262\370\344"
 152      7EB19CB2 
 152      F49C989C 
 152      B2F8E4
 153 00e2 FCA25410 		.ascii	"\374\242T\020]\226\222\244\227\314\000\000s\303V0"
 153      5D9692A4 
 153      97CC0000 
 153      73C35630 
 154              		.text
 155              		.section	.gnu.lto_lv_vdb_get_active.d4ba1a6,"",%progbits
 156 0000 789C6550 		.ascii	"x\234eP\275K\302Q\024\275\347=\321H+\247hppqpi\356O"
 156      BD4BC251 
 156      14BDE73D 
 156      D1482BA7 
 156      68707071 
 157 0018 6869690E 		.ascii	"hii\016\242,Z\204\240\301\325\353\307\217R\012\022\252"
 157      A22C5A84 
 157      A0C1D5EB 
 157      C78F520A 
 157      12AA
 158 002a A10C8306 		.ascii	"\241\014\203\006\373\260\254\321\315\242\255\"\012l"
ARM GAS  C:\Users\Sava\AppData\Local\Temp\ccDmfGRl.s 			page 12


 158      FBB0ACD1 
 158      CDA2AD22 
 158      0A6C
 159 0038 6989BE06 		.ascii	"i\211\276\006iP\260!\301\354^\033\273\360\336\341\336"
 159      6950B021 
 159      C1EC5E1B 
 159      BBF0DEE1 
 159      DE
 160 0049 7BEE3DE7 		.ascii	"{\356=\347=\027\2014&\004F\004\003\232\270\010\206\344"
 160      3D178134 
 160      26044604 
 160      039AB808 
 160      86E4
 161 005b C0CA6DA1 		.ascii	"\300\312m\241\014P\334X\304\361e:\006\367\351\263\274"
 161      0C50DC58 
 161      C4F1653A 
 161      06F7E9B3 
 161      BC
 162 006c 6D19C712 		.ascii	"m\031\307\022\\\2226o\267_\0075\005\202\222\356\360"
 162      5C92366F 
 162      B75F0735 
 162      058292EE 
 162      F0
 163 007d 43C6132E 		.ascii	"C\306\023.2'\371\371\275<\223K9\343\2165\3245\204\003"
 163      3227F9F9 
 163      BD3C934B 
 163      39E38E35 
 163      D4358403 
 164 0091 0450846A 		.ascii	"\004P\204j\340\020a\022\362\313\371\317\346\200;\315"
 164      E0106112 
 164      F2CBF9CF 
 164      E6803BCD 
 165 00a1 1241A548 		.ascii	"\022A\245H\347\010nQ\2044W\327:\255\241\320>s\226\253"
 165      E7086E51 
 165      843457D7 
 165      3AADA1D0 
 165      3E7396AB 
 166 00b5 1BD7BEEC 		.ascii	"\033\327\276\354z\242\357\377&\241\036#T\236\254r\267"
 166      7AA2EFFF 
 166      26A11E23 
 166      549EAC72 
 166      B7
 167 00c6 9BE26ACE 		.ascii	"\233\342j\316{\221\367Z\220\022\251\241\013\251i\004"
 167      7B91F75A 
 167      9012A9A1 
 167      0BA96904 
 168 00d6 EC0792ED 		.ascii	"\354\007\222\355\345\307\322\230\356OY]\277\345\\\336"
 168      E5C7D298 
 168      EE4F595D 
 168      BFE55CDE 
 169 00e6 79D4B781 		.ascii	"y\324\267\201Z\251T>\237<\361\016\2570\373\245\226\221"
 169      5AA9543E 
 169      9F3CF10E 
 169      AF30FBA5 
 169      9691
 170 00f8 C76BB97E 		.ascii	"\307k\271~S\273\352/`7\301\275\272\305\211|CI\245\245"
 170      53BBEA2F 
ARM GAS  C:\Users\Sava\AppData\Local\Temp\ccDmfGRl.s 			page 13


 170      6037C1BD 
 170      BAC5897C 
 170      4349A5A5 
 171 010c B9D7FEAE 		.ascii	"\271\327\376\256\371dF}\341\024\0055^F\274'*\363\366"
 171      F964467D 
 171      E1140535 
 171      5E46BC27 
 171      2AF3F6
 172 011f 0D093FB1 		.ascii	"\015\011?\261\330\251\313o\376\011\253\243\206(\222"
 172      D8A9CB6F 
 172      FE09ABA3 
 172      862892
 173 012e 981A8EC6 		.ascii	"\230\032\216\306\026\242S\321\330tdqi^167;\032\241_"
 173      16A253D1 
 173      D8746471 
 173      695E3136 
 173      373B1AA1 
 174 0143 4A647479 		.ascii	"Jdty"
 175              		.text
 176              		.section	.gnu.lto_lv_vdb_get_inactive.d4ba1a6,"",%progbits
 177 0000 789C6550 		.ascii	"x\234eP\275K\302Q\024\275\347=\321H+\247hppqpi\356O"
 177      BD4BC251 
 177      14BDE73D 
 177      D1482BA7 
 177      68707071 
 178 0018 6869690E 		.ascii	"hii\016\242,Z\204\240\301\325\353\307\217R\012j\250"
 178      A22C5A84 
 178      A0C1D5EB 
 178      C78F520A 
 178      6AA8
 179 002a A10F0C1A 		.ascii	"\241\017\014\032\354\313\254)$\010\213\266\212(\260"
 179      ECCBAC29 
 179      24088BB6 
 179      8A28B0
 180 0039 A5252A1A 		.ascii	"\245%*\032\244A\301\206\004\265{m\354\302{\207{\357"
 180      A441C186 
 180      04B57B6D 
 180      ECC27B87 
 180      7BEF
 181 004b B9F79CF7 		.ascii	"\271\367\234\367\\\004\322\030\023\030\022\014h\342"
 181      5C04D218 
 181      1318120C 
 181      68E2
 182 0059 22189203 		.ascii	"\"\030\222\003+\267\2052@qc\021\307\267i\031<\246O\267"
 182      2BB78532 
 182      40716311 
 182      C7B76919 
 182      3CA64FB7 
 183 006d 6DC33896 		.ascii	"m\3038\226\340\222\264~\277\371\336\257)\020\224t\213"
 183      E092B47E 
 183      BFF9DEAF 
 183      29109474 
 183      8B
 184 007e 9F329E70 		.ascii	"\2372\236p\2369\311\257\316\371\324Z\312\031u\254\241"
 184      9E39C9AF 
 184      CEF9D45A 
 184      CA1975AC 
ARM GAS  C:\Users\Sava\AppData\Local\Temp\ccDmfGRl.s 			page 14


 184      A1
 185 008f 8E21EC23 		.ascii	"\216!\354#\200<T\003\007\010\223\220\337\316\332\353"
 185      803C5403 
 185      07089390 
 185      DFCEDAEB 
 186 009f 7DEE344B 		.ascii	"}\3564K\004\225\"\235C\270E\021\322\\^i5\006B{\314Y"
 186      0495229D 
 186      43B84511 
 186      D25C5E69 
 186      3506427B 
 187 00b5 2E5FDEFA 		.ascii	"._\336\372\262\253\211\236\377\233\204z\204Pq\274\314"
 187      B2AB899E 
 187      FF9B847A 
 187      845071BC 
 187      CC
 188 00c6 9D4E8ACB 		.ascii	"\235N\212\313\027\336\253g\257\005)\221j\272\220\352"
 188      17DEAB67 
 188      AF052991 
 188      6ABA90EA 
 189 00d6 46C07E22 		.ascii	"F\300~\"\331\\l\027Ft\177\312\352\372\015\347\372\301"
 189      D95C6C17 
 189      46747FCA 
 189      EAFA0DE7 
 189      FAC1
 190 00e8 A3BE0DD4 		.ascii	"\243\276\015\324J\251\364\365\342\211\267x\211\331/"
 190      4AA9F4F5 
 190      E289B778 
 190      89D92F
 191 00f7 B58C3C5E 		.ascii	"\265\214<^\313\325\273\312Mo\016;\011\356\326-\012\362"
 191      CBD5BBCA 
 191      4D6F0E3B 
 191      09EED62D 
 191      0AF2
 192 0109 0DC72A2D 		.ascii	"\015\307*-\315\335\346O\305'3\352\013'\310\251\361\""
 192      CDDDE64F 
 192      C52733EA 
 192      0B27C8A9 
 192      F122
 193 011b E25D5199 		.ascii	"\342]Q\231\267\037H\370\211\305NU~\363OX\035\325D\221"
 193      B71F48F8 
 193      89C54E55 
 193      7EF34F58 
 193      1DD54491 
 194 012f C4D46034 		.ascii	"\304\324`46\027\235\210\306&#\363\013\263\212\261\231"
 194      36179D88 
 194      C62623F3 
 194      0BB38AB1 
 194      99
 195 0140 E9E108FD 		.ascii	"\351\341\010\375\002l\373t\330"
 195      026CFB74 
 195      D8
 196              		.text
 197              		.section	.gnu.lto_lv_vdb_is_flushing.d4ba1a6,"",%progbits
 198 0000 789C5D90 		.ascii	"x\234]\220=K\003A\020\206\347\335\015\211x(\251\324"
 198      3D4B0341 
 198      1086E7DD 
 198      0D897828 
ARM GAS  C:\Users\Sava\AppData\Local\Temp\ccDmfGRl.s 			page 15


 198      A9D4
 199 0012 22459A14 		.ascii	"\"E\232\024iD\361\237X\013\202Ql\016\002\026\327\336"
 199      6944F19F 
 199      580B8251 
 199      6C0E0216 
 199      D7DE
 200 0024 9CC9815F 		.ascii	"\234\311\201_\255\261\222\024\"\211\037 b\225F.W\011"
 200      ADB19214 
 200      22891F20 
 200      6295462E 
 200      5709
 201 0036 82961636 		.ascii	"\202\226\0266\022\324BR\0300\304\346<gb\347\300\356"
 201      12D44252 
 201      1830C4E6 
 201      3C6762E7 
 201      C0EE
 202 0048 ECCC3CBC 		.ascii	"\354\314<\2743\263\031\002\251\315\212\233\023_\320"
 202      33B31902 
 202      A9CD8A9B 
 202      135FD0
 203 0057 20433024 		.ascii	" C0$\007Vn\013%@\276\261\36014\211\301\375\350\356`"
 203      07566E0B 
 203      2540BEB1 
 203      F0313489 
 203      C1FDE8EE 
 204 006c B2DC62DE 		.ascii	"\262\334b\336\346\227\323\333\305\243v\204P\320\324"
 204      E697D3DB 
 204      C5A37684 
 204      50D0D4
 205 007b 10960A58 		.ascii	"\020\226\012XP\015\264P&A{\327?\207S\331:\213\025\025"
 205      500DB450 
 205      26417BD7 
 205      3F8753D9 
 205      3A8B1515 
 206 008f 904A1B59 		.ascii	"\220J\033YQ\204\024\337\302\247\233\211\322\011\363"
 206      518414DF 
 206      C2A79B89 
 206      D209F3
 207 009e 1E47A3FD 		.ascii	"\036G\243\375i\321\011\212\377\205\204<C\351j9\3424"
 207      69D1098A 
 207      FF85843C 
 207      43E96A39 
 207      E234
 208 00b0 AD713474 		.ascii	"\255q4t\272\337\2165\244\030}\252\036\015\2148\373\216"
 208      BADF8E35 
 208      A4187DAA 
 208      1E0D8C38 
 208      FB8E
 209 00c2 B8314862 		.ascii	"\2701Hb\253\3625\253S6\302\3701\367eB]@\302N\247\377"
 209      ABF235AB 
 209      5336C2F8 
 209      31F76542 
 209      5D40C24E 
 210 00d8 9CF313DE 		.ascii	"\234\363\023\336a\316KnW\005$\335\257\367\036\234&\216"
 210      61CE4B6E 
 210      570524DD 
 210      AFF71E9C 
ARM GAS  C:\Users\Sava\AppData\Local\Temp\ccDmfGRl.s 			page 16


 210      268E
 211 00ea 030E346F 		.ascii	"\003\0164op![\236CZ\343\022M\214\365\005\265\257\010"
 211      70215B9E 
 211      435AE312 
 211      4D8CF505 
 211      B5AF08
 212 00fd F2C416F4 		.ascii	"\362\304\026\364!\377\362\327\203\306#\010\"\257\031"
 212      21FFF2D7 
 212      83C62308 
 212      22AF19
 213 010c D7DB7457 		.ascii	"\327\333tW\\o\265R\335\332P\357\255\257\315W\350\027"
 213      5C6FB552 
 213      DDDA50EF 
 213      ADAFCD57 
 213      E817
 214 011e 7FCC6156 		.ascii	"\177\314aV"
 215              		.text
 216              		.section	.gnu.lto_.symbol_nodes.d4ba1a6,"",%progbits
 217 0000 789C6361 		.ascii	"x\234ca`d8\305\000\004L\374\365\014\014\023\31610\000"
 217      606438C5 
 217      00044CFC 
 217      F50C0C13 
 217      CE313000 
 218 0014 A9558D8A 		.ascii	"\251U\215\212\014\014\254|\014-B\014\014\314\254\274"
 218      0C0CAC7C 
 218      0C2D420C 
 218      0CCCACBC 
 219 0024 8C609A49 		.ascii	"\214`\232I\240\236\021E\001\223`=\023\252\200P=3\252"
 219      A09E1145 
 219      0193603D 
 219      13AA8050 
 219      3D33AA
 220 0037 80703D0B 		.ascii	"\200p=\013\252\200H=+\252\200h=\033\252\255<L`\333\030"
 220      AA80483D 
 220      2BAA8068 
 220      3D1BAAAD 
 220      3C4C60DB 
 221 004c C5EBD9C1 		.ascii	"\305\353\331\301\022\014\014\015\015\012\014\014\214"
 221      120C0C0D 
 221      0D0A0C0C 
 221      8C
 222 0059 62F51CC8 		.ascii	"b\365\034\310|ff\006\206\305\017\376923s3<\001\323\\"
 222      7C666606 
 222      86C50FFE 
 222      39323373 
 222      333C01D3 
 223 006e 0C47DADF 		.ascii	"\014G\332\337\314\347`\000\000]p,\017"
 223      CCE76000 
 223      005D702C 
 223      0F
 224              		.text
 225              		.section	.gnu.lto_.refs.d4ba1a6,"",%progbits
 226 0000 789C158A 		.ascii	"x\234\025\212\311\015\0000\014\3020I\257Y\272\377~\245"
 226      C90D0030 
 226      0CC23049 
 226      AF59BAFF 
 226      7EA5
ARM GAS  C:\Users\Sava\AppData\Local\Temp\ccDmfGRl.s 			page 17


 227 0012 20233F68 		.ascii	" #?h\241+\311\022\330\025\016\005\235\032\006\311tl"
 227      A12BC912 
 227      D8150E05 
 227      9D1A06C9 
 227      746C
 228 0024 FDD939E9 		.ascii	"\375\3319\351\001\020\205\000\212"
 228      01108500 
 228      8A
 229              		.text
 230              		.section	.gnu.lto_.decls.d4ba1a6,"",%progbits
 231 0000 789CBD58 		.ascii	"x\234\275XiPTW\026~\367\275\2467\232&\203F\255\031f"
 231      69505457 
 231      167EF7BD 
 231      A6379A26 
 231      8346AD19 
 232 0015 E22831CC 		.ascii	"\342(1\314\217\0201\231L*IU\266\251d*U3\225\311\304"
 232      8F103199 
 232      4C2A4955 
 232      B6A9642A 
 232      553395C9 
 233 002a D4D40C53 		.ascii	"\324\324\014S=\010\255R\325\202\005\215\24555\311\003"
 233      3D08AD52 
 233      D582058D 
 233      A53535C9 
 233      03
 234 003b 5904A282 		.ascii	"Y\004\242\202\033\210\212,\312\216l.,.-.\010(*\250-"
 234      1B888A2C 
 234      CA8E6C2E 
 234      2C2E2D2E 
 234      08282AA8 
 235 0050 02022A26 		.ascii	"\002\002*&\242\"\012.l2\347.\257\337\353\226\216\377"
 235      A2220A2E 
 235      6C32E72E 
 235      AFDFEB96 
 235      8EFF
 236 0062 A68B5BEF 		.ascii	"\246\213[\357\335{\277s\276\357\236{\356\362Pq\210\303"
 236      DD7BBF73 
 236      BEEF9E7B 
 236      EEF25071 
 236      88C3
 237 0074 BF3BB339 		.ascii	"\277;\2639\356K\201\343Jy\216\233\202\237\016\332\276"
 237      EE4B81E3 
 237      4A798E9B 
 237      829F0EDA 
 237      BE
 238 0085 E5E41FAE 		.ascii	"\345\344\037\256O@\231\202\242\002\0235\024-\024=\024"
 238      4F409982 
 238      A2021335 
 238      142D143D 
 238      14
 239 0096 1F28F3A0 		.ascii	"\037(\363\240|\000\005\\p\037\301\363\023(_!\316\351"
 239      7C00055C 
 239      701FC1F3 
 239      13285F21 
 239      CEE9
 240 00a8 87ED3550 		.ascii	"\207\3555P|\240\314\2042\006\305\0130\177\205\362!\224"
 240      7CA0CC84 
ARM GAS  C:\Users\Sava\AppData\Local\Temp\ccDmfGRl.s 			page 18


 240      3206C50B 
 240      307F85F2 
 240      2194
 241 00ba 5186430C 		.ascii	"Q\206C\014\253\364\365\265\213/\334\006R\271\2771;\334"
 241      ABF4F5B5 
 241      8B2FDC06 
 241      52B9BF31 
 241      3BDC
 242 00cc 3DACB077 		.ascii	"=\254\260w\345\306\272\347\2601)\371q\233\032\312#("
 242      E5C6BAE7 
 242      B03129F9 
 242      719B1ACA 
 242      2328
 243 00de DF80CD38 		.ascii	"\337\200\3158<\027\303\363\017P\376\001\345\237x\034"
 243      3C17C3F3 
 243      0F50FE01 
 243      E59F781C 
 244 00ee D0F66F78 		.ascii	"\320\366ox\006Cy\337Eo\023\224\303P\226@\375\267\210"
 244      064379DF 
 244      456F1394 
 244      C3509640 
 244      FDB788
 245 0101 FA1A8172 		.ascii	"\372\032\201r\002\312i(\015P\2163m*\246\003\217\355"
 245      02CA6928 
 245      0D508E33 
 245      6D2AA603 
 245      8FED
 246 0113 0316339E 		.ascii	"\003\0263\236\2151\304E/\216\261\306E\357b\246y\224"
 246      8D31C445 
 246      2F8EB1C6 
 246      45EF62A6 
 246      7994
 247 0125 E995C68C 		.ascii	"\351\225\306\214\030\036\261\270(\177j6'\330\217\244"
 247      181EB1B8 
 247      287F6A36 
 247      27D88FA4 
 248 0135 5B8A919A 		.ascii	"[\212\221\232\331|\344b\203\347U\345\022'\345\334h\231"
 248      D97CE462 
 248      83E755E5 
 248      1227E5DC 
 248      6899
 249 0147 6ECC15EA 		.ascii	"n\314\025\352b\253\177\211\255^akv\261\365aZ\2259!\331"
 249      62AB7F89 
 249      AD5E616B 
 249      76B1F561 
 249      5A953921 
 250 015c F92862B5 		.ascii	"\371(b\265\324\305n\222G\023\343\255\3075\235\250\003"
 250      D4C56E92 
 250      4713E3AD 
 250      C7359DA8 
 250      03
 251 016d F720FCE3 		.ascii	"\367 \374\3438\027\020\242\005\321f^j\242}\350E0q!\267"
 251      381710A2 
 251      05D1665E 
 251      6AA27DE8 
 251      45307121 
 252 0182 BB00C81A 		.ascii	"\273\000\310\032!?\271\003Qbj\244\304K\324@K_\021\347"
ARM GAS  C:\Users\Sava\AppData\Local\Temp\ccDmfGRl.s 			page 19


 252      213FB903 
 252      51626AA4 
 252      C44BD440 
 252      4B5F11E7 
 253 0196 50216115 		.ascii	"P!a\025\376\230zY\254\313O\220\006}\266(\373\010\022"
 253      FE987A59 
 253      ACCB4F90 
 253      067DB628 
 253      FB0812
 254 01a9 C027BCF7 		.ascii	"\300'\274\367\214\026~\036P*\302/U\024\371_\313\221"
 254      8C167E1E 
 254      502AC22F 
 254      5514F95F 
 254      CB91
 255 01bb B91857B1 		.ascii	"\271\030W\261S\030\341\221\217\036\251\240\372\360\\"
 255      5318E191 
 255      8F1EA9A0 
 255      FAF05C
 256 01ca E64D2354 		.ascii	"\346M#Tg\352\321\\\250f\326\2174{\320^-T\017\015\226"
 256      67EAD15C 
 256      A866D68F 
 256      347BD05E 
 256      2D540F0D 
 257 01df 1CF2A2BD 		.ascii	"\034\362\242\2756l\\\031S\021\217\204Y\204\241\376\320"
 257      366C5C19 
 257      53118F84 
 257      5984A1FE 
 257      D0
 258 01f0 E1D31EB4 		.ascii	"\341\323\036\264o!TOM=\265ySK\036\252mCgwy\322\336W"
 258      6F21544F 
 258      4D3DB579 
 258      534B1EAA 
 258      6D436777 
 259 0208 A07A243D 		.ascii	"\240z$=\353k\341W\304\356fnk\036\017=s\364\010F\207"
 259      EB6BE157 
 259      C4EE666E 
 259      6B1E0F3D 
 259      73F40846 
 260 021d 396D17FE 		.ascii	"9m\027\376E\353\242\370\035\324\253;G\212x\3417\030"
 260      45EBA2F8 
 260      1DD4AB3B 
 260      478A78E1 
 260      3718
 261 022f CC776F2D 		.ascii	"\314wo-z\252Fz\377ux$\342ZQ\357\317\241J\344\213*\220"
 261      7AAA467A 
 261      FF757824 
 261      E25A51EF 
 261      CFA14AE4 
 262 0246 2F870E21 		.ascii	"/\207\016!\177lU\204\0028\264\037\032\253\2411\037\343"
 262      7F6C5584 
 262      0238B41F 
 262      1AABA131 
 262      1FE3
 263 0258 7A2BFB3F 		.ascii	"z+\373?]+\212\010\035Dzt\000\011\004\002\341\233\243"
 263      5D2B8A08 
 263      1D447A74 
 263      00090402 
ARM GAS  C:\Users\Sava\AppData\Local\Temp\ccDmfGRl.s 			page 20


 263      E19BA3
 264 026b A7313890 		.ascii	"\24718\220qn\263Q(A\204bCfG\236\301\035E\235[\012{\212"
 264      716EB351 
 264      28418462 
 264      4366479E 
 264      C11D459D 
 265 0283 5F8928BE 		.ascii	"_\211(\276\202j\201\242F\246\000F\312\261q\242k\233"
 265      826A81A2 
 265      46A60046 
 265      CAB171A2 
 265      6B9B
 266 0295 B7504C66 		.ascii	"\267PLf\203\177\236UpX\357\216\343\210[\216\316\315"
 266      837F9E55 
 266      7058EF8E 
 266      E3885B8E 
 266      CECD
 267 02a7 AF15618E 		.ascii	"\257\025a\216\303\300Q/s\324J\034gR\357\377G\270\312"
 267      C3C0512F 
 267      73D44A1C 
 267      6752EFFF 
 267      47B8CA
 268 02ba 263C33ED 		.ascii	"&<3\355\234^\350\244\225\252\272\236\215\236\302uRQ"
 268      9C5EE8A4 
 268      95AABA9E 
 268      8D9EC275 
 268      5251
 269 02cc 5725B60D 		.ascii	"W%\266\015\252\220\237\237\337\014\177\277\\\354\327"
 269      AA909F9F 
 269      DF0C7FBF 
 269      5CECD7
 270 02db 76280765 		.ascii	"v(\007e\210\266X\2018\266\201\343\223h\206\254\347-"
 270      88B65881 
 270      38B681E3 
 270      936886AC 
 270      E72D
 271 02ed 5FE02887 		.ascii	"_\340(\2077\216\243\360\375\301b\274\232`\253\246\305"
 271      378EA3F0 
 271      FDC162BC 
 271      9A60ABA6 
 271      C5
 272 02fe 9628B015 		.ascii	"\226(\260\025\016\354\261i\261\201\030\232F\362\322"
 272      0EECB169 
 272      B181189A 
 272      46F2D2
 273 030d 0633C473 		.ascii	"\0063\304s\250\014\372K\261\007\202\206!\242S\020\220"
 273      A80CFA4B 
 273      B1078286 
 273      21A25310 
 273      90
 274 031e 13C80F9D 		.ascii	"\023\310\017\235\206\322\000\3458\362#\331K\202b\333"
 274      86D200E5 
 274      38F223D9 
 274      4B8262DB 
 275 032e 6516452D 		.ascii	"e\026E-\306r,\036\234\203\274Z9\256\243\323\362W\022"
 275      C6722C1E 
 275      9C83BC5A 
 275      39AEA3D3 
ARM GAS  C:\Users\Sava\AppData\Local\Temp\ccDmfGRl.s 			page 21


 275      F25712
 276 0341 AD10A247 		.ascii	"\255\020\242G\366\033o\010}tz\012\013F\353\274\220\377"
 276      F61B6F08 
 276      7D747A0A 
 276      0B46EBBC 
 276      90FF
 277 0353 0C4A50EB 		.ascii	"\014JP\353%\362\250\011,\033\345\220c:7\272\321\031"
 277      25F2A809 
 277      2C1BE590 
 277      633A37BA 
 277      D119
 278 0365 90FB32E9 		.ascii	"\220\3732\351@8\376\323\226\016D\027\210\001\252\261"
 278      4038FED3 
 278      960E4417 
 278      8801AAB1 
 279 0375 F51D69DE 		.ascii	"\365\035i\336t\201\364\342\356\222\221\311\026\225p"
 279      7481F4E2 
 279      EE9291C9 
 279      169570
 280 0384 97CE9FBD 		.ascii	"\227\316\237\275#\256\026\321NO\250\356\035\033\037"
 280      23AE16D1 
 280      4E4FA8EE 
 280      1D1B1F
 281 0393 C26B7601 		.ascii	"\302kv\001^2\0024\224\337\253\035\365\242\015\030~\254"
 281      5E320234 
 281      94DFAB1D 
 281      F5A20D18 
 281      7EAC
 282 03a5 A529DF20 		.ascii	"\245)\337 <\240\203ik\310\230\364\244\271\026\373B\256"
 282      3CA08369 
 282      6BC898F4 
 282      A4B916FB 
 282      42AE
 283 03b7 B581BE05 		.ascii	"\265\201\276\005,\327\316Cc\253\274d\356\177I\226\314"
 283      2CD7CE43 
 283      63ABBC64 
 283      EE7F4996 
 283      CC
 284 03c8 4508DD05 		.ascii	"E\010\335\005y\340\013X\252\035M\353\274\255\027\306"
 284      79E00B58 
 284      AA1D4DEB 
 284      BCAD17C6 
 285 03d8 28C59E9B 		.ascii	"(\305\236\233b\275\312\035\305e\267\024\366\224\005"
 285      62BDCA1D 
 285      C565B714 
 285      F69405
 286 03e7 A5389D2F 		.ascii	"\2458\235/\001E\273LqQJ\347\246=u\023\006:j\017\250"
 286      0145BB4C 
 286      71514AE7 
 286      A63D7513 
 286      063A6A0F 
 287 03fc B6EC5D3F 		.ascii	"\266\354]?_X+`F\241)\363J\203'8\303\177\372L\021\210"
 287      5F582B60 
 287      46A129F3 
 287      4A832738 
 287      C37FFA4C 
 288 0412 8734E81A 		.ascii	"\2074\350\032\030fB.\340'\2212\024\233\015g.z\333\027"
ARM GAS  C:\Users\Sava\AppData\Local\Temp\ccDmfGRl.s 			page 22


 288      1866422E 
 288      E0279132 
 288      149B0D67 
 288      2E7ADB17 
 289 0426 2DC4738D 		.ascii	"-\304s\215\33398\003|\321U\320\000\036o\215\227\325"
 289      DB393803 
 289      7CD155D0 
 289      001E6F8D 
 289      97D5
 290 0438 B1CD4E0D 		.ascii	"\261\315N\015\325\202\242\023\011\236B\"eHj\354?\350"
 290      D582A213 
 290      099E4222 
 290      65486AEC 
 290      3FE8
 291 044a 81F49482 		.ascii	"\201\364\224\202y\263)\275u\023o\327\241\273\007\274"
 291      79B329BD 
 291      75136FD7 
 291      A1BB07BC 
 292 045a 61DE6EC2 		.ascii	"a\336n\302\217\265\274F\336\301\345\340\336\252,\203"
 292      8FB5BC46 
 292      DEC1E5E0 
 292      DEAA2C83 
 293 046a B09EB854 		.ascii	"\260\236\270T\333\013\036\246\361\310o\206\237\037["
 293      DB0B1EA6 
 293      F1C86F86 
 293      9F1F5B
 294 0479 78BD9733 		.ascii	"x\275\2273\377\330V!\246.\304aE7~fq\210ki\222I\375\024"
 294      FFD85621 
 294      A62EC461 
 294      45377E66 
 294      71886B69 
 295 0491 8D33AC1F 		.ascii	"\2153\254\037\302{\0132\353&\224\333,\273r\261\\\333"
 295      C27B0B32 
 295      EB2694DB 
 295      2CBB72B1 
 295      5CDB
 296 04a3 C3C457D3 		.ascii	"\303\304W\323\305\344_b)\250\013\302\213-:\021Q\017"
 296      C5E45F62 
 296      29A80BC2 
 296      8B2D3A11 
 296      510F
 297 04b5 EE49D4FB 		.ascii	"\356I\324\373\300\350\212\264Z\301\344z\243\247\255"
 297      C0E88AB4 
 297      5AC1E47A 
 297      A3A7AD
 298 04c4 418D0385 		.ascii	"A\215\003\205z\231\305\225\027-\210,\2726:\032y\274"
 298      7A99C595 
 298      172D882C 
 298      BA363A1A 
 298      79BC
 299 04d6 FA6EBCB0 		.ascii	"\372n\274\260\372\300\3310\343\307\336\354\356\275\235"
 299      FAC0D930 
 299      E3C7DEEC 
 299      EEBD9D
 300 04e5 93566059 		.ascii	"\223V`Y\371\225\357\204\203$T\252\201\222\037\217\030"
 300      F995EF84 
 300      832454AA 
ARM GAS  C:\Users\Sava\AppData\Local\Temp\ccDmfGRl.s 			page 23


 300      81921F8F 
 300      18
 301 04f6 90DF4C3F 		.ascii	"\220\337L?\177\272\222\323\232y\272\222\011\323\035"
 301      7FBA92D3 
 301      9A79BA92 
 301      09D31D
 302 0505 3473BA48 		.ascii	"4s\272Hm\232>R\030\215#u\027\"\365\023\020\0168Eis\262"
 302      6D9A3E52 
 302      188D2375 
 302      1722F513 
 302      100E3845 
 303 051c 37F58CF5 		.ascii	"7\365\214\365\374\0102\3358\247\343\275\334h\300\343"
 303      FC0832DD 
 303      38A7E3BD 
 303      DC68C0E3 
 304 052c 058C72BC 		.ascii	"\005\214r\274 ~Ge\377=\235PO\324\363\225\317\022\257"
 304      207E4765 
 304      FF3D9D50 
 304      4FD4F395 
 304      CF12AF
 305 053f E9D14CFF 		.ascii	"\351\321L\377i\005\241A\320\341N\023e\331\332\2140\313"
 305      6905A141 
 305      D0E14E13 
 305      65D9DA8C 
 305      30CB
 306 0551 7D00DD93 		.ascii	"}\000\335\223\327\005&%\\\371OD\037\341\014\245\332"
 306      D7052625 
 306      5CF94F44 
 306      1FE10CA5 
 306      DA
 307 0562 DF5077DC 		.ascii	"\337Pw\334\003\371\317\244\206\017\223gc\303\207`\370"
 307      03F9CFA4 
 307      860F9367 
 307      63C38760 
 307      F8
 308 0573 4036BC4F 		.ascii	"@6\274O\014\247\0273\3643b\200\252{\367\231\\\255!\031"
 308      0CA71733 
 308      F4336280 
 308      AA7BF799 
 308      5CAD2119 
 309 0587 472A75AD 		.ascii	"G*u\255\350\363'\342\032\366wTLB\373\010\031(Pe;V\265"
 309      E8F327E2 
 309      1AF67754 
 309      4C42FB08 
 309      19285065 
 310 059e CE1BE133 		.ascii	"\316\033\3413\205\204\265\327\236\365aQ\225(&\2511\006"
 310      8584B5D7 
 310      9EF56151 
 310      952826A9 
 310      3106
 311 05b0 9D05318F 		.ascii	"\235\0051\217a\372%K\266\301\007\312\347D\317\177c\310"
 311      61FA254B 
 311      B6C107CA 
 311      E744CF7F 
 311      63C8
 312 05c2 2CE07D76 		.ascii	",\340}v\037C;vT\327\223\002\012Rq\250\005\372\233\211"
 312      1F433B76 
ARM GAS  C:\Users\Sava\AppData\Local\Temp\ccDmfGRl.s 			page 24


 312      54D79302 
 312      0A5271A8 
 312      05FA9B89 
 313 05d6 A3C76C31 		.ascii	"\243\307l1<\201\021\214\300\010\206\235\302\331IN\210"
 313      3C81118C 
 313      C008869D 
 313      C2D9494E 
 313      88
 314 05e7 C7CE390A 		.ascii	"\307\3169\012\203\213\271\030\327\247\025\006h \017"
 314      838BB918 
 314      D7A71506 
 314      68200F
 315 05f6 F6D7540B 		.ascii	"\366\327T\013\216=\177\030\357\371\243\340\365\251\034"
 315      8E3D7F18 
 315      EFF9A3E0 
 315      F5A91C
 316 0605 C6C78A3D 		.ascii	"\306\307\212=\337E\001z\006\304\356D\000\223X\336\024"
 316      DF45017A 
 316      06C4EE44 
 316      009358DE 
 316      14
 317 0616 A7578671 		.ascii	"\247W\206qT\021\014\016\215IaD\033s\207m\236s\266\021"
 317      54110C0E 
 317      8D496144 
 317      1B73876D 
 317      9E73B611 
 318 062a 8EB5E25C 		.ascii	"\216\265\342\\\025\356R\000\307\021|\217\240%*\012\316"
 318      15EE5200 
 318      C7117C8F 
 318      A0252A0A 
 318      CE
 319 063b D8D075C9 		.ascii	"\330\320u\3110/[\354\205?{\317\237\217\347%\210\251"
 319      302F5BEC 
 319      853F7BCF 
 319      9F8FE725 
 319      88A9
 320 064d 31A2F831 		.ascii	"1\242\3701\301\241BY9\274\342G\001,\177\016M\240y`{"
 320      C1A14259 
 320      39BCE247 
 320      012C7F0E 
 320      4DA07960 
 321 0662 BDD6D6E6 		.ascii	"\275\326\326\346!$\253\310y1\331\264#\223W\262~;KA\372"
 321      2124ABC8 
 321      7931D9B4 
 321      239357B2 
 321      7E3B4B41 
 322 0677 DC8974DD 		.ascii	"\334\211t\335\275\213\015\010H\263\263E\333h\202\260"
 322      BD8B0D08 
 322      48B3B345 
 322      DB6882B0 
 323 0687 5DB4C581 		.ascii	"]\264\305\201\031\217QhR\246\234TRN\021\312\326{\211"
 323      198F5168 
 323      52A69C54 
 323      524E11CA 
 323      D67B89
 324 069a BD3A219D 		.ascii	"\275:!\235R\356+\035\257\320\253\360\005w\261\001\373"
 324      52EE2B1D 
ARM GAS  C:\Users\Sava\AppData\Local\Temp\ccDmfGRl.s 			page 25


 324      AFD0ABF0 
 324      0577B101 
 324      FB
 325 06ab 86A6BE82 		.ascii	"\206\246\276\202\376h\251%\206'M\017\357\357=\240q+"
 325      FE68A925 
 325      86274D0F 
 325      EFEF3DA0 
 325      712B
 326 06bd 6C2D8F85 		.ascii	"l-\217\205\305\362LYCM^\257\232)\333\326l\240\261\300"
 326      C5F24C59 
 326      434D5EAF 
 326      9A29DBD6 
 326      6CA0B1C0 
 327 06d1 2024F20E 		.ascii	" $\362\016]\360*\353\212\343\261\256M\005\203\255F!"
 327      5DF02AEB 
 327      8AE3B1AE 
 327      4D0583AD 
 327      4621
 328 06e3 9FEADA53 		.ascii	"\237\352\332S\334W\243cN\332\233_s\032^\274\354&^\351"
 328      DC57A363 
 328      4EDA9B5F 
 328      731A5EBC 
 328      EC265EE9 
 329 06f7 2681B8D9 		.ascii	"&\201\270\3313\325\262\305(\034\240nJz\306\032T\314"
 329      33D5B2C5 
 329      281CA06E 
 329      4A7AC61A 
 329      54CC
 330 0709 CD54B2D1 		.ascii	"\315T\262\321\341\006OL\242\354&Q\351f\035q\323\364"
 330      E1064F4C 
 330      A2EC2651 
 330      E9661D71 
 330      D3F4
 331 071b EC68A351 		.ascii	"\354h\243Qh\244n\356'%<7075-\322\220\260\223$\331I\222"
 331      68A46EEE 
 331      27253C37 
 331      3037352D 
 331      D290B093 
 332 0733 D2493271 		.ascii	"\322I2qR\323|\253V#tR'\347N\265gh\204ARQ\335)\317\331"
 332      52D37CAB 
 332      56237452 
 332      27E74EB5 
 332      67688441 
 333 074d A6473A7A 		.ascii	"\246G:z\254\371'\262Sr\256\343\\C\251\274?Z\317\303"
 333      ACF927B2 
 333      5372AEE3 
 333      5C43A9BC 
 333      3F5ACFC3 
 334 0761 E73CDAC0 		.ascii	"\347<\332\300\373\242\215<=\332p\0139\332^!\257\371"
 334      FBA28D3C 
 334      3DDA700B 
 334      39DA5E21 
 334      AFF9
 335 0773 D2870487 		.ascii	"\322\207\004\207\253\350\007^\340\344e5V\027\333\350"
 335      ABE8075E 
 335      E0E46535 
 335      5617DBE8 
ARM GAS  C:\Users\Sava\AppData\Local\Temp\ccDmfGRl.s 			page 26


 336 0783 944D1822 		.ascii	"\224M\030\"\317Z\032\257L\247\244c9\013\331\000\207"
 336      CF5A1AAF 
 336      4CA7A463 
 336      390BD900 
 336      87
 337 0794 53E46C02 		.ascii	"S\344l\002\020J\221\207\230\242\034\342&2\304\037\357"
 337      104A9187 
 337      98A21CE2 
 337      2632C41F 
 337      EF
 338 07a5 4CF41984 		.ascii	"L\364\031\204\021:\304\235\371\335\023\336$w\360nC\323"
 338      113AC49D 
 338      F9DD13DE 
 338      2477F06E 
 338      43D3
 339 07b7 297E7D59 		.ascii	")~}Y\272\036\016w5\276$MMi\360y?4vPE\233\260\272\325"
 339      BA1E0E77 
 339      35BE244D 
 339      4D69F079 
 339      3F347650 
 340 07d0 D0B46B7B 		.ascii	"\320\264k{W\245Q\210\365\240\367\276\261\234X\215t-"
 340      57A55188 
 340      F5A0F7BE 
 340      B19C588D 
 340      742D
 341 07e2 270B9593 		.ascii	"'\013\225\223\267\254\355\020\0305\273\307l\203\320"
 341      B7ACED10 
 341      1835BBC7 
 341      6C83D0
 342 07f1 6CE51D57 		.ascii	"l\345\035W\245\311\317\310U)\203\327\243tY\264\232]"
 342      A5C9CFC8 
 342      552983D7 
 342      A37459B4 
 342      9A5D
 343 0803 631E8D0E 		.ascii	"c\036\215\016\355W\011?P\212\353\311W\363\215\356(v"
 343      ED57093F 
 343      508AEBC9 
 343      57F38DEE 
 343      2876
 344 0815 BAA5B0A7 		.ascii	"\272\245\260\247\004\220\257\213\035@\221)S\000#\345"
 344      0490AF8B 
 344      1D409129 
 344      530023E5 
 345 0825 B89D587D 		.ascii	"\270\235X}WG\002\200\021[\350\352\3119|7O\353h\334E"
 345      57470280 
 345      115BE8EA 
 345      C9397C37 
 345      4FEB68DC 
 346 083a 1BDBDAAA 		.ascii	"\033\333\332\252v\"Gc\026ml\334Z\273OF\356\246\215\303"
 346      76224763 
 346      166D6CDC 
 346      5ABB4F46 
 346      EEA68DC3 
 347 084e DB5B45A3 		.ascii	"\333[E\243\333\305\227C\2461[Z|\331\365\007\207\274"
 347      DBC59743 
 347      A6315B5A 
 347      7CD9F507 
ARM GAS  C:\Users\Sava\AppData\Local\Temp\ccDmfGRl.s 			page 27


 347      87BC
 348 0860 F15E0462 		.ascii	"\361^\004b;\006>\316*M\260\245\"\202B\233e\275\233Y"
 348      3B063ECE 
 348      2A4DB0A5 
 348      2282429B 
 348      65BD9B59 
 349 0874 A2A05C32 		.ascii	"\242\240\\2\207\343O\253Eo\241\216D\006]~vd\314 \234"
 349      87E34FAB 
 349      456FA18E 
 349      44065D7E 
 349      7664CC20 
 350 0889 22155575 		.ascii	"\"\025UulO\216\021\371\263\013\236\"\335\012A\337\036"
 350      6C4F8E11 
 350      F9B30B9E 
 350      22DD0A41 
 350      DF1E
 351 089b 39DDE875 		.ascii	"9\335\350u\353{\334L\362\024?\351e-WT\317q$\365^\010"
 351      EB7BDC4C 
 351      F2143FE9 
 351      652D5754 
 351      CF7124F5 
 352 08b1 2CEE8214 		.ascii	",\356\202\024\202\260\346\363\344\366w\255\361l\234"
 352      82B0E6F3 
 352      E4F677AD 
 352      F16C9C
 353 08c0 5ACFD0A9 		.ascii	"Z\317\320\251/C\037\035\330\223\241Rn\341E\240D\016"
 353      2F431F1D 
 353      D893A152 
 353      6EE145A0 
 353      440E
 354 08d2 47312F6D 		.ascii	"G1/m\341q\003i\011\032\022Khc\2718\260+-\321\223\264"
 354      E1710369 
 354      091A124B 
 354      6863B938 
 354      B02B2DD1 
 355 08e8 7D054634 		.ascii	"}\005F4\274\275)]\023Z\007\256\2246\026\347\365f\351"
 355      BCBD295D 
 355      135A07AE 
 355      943616E7 
 355      F566E9
 356 08fb 20436743 		.ascii	" CgC\322\222\233|{\357N=\255\213\337C}k\353\316KZ\241"
 356      D2929B7C 
 356      7BEF4E3D 
 356      AD8BDF43 
 356      7D6BEBCE 
 357 0912 99E6D2C9 		.ascii	"\231\346\322\311\314\006H\\\177\275ta_\023\213\263\260"
 357      CC06485C 
 357      7FBD7461 
 357      5F138BB3 
 357      B0
 358 0923 0A7455C8 		.ascii	"\012tU\310!\237\2153\204d\233sH*a\220\263Y\256\225\303"
 358      219F8D33 
 358      84649B73 
 358      482A6190 
 358      B359AE95 
 359 0938 30F7D161 		.ascii	"0\367\321a\266w\215\331\264B;%(h\032\253q|m;\233\037"
 359      B6778DD9 
ARM GAS  C:\Users\Sava\AppData\Local\Temp\ccDmfGRl.s 			page 28


 359      B4423B25 
 359      28681AAB 
 359      717C6D3B 
 360 094e 98C65C4A 		.ascii	"\230\306\\J\325Y\3058U\367\203\216jYG\225\224\252c\375"
 360      D559C538 
 360      55F7838E 
 360      6A594795 
 360      94AA63FD 
 361 0962 310346E1 		.ascii	"1\003F\341\032eH\353h\313\025\246g\250q\313P\375\340"
 361      1A6548EB 
 361      68CB15A6 
 361      67A871CB 
 361      50FDE0
 362 0975 EF71F178 		.ascii	"\357q\361x\2278\004\024\007e\212\375\022\305\271\346"
 362      97380414 
 362      07658AFD 
 362      12C5B9E6 
 363 0985 91380309 		.ascii	"\2218\003\011-F\224\321\320\026\234\255\262\011n\323"
 363      2D4694D1 
 363      D0169CAD 
 363      B2096ED3 
 364 0995 B98EA473 		.ascii	"\271\216\244s\255\224\3161\353\237\\\347i:\333\306;"
 364      AD94CE31 
 364      EB9F5CE7 
 364      693ADBC6 
 364      3B
 365 09a6 0C90CB18 		.ascii	"\014\220\313\030\201\362d\262<)\225\353I*\213\345\361"
 365      81F264B2 
 365      3C2995EB 
 365      492A8BE5 
 365      F1
 366 09b7 932A5D22 		.ascii	"\223*]\"\276`\275l?\3051(n\261\341\377y\034\206\235"
 366      BE60BD6C 
 366      3FC53128 
 366      6EB1E1FF 
 366      791C869D 
 367 09cb 11D7530B 		.ascii	"\021\327S\013\3637{\010\331jR\351\312\261\347z\276\236"
 367      F3377B08 
 367      D96A52E9 
 367      CAB1E77A 
 367      BE9E
 368 09dd 27C6E589 		.ascii	"'\306\345\211\331\366\335\263\323E\033\"\300\243\224"
 368      D9F6DDB3 
 368      D3451B22 
 368      C0A394
 369 09ec DCF10182 		.ascii	"\334\361\001\202\353G\300\037:\306\277\016f\245\335"
 369      EB47C01F 
 369      3AC6BF0E 
 369      66A5DD
 370 09fb 4D852AA1 		.ascii	"M\205*\241\214\372\250j\311\277\352\005>l\260\257V\356"
 370      8CFAA86A 
 370      C9BFEA05 
 370      3E6CB0AF 
 370      56EE
 371 0a0d 4570B752 		.ascii	"Ep\267R\221;\207\215\371\220\257N\270\345\033XX\307"
 371      913B878D 
 371      F990AF4E 
ARM GAS  C:\Users\Sava\AppData\Local\Temp\ccDmfGRl.s 			page 29


 371      B8E51B58 
 371      58C7
 372 0a1f 8993B87D 		.ascii	"\211\223\270}\215\353\015B%ur\363\354\215\023\032\372"
 372      8DEB0D42 
 372      257572F3 
 372      EC8D131A 
 372      FA
 373 0a30 852A66E3 		.ascii	"\205*f\343\377\314\\\231*\311e\337\250\242\250\307\210"
 373      FFCC5C99 
 373      2AC965DF 
 373      A8A2A8C7 
 373      88
 374 0a41 7BD72E31 		.ascii	"{\327.1\304\324n\214\030\031\355\334\355\245\22777\334"
 374      C4D46E8C 
 374      1819EDDC 
 374      EDA59737 
 374      37DC
 375 0a53 2307F934 		.ascii	"#\007\3714YTp\367?E\303P\036\177\253H\013\346\276`\216"
 375      595470F7 
 375      3F45C350 
 375      1E7FAB48 
 375      0BE6BE60 
 376 0a68 149FB1BE 		.ascii	"\024\237\261\276\3643v\277m\270L%\324\0221\374\305\352"
 376      F43376BF 
 376      6DB84C25 
 376      D41231FC 
 376      C5EA
 377 0a7a 8E533A39 		.ascii	"\216S:9\331\037\177B\266\334\026\230\337&yR|Y\262\273"
 377      D91F7F42 
 377      B6DC1698 
 377      DF267952 
 377      7C59B2BB 
 378 0a8e AEFF6698 		.ascii	"\256\377f\230\004_\226Kg`\032\032)\177\321\356\302\223"
 378      045F964B 
 378      67601A1A 
 378      297FD1EE 
 378      C293
 379 0aa0 5EC2094A 		.ascii	"^\302\011Jp\177\313\335u\202\203\300\236\342K6\334V"
 379      707FCBDD 
 379      758283C0 
 379      9EE24B36 
 379      DC56
 380 0ab2 20382B13 		.ascii	" 8+\023\264\360n\030\316M\317P6QS\213|R\331\376\365"
 380      B4F06E18 
 380      CE4DCF50 
 380      3651538B 
 380      7C52D9FE 
 381 0ac7 3122FE4E 		.ascii	"1\"\376NB\377\011\036\007\344<\357#\205\005\243\357"
 381      42FF091E 
 381      07E43CEF 
 381      238505A3 
 381      EF
 382 0ad8 8E0F8EF3 		.ascii	"\216\017\216\363t\326\340B\367F!\254g\035\306\240\006"
 382      74D6E042 
 382      F74621AC 
 382      671DC6A0 
 382      06
ARM GAS  C:\Users\Sava\AppData\Local\Temp\ccDmfGRl.s 			page 30


 383 0ae9 366DB265 		.ascii	"6m\262e\003N?t\201LZ\343\326\313\215N\227\364\303N\007"
 383      034E3F74 
 383      814C5AE3 
 383      D6CB8D4E 
 383      97F4C34E 
 384 0afe EE45BA35 		.ascii	"\356E\2725\341'\376\247\340Hm\211\327\374\034z\351\376"
 384      E127FEA7 
 384      E0486D89 
 384      D7FC1C7A 
 384      E9FE
 385 0b10 5C5CA785 		.ascii	"\\\\\247\205u@.\2054\233\333\370\371\000\252+\215\237"
 385      75402E85 
 385      349BDBF8 
 385      F900AA2B 
 385      8D9F
 386 0b22 34283D62 		.ascii	"4(=b\021\262\307v\346\261\235x<z\243\313\256V\202\361"
 386      11B2C776 
 386      E6B19D78 
 386      3C7AA3CB 
 386      AE5682F1 
 387 0b36 FD44065F 		.ascii	"\375D\006_b\340K\004\\|>\313\356\241\004\343e%\203/"
 387      62E04B04 
 387      5C7C3ECB 
 387      EEA104E3 
 387      6525832F 
 388 0b4a 33F06502 		.ascii	"3\360e\002\276Y\360<]M\323\353U\250n\250\272\375\203"
 388      BE59F03C 
 388      5D4DD3EB 
 388      55A86EA8 
 388      BAFD83
 389 0b5d C16D72D9 		.ascii	"\301mr\331\245\344\272BC\377x4yPG\215gA\365RNz/\373"
 389      A5E4BA42 
 389      43FF7834 
 389      7950478D 
 389      6741F552 
 390 0b75 076405CE 		.ascii	"\007d\005\316\265\035II\311:\345\314\340\223\245\003"
 390      B51D4949 
 390      C93AE5CC 
 390      E093A503 
 391 0b85 E27B95C4 		.ascii	"\342{\225\304\367\032\231\031\342\223T\360\"}0\022\357"
 391      F71A9919 
 391      E29354F0 
 391      227D3012 
 391      EF
 392 0b96 74025C73 		.ascii	"t\002\\s\012J'\223\336I\244\217\324&\214\031)\373\014"
 392      0A4A2793 
 392      DE49A48F 
 392      D4268C19 
 392      29FB0C
 393 0ba9 7C3EEFB9 		.ascii	"|>\357\2713et+\275[\222\336E\245?\234\330u\210I\237"
 393      3365742B 
 393      BD5B92DE 
 393      45A53F9C 
 393      D8758849 
 394 0bbe 89AFE73D 		.ascii	"\211\257\347=\251\251\032*\235,\303\232\364\275\247"
 394      A9A91A2A 
 394      9D2CC39A 
ARM GAS  C:\Users\Sava\AppData\Local\Temp\ccDmfGRl.s 			page 31


 394      F4BDA7
 395 0bcd 3C5DA5F7 		.ascii	"<]\245\367\200\364\353Dz/\221\336M\245\367\022\351\342"
 395      80F4EB44 
 395      7A2F91DE 
 395      4DA5F712 
 395      E9E2
 396 0bdf F98E728D 		.ascii	"\371\216r\215Rz\257\223\364>&\275\217H?\231\024\333"
 396      527AAF93 
 396      F43E26BD 
 396      8F483F99 
 396      14DB
 397 0bf1 E734F939 		.ascii	"\3474\3719NSt\203\201o\020\260\355\364\360s\017\226"
 397      4E537483 
 397      816F10B0 
 397      EDF4F073 
 397      0F96
 398 0c03 4E4F34B1 		.ascii	"NO4\261<\311\246))\233n\222lz\276\365\326q-\303\354"
 398      3CC9A629 
 398      299B6E92 
 398      6C7ABEF5 
 398      D6712DC3 
 399 0c18 F46418B8 		.ascii	"\364d\030\270\355R\314-\202\311\030);\257a\230+\022"
 399      ED52CC2D 
 399      82C91829 
 399      3BAF6198 
 399      2B12
 400 0c2a 2659C2F4 		.ascii	"&Y\302\364\023\314\370\205\330V\035\303<\2230\233$\314"
 400      13CCF885 
 400      D8561DC3 
 400      3C93309B 
 400      24CC
 401 0c3c 6D7E3EA7 		.ascii	"m~>\247\267\2542\255\012]bZf\266j\277\370\313\342\271"
 401      B7AC32AD 
 401      0A5D625A 
 401      66B66ABF 
 401      F8CBE2B9 
 402 0c50 9F050672 		.ascii	"\237\005\006r\252\340Hs0\277z\221\316d\012\013\267\006"
 402      AAE04873 
 402      30BF7A91 
 402      CE640A0B 
 402      B706
 403 0c62 BE6BB2C6 		.ascii	"\276k\262\306\240\220\367\203VFF,\213\014^1wi\230\305"
 403      A090F783 
 403      5646462C 
 403      8B0C5E31 
 403      776998C5 
 404 0c76 1C35D77F 		.ascii	"\0345\327\177\365{\357\376.(d\315\312HsTT\320\312\250"
 404      F57BEFFE 
 404      2E2864CD 
 404      CA487354 
 404      54D0CAA8 
 405 0c8a 8890B921 		.ascii	"\210\220\271!`f\215\210\014z'`\221sC\330\212\225\021"
 405      60668D88 
 405      0C7A2760 
 405      917343D8 
 405      8A9511
 406 0c9d 91D6A065 		.ascii	"\221\326\240e\341\321A\301\221+\202~\037\360N@ ~{3<"
ARM GAS  C:\Users\Sava\AppData\Local\Temp\ccDmfGRl.s 			page 32


 406      E1D141C1 
 406      912B827E 
 406      1FF04E40 
 406      207E7B33 
 407 0cb2 22DCFCA6 		.ascii	"\"\334\374\2469xIXPXx\210%:\324\034\264\"8dyX\2709\310"
 407      39784958 
 407      50587888 
 407      253AD41C 
 407      B4223864 
 408 0ccb 146A5E1A 		.ascii	"\024j^\032\034m\261\232\254kV\232\243\002\226s\032&"
 408      1C6DB19A 
 408      AC6B569A 
 408      A3029673 
 408      1A26
 409 0cdd 65D5FF4B 		.ascii	"e\325\377KI\324\232\250 S\2245\024x\201\036\307)$\""
 409      49D49AA8 
 409      20539435 
 409      1478811E 
 409      C7292422 
 410 0cf1 2232D464 		.ascii	"\"2\324d\235gY\265\314\022D\352\221\346\240\200\200"
 410      9D6759B5 
 410      CC1244EA 
 410      91E6A080 
 410      80
 411 0d02 B7E07545 		.ascii	"\267\340uEXT\010~\342\310\001\232_\023\310\257\016\344"
 411      5854087E 
 411      E2C8019A 
 411      5F13C8AF 
 411      0EE4
 412 0d14 D72CD2B1 		.ascii	"\327,\322\2616\223UX\022\275To2E\263ah\245\027!\322"
 412      36935558 
 412      12BD546F 
 412      3245B361 
 412      68A51721 
 413 0d29 1CEAB12C 		.ascii	"\034\352\261,\322l\016W-\261D\233\347\377\214\363\220"
 413      D26C0E57 
 413      2DB1449B 
 413      E7FF8CF3 
 413      90
 414 0d3a 084B4424 		.ascii	"\010KD$xW-\215\266X\014R\003v\242\227*&\353,'\007tv"
 414      78572D8D 
 414      B6580C52 
 414      0376A297 
 414      2A26EB2C 
 415 0d52 C146CBE6 		.ascii	"\301F\313\346y\372\376\020\316\300\372\227Z\242\243"
 415      79FAFE10 
 415      CEC0FA97 
 415      5AA2A3
 416 0d61 961B5925 		.ascii	"\226\033Y%\312l5\005\207F\342*i7\301HB\327\374BN\031"
 416      CA6C3505 
 416      8746E22A 
 416      6937C148 
 416      42D7FC42 
 417 0d77 53708835 		.ascii	"Sp\2105l\225y\206\242%,\234\266\371\260\266\260(j\033"
 417      6C957986 
 417      A2252C9C 
 417      B6F9B0B6 
ARM GAS  C:\Users\Sava\AppData\Local\Temp\ccDmfGRl.s 			page 33


 417      B0286A1B 
 418 0d8b 16BECCC3 		.ascii	"\026\276\314\303\364iD\204\305\013:B\303\242V\322f\232"
 418      F4694484 
 418      C50B3A42 
 418      C3A256D2 
 418      669A
 419 0d9d 636F2F32 		.ascii	"co/2Y5\354\371\3724\021X\036la\017b\312\346\303\022"
 419      5935ECF9 
 419      FA341158 
 419      1E6C610F 
 419      62CAE6C3 
 420 0db2 B10CE485 		.ascii	"\261\014\344\205\252B\226\007Gj\211\237\367LV5}\030"
 420      AA429607 
 420      476A899F 
 420      F74C5635 
 420      7D18
 421 0dc4 59BFC5BC 		.ascii	"Y\277\305\274\312l1Y\337u\343\224\276\341\306\267\234"
 421      CA6C3159 
 421      DF75E394 
 421      BEE1C6B7 
 421      9C
 422 0dd5 630DB6C0 		.ascii	"c\015\266\300bp\204\004\344\013P\321\340\006\230I\035"
 422      62708404 
 422      E40B50D1 
 422      E0069849 
 422      1D
 423 0de6 9D4920D2 		.ascii	"\235I \322\260\347\377\000/\3035`"
 423      B0E7FF00 
 423      2FC33560 
 424              		.text
 425              		.section	.gnu.lto_.symtab.d4ba1a6,"",%progbits
 426 0000 6C765F76 		.ascii	"lv_vdb_get\000"
 426      64625F67 
 426      657400
 427 000b 00       		.ascii	"\000"
 428 000c 00       		.ascii	"\000"
 429 000d 00       		.ascii	"\000"
 430 000e 00000000 		.ascii	"\000\000\000\000\000\000\000\000"
 430      00000000 
 431 0016 FC000000 		.ascii	"\374\000\000\000"
 432 001a 6C765F76 		.ascii	"lv_vdb_flush\000"
 432      64625F66 
 432      6C757368 
 432      00
 433 0027 00       		.ascii	"\000"
 434 0028 00       		.ascii	"\000"
 435 0029 00       		.ascii	"\000"
 436 002a 00000000 		.ascii	"\000\000\000\000\000\000\000\000"
 436      00000000 
 437 0032 FF000000 		.ascii	"\377\000\000\000"
 438 0036 6C765F76 		.ascii	"lv_vdb_set_adr\000"
 438      64625F73 
 438      65745F61 
 438      647200
 439 0045 00       		.ascii	"\000"
 440 0046 00       		.ascii	"\000"
 441 0047 00       		.ascii	"\000"
ARM GAS  C:\Users\Sava\AppData\Local\Temp\ccDmfGRl.s 			page 34


 442 0048 00000000 		.ascii	"\000\000\000\000\000\000\000\000"
 442      00000000 
 443 0050 04010000 		.ascii	"\004\001\000\000"
 444 0054 6C765F66 		.ascii	"lv_flush_ready\000"
 444      6C757368 
 444      5F726561 
 444      647900
 445 0063 00       		.ascii	"\000"
 446 0064 00       		.ascii	"\000"
 447 0065 00       		.ascii	"\000"
 448 0066 00000000 		.ascii	"\000\000\000\000\000\000\000\000"
 448      00000000 
 449 006e 06010000 		.ascii	"\006\001\000\000"
 450 0072 6C765F76 		.ascii	"lv_vdb_get_active\000"
 450      64625F67 
 450      65745F61 
 450      63746976 
 450      6500
 451 0084 00       		.ascii	"\000"
 452 0085 00       		.ascii	"\000"
 453 0086 00       		.ascii	"\000"
 454 0087 00000000 		.ascii	"\000\000\000\000\000\000\000\000"
 454      00000000 
 455 008f 08010000 		.ascii	"\010\001\000\000"
 456 0093 6C765F76 		.ascii	"lv_vdb_get_inactive\000"
 456      64625F67 
 456      65745F69 
 456      6E616374 
 456      69766500 
 457 00a7 00       		.ascii	"\000"
 458 00a8 00       		.ascii	"\000"
 459 00a9 00       		.ascii	"\000"
 460 00aa 00000000 		.ascii	"\000\000\000\000\000\000\000\000"
 460      00000000 
 461 00b2 0A010000 		.ascii	"\012\001\000\000"
 462 00b6 6C765F76 		.ascii	"lv_vdb_is_flushing\000"
 462      64625F69 
 462      735F666C 
 462      75736869 
 462      6E6700
 463 00c9 00       		.ascii	"\000"
 464 00ca 00       		.ascii	"\000"
 465 00cb 00       		.ascii	"\000"
 466 00cc 00000000 		.ascii	"\000\000\000\000\000\000\000\000"
 466      00000000 
 467 00d4 12010000 		.ascii	"\022\001\000\000"
 468 00d8 6C765F64 		.ascii	"lv_disp_flush\000"
 468      6973705F 
 468      666C7573 
 468      6800
 469 00e6 00       		.ascii	"\000"
 470 00e7 02       		.ascii	"\002"
 471 00e8 00       		.ascii	"\000"
 472 00e9 00000000 		.ascii	"\000\000\000\000\000\000\000\000"
 472      00000000 
 473 00f1 22010000 		.ascii	"\"\001\000\000"
 474 00f5 6C765F6C 		.ascii	"lv_log_add\000"
ARM GAS  C:\Users\Sava\AppData\Local\Temp\ccDmfGRl.s 			page 35


 474      6F675F61 
 474      646400
 475 0100 00       		.ascii	"\000"
 476 0101 02       		.ascii	"\002"
 477 0102 00       		.ascii	"\000"
 478 0103 00000000 		.ascii	"\000\000\000\000\000\000\000\000"
 478      00000000 
 479 010b 3B010000 		.ascii	";\001\000\000"
 480              		.text
 481              		.section	.gnu.lto_.opts,"",%progbits
 482 0000 272D666D 		.ascii	"'-fmath-errno' '-fsigned-zeros' '-ftrapping-math' '"
 482      6174682D 
 482      6572726E 
 482      6F272027 
 482      2D667369 
 483 0033 2D666E6F 		.ascii	"-fno-trapv' '-fno-strict-overflow' '-fno-openmp' '-"
 483      2D747261 
 483      70762720 
 483      272D666E 
 483      6F2D7374 
 484 0066 666E6F2D 		.ascii	"fno-openacc' '-mcpu=cortex-m3' '-mthumb' '-g' '-O0'"
 484      6F70656E 
 484      61636327 
 484      20272D6D 
 484      6370753D 
 485 0099 20272D66 		.ascii	" '-ffunction-sections' '-ffat-lto-objects' '-finlin"
 485      66756E63 
 485      74696F6E 
 485      2D736563 
 485      74696F6E 
 486 00cc 652D6675 		.ascii	"e-functions' '-flto'\000"
 486      6E637469 
 486      6F6E7327 
 486      20272D66 
 486      6C746F27 
 487              		.text
 488              		.cfi_sections	.debug_frame
 489              		.bss
 490              		.align	2
 491              	vdb_buf:
 492 0000 00000000 		.space	20480
 492      00000000 
 492      00000000 
 492      00000000 
 492      00000000 
 493              		.data
 494              		.align	2
 495              		.type	vdb, %object
 496              		.size	vdb, 12
 497              	vdb:
 498 0000 00000000 		.space	8
 498      00000000 
 499 0008 00000000 		.word	vdb_buf
 500              		.bss
 501              	vdb_flushing:
 502 5000 00       		.space	1
 503              		.section	.text.lv_vdb_get,"ax",%progbits
ARM GAS  C:\Users\Sava\AppData\Local\Temp\ccDmfGRl.s 			page 36


 504              		.align	2
 505              		.global	lv_vdb_get
 506              		.thumb
 507              		.thumb_func
 508              		.type	lv_vdb_get, %function
 509              	lv_vdb_get:
 510              	.LFB12:
 511              		.file 1 "lvgl\\lv_core\\lv_vdb.c"
   1:lvgl\lv_core/lv_vdb.c **** /**
   2:lvgl\lv_core/lv_vdb.c ****  * @file lv_vdb.c
   3:lvgl\lv_core/lv_vdb.c ****  *
   4:lvgl\lv_core/lv_vdb.c ****  */
   5:lvgl\lv_core/lv_vdb.c **** 
   6:lvgl\lv_core/lv_vdb.c **** /*********************
   7:lvgl\lv_core/lv_vdb.c ****  *      INCLUDES
   8:lvgl\lv_core/lv_vdb.c ****  *********************/
   9:lvgl\lv_core/lv_vdb.c **** #include "lv_vdb.h"
  10:lvgl\lv_core/lv_vdb.c **** #if LV_VDB_SIZE != 0
  11:lvgl\lv_core/lv_vdb.c **** 
  12:lvgl\lv_core/lv_vdb.c **** #include "../lv_hal/lv_hal_disp.h"
  13:lvgl\lv_core/lv_vdb.c **** #include "../lv_misc/lv_log.h"
  14:lvgl\lv_core/lv_vdb.c **** #include <stddef.h>
  15:lvgl\lv_core/lv_vdb.c **** 
  16:lvgl\lv_core/lv_vdb.c **** /*********************
  17:lvgl\lv_core/lv_vdb.c ****  *      DEFINES
  18:lvgl\lv_core/lv_vdb.c ****  *********************/
  19:lvgl\lv_core/lv_vdb.c **** #ifndef LV_ATTRIBUTE_FLUSH_READY
  20:lvgl\lv_core/lv_vdb.c **** #define LV_ATTRIBUTE_FLUSH_READY
  21:lvgl\lv_core/lv_vdb.c **** #endif
  22:lvgl\lv_core/lv_vdb.c **** 
  23:lvgl\lv_core/lv_vdb.c **** /**********************
  24:lvgl\lv_core/lv_vdb.c ****  *      TYPEDEFS
  25:lvgl\lv_core/lv_vdb.c ****  **********************/
  26:lvgl\lv_core/lv_vdb.c **** 
  27:lvgl\lv_core/lv_vdb.c **** /**********************
  28:lvgl\lv_core/lv_vdb.c ****  *  STATIC PROTOTYPES
  29:lvgl\lv_core/lv_vdb.c ****  **********************/
  30:lvgl\lv_core/lv_vdb.c **** 
  31:lvgl\lv_core/lv_vdb.c **** /**********************
  32:lvgl\lv_core/lv_vdb.c ****  *  STATIC VARIABLES
  33:lvgl\lv_core/lv_vdb.c ****  **********************/
  34:lvgl\lv_core/lv_vdb.c **** 
  35:lvgl\lv_core/lv_vdb.c **** /*Simple VDB*/
  36:lvgl\lv_core/lv_vdb.c **** #if LV_VDB_DOUBLE == 0
  37:lvgl\lv_core/lv_vdb.c **** #  if LV_VDB_ADR == 0
  38:lvgl\lv_core/lv_vdb.c **** /*If the buffer address is not specified  simply allocate it*/
  39:lvgl\lv_core/lv_vdb.c **** static uint8_t vdb_buf[LV_VDB_SIZE_IN_BYTES];
  40:lvgl\lv_core/lv_vdb.c **** static lv_vdb_t vdb = {.buf = (lv_color_t *)vdb_buf};
  41:lvgl\lv_core/lv_vdb.c **** #  else     /*LV_VDB_ADR != 0*/
  42:lvgl\lv_core/lv_vdb.c **** /*If the buffer address is specified use that address*/
  43:lvgl\lv_core/lv_vdb.c **** static lv_vdb_t vdb = {.buf = (lv_color_t *)LV_VDB_ADR};
  44:lvgl\lv_core/lv_vdb.c **** #  endif
  45:lvgl\lv_core/lv_vdb.c **** 
  46:lvgl\lv_core/lv_vdb.c **** /*LV_VDB_DOUBLE != 0*/
  47:lvgl\lv_core/lv_vdb.c **** #else
  48:lvgl\lv_core/lv_vdb.c **** /*Double VDB*/
  49:lvgl\lv_core/lv_vdb.c **** static uint8_t vdb_active = 0;
ARM GAS  C:\Users\Sava\AppData\Local\Temp\ccDmfGRl.s 			page 37


  50:lvgl\lv_core/lv_vdb.c **** #  if LV_VDB_ADR == 0
  51:lvgl\lv_core/lv_vdb.c **** /*If the buffer address is not specified  simply allocate it*/
  52:lvgl\lv_core/lv_vdb.c **** static uint8_t vdb_buf1[LV_VDB_SIZE_IN_BYTES];
  53:lvgl\lv_core/lv_vdb.c **** static uint8_t vdb_buf2[LV_VDB_SIZE_IN_BYTES];
  54:lvgl\lv_core/lv_vdb.c **** static lv_vdb_t vdb[2] = {{.buf = (lv_color_t *) vdb_buf1}, {.buf = (lv_color_t *) vdb_buf2}};
  55:lvgl\lv_core/lv_vdb.c **** #  else /*LV_VDB_ADR != 0*/
  56:lvgl\lv_core/lv_vdb.c **** /*If the buffer address is specified use that address*/
  57:lvgl\lv_core/lv_vdb.c **** static lv_vdb_t vdb[2] = {{.buf = (lv_color_t *)LV_VDB_ADR}, {.buf = (lv_color_t *)LV_VDB2_ADR}};
  58:lvgl\lv_core/lv_vdb.c **** #  endif
  59:lvgl\lv_core/lv_vdb.c **** #endif
  60:lvgl\lv_core/lv_vdb.c **** 
  61:lvgl\lv_core/lv_vdb.c **** static volatile bool vdb_flushing = false;
  62:lvgl\lv_core/lv_vdb.c **** 
  63:lvgl\lv_core/lv_vdb.c **** /**********************
  64:lvgl\lv_core/lv_vdb.c ****  *      MACROS
  65:lvgl\lv_core/lv_vdb.c ****  **********************/
  66:lvgl\lv_core/lv_vdb.c **** 
  67:lvgl\lv_core/lv_vdb.c **** /**********************
  68:lvgl\lv_core/lv_vdb.c ****  *   GLOBAL FUNCTIONS
  69:lvgl\lv_core/lv_vdb.c ****  **********************/
  70:lvgl\lv_core/lv_vdb.c **** 
  71:lvgl\lv_core/lv_vdb.c **** /**
  72:lvgl\lv_core/lv_vdb.c ****  * Get the 'vdb' variable or allocate one in LV_VDB_DOUBLE mode
  73:lvgl\lv_core/lv_vdb.c ****  * @return pointer to a 'vdb' variable
  74:lvgl\lv_core/lv_vdb.c ****  */
  75:lvgl\lv_core/lv_vdb.c **** lv_vdb_t * lv_vdb_get(void)
  76:lvgl\lv_core/lv_vdb.c **** {
 512              		.loc 1 76 0
 513              		.cfi_startproc
 514              		@ args = 0, pretend = 0, frame = 0
 515              		@ frame_needed = 1, uses_anonymous_args = 0
 516              		@ link register save eliminated.
 517 0000 80B4     		push	{r7}
 518              		.cfi_def_cfa_offset 4
 519              		.cfi_offset 7, -4
 520 0002 00AF     		add	r7, sp, #0
 521              		.cfi_def_cfa_register 7
  77:lvgl\lv_core/lv_vdb.c **** #if LV_VDB_DOUBLE == 0
  78:lvgl\lv_core/lv_vdb.c ****     /* Wait until VDB is flushing.
  79:lvgl\lv_core/lv_vdb.c ****      * (Until this user calls of 'lv_flush_ready()' in the display drivers's flush function*/
  80:lvgl\lv_core/lv_vdb.c ****     while(vdb_flushing);
 522              		.loc 1 80 0
 523 0004 00BF     		nop
 524              	.L2:
 525              		.loc 1 80 0 is_stmt 0 discriminator 1
 526 0006 054B     		ldr	r3, .L4
 527 0008 1B78     		ldrb	r3, [r3]
 528 000a DBB2     		uxtb	r3, r3
 529 000c 002B     		cmp	r3, #0
 530 000e FAD1     		bne	.L2
  81:lvgl\lv_core/lv_vdb.c **** 
  82:lvgl\lv_core/lv_vdb.c ****     return &vdb;
 531              		.loc 1 82 0 is_stmt 1
 532 0010 034B     		ldr	r3, .L4+4
  83:lvgl\lv_core/lv_vdb.c **** #else
  84:lvgl\lv_core/lv_vdb.c ****     /*If already there is an active do nothing*/
  85:lvgl\lv_core/lv_vdb.c ****     return &vdb[vdb_active];
ARM GAS  C:\Users\Sava\AppData\Local\Temp\ccDmfGRl.s 			page 38


  86:lvgl\lv_core/lv_vdb.c **** #endif
  87:lvgl\lv_core/lv_vdb.c **** }
 533              		.loc 1 87 0
 534 0012 1846     		mov	r0, r3
 535 0014 BD46     		mov	sp, r7
 536              		.cfi_def_cfa_register 13
 537              		@ sp needed
 538 0016 80BC     		pop	{r7}
 539              		.cfi_restore 7
 540              		.cfi_def_cfa_offset 0
 541 0018 7047     		bx	lr
 542              	.L5:
 543 001a 00BF     		.align	2
 544              	.L4:
 545 001c 00500000 		.word	vdb_flushing
 546 0020 00000000 		.word	vdb
 547              		.cfi_endproc
 548              	.LFE12:
 549              		.size	lv_vdb_get, .-lv_vdb_get
 550              		.section	.rodata
 551              		.align	2
 552              	.LC0:
 553 0000 496E7661 		.ascii	"Invalid VDB pointer\000"
 553      6C696420 
 553      56444220 
 553      706F696E 
 553      74657200 
 554              		.align	2
 555              	.LC1:
 556 0014 6C76676C 		.ascii	"lvgl\\lv_core\\lv_vdb.c\000"
 556      5C6C765F 
 556      636F7265 
 556      5C6C765F 
 556      7664622E 
 557              		.section	.text.lv_vdb_flush,"ax",%progbits
 558              		.align	2
 559              		.global	lv_vdb_flush
 560              		.thumb
 561              		.thumb_func
 562              		.type	lv_vdb_flush, %function
 563              	lv_vdb_flush:
 564              	.LFB13:
  88:lvgl\lv_core/lv_vdb.c **** 
  89:lvgl\lv_core/lv_vdb.c **** /**
  90:lvgl\lv_core/lv_vdb.c ****  * Flush the content of the VDB
  91:lvgl\lv_core/lv_vdb.c ****  */
  92:lvgl\lv_core/lv_vdb.c **** void lv_vdb_flush(void)
  93:lvgl\lv_core/lv_vdb.c **** {
 565              		.loc 1 93 0
 566              		.cfi_startproc
 567              		@ args = 0, pretend = 0, frame = 8
 568              		@ frame_needed = 1, uses_anonymous_args = 0
 569 0000 90B5     		push	{r4, r7, lr}
 570              		.cfi_def_cfa_offset 12
 571              		.cfi_offset 4, -12
 572              		.cfi_offset 7, -8
 573              		.cfi_offset 14, -4
ARM GAS  C:\Users\Sava\AppData\Local\Temp\ccDmfGRl.s 			page 39


 574 0002 85B0     		sub	sp, sp, #20
 575              		.cfi_def_cfa_offset 32
 576 0004 02AF     		add	r7, sp, #8
 577              		.cfi_def_cfa 7, 24
  94:lvgl\lv_core/lv_vdb.c ****     lv_vdb_t * vdb_act = lv_vdb_get();
 578              		.loc 1 94 0
 579 0006 FFF7FEFF 		bl	lv_vdb_get
 580 000a 7860     		str	r0, [r7, #4]
  95:lvgl\lv_core/lv_vdb.c ****     if(!vdb_act) {
 581              		.loc 1 95 0
 582 000c 7B68     		ldr	r3, [r7, #4]
 583 000e 002B     		cmp	r3, #0
 584 0010 06D1     		bne	.L7
  96:lvgl\lv_core/lv_vdb.c ****         LV_LOG_WARN("Invalid VDB pointer");
 585              		.loc 1 96 0
 586 0012 114B     		ldr	r3, .L9
 587 0014 6022     		movs	r2, #96
 588 0016 1149     		ldr	r1, .L9+4
 589 0018 0220     		movs	r0, #2
 590 001a FFF7FEFF 		bl	lv_log_add
  97:lvgl\lv_core/lv_vdb.c ****         return;
 591              		.loc 1 97 0
 592 001e 18E0     		b	.L6
 593              	.L7:
  98:lvgl\lv_core/lv_vdb.c ****     }
  99:lvgl\lv_core/lv_vdb.c **** 
 100:lvgl\lv_core/lv_vdb.c ****     /*Don't start a new flush while the previous is not finished*/
 101:lvgl\lv_core/lv_vdb.c **** #if LV_VDB_DOUBLE
 102:lvgl\lv_core/lv_vdb.c ****     while(vdb_flushing);
 103:lvgl\lv_core/lv_vdb.c **** #endif  /*LV_VDB_DOUBLE*/
 104:lvgl\lv_core/lv_vdb.c **** 
 105:lvgl\lv_core/lv_vdb.c ****     vdb_flushing = true;
 594              		.loc 1 105 0
 595 0020 0F4B     		ldr	r3, .L9+8
 596 0022 0122     		movs	r2, #1
 597 0024 1A70     		strb	r2, [r3]
 106:lvgl\lv_core/lv_vdb.c **** 
 107:lvgl\lv_core/lv_vdb.c ****     /*Flush the rendered content to the display*/
 108:lvgl\lv_core/lv_vdb.c ****     lv_disp_flush(vdb_act->area.x1, vdb_act->area.y1, vdb_act->area.x2, vdb_act->area.y2, vdb_act->
 598              		.loc 1 108 0
 599 0026 7B68     		ldr	r3, [r7, #4]
 600 0028 B3F90030 		ldrsh	r3, [r3]
 601 002c 1846     		mov	r0, r3
 602 002e 7B68     		ldr	r3, [r7, #4]
 603 0030 B3F90230 		ldrsh	r3, [r3, #2]
 604 0034 1946     		mov	r1, r3
 605 0036 7B68     		ldr	r3, [r7, #4]
 606 0038 B3F90430 		ldrsh	r3, [r3, #4]
 607 003c 1A46     		mov	r2, r3
 608 003e 7B68     		ldr	r3, [r7, #4]
 609 0040 B3F90630 		ldrsh	r3, [r3, #6]
 610 0044 1C46     		mov	r4, r3
 611 0046 7B68     		ldr	r3, [r7, #4]
 612 0048 9B68     		ldr	r3, [r3, #8]
 613 004a 0093     		str	r3, [sp]
 614 004c 2346     		mov	r3, r4
 615 004e FFF7FEFF 		bl	lv_disp_flush
ARM GAS  C:\Users\Sava\AppData\Local\Temp\ccDmfGRl.s 			page 40


 616              	.L6:
 109:lvgl\lv_core/lv_vdb.c **** 
 110:lvgl\lv_core/lv_vdb.c **** 
 111:lvgl\lv_core/lv_vdb.c **** #if LV_VDB_DOUBLE
 112:lvgl\lv_core/lv_vdb.c ****     /*Make the other VDB active. The content of the current will be kept until the next flush*/
 113:lvgl\lv_core/lv_vdb.c ****     vdb_active++;
 114:lvgl\lv_core/lv_vdb.c ****     vdb_active &= 0x1;
 115:lvgl\lv_core/lv_vdb.c **** 
 116:lvgl\lv_core/lv_vdb.c ****     /*If the screen is transparent initialize it when the new VDB is selected*/
 117:lvgl\lv_core/lv_vdb.c **** #  if LV_COLOR_SCREEN_TRANSP
 118:lvgl\lv_core/lv_vdb.c ****         memset(vdb[vdb_active].buf, 0x00, LV_VDB_SIZE_IN_BYTES);
 119:lvgl\lv_core/lv_vdb.c **** #  endif  /*LV_COLOR_SCREEN_TRANSP*/
 120:lvgl\lv_core/lv_vdb.c **** 
 121:lvgl\lv_core/lv_vdb.c **** #endif  /*#if LV_VDB_DOUBLE*/
 122:lvgl\lv_core/lv_vdb.c **** 
 123:lvgl\lv_core/lv_vdb.c **** }
 617              		.loc 1 123 0
 618 0052 0C37     		adds	r7, r7, #12
 619              		.cfi_def_cfa_offset 12
 620 0054 BD46     		mov	sp, r7
 621              		.cfi_def_cfa_register 13
 622              		@ sp needed
 623 0056 90BD     		pop	{r4, r7, pc}
 624              	.L10:
 625              		.align	2
 626              	.L9:
 627 0058 00000000 		.word	.LC0
 628 005c 14000000 		.word	.LC1
 629 0060 00500000 		.word	vdb_flushing
 630              		.cfi_endproc
 631              	.LFE13:
 632              		.size	lv_vdb_flush, .-lv_vdb_flush
 633              		.section	.text.lv_vdb_set_adr,"ax",%progbits
 634              		.align	2
 635              		.global	lv_vdb_set_adr
 636              		.thumb
 637              		.thumb_func
 638              		.type	lv_vdb_set_adr, %function
 639              	lv_vdb_set_adr:
 640              	.LFB14:
 124:lvgl\lv_core/lv_vdb.c **** 
 125:lvgl\lv_core/lv_vdb.c **** /**
 126:lvgl\lv_core/lv_vdb.c ****  * Set the address of VDB buffer(s) manually. To use this set `LV_VDB_ADR` (and `LV_VDB2_ADR`) to `
 127:lvgl\lv_core/lv_vdb.c ****  * It should be called before `lv_init()`. The size of the buffer should be: `LV_VDB_SIZE_IN_BYTES`
 128:lvgl\lv_core/lv_vdb.c ****  * @param buf1 address of the VDB.
 129:lvgl\lv_core/lv_vdb.c ****  * @param buf2 address of the second buffer. `NULL` if `LV_VDB_DOUBLE  0`
 130:lvgl\lv_core/lv_vdb.c ****  */
 131:lvgl\lv_core/lv_vdb.c **** void lv_vdb_set_adr(void * buf1, void * buf2)
 132:lvgl\lv_core/lv_vdb.c **** {
 641              		.loc 1 132 0
 642              		.cfi_startproc
 643              		@ args = 0, pretend = 0, frame = 8
 644              		@ frame_needed = 1, uses_anonymous_args = 0
 645              		@ link register save eliminated.
 646 0000 80B4     		push	{r7}
 647              		.cfi_def_cfa_offset 4
 648              		.cfi_offset 7, -4
ARM GAS  C:\Users\Sava\AppData\Local\Temp\ccDmfGRl.s 			page 41


 649 0002 83B0     		sub	sp, sp, #12
 650              		.cfi_def_cfa_offset 16
 651 0004 00AF     		add	r7, sp, #0
 652              		.cfi_def_cfa_register 7
 653 0006 7860     		str	r0, [r7, #4]
 654 0008 3960     		str	r1, [r7]
 133:lvgl\lv_core/lv_vdb.c **** #if LV_VDB_DOUBLE == 0
 134:lvgl\lv_core/lv_vdb.c ****     (void) buf2;   /*unused*/
 135:lvgl\lv_core/lv_vdb.c ****     vdb.buf = buf1;
 655              		.loc 1 135 0
 656 000a 044A     		ldr	r2, .L12
 657 000c 7B68     		ldr	r3, [r7, #4]
 658 000e 9360     		str	r3, [r2, #8]
 136:lvgl\lv_core/lv_vdb.c **** #else
 137:lvgl\lv_core/lv_vdb.c ****     vdb[0].buf = buf1;
 138:lvgl\lv_core/lv_vdb.c ****     vdb[1].buf = buf2;
 139:lvgl\lv_core/lv_vdb.c **** #endif
 140:lvgl\lv_core/lv_vdb.c **** }
 659              		.loc 1 140 0
 660 0010 00BF     		nop
 661 0012 0C37     		adds	r7, r7, #12
 662              		.cfi_def_cfa_offset 4
 663 0014 BD46     		mov	sp, r7
 664              		.cfi_def_cfa_register 13
 665              		@ sp needed
 666 0016 80BC     		pop	{r7}
 667              		.cfi_restore 7
 668              		.cfi_def_cfa_offset 0
 669 0018 7047     		bx	lr
 670              	.L13:
 671 001a 00BF     		.align	2
 672              	.L12:
 673 001c 00000000 		.word	vdb
 674              		.cfi_endproc
 675              	.LFE14:
 676              		.size	lv_vdb_set_adr, .-lv_vdb_set_adr
 677              		.section	.text.lv_flush_ready,"ax",%progbits
 678              		.align	2
 679              		.global	lv_flush_ready
 680              		.thumb
 681              		.thumb_func
 682              		.type	lv_flush_ready, %function
 683              	lv_flush_ready:
 684              	.LFB15:
 141:lvgl\lv_core/lv_vdb.c **** 
 142:lvgl\lv_core/lv_vdb.c **** /**
 143:lvgl\lv_core/lv_vdb.c ****  * Call in the display driver's  'disp_flush' function when the flushing is finished
 144:lvgl\lv_core/lv_vdb.c ****  */
 145:lvgl\lv_core/lv_vdb.c **** LV_ATTRIBUTE_FLUSH_READY void lv_flush_ready(void)
 146:lvgl\lv_core/lv_vdb.c **** {
 685              		.loc 1 146 0
 686              		.cfi_startproc
 687              		@ args = 0, pretend = 0, frame = 0
 688              		@ frame_needed = 1, uses_anonymous_args = 0
 689              		@ link register save eliminated.
 690 0000 80B4     		push	{r7}
 691              		.cfi_def_cfa_offset 4
ARM GAS  C:\Users\Sava\AppData\Local\Temp\ccDmfGRl.s 			page 42


 692              		.cfi_offset 7, -4
 693 0002 00AF     		add	r7, sp, #0
 694              		.cfi_def_cfa_register 7
 147:lvgl\lv_core/lv_vdb.c ****     vdb_flushing = false;
 695              		.loc 1 147 0
 696 0004 034B     		ldr	r3, .L15
 697 0006 0022     		movs	r2, #0
 698 0008 1A70     		strb	r2, [r3]
 148:lvgl\lv_core/lv_vdb.c **** 
 149:lvgl\lv_core/lv_vdb.c ****     /*If the screen is transparent initialize it when the flushing is ready*/
 150:lvgl\lv_core/lv_vdb.c **** #if LV_VDB_DOUBLE == 0 && LV_COLOR_SCREEN_TRANSP
 151:lvgl\lv_core/lv_vdb.c ****     memset(vdb_buf, 0x00, LV_VDB_SIZE_IN_BYTES);
 152:lvgl\lv_core/lv_vdb.c **** #endif
 153:lvgl\lv_core/lv_vdb.c **** }
 699              		.loc 1 153 0
 700 000a 00BF     		nop
 701 000c BD46     		mov	sp, r7
 702              		.cfi_def_cfa_register 13
 703              		@ sp needed
 704 000e 80BC     		pop	{r7}
 705              		.cfi_restore 7
 706              		.cfi_def_cfa_offset 0
 707 0010 7047     		bx	lr
 708              	.L16:
 709 0012 00BF     		.align	2
 710              	.L15:
 711 0014 00500000 		.word	vdb_flushing
 712              		.cfi_endproc
 713              	.LFE15:
 714              		.size	lv_flush_ready, .-lv_flush_ready
 715              		.section	.text.lv_vdb_get_active,"ax",%progbits
 716              		.align	2
 717              		.global	lv_vdb_get_active
 718              		.thumb
 719              		.thumb_func
 720              		.type	lv_vdb_get_active, %function
 721              	lv_vdb_get_active:
 722              	.LFB16:
 154:lvgl\lv_core/lv_vdb.c **** 
 155:lvgl\lv_core/lv_vdb.c **** /**
 156:lvgl\lv_core/lv_vdb.c ****  * Get currently active VDB, where the drawing happens. Used with `LV_VDB_DOUBLE  1`
 157:lvgl\lv_core/lv_vdb.c ****  * @return pointer to the active VDB. If `LV_VDB_DOUBLE  0` give the single VDB
 158:lvgl\lv_core/lv_vdb.c ****  */
 159:lvgl\lv_core/lv_vdb.c **** lv_vdb_t * lv_vdb_get_active(void)
 160:lvgl\lv_core/lv_vdb.c **** {
 723              		.loc 1 160 0
 724              		.cfi_startproc
 725              		@ args = 0, pretend = 0, frame = 0
 726              		@ frame_needed = 1, uses_anonymous_args = 0
 727              		@ link register save eliminated.
 728 0000 80B4     		push	{r7}
 729              		.cfi_def_cfa_offset 4
 730              		.cfi_offset 7, -4
 731 0002 00AF     		add	r7, sp, #0
 732              		.cfi_def_cfa_register 7
 161:lvgl\lv_core/lv_vdb.c **** #if LV_VDB_DOUBLE == 0
 162:lvgl\lv_core/lv_vdb.c ****     return &vdb;
ARM GAS  C:\Users\Sava\AppData\Local\Temp\ccDmfGRl.s 			page 43


 733              		.loc 1 162 0
 734 0004 024B     		ldr	r3, .L19
 163:lvgl\lv_core/lv_vdb.c **** #else
 164:lvgl\lv_core/lv_vdb.c ****     return &vdb[vdb_active];
 165:lvgl\lv_core/lv_vdb.c **** #endif
 166:lvgl\lv_core/lv_vdb.c **** }
 735              		.loc 1 166 0
 736 0006 1846     		mov	r0, r3
 737 0008 BD46     		mov	sp, r7
 738              		.cfi_def_cfa_register 13
 739              		@ sp needed
 740 000a 80BC     		pop	{r7}
 741              		.cfi_restore 7
 742              		.cfi_def_cfa_offset 0
 743 000c 7047     		bx	lr
 744              	.L20:
 745 000e 00BF     		.align	2
 746              	.L19:
 747 0010 00000000 		.word	vdb
 748              		.cfi_endproc
 749              	.LFE16:
 750              		.size	lv_vdb_get_active, .-lv_vdb_get_active
 751              		.section	.text.lv_vdb_get_inactive,"ax",%progbits
 752              		.align	2
 753              		.global	lv_vdb_get_inactive
 754              		.thumb
 755              		.thumb_func
 756              		.type	lv_vdb_get_inactive, %function
 757              	lv_vdb_get_inactive:
 758              	.LFB17:
 167:lvgl\lv_core/lv_vdb.c **** 
 168:lvgl\lv_core/lv_vdb.c **** /**
 169:lvgl\lv_core/lv_vdb.c ****  * Get currently inactive VDB, which is being displayed or being flushed. Used with `LV_VDB_DOUBLE 
 170:lvgl\lv_core/lv_vdb.c ****  * @return pointer to the inactive VDB. If `LV_VDB_DOUBLE  0` give the single VDB
 171:lvgl\lv_core/lv_vdb.c ****  */
 172:lvgl\lv_core/lv_vdb.c **** lv_vdb_t * lv_vdb_get_inactive(void)
 173:lvgl\lv_core/lv_vdb.c **** {
 759              		.loc 1 173 0
 760              		.cfi_startproc
 761              		@ args = 0, pretend = 0, frame = 0
 762              		@ frame_needed = 1, uses_anonymous_args = 0
 763              		@ link register save eliminated.
 764 0000 80B4     		push	{r7}
 765              		.cfi_def_cfa_offset 4
 766              		.cfi_offset 7, -4
 767 0002 00AF     		add	r7, sp, #0
 768              		.cfi_def_cfa_register 7
 174:lvgl\lv_core/lv_vdb.c **** #if LV_VDB_DOUBLE == 0
 175:lvgl\lv_core/lv_vdb.c ****     return &vdb;
 769              		.loc 1 175 0
 770 0004 024B     		ldr	r3, .L23
 176:lvgl\lv_core/lv_vdb.c **** #else
 177:lvgl\lv_core/lv_vdb.c ****     return &vdb[(vdb_active + 1) & 0x1];
 178:lvgl\lv_core/lv_vdb.c **** #endif
 179:lvgl\lv_core/lv_vdb.c **** }
 771              		.loc 1 179 0
 772 0006 1846     		mov	r0, r3
ARM GAS  C:\Users\Sava\AppData\Local\Temp\ccDmfGRl.s 			page 44


 773 0008 BD46     		mov	sp, r7
 774              		.cfi_def_cfa_register 13
 775              		@ sp needed
 776 000a 80BC     		pop	{r7}
 777              		.cfi_restore 7
 778              		.cfi_def_cfa_offset 0
 779 000c 7047     		bx	lr
 780              	.L24:
 781 000e 00BF     		.align	2
 782              	.L23:
 783 0010 00000000 		.word	vdb
 784              		.cfi_endproc
 785              	.LFE17:
 786              		.size	lv_vdb_get_inactive, .-lv_vdb_get_inactive
 787              		.section	.text.lv_vdb_is_flushing,"ax",%progbits
 788              		.align	2
 789              		.global	lv_vdb_is_flushing
 790              		.thumb
 791              		.thumb_func
 792              		.type	lv_vdb_is_flushing, %function
 793              	lv_vdb_is_flushing:
 794              	.LFB18:
 180:lvgl\lv_core/lv_vdb.c **** 
 181:lvgl\lv_core/lv_vdb.c **** /**
 182:lvgl\lv_core/lv_vdb.c ****  * Whether the flushing is in progress or not
 183:lvgl\lv_core/lv_vdb.c ****  * @return true: flushing is in progress; false: flushing ready
 184:lvgl\lv_core/lv_vdb.c ****  */
 185:lvgl\lv_core/lv_vdb.c **** bool lv_vdb_is_flushing(void)
 186:lvgl\lv_core/lv_vdb.c **** {
 795              		.loc 1 186 0
 796              		.cfi_startproc
 797              		@ args = 0, pretend = 0, frame = 0
 798              		@ frame_needed = 1, uses_anonymous_args = 0
 799              		@ link register save eliminated.
 800 0000 80B4     		push	{r7}
 801              		.cfi_def_cfa_offset 4
 802              		.cfi_offset 7, -4
 803 0002 00AF     		add	r7, sp, #0
 804              		.cfi_def_cfa_register 7
 187:lvgl\lv_core/lv_vdb.c ****     return vdb_flushing;
 805              		.loc 1 187 0
 806 0004 034B     		ldr	r3, .L27
 807 0006 1B78     		ldrb	r3, [r3]
 808 0008 DBB2     		uxtb	r3, r3
 188:lvgl\lv_core/lv_vdb.c **** }
 809              		.loc 1 188 0
 810 000a 1846     		mov	r0, r3
 811 000c BD46     		mov	sp, r7
 812              		.cfi_def_cfa_register 13
 813              		@ sp needed
 814 000e 80BC     		pop	{r7}
 815              		.cfi_restore 7
 816              		.cfi_def_cfa_offset 0
 817 0010 7047     		bx	lr
 818              	.L28:
 819 0012 00BF     		.align	2
 820              	.L27:
ARM GAS  C:\Users\Sava\AppData\Local\Temp\ccDmfGRl.s 			page 45


 821 0014 00500000 		.word	vdb_flushing
 822              		.cfi_endproc
 823              	.LFE18:
 824              		.size	lv_vdb_is_flushing, .-lv_vdb_is_flushing
 825              		.text
 826              	.Letext0:
 827              		.file 2 "c:\\program files (x86)\\cypress\\psoc creator\\4.2\\psoc creator\\import\\gnu\\arm\\5.4.
 828              		.file 3 "c:\\program files (x86)\\cypress\\psoc creator\\4.2\\psoc creator\\import\\gnu\\arm\\5.4.
 829              		.file 4 "lvgl\\lv_core\\../lv_misc/lv_color.h"
 830              		.file 5 "lvgl\\lv_core\\../lv_misc/lv_area.h"
 831              		.file 6 "lvgl\\lv_core\\lv_vdb.h"